# SymbolsHelper-Confirmed: 0.112.0 amd64
libpolkit-qt-agent-1.so.1 libpolkit-qt-1-1 #MINVER#
* Build-Depends-Package: libpolkit-qt-1-dev
 _ZN9PolkitQt15Agent11AsyncResult12setCompletedEv@Base 0.99.0
 _ZN9PolkitQt15Agent11AsyncResult8setErrorERK7QString@Base 0.99.0
 _ZN9PolkitQt15Agent11AsyncResultC1EP19_GSimpleAsyncResult@Base 0.99.0
 _ZN9PolkitQt15Agent11AsyncResultC2EP19_GSimpleAsyncResult@Base 0.99.0
 _ZN9PolkitQt15Agent11AsyncResultD0Ev@Base 0.99.0
 _ZN9PolkitQt15Agent11AsyncResultD1Ev@Base 0.99.0
 _ZN9PolkitQt15Agent11AsyncResultD2Ev@Base 0.99.0
 _ZN9PolkitQt15Agent7Session11qt_metacallEN11QMetaObject4CallEiPPv@Base 0.99.0
 _ZN9PolkitQt15Agent7Session11qt_metacastEPKc@Base 0.99.0
 _ZN9PolkitQt15Agent7Session11setResponseERK7QString@Base 0.99.0
 _ZN9PolkitQt15Agent7Session16staticMetaObjectE@Base 0.99.0
 _ZN9PolkitQt15Agent7Session6cancelEv@Base 0.99.0
 _ZN9PolkitQt15Agent7Session6resultEv@Base 0.99.0
 _ZN9PolkitQt15Agent7Session7Private7requestEP19_PolkitAgentSessionPciPv@Base 0.99.0
 _ZN9PolkitQt15Agent7Session7Private8showInfoEP19_PolkitAgentSessionPcPv@Base 0.99.0
 _ZN9PolkitQt15Agent7Session7Private9completedEP19_PolkitAgentSessioniPv@Base 0.99.0
 _ZN9PolkitQt15Agent7Session7Private9showErrorEP19_PolkitAgentSessionPcPv@Base 0.99.0
 _ZN9PolkitQt15Agent7Session7PrivateD1Ev@Base 0.99.0
 _ZN9PolkitQt15Agent7Session7PrivateD2Ev@Base 0.99.0
 _ZN9PolkitQt15Agent7Session7requestERK7QStringb@Base 0.99.0
 _ZN9PolkitQt15Agent7Session8initiateEv@Base 0.99.0
 _ZN9PolkitQt15Agent7Session8showInfoERK7QString@Base 0.99.0
 _ZN9PolkitQt15Agent7Session9completedEb@Base 0.99.0
 _ZN9PolkitQt15Agent7Session9showErrorERK7QString@Base 0.99.0
 _ZN9PolkitQt15Agent7SessionC1EP19_PolkitAgentSessionP7QObject@Base 0.99.0
 _ZN9PolkitQt15Agent7SessionC1ERKNS_8IdentityERK7QStringPNS0_11AsyncResultEP7QObject@Base 0.99.0
 _ZN9PolkitQt15Agent7SessionC2EP19_PolkitAgentSessionP7QObject@Base 0.99.0
 _ZN9PolkitQt15Agent7SessionC2ERKNS_8IdentityERK7QStringPNS0_11AsyncResultEP7QObject@Base 0.99.0
 _ZN9PolkitQt15Agent7SessionD0Ev@Base 0.99.0
 _ZN9PolkitQt15Agent7SessionD1Ev@Base 0.99.0
 _ZN9PolkitQt15Agent7SessionD2Ev@Base 0.99.0
 _ZN9PolkitQt15Agent8Listener11qt_metacallEN11QMetaObject4CallEiPPv@Base 0.99.0
 _ZN9PolkitQt15Agent8Listener11qt_metacastEPKc@Base 0.99.0
 _ZN9PolkitQt15Agent8Listener16registerListenerERKNS_7SubjectERK7QString@Base 0.99.0
 _ZN9PolkitQt15Agent8Listener16staticMetaObjectE@Base 0.99.0
 _ZN9PolkitQt15Agent8Listener8listenerEv@Base 0.99.0
 _ZN9PolkitQt15Agent8ListenerC1EP20_PolkitAgentListenerP7QObject@Base 0.99.0
 _ZN9PolkitQt15Agent8ListenerC1EP7QObject@Base 0.99.0
 _ZN9PolkitQt15Agent8ListenerC2EP20_PolkitAgentListenerP7QObject@Base 0.99.0
 _ZN9PolkitQt15Agent8ListenerC2EP7QObject@Base 0.99.0
 _ZN9PolkitQt15Agent8ListenerD0Ev@Base 0.99.0
 _ZN9PolkitQt15Agent8ListenerD1Ev@Base 0.99.0
 _ZN9PolkitQt15Agent8ListenerD2Ev@Base 0.99.0
 _ZNK9PolkitQt15Agent7Session10metaObjectEv@Base 0.99.0
 _ZNK9PolkitQt15Agent8Listener10metaObjectEv@Base 0.99.0
 _ZTIN9PolkitQt15Agent11AsyncResultE@Base 0.99.0
 _ZTIN9PolkitQt15Agent7SessionE@Base 0.99.0
 _ZTIN9PolkitQt15Agent8ListenerE@Base 0.99.0
 _ZTSN9PolkitQt15Agent11AsyncResultE@Base 0.99.0
 _ZTSN9PolkitQt15Agent7SessionE@Base 0.99.0
 _ZTSN9PolkitQt15Agent8ListenerE@Base 0.99.0
 _ZTVN9PolkitQt15Agent11AsyncResultE@Base 0.99.0
 _ZTVN9PolkitQt15Agent7SessionE@Base 0.99.0
 _ZTVN9PolkitQt15Agent8ListenerE@Base 0.99.0
libpolkit-qt-core-1.so.1 libpolkit-qt-1-1 #MINVER#
* Build-Depends-Package: libpolkit-qt-1-dev
 _ZN9PolkitQt116UnixUserIdentity6setUidEj@Base 0.99.0
 _ZN9PolkitQt116UnixUserIdentityC1EP15_PolkitUnixUser@Base 0.99.0
 _ZN9PolkitQt116UnixUserIdentityC1ERK7QString@Base 0.99.0
 _ZN9PolkitQt116UnixUserIdentityC1Ej@Base 0.99.0
 _ZN9PolkitQt116UnixUserIdentityC1Ev@Base 0.99.0
 _ZN9PolkitQt116UnixUserIdentityC2EP15_PolkitUnixUser@Base 0.99.0
 _ZN9PolkitQt116UnixUserIdentityC2ERK7QString@Base 0.99.0
 _ZN9PolkitQt116UnixUserIdentityC2Ej@Base 0.99.0
 _ZN9PolkitQt116UnixUserIdentityC2Ev@Base 0.99.0
 _ZN9PolkitQt117ActionDescriptionC1EP24_PolkitActionDescription@Base 0.99.0
 _ZN9PolkitQt117ActionDescriptionC1ERKS0_@Base 0.99.0
 _ZN9PolkitQt117ActionDescriptionC1Ev@Base 0.99.0
 _ZN9PolkitQt117ActionDescriptionC2EP24_PolkitActionDescription@Base 0.99.0
 _ZN9PolkitQt117ActionDescriptionC2ERKS0_@Base 0.99.0
 _ZN9PolkitQt117ActionDescriptionC2Ev@Base 0.99.0
 _ZN9PolkitQt117ActionDescriptionD1Ev@Base 0.99.0
 _ZN9PolkitQt117ActionDescriptionD2Ev@Base 0.99.0
 _ZN9PolkitQt117ActionDescriptionaSERKS0_@Base 0.99.0
 _ZN9PolkitQt117UnixGroupIdentity6setGidEj@Base 0.99.0
 _ZN9PolkitQt117UnixGroupIdentityC1EP16_PolkitUnixGroup@Base 0.99.0
 _ZN9PolkitQt117UnixGroupIdentityC1ERK7QString@Base 0.99.0
 _ZN9PolkitQt117UnixGroupIdentityC1Ej@Base 0.99.0
 _ZN9PolkitQt117UnixGroupIdentityC1Ev@Base 0.99.0
 _ZN9PolkitQt117UnixGroupIdentityC2EP16_PolkitUnixGroup@Base 0.99.0
 _ZN9PolkitQt117UnixGroupIdentityC2ERK7QString@Base 0.99.0
 _ZN9PolkitQt117UnixGroupIdentityC2Ej@Base 0.99.0
 _ZN9PolkitQt117UnixGroupIdentityC2Ev@Base 0.99.0
 _ZN9PolkitQt118UnixProcessSubject6setPidEx@Base 0.99.0
 _ZN9PolkitQt118UnixProcessSubjectC1EP18_PolkitUnixProcess@Base 0.99.0
 _ZN9PolkitQt118UnixProcessSubjectC1Ex@Base 0.99.0
 _ZN9PolkitQt118UnixProcessSubjectC1Exy@Base 0.99.0
 _ZN9PolkitQt118UnixProcessSubjectC2EP18_PolkitUnixProcess@Base 0.99.0
 _ZN9PolkitQt118UnixProcessSubjectC2Ex@Base 0.99.0
 _ZN9PolkitQt118UnixProcessSubjectC2Exy@Base 0.99.0
 _ZN9PolkitQt118UnixSessionSubject12setSessionIdERK7QString@Base 0.99.0
 _ZN9PolkitQt118UnixSessionSubjectC1EP20_PolkitSystemBusName@Base 0.99.0
 _ZN9PolkitQt118UnixSessionSubjectC1ERK7QString@Base 0.99.0
 _ZN9PolkitQt118UnixSessionSubjectC1Ex@Base 0.99.0
 _ZN9PolkitQt118UnixSessionSubjectC2EP20_PolkitSystemBusName@Base 0.99.0
 _ZN9PolkitQt118UnixSessionSubjectC2ERK7QString@Base 0.99.0
 _ZN9PolkitQt118UnixSessionSubjectC2Ex@Base 0.99.0
 _ZN9PolkitQt120SystemBusNameSubject7setNameERK7QString@Base 0.99.0
 _ZN9PolkitQt120SystemBusNameSubjectC1EP20_PolkitSystemBusName@Base 0.99.0
 _ZN9PolkitQt120SystemBusNameSubjectC1ERK7QString@Base 0.99.0
 _ZN9PolkitQt120SystemBusNameSubjectC2EP20_PolkitSystemBusName@Base 0.99.0
 _ZN9PolkitQt120SystemBusNameSubjectC2ERK7QString@Base 0.99.0
 _ZN9PolkitQt122TemporaryAuthorization6revokeEv@Base 0.99.0
 _ZN9PolkitQt122TemporaryAuthorizationC1EP29_PolkitTemporaryAuthorization@Base 0.99.0
 _ZN9PolkitQt122TemporaryAuthorizationC1ERKS0_@Base 0.99.0
 _ZN9PolkitQt122TemporaryAuthorizationC1Ev@Base 0.99.0
 _ZN9PolkitQt122TemporaryAuthorizationC2EP29_PolkitTemporaryAuthorization@Base 0.99.0
 _ZN9PolkitQt122TemporaryAuthorizationC2ERKS0_@Base 0.99.0
 _ZN9PolkitQt122TemporaryAuthorizationC2Ev@Base 0.99.0
 _ZN9PolkitQt122TemporaryAuthorizationD1Ev@Base 0.99.0
 _ZN9PolkitQt122TemporaryAuthorizationD2Ev@Base 0.99.0
 _ZN9PolkitQt122TemporaryAuthorizationaSERKS0_@Base 0.99.0
 _ZN9PolkitQt17Details6insertERK7QStringS3_@Base 0.99.0
 _ZN9PolkitQt17DetailsC1EP14_PolkitDetails@Base 0.99.0
 _ZN9PolkitQt17DetailsC1Ev@Base 0.99.0
 _ZN9PolkitQt17DetailsC2EP14_PolkitDetails@Base 0.99.0
 _ZN9PolkitQt17DetailsC2Ev@Base 0.99.0
 _ZN9PolkitQt17DetailsD1Ev@Base 0.99.0
 _ZN9PolkitQt17DetailsD2Ev@Base 0.99.0
 _ZN9PolkitQt17DetailsaSERKS0_@Base 0.99.0
 _ZN9PolkitQt17Subject10fromStringERK7QString@Base 0.99.0
 _ZN9PolkitQt17Subject10setSubjectEP14_PolkitSubject@Base 0.99.0
 _ZN9PolkitQt17SubjectC1EP14_PolkitSubject@Base 0.99.0
 _ZN9PolkitQt17SubjectC1ERKS0_@Base 0.99.0
 _ZN9PolkitQt17SubjectC1Ev@Base 0.99.0
 _ZN9PolkitQt17SubjectC2EP14_PolkitSubject@Base 0.99.0
 _ZN9PolkitQt17SubjectC2ERKS0_@Base 0.99.0
 _ZN9PolkitQt17SubjectC2Ev@Base 0.99.0
 _ZN9PolkitQt17SubjectD1Ev@Base 0.99.0
 _ZN9PolkitQt17SubjectD2Ev@Base 0.99.0
 _ZN9PolkitQt17SubjectaSERKS0_@Base 0.99.0
 _ZN9PolkitQt18Identity10fromStringERK7QString@Base 0.99.0
 _ZN9PolkitQt18Identity11setIdentityEP15_PolkitIdentity@Base 0.99.0
 _ZN9PolkitQt18Identity18toUnixUserIdentityEv@Base 0.99.0
 _ZN9PolkitQt18Identity19toUnixGroupIdentityEv@Base 0.99.0
 _ZN9PolkitQt18IdentityC1EP15_PolkitIdentity@Base 0.99.0
 _ZN9PolkitQt18IdentityC1ERKS0_@Base 0.99.0
 _ZN9PolkitQt18IdentityC1Ev@Base 0.99.0
 _ZN9PolkitQt18IdentityC2EP15_PolkitIdentity@Base 0.99.0
 _ZN9PolkitQt18IdentityC2ERKS0_@Base 0.99.0
 _ZN9PolkitQt18IdentityC2Ev@Base 0.99.0
 _ZN9PolkitQt18IdentityD1Ev@Base 0.99.0
 _ZN9PolkitQt18IdentityD2Ev@Base 0.99.0
 _ZN9PolkitQt18IdentityaSERKS0_@Base 0.99.0
 _ZN9PolkitQt19Authority10clearErrorEv@Base 0.99.0
 _ZN9PolkitQt19Authority11qt_metacallEN11QMetaObject4CallEiPPv@Base 0.99.0
 _ZN9PolkitQt19Authority11qt_metacastEPKc@Base 0.99.0
 _ZN9PolkitQt19Authority13configChangedEv@Base 0.99.0
 _ZN9PolkitQt19Authority16enumerateActionsEv@Base 0.99.0
 _ZN9PolkitQt19Authority16staticMetaObjectE@Base 0.99.0
 _ZN9PolkitQt19Authority18checkAuthorizationERK7QStringRKNS_7SubjectE6QFlagsINS0_17AuthorizationFlagEE@Base 0.99.0
 _ZN9PolkitQt19Authority19consoleKitDBChangedEv@Base 0.99.0
 _ZN9PolkitQt19Authority20enumerateActionsSyncEv@Base 0.99.0
 _ZN9PolkitQt19Authority22checkAuthorizationSyncERK7QStringRKNS_7SubjectE6QFlagsINS0_17AuthorizationFlagEE@Base 0.99.0
 _ZN9PolkitQt19Authority22enumerateActionsCancelEv@Base 0.99.0
 _ZN9PolkitQt19Authority24checkAuthorizationCancelEv@Base 0.99.0
 _ZN9PolkitQt19Authority24enumerateActionsFinishedE5QListINS_17ActionDescriptionEE@Base 0.99.0
 _ZN9PolkitQt19Authority26checkAuthorizationFinishedENS0_6ResultE@Base 0.99.0
 _ZN9PolkitQt19Authority27authenticationAgentResponseERK7QStringRKNS_8IdentityE@Base 0.99.0
 _ZN9PolkitQt19Authority27registerAuthenticationAgentERKNS_7SubjectERK7QStringS6_@Base 0.99.0
 _ZN9PolkitQt19Authority28revokeTemporaryAuthorizationERK7QString@Base 0.99.0
 _ZN9PolkitQt19Authority29revokeTemporaryAuthorizationsERKNS_7SubjectE@Base 0.99.0
 _ZN9PolkitQt19Authority29unregisterAuthenticationAgentERKNS_7SubjectERK7QString@Base 0.99.0
 _ZN9PolkitQt19Authority31authenticationAgentResponseSyncERK7QStringRKNS_8IdentityE@Base 0.99.0
 _ZN9PolkitQt19Authority31registerAuthenticationAgentSyncERKNS_7SubjectERK7QStringS6_@Base 0.99.0
 _ZN9PolkitQt19Authority32revokeTemporaryAuthorizationSyncERK7QString@Base 0.99.0
 _ZN9PolkitQt19Authority33authenticationAgentResponseCancelEv@Base 0.99.0
 _ZN9PolkitQt19Authority33registerAuthenticationAgentCancelEv@Base 0.99.0
 _ZN9PolkitQt19Authority33revokeTemporaryAuthorizationsSyncERKNS_7SubjectE@Base 0.99.0
 _ZN9PolkitQt19Authority33unregisterAuthenticationAgentSyncERKNS_7SubjectERK7QString@Base 0.99.0
 _ZN9PolkitQt19Authority34revokeTemporaryAuthorizationCancelEv@Base 0.99.0
 _ZN9PolkitQt19Authority35authenticationAgentResponseFinishedEb@Base 0.99.0
 _ZN9PolkitQt19Authority35registerAuthenticationAgentFinishedEb@Base 0.99.0
 _ZN9PolkitQt19Authority35revokeTemporaryAuthorizationsCancelEv@Base 0.99.0
 _ZN9PolkitQt19Authority35unregisterAuthenticationAgentCancelEv@Base 0.99.0
 _ZN9PolkitQt19Authority36enumerateTemporaryAuthorizationsSyncERKNS_7SubjectE@Base 0.99.0
 _ZN9PolkitQt19Authority36revokeTemporaryAuthorizationFinishedEb@Base 0.99.0
 _ZN9PolkitQt19Authority37revokeTemporaryAuthorizationsFinishedEb@Base 0.99.0
 _ZN9PolkitQt19Authority37unregisterAuthenticationAgentFinishedEb@Base 0.99.0
 _ZN9PolkitQt19Authority38enumerateTemporaryAuthorizationsCancelEv@Base 0.99.0
 _ZN9PolkitQt19Authority40enumerateTemporaryAuthorizationsFinishedE5QListINS_22TemporaryAuthorizationEE@Base 0.99.0
 _ZN9PolkitQt19Authority7Private10dbusFilterERK12QDBusMessage@Base 0.99.0
 _ZN9PolkitQt19Authority7Private13dbusSignalAddERK7QStringS4_S4_S4_@Base 0.99.0
 _ZN9PolkitQt19Authority7Private17pk_config_changedEv@Base 0.99.0
 _ZN9PolkitQt19Authority7Private18seatSignalsConnectERK7QString@Base 0.99.0
 _ZN9PolkitQt19Authority7Private24enumerateActionsCallbackEP8_GObjectP13_GAsyncResultPv@Base 0.99.0
 _ZN9PolkitQt19Authority7Private26checkAuthorizationCallbackEP8_GObjectP13_GAsyncResultPv@Base 0.99.0
 _ZN9PolkitQt19Authority7Private35authenticationAgentResponseCallbackEP8_GObjectP13_GAsyncResultPv@Base 0.99.0
 _ZN9PolkitQt19Authority7Private35registerAuthenticationAgentCallbackEP8_GObjectP13_GAsyncResultPv@Base 0.99.0
 _ZN9PolkitQt19Authority7Private36revokeTemporaryAuthorizationCallbackEP8_GObjectP13_GAsyncResultPv@Base 0.99.0
 _ZN9PolkitQt19Authority7Private37revokeTemporaryAuthorizationsCallbackEP8_GObjectP13_GAsyncResultPv@Base 0.99.0
 _ZN9PolkitQt19Authority7Private37unregisterAuthenticationAgentCallbackEP8_GObjectP13_GAsyncResultPv@Base 0.99.0
 _ZN9PolkitQt19Authority7Private40enumerateTemporaryAuthorizationsCallbackEP8_GObjectP13_GAsyncResultPv@Base 0.99.0
 _ZN9PolkitQt19Authority7Private4initEv@Base 0.99.0
 _ZN9PolkitQt19Authority7Private8setErrorENS0_9ErrorCodeERK7QStringb@Base 0.99.0
 _ZN9PolkitQt19Authority7PrivateD1Ev@Base 0.99.0
 _ZN9PolkitQt19Authority7PrivateD2Ev@Base 0.99.0
 _ZN9PolkitQt19Authority8instanceEP16_PolkitAuthority@Base 0.99.0
 _ZN9PolkitQt19AuthorityC1EP16_PolkitAuthorityP7QObject@Base 0.99.0
 _ZN9PolkitQt19AuthorityC2EP16_PolkitAuthorityP7QObject@Base 0.99.0
 _ZN9PolkitQt19AuthorityD0Ev@Base 0.99.0
 _ZN9PolkitQt19AuthorityD1Ev@Base 0.99.0
 _ZN9PolkitQt19AuthorityD2Ev@Base 0.99.0
 _ZNK9PolkitQt116UnixUserIdentity3uidEv@Base 0.99.0
 _ZNK9PolkitQt117ActionDescription10vendorNameEv@Base 0.99.0
 _ZNK9PolkitQt117ActionDescription11descriptionEv@Base 0.99.0
 _ZNK9PolkitQt117ActionDescription11implicitAnyEv@Base 0.99.0
 _ZNK9PolkitQt117ActionDescription14implicitActiveEv@Base 0.99.0
 _ZNK9PolkitQt117ActionDescription16implicitInactiveEv@Base 0.99.0
 _ZNK9PolkitQt117ActionDescription7messageEv@Base 0.99.0
 _ZNK9PolkitQt117ActionDescription8actionIdEv@Base 0.99.0
 _ZNK9PolkitQt117ActionDescription8iconNameEv@Base 0.99.0
 _ZNK9PolkitQt117ActionDescription9vendorUrlEv@Base 0.99.0
 _ZNK9PolkitQt117UnixGroupIdentity3gidEv@Base 0.99.0
 _ZNK9PolkitQt118UnixProcessSubject3pidEv@Base 0.99.0
 _ZNK9PolkitQt118UnixProcessSubject3uidEv@Base 0.112.0
 _ZNK9PolkitQt118UnixProcessSubject9startTimeEv@Base 0.99.0
 _ZNK9PolkitQt118UnixSessionSubject9sessionIdEv@Base 0.99.0
 _ZNK9PolkitQt120SystemBusNameSubject4nameEv@Base 0.99.0
 _ZNK9PolkitQt122TemporaryAuthorization10obtainedAtEv@Base 0.99.0
 _ZNK9PolkitQt122TemporaryAuthorization14expirationTimeEv@Base 0.99.0
 _ZNK9PolkitQt122TemporaryAuthorization2idEv@Base 0.99.0
 _ZNK9PolkitQt122TemporaryAuthorization7subjectEv@Base 0.99.0
 _ZNK9PolkitQt122TemporaryAuthorization8actionIdEv@Base 0.99.0
 _ZNK9PolkitQt17Details4keysEv@Base 0.99.0
 _ZNK9PolkitQt17Details6lookupERK7QString@Base 0.99.0
 _ZNK9PolkitQt17Subject7isValidEv@Base 0.99.0
 _ZNK9PolkitQt17Subject7subjectEv@Base 0.99.0
 _ZNK9PolkitQt17Subject8toStringEv@Base 0.99.0
 _ZNK9PolkitQt18Identity7isValidEv@Base 0.99.0
 _ZNK9PolkitQt18Identity8identityEv@Base 0.99.0
 _ZNK9PolkitQt18Identity8toStringEv@Base 0.99.0
 _ZNK9PolkitQt19Authority10metaObjectEv@Base 0.99.0
 _ZNK9PolkitQt19Authority12errorDetailsEv@Base 0.99.0
 _ZNK9PolkitQt19Authority15polkitAuthorityEv@Base 0.99.0
 _ZNK9PolkitQt19Authority8hasErrorEv@Base 0.99.0
 _ZNK9PolkitQt19Authority9lastErrorEv@Base 0.99.0
 _ZTIN9PolkitQt117ActionDescription4DataE@Base 0.99.0
 _ZTIN9PolkitQt19AuthorityE@Base 0.99.0
 _ZTSN9PolkitQt117ActionDescription4DataE@Base 0.99.0
 _ZTSN9PolkitQt19AuthorityE@Base 0.99.0
 _ZTVN9PolkitQt117ActionDescription4DataE@Base 0.99.0
 _ZTVN9PolkitQt19AuthorityE@Base 0.99.0
libpolkit-qt-gui-1.so.1 libpolkit-qt-1-1 #MINVER#
* Build-Depends-Package: libpolkit-qt-1-dev
 _ZN9PolkitQt13Gui12ActionButton11qt_metacallEN11QMetaObject4CallEiPPv@Base 0.99.0
 _ZN9PolkitQt13Gui12ActionButton11qt_metacastEPKc@Base 0.99.0
 _ZN9PolkitQt13Gui12ActionButton16staticMetaObjectE@Base 0.99.0
 _ZN9PolkitQt13Gui12ActionButton7clickedEP15QAbstractButtonb@Base 0.99.0
 _ZN9PolkitQt13Gui12ActionButton8activateEv@Base 0.99.0
 _ZN9PolkitQt13Gui12ActionButton9setButtonEP15QAbstractButton@Base 0.99.0
 _ZN9PolkitQt13Gui12ActionButtonC1EP15QAbstractButtonRK7QStringP7QObject@Base 0.99.0
 _ZN9PolkitQt13Gui12ActionButtonC1ERNS0_19ActionButtonPrivateERK7QStringP7QObject@Base 0.99.0
 _ZN9PolkitQt13Gui12ActionButtonC2EP15QAbstractButtonRK7QStringP7QObject@Base 0.99.0
 _ZN9PolkitQt13Gui12ActionButtonC2ERNS0_19ActionButtonPrivateERK7QStringP7QObject@Base 0.99.0
 _ZN9PolkitQt13Gui12ActionButtonD0Ev@Base 0.99.0
 _ZN9PolkitQt13Gui12ActionButtonD1Ev@Base 0.99.0
 _ZN9PolkitQt13Gui12ActionButtonD2Ev@Base 0.99.0
 _ZN9PolkitQt13Gui6Action10authorizedEv@Base 0.99.0
 _ZN9PolkitQt13Gui6Action10setCheckedEb@Base 0.99.0
 _ZN9PolkitQt13Gui6Action10setEnabledEb6QFlagsINS1_5StateEE@Base 0.99.0
 _ZN9PolkitQt13Gui6Action10setToolTipERK7QString6QFlagsINS1_5StateEE@Base 0.99.0
 _ZN9PolkitQt13Gui6Action10setVisibleEb6QFlagsINS1_5StateEE@Base 0.99.0
 _ZN9PolkitQt13Gui6Action11dataChangedEv@Base 0.99.0
 _ZN9PolkitQt13Gui6Action11qt_metacallEN11QMetaObject4CallEiPPv@Base 0.99.0
 _ZN9PolkitQt13Gui6Action11qt_metacastEPKc@Base 0.99.0
 _ZN9PolkitQt13Gui6Action12setTargetPIDEx@Base 0.99.0
 _ZN9PolkitQt13Gui6Action12setWhatsThisERK7QString6QFlagsINS1_5StateEE@Base 0.99.0
 _ZN9PolkitQt13Gui6Action15setPolkitActionERK7QString@Base 0.99.0
 _ZN9PolkitQt13Gui6Action16staticMetaObjectE@Base 0.99.0
 _ZN9PolkitQt13Gui6Action6revokeEv@Base 0.99.0
 _ZN9PolkitQt13Gui6Action7Private12updateActionEv@Base 0.99.0
 _ZN9PolkitQt13Gui6Action7Private13configChangedEv@Base 0.99.0
 _ZN9PolkitQt13Gui6Action7Private15computePkResultEv@Base 0.99.0
 _ZN9PolkitQt13Gui6Action7PrivateC1EPS1_@Base 0.99.0
 _ZN9PolkitQt13Gui6Action7PrivateC2EPS1_@Base 0.99.0
 _ZN9PolkitQt13Gui6Action7setIconERK5QIcon6QFlagsINS1_5StateEE@Base 0.99.0
 _ZN9PolkitQt13Gui6Action7setTextERK7QString6QFlagsINS1_5StateEE@Base 0.99.0
 _ZN9PolkitQt13Gui6Action8activateEv@Base 0.99.0
 _ZN9PolkitQt13Gui6ActionC1ERK7QStringP7QObject@Base 0.99.0
 _ZN9PolkitQt13Gui6ActionC2ERK7QStringP7QObject@Base 0.99.0
 _ZN9PolkitQt13Gui6ActionD0Ev@Base 0.99.0
 _ZN9PolkitQt13Gui6ActionD1Ev@Base 0.99.0
 _ZN9PolkitQt13Gui6ActionD2Ev@Base 0.99.0
 _ZNK9PolkitQt13Gui12ActionButton10metaObjectEv@Base 0.99.0
 _ZNK9PolkitQt13Gui12ActionButton6buttonEv@Base 0.99.0
 _ZNK9PolkitQt13Gui6Action10metaObjectEv@Base 0.99.0
 _ZNK9PolkitQt13Gui6Action2isERK7QString@Base 0.99.0
 _ZNK9PolkitQt13Gui6Action4iconENS1_5StateE@Base 0.99.0
 _ZNK9PolkitQt13Gui6Action4textENS1_5StateE@Base 0.99.0
 _ZNK9PolkitQt13Gui6Action7toolTipENS1_5StateE@Base 0.99.0
 _ZNK9PolkitQt13Gui6Action8actionIdEv@Base 0.99.0
 _ZNK9PolkitQt13Gui6Action9isAllowedEv@Base 0.99.0
 _ZNK9PolkitQt13Gui6Action9isEnabledENS1_5StateE@Base 0.99.0
 _ZNK9PolkitQt13Gui6Action9isVisibleENS1_5StateE@Base 0.99.0
 _ZNK9PolkitQt13Gui6Action9targetPIDEv@Base 0.99.0
 _ZNK9PolkitQt13Gui6Action9whatsThisENS1_5StateE@Base 0.99.0
 _ZTIN9PolkitQt13Gui12ActionButtonE@Base 0.99.0
 _ZTIN9PolkitQt13Gui6ActionE@Base 0.99.0
 _ZTSN9PolkitQt13Gui12ActionButtonE@Base 0.99.0
 _ZTSN9PolkitQt13Gui6ActionE@Base 0.99.0
 _ZTVN9PolkitQt13Gui12ActionButtonE@Base 0.99.0
 _ZTVN9PolkitQt13Gui6ActionE@Base 0.99.0
