# SymbolsHelper-Confirmed: 5.4.1 amd64
libQt5Qml.so.5 libqt5qml5 #MINVER#
| libqt5qml5 #MINVER#, qtdeclarative-abi-5-4-1
 _Z10qmlContextPK7QObject@Base 5.0.2
 _Z16qmlProtectModulePKci@Base 5.2.0~beta1
 _Z18QQml_colorProviderv@Base 5.0.2
 _Z18qmlExecuteDeferredP7QObject@Base 5.0.2
 _Z19QQml_setGuiProviderP15QQmlGuiProvider@Base 5.0.2 1
 _Z20qmlRegisterBaseTypesPKcii@Base 5.0.2
 _Z21QQml_setColorProviderP17QQmlColorProvider@Base 5.0.2 1
 _Z25QQml_addValueTypeProviderP21QQmlValueTypeProvider@Base 5.0.2 1
 _Z25qmlClearTypeRegistrationsv@Base 5.1.0
 _Z27qmlAttachedPropertiesObjectPiPK7QObjectPK11QMetaObjectb@Base 5.0.2
 _Z27qmlRegisterTypeNotAvailablePKciiS0_RK7QString@Base 5.0.2
 _Z28QQml_removeValueTypeProviderP21QQmlValueTypeProvider@Base 5.1.0 1
 _Z31qmlAttachedPropertiesObjectByIdiPK7QObjectb@Base 5.0.2
 _Z9qmlEnginePK7QObject@Base 5.0.2
 _ZGVZN9QMetaType17registerConverterI8QJSValue11QStringListPFS2_RKS1_EEEbT1_E1f@Base 5.4.0
 _ZGVZN9QMetaType17registerConverterI8QJSValue4QMapI7QString8QVariantEPFS5_RKS1_EEEbT1_E1f@Base 5.4.0
 _ZGVZN9QMetaType17registerConverterI8QJSValue5QListI8QVariantEPFS4_RKS1_EEEbT1_E1f@Base 5.4.0
 (optional=inline)_ZN10QByteArray7reserveEi@Base 5.0.2
 _ZN10QQmlBundle11addMetaLinkERK7QStringS2_RK10QByteArray@Base 5.0.2 1
 _ZN10QQmlBundle14isBundleHeaderEPKci@Base 5.0.2 1
 _ZN10QQmlBundle15findInsertPointEjPi@Base 5.0.2 1
 _ZN10QQmlBundle18bundleHeaderLengthEv@Base 5.0.2 1
 _ZN10QQmlBundle3addERK7QString@Base 5.0.2 1
 _ZN10QQmlBundle3addERK7QStringS2_@Base 5.0.2 1
 _ZN10QQmlBundle4openE6QFlagsIN9QIODevice12OpenModeFlagEE@Base 5.0.2 1
 _ZN10QQmlBundle5closeEv@Base 5.0.2 1
 _ZN10QQmlBundle6removeEPKNS_9FileEntryE@Base 5.0.2 1
 _ZN10QQmlBundleC1ERK7QString@Base 5.0.2 1
 _ZN10QQmlBundleC2ERK7QString@Base 5.0.2 1
 _ZN10QQmlBundleD1Ev@Base 5.0.2 1
 _ZN10QQmlBundleD2Ev@Base 5.0.2 1
 _ZN10QQmlEngine10setBaseUrlERK4QUrl@Base 5.0.2
 _ZN10QQmlEngine11qt_metacallEN11QMetaObject4CallEiPPv@Base 5.0.2
 _ZN10QQmlEngine11qt_metacastEPKc@Base 5.0.2
 _ZN10QQmlEngine12importPluginERK7QStringS2_P5QListI9QQmlErrorE@Base 5.0.2
 _ZN10QQmlEngine13addImportPathERK7QString@Base 5.0.2
 _ZN10QQmlEngine13addPluginPathERK7QString@Base 5.0.2
 _ZN10QQmlEngine14addNamedBundleERK7QStringS2_@Base 5.0.2
 _ZN10QQmlEngine15objectOwnershipEP7QObject@Base 5.0.2
 _ZN10QQmlEngine16addImageProviderERK7QStringP21QQmlImageProviderBase@Base 5.0.2
 _ZN10QQmlEngine16contextForObjectEPK7QObject@Base 5.0.2
 _ZN10QQmlEngine16staticMetaObjectE@Base 5.0.2
 _ZN10QQmlEngine17setImportPathListERK11QStringList@Base 5.0.2
 _ZN10QQmlEngine17setPluginPathListERK11QStringList@Base 5.0.2
 _ZN10QQmlEngine17setUrlInterceptorEP26QQmlAbstractUrlInterceptor@Base 5.1.0
 _ZN10QQmlEngine18setObjectOwnershipEP7QObjectNS_15ObjectOwnershipE@Base 5.0.2
 _ZN10QQmlEngine18trimComponentCacheEv@Base 5.0.2
 _ZN10QQmlEngine19clearComponentCacheEv@Base 5.0.2
 _ZN10QQmlEngine19removeImageProviderERK7QString@Base 5.0.2
 _ZN10QQmlEngine19setContextForObjectEP7QObjectP11QQmlContext@Base 5.0.2
 _ZN10QQmlEngine21setOfflineStoragePathERK7QString@Base 5.0.2
 _ZN10QQmlEngine23setIncubationControllerEP24QQmlIncubationController@Base 5.0.2
 _ZN10QQmlEngine30setNetworkAccessManagerFactoryEP31QQmlNetworkAccessManagerFactory@Base 5.0.2
 _ZN10QQmlEngine32setOutputWarningsToStandardErrorEb@Base 5.0.2
 _ZN10QQmlEngine4quitEv@Base 5.0.2
 _ZN10QQmlEngine5eventEP6QEvent@Base 5.0.2
 _ZN10QQmlEngine8warningsERK5QListI9QQmlErrorE@Base 5.0.2
 _ZN10QQmlEngineC1EP7QObject@Base 5.0.2
 _ZN10QQmlEngineC1ER17QQmlEnginePrivateP7QObject@Base 5.1.0 1
 _ZN10QQmlEngineC2EP7QObject@Base 5.0.2
 _ZN10QQmlEngineC2ER17QQmlEnginePrivateP7QObject@Base 5.1.0 1
 _ZN10QQmlEngineD0Ev@Base 5.0.2
 _ZN10QQmlEngineD1Ev@Base 5.0.2
 _ZN10QQmlEngineD2Ev@Base 5.0.2
 _ZN11QQmlBinding10expressionEPK19QQmlAbstractBinding@Base 5.0.2 1
 _ZN11QQmlBinding10setEnabledEP19QQmlAbstractBindingb6QFlagsIN19QQmlPropertyPrivate9WriteFlagEE@Base 5.0.2 1
 _ZN11QQmlBinding10setEnabledEb6QFlagsIN19QQmlPropertyPrivate9WriteFlagEE@Base 5.0.2 1
 _ZN11QQmlBinding13propertyIndexEPK19QQmlAbstractBinding@Base 5.0.2 1
 _ZN11QQmlBinding15retargetBindingEP19QQmlAbstractBindingP7QObjecti@Base 5.0.2 1
 _ZN11QQmlBinding15retargetBindingEP7QObjecti@Base 5.0.2 1
 _ZN11QQmlBinding17expressionChangedEP24QQmlJavaScriptExpression@Base 5.0.2 1
 _ZN11QQmlBinding20expressionIdentifierEP24QQmlJavaScriptExpression@Base 5.0.2 1
 _ZN11QQmlBinding23setNotifyOnValueChangedEb@Base 5.0.2 1
 _ZN11QQmlBinding6objectEPK19QQmlAbstractBinding@Base 5.0.2 1
 _ZN11QQmlBinding6updateE6QFlagsIN19QQmlPropertyPrivate9WriteFlagEE@Base 5.0.2 1
 _ZN11QQmlBinding6updateEP19QQmlAbstractBinding6QFlagsIN19QQmlPropertyPrivate9WriteFlagEE@Base 5.0.2 1
 _ZN11QQmlBinding7InvalidE@Base 5.0.2 1
 _ZN11QQmlBinding7refreshEv@Base 5.0.2 1
 _ZN11QQmlBinding8evaluateEv@Base 5.0.2 1
 _ZN11QQmlBinding9setTargetEP7QObjectRK16QQmlPropertyDataP15QQmlContextData@Base 5.0.2 1
 _ZN11QQmlBinding9setTargetERK12QQmlProperty@Base 5.0.2 1
 _ZN11QQmlBindingC1EN3QV48ValueRefEP7QObjectP15QQmlContextData@Base 5.3.0 1
 _ZN11QQmlBindingC1ERK16QQmlScriptStringP7QObjectP11QQmlContext@Base 5.0.2 1
 _ZN11QQmlBindingC1ERK7QStringP7QObjectP11QQmlContext@Base 5.0.2 1
 _ZN11QQmlBindingC1ERK7QStringP7QObjectP15QQmlContextData@Base 5.0.2 1
 _ZN11QQmlBindingC1ERK7QStringP7QObjectP15QQmlContextDataS2_tt@Base 5.2.0~beta1 1
 _ZN11QQmlBindingC2EN3QV48ValueRefEP7QObjectP15QQmlContextData@Base 5.3.0 1
 _ZN11QQmlBindingC2ERK16QQmlScriptStringP7QObjectP11QQmlContext@Base 5.0.2 1
 _ZN11QQmlBindingC2ERK7QStringP7QObjectP11QQmlContext@Base 5.0.2 1
 _ZN11QQmlBindingC2ERK7QStringP7QObjectP15QQmlContextData@Base 5.0.2 1
 _ZN11QQmlBindingC2ERK7QStringP7QObjectP15QQmlContextDataS2_tt@Base 5.2.0~beta1 1
 _ZN11QQmlBindingD0Ev@Base 5.0.2 1
 _ZN11QQmlBindingD1Ev@Base 5.0.2 1
 _ZN11QQmlBindingD2Ev@Base 5.0.2 1
 _ZN11QQmlCleanup11addToEngineEP10QQmlEngine@Base 5.0.2 1
 _ZN11QQmlCleanupC1EP10QQmlEngine@Base 5.0.2 1
 _ZN11QQmlCleanupC1Ev@Base 5.0.2 1
 _ZN11QQmlCleanupC2EP10QQmlEngine@Base 5.0.2 1
 _ZN11QQmlCleanupC2Ev@Base 5.0.2 1
 _ZN11QQmlCleanupD0Ev@Base 5.0.2 1
 _ZN11QQmlCleanupD1Ev@Base 5.0.2 1
 _ZN11QQmlCleanupD2Ev@Base 5.0.2 1
 _ZN11QQmlContext10setBaseUrlERK4QUrl@Base 5.0.2
 _ZN11QQmlContext11qt_metacallEN11QMetaObject4CallEiPPv@Base 5.0.2
 _ZN11QQmlContext11qt_metacastEPKc@Base 5.0.2
 _ZN11QQmlContext11resolvedUrlERK4QUrl@Base 5.0.2
 _ZN11QQmlContext16setContextObjectEP7QObject@Base 5.0.2
 _ZN11QQmlContext16staticMetaObjectE@Base 5.0.2
 _ZN11QQmlContext18setContextPropertyERK7QStringP7QObject@Base 5.0.2
 _ZN11QQmlContext18setContextPropertyERK7QStringRK8QVariant@Base 5.0.2
 _ZN11QQmlContextC1EP10QQmlEngineP7QObject@Base 5.0.2
 _ZN11QQmlContextC1EP10QQmlEngineb@Base 5.0.2
 _ZN11QQmlContextC1EP15QQmlContextData@Base 5.0.2 1
 _ZN11QQmlContextC1EPS_P7QObject@Base 5.0.2
 _ZN11QQmlContextC2EP10QQmlEngineP7QObject@Base 5.0.2
 _ZN11QQmlContextC2EP10QQmlEngineb@Base 5.0.2
 _ZN11QQmlContextC2EP15QQmlContextData@Base 5.0.2 1
 _ZN11QQmlContextC2EPS_P7QObject@Base 5.0.2
 _ZN11QQmlContextD0Ev@Base 5.0.2
 _ZN11QQmlContextD1Ev@Base 5.0.2
 _ZN11QQmlContextD2Ev@Base 5.0.2
 _ZN11QQmlImports10setBaseUrlERK4QUrlRK7QString@Base 5.0.2 1
 _ZN11QQmlImports12locateQmldirEP18QQmlImportDatabaseRK7QStringiiPS2_S5_@Base 5.0.2 1
 _ZN11QQmlImports13addFileImportEP18QQmlImportDatabaseRK7QStringS4_iibP5QListI9QQmlErrorE@Base 5.0.2 1
 _ZN11QQmlImports13versionStringEiiNS_13ImportVersionE@Base 5.2.0~beta1 1
 _ZN11QQmlImports16addLibraryImportEP18QQmlImportDatabaseRK7QStringS4_iiS4_S4_bP5QListI9QQmlErrorE@Base 5.0.2 1
 _ZN11QQmlImports17addImplicitImportEP18QQmlImportDatabaseP5QListI9QQmlErrorE@Base 5.0.2 1
 _ZN11QQmlImports18completeQmldirPathERK7QStringS2_iiNS_13ImportVersionE@Base 5.0.2 1
 _ZN11QQmlImports19updateQmldirContentEP18QQmlImportDatabaseRK7QStringS4_S4_S4_P5QListI9QQmlErrorE@Base 5.0.2 1
 _ZN11QQmlImports26setDesignerSupportRequiredEb@Base 5.4.0 1
 _ZN11QQmlImports7isLocalERK4QUrl@Base 5.0.2 1
 _ZN11QQmlImports7isLocalERK7QString@Base 5.0.2 1
 _ZN11QQmlImportsC1EP14QQmlTypeLoader@Base 5.0.2 1
 _ZN11QQmlImportsC1ERKS_@Base 5.0.2 1
 _ZN11QQmlImportsC2EP14QQmlTypeLoader@Base 5.0.2 1
 _ZN11QQmlImportsC2ERKS_@Base 5.0.2 1
 _ZN11QQmlImportsD1Ev@Base 5.0.2 1
 _ZN11QQmlImportsD2Ev@Base 5.0.2 1
 _ZN11QQmlImportsaSERKS_@Base 5.0.2 1
 _ZN11QQmlPrivate11qmlregisterENS_16RegistrationTypeEPv@Base 5.0.2
 _ZN11QQmlPrivate30qdeclarativeelement_destructorEP7QObject@Base 5.0.2
 _ZN12QQmlDataBlob12networkErrorEN13QNetworkReply12NetworkErrorE@Base 5.0.2 1
 _ZN12QQmlDataBlob12startLoadingEP14QQmlDataLoader@Base 5.1.0 1
 _ZN12QQmlDataBlob13addDependencyEPS_@Base 5.0.2 1
 _ZN12QQmlDataBlob14notifyCompleteEPS_@Base 5.0.2 1
 _ZN12QQmlDataBlob15dependencyErrorEPS_@Base 5.0.2 1
 _ZN12QQmlDataBlob18dependencyCompleteEPS_@Base 5.0.2 1
 _ZN12QQmlDataBlob19allDependenciesDoneEv@Base 5.0.2 1
 _ZN12QQmlDataBlob19cancelAllWaitingForEv@Base 5.0.2 1
 _ZN12QQmlDataBlob20notifyAllWaitingOnMeEv@Base 5.0.2 1
 _ZN12QQmlDataBlob23downloadProgressChangedEd@Base 5.2.0 1
 _ZN12QQmlDataBlob4doneEv@Base 5.0.2 1
 _ZN12QQmlDataBlob7tryDoneEv@Base 5.0.2 1
 _ZN12QQmlDataBlob8setErrorERK5QListI9QQmlErrorE@Base 5.0.2 1
 _ZN12QQmlDataBlob8setErrorERK9QQmlError@Base 5.0.2 1
 _ZN12QQmlDataBlob9completedEv@Base 5.0.2 1
 _ZN12QQmlDataBlobC1ERK4QUrlNS_4TypeE@Base 5.0.2 1
 _ZN12QQmlDataBlobC2ERK4QUrlNS_4TypeE@Base 5.0.2 1
 _ZN12QQmlDataBlobD0Ev@Base 5.0.2 1
 _ZN12QQmlDataBlobD1Ev@Base 5.0.2 1
 _ZN12QQmlDataBlobD2Ev@Base 5.0.2 1
 _ZN12QQmlMetaType10typeModuleERK7QStringi@Base 5.0.2 1
 _ZN12QQmlMetaType11isAnyModuleERK7QString@Base 5.0.2 1
 _ZN12QQmlMetaType11isInterfaceEi@Base 5.0.2 1
 _ZN12QQmlMetaType11qmlAllTypesEv@Base 5.3.0 1
 _ZN12QQmlMetaType12interfaceIIdEi@Base 5.0.2 1
 _ZN12QQmlMetaType12qmlTypeNamesEv@Base 5.0.2 1
 _ZN12QQmlMetaType12typeCategoryEi@Base 5.0.2 1
 _ZN12QQmlMetaType13defaultMethodEP7QObject@Base 5.0.2 1
 _ZN12QQmlMetaType13defaultMethodEPK11QMetaObject@Base 5.0.2 1
 _ZN12QQmlMetaType14isLockedModuleERK7QStringi@Base 5.2.0~beta1 1
 _ZN12QQmlMetaType15defaultPropertyEP7QObject@Base 5.0.2 1
 _ZN12QQmlMetaType15defaultPropertyEPK11QMetaObject@Base 5.0.2 1
 _ZN12QQmlMetaType15parentFunctionsEv@Base 5.0.2 1
 _ZN12QQmlMetaType16protectNamespaceERK7QString@Base 5.0.2 1
 _ZN12QQmlMetaType16qmlTypeFromIndexEi@Base 5.1.0 1
 _ZN12QQmlMetaType17qmlSingletonTypesEv@Base 5.0.2 1
 _ZN12QQmlMetaType20typeRegistrationLockEv@Base 5.0.2 1
 _ZN12QQmlMetaType21customStringConverterEi@Base 5.0.2 1
 _ZN12QQmlMetaType24attachedPropertiesFuncIdEPK11QMetaObject@Base 5.0.2 1
 _ZN12QQmlMetaType24typeRegistrationFailuresEv@Base 5.0.2 1
 _ZN12QQmlMetaType25findCachedCompilationUnitERK4QUrl@Base 5.3.0 1
 _ZN12QQmlMetaType26attachedPropertiesFuncByIdEi@Base 5.0.2 1
 _ZN12QQmlMetaType28setTypeRegistrationNamespaceERK7QString@Base 5.0.2 1
 _ZN12QQmlMetaType29registerCustomStringConverterEiPF8QVariantRK7QStringE@Base 5.0.2 1
 _ZN12QQmlMetaType30namespaceContainsRegistrationsERK7QString@Base 5.0.2 1
 _ZN12QQmlMetaType6isListEi@Base 5.0.2 1
 _ZN12QQmlMetaType7qmlTypeEPK11QMetaObject@Base 5.0.2 1
 _ZN12QQmlMetaType7qmlTypeEPK11QMetaObjectRK16QHashedStringRefii@Base 5.0.2 1
 _ZN12QQmlMetaType7qmlTypeERK16QHashedStringRefS2_ii@Base 5.0.2 1
 _ZN12QQmlMetaType7qmlTypeERK4QUrlb@Base 5.2.0~beta1 1
 _ZN12QQmlMetaType7qmlTypeERK7QStringii@Base 5.0.2 1
 _ZN12QQmlMetaType7qmlTypeEi@Base 5.0.2 1
 _ZN12QQmlMetaType8isModuleERK7QStringii@Base 5.0.2 1
 _ZN12QQmlMetaType8listTypeEi@Base 5.0.2 1
 _ZN12QQmlMetaType8qmlTypesEv@Base 5.0.2 1
 _ZN12QQmlMetaType9isQObjectEi@Base 5.0.2 1
 _ZN12QQmlMetaType9toQObjectERK8QVariantPb@Base 5.0.2 1
 _ZN12QQmlNotifier10emitNotifyEP20QQmlNotifierEndpointPPv@Base 5.0.2 1
 _ZN12QQmlPlatform11qt_metacallEN11QMetaObject4CallEiPPv@Base 5.1.0 1
 _ZN12QQmlPlatform11qt_metacastEPKc@Base 5.1.0 1
 _ZN12QQmlPlatform16staticMetaObjectE@Base 5.1.0 1
 _ZN12QQmlPlatform2osEv@Base 5.1.0 1
 _ZN12QQmlPlatformC1EP7QObject@Base 5.1.0 1
 _ZN12QQmlPlatformC2EP7QObject@Base 5.1.0 1
 _ZN12QQmlPlatformD0Ev@Base 5.1.0 1
 _ZN12QQmlPlatformD1Ev@Base 5.1.0 1
 _ZN12QQmlPlatformD2Ev@Base 5.1.0 1
 _ZN12QQmlProperty4readEPK7QObjectRK7QString@Base 5.0.2
 _ZN12QQmlProperty4readEPK7QObjectRK7QStringP10QQmlEngine@Base 5.0.2
 _ZN12QQmlProperty4readEPK7QObjectRK7QStringP11QQmlContext@Base 5.0.2
 _ZN12QQmlProperty5writeEP7QObjectRK7QStringRK8QVariant@Base 5.0.2
 _ZN12QQmlProperty5writeEP7QObjectRK7QStringRK8QVariantP10QQmlEngine@Base 5.0.2
 _ZN12QQmlProperty5writeEP7QObjectRK7QStringRK8QVariantP11QQmlContext@Base 5.0.2
 _ZN12QQmlPropertyC1EP7QObject@Base 5.0.2
 _ZN12QQmlPropertyC1EP7QObjectP10QQmlEngine@Base 5.0.2
 _ZN12QQmlPropertyC1EP7QObjectP11QQmlContext@Base 5.0.2
 _ZN12QQmlPropertyC1EP7QObjectRK7QString@Base 5.0.2
 _ZN12QQmlPropertyC1EP7QObjectRK7QStringP10QQmlEngine@Base 5.0.2
 _ZN12QQmlPropertyC1EP7QObjectRK7QStringP11QQmlContext@Base 5.0.2
 _ZN12QQmlPropertyC1ERKS_@Base 5.0.2
 _ZN12QQmlPropertyC1Ev@Base 5.0.2
 _ZN12QQmlPropertyC2EP7QObject@Base 5.0.2
 _ZN12QQmlPropertyC2EP7QObjectP10QQmlEngine@Base 5.0.2
 _ZN12QQmlPropertyC2EP7QObjectP11QQmlContext@Base 5.0.2
 _ZN12QQmlPropertyC2EP7QObjectRK7QString@Base 5.0.2
 _ZN12QQmlPropertyC2EP7QObjectRK7QStringP10QQmlEngine@Base 5.0.2
 _ZN12QQmlPropertyC2EP7QObjectRK7QStringP11QQmlContext@Base 5.0.2
 _ZN12QQmlPropertyC2ERKS_@Base 5.0.2
 _ZN12QQmlPropertyC2Ev@Base 5.0.2
 _ZN12QQmlPropertyD1Ev@Base 5.0.2
 _ZN12QQmlPropertyD2Ev@Base 5.0.2
 _ZN12QQmlPropertyaSERKS_@Base 5.0.2
 _ZN13QQmlChangeSet4moveERK7QVectorINS_6ChangeEES4_@Base 5.4.0 1
 _ZN13QQmlChangeSet4moveEiiii@Base 5.1.0 1
 _ZN13QQmlChangeSet5applyERKS_@Base 5.1.0 1
 _ZN13QQmlChangeSet6changeEP7QVectorINS_6ChangeEE@Base 5.1.0 1
 _ZN13QQmlChangeSet6changeERK7QVectorINS_6ChangeEE@Base 5.1.0 1
 _ZN13QQmlChangeSet6changeEii@Base 5.1.0 1
 _ZN13QQmlChangeSet6insertERK7QVectorINS_6ChangeEE@Base 5.4.0 1
 _ZN13QQmlChangeSet6insertEii@Base 5.1.0 1
 _ZN13QQmlChangeSet6removeEP7QVectorINS_6ChangeEES3_@Base 5.4.0 1
 _ZN13QQmlChangeSet6removeERK7QVectorINS_6ChangeEEPS2_@Base 5.4.0 1
 _ZN13QQmlChangeSet6removeEii@Base 5.1.0 1
 _ZN13QQmlChangeSetC1ERKS_@Base 5.1.0 1
 _ZN13QQmlChangeSetC1Ev@Base 5.1.0 1
 _ZN13QQmlChangeSetC2ERKS_@Base 5.1.0 1
 _ZN13QQmlChangeSetC2Ev@Base 5.1.0 1
 _ZN13QQmlChangeSetD1Ev@Base 5.1.0 1
 _ZN13QQmlChangeSetD2Ev@Base 5.1.0 1
 _ZN13QQmlChangeSetaSERKS_@Base 5.1.0 1
 _ZN13QQmlComponent11beginCreateEP11QQmlContext@Base 5.0.2
 _ZN13QQmlComponent11qt_metacallEN11QMetaObject4CallEiPPv@Base 5.0.2
 _ZN13QQmlComponent11qt_metacastEPKc@Base 5.0.2
 _ZN13QQmlComponent12createObjectEP14QQmlV4Function@Base 5.2.0~beta1
 _ZN13QQmlComponent13statusChangedENS_6StatusE@Base 5.0.2
 _ZN13QQmlComponent14completeCreateEv@Base 5.0.2
 _ZN13QQmlComponent14incubateObjectEP14QQmlV4Function@Base 5.2.0~beta1
 _ZN13QQmlComponent15progressChangedEd@Base 5.2.0
 _ZN13QQmlComponent16staticMetaObjectE@Base 5.0.2
 _ZN13QQmlComponent21qmlAttachedPropertiesEP7QObject@Base 5.0.2
 _ZN13QQmlComponent6createEP11QQmlContext@Base 5.0.2
 _ZN13QQmlComponent6createER13QQmlIncubatorP11QQmlContextS3_@Base 5.0.2
 _ZN13QQmlComponent7loadUrlERK4QUrl@Base 5.0.2
 _ZN13QQmlComponent7loadUrlERK4QUrlNS_15CompilationModeE@Base 5.0.2
 _ZN13QQmlComponent7setDataERK10QByteArrayRK4QUrl@Base 5.0.2
 _ZN13QQmlComponentC1EP10QQmlEngineP16QQmlCompiledDataiP7QObject@Base 5.0.2 1
 _ZN13QQmlComponentC1EP10QQmlEngineP7QObject@Base 5.0.2
 _ZN13QQmlComponentC1EP10QQmlEngineRK4QUrlNS_15CompilationModeEP7QObject@Base 5.0.2
 _ZN13QQmlComponentC1EP10QQmlEngineRK4QUrlP7QObject@Base 5.0.2
 _ZN13QQmlComponentC1EP10QQmlEngineRK7QStringNS_15CompilationModeEP7QObject@Base 5.0.2
 _ZN13QQmlComponentC1EP10QQmlEngineRK7QStringP7QObject@Base 5.0.2
 _ZN13QQmlComponentC1EP7QObject@Base 5.0.2
 _ZN13QQmlComponentC1ER20QQmlComponentPrivateP7QObject@Base 5.0.2 1
 _ZN13QQmlComponentC2EP10QQmlEngineP16QQmlCompiledDataiP7QObject@Base 5.0.2 1
 _ZN13QQmlComponentC2EP10QQmlEngineP7QObject@Base 5.0.2
 _ZN13QQmlComponentC2EP10QQmlEngineRK4QUrlNS_15CompilationModeEP7QObject@Base 5.0.2
 _ZN13QQmlComponentC2EP10QQmlEngineRK4QUrlP7QObject@Base 5.0.2
 _ZN13QQmlComponentC2EP10QQmlEngineRK7QStringNS_15CompilationModeEP7QObject@Base 5.0.2
 _ZN13QQmlComponentC2EP10QQmlEngineRK7QStringP7QObject@Base 5.0.2
 _ZN13QQmlComponentC2EP7QObject@Base 5.0.2
 _ZN13QQmlComponentC2ER20QQmlComponentPrivateP7QObject@Base 5.0.2 1
 _ZN13QQmlComponentD0Ev@Base 5.0.2
 _ZN13QQmlComponentD1Ev@Base 5.0.2
 _ZN13QQmlComponentD2Ev@Base 5.0.2
 _ZN13QQmlDirParser11reportErrorEttRK7QString@Base 5.3.0 1
 _ZN13QQmlDirParser16setTypeNamespaceERK7QString@Base 5.3.0 1
 _ZN13QQmlDirParser5parseERK7QString@Base 5.3.0 1
 _ZN13QQmlDirParser8setErrorERK9QQmlError@Base 5.3.0 1
 _ZN13QQmlDirParserC1Ev@Base 5.3.0 1
 _ZN13QQmlDirParserC2Ev@Base 5.3.0 1
 _ZN13QQmlDirParserD1Ev@Base 5.3.0 1
 _ZN13QQmlDirParserD2Ev@Base 5.3.0 1
 _ZN13QQmlIncubator13statusChangedENS_6StatusE@Base 5.0.2
 _ZN13QQmlIncubator15forceCompletionEv@Base 5.0.2
 _ZN13QQmlIncubator15setInitialStateEP7QObject@Base 5.0.2
 _ZN13QQmlIncubator5clearEv@Base 5.0.2
 _ZN13QQmlIncubatorC1ENS_14IncubationModeE@Base 5.0.2
 _ZN13QQmlIncubatorC2ENS_14IncubationModeE@Base 5.0.2
 _ZN13QQmlIncubatorD0Ev@Base 5.0.2
 _ZN13QQmlIncubatorD1Ev@Base 5.0.2
 _ZN13QQmlIncubatorD2Ev@Base 5.0.2
 _ZN13QQmlListModel11qt_metacallEN11QMetaObject4CallEiPPv@Base 5.1.0 1
 _ZN13QQmlListModel11qt_metacastEPKc@Base 5.1.0 1
 _ZN13QQmlListModel11setPropertyEiRK7QStringRK8QVariant@Base 5.1.0 1
 _ZN13QQmlListModel12countChangedEv@Base 5.1.0 1
 _ZN13QQmlListModel14emitItemsMovedEiii@Base 5.1.0 1
 _ZN13QQmlListModel15createWithOwnerEPS_@Base 5.1.0 1
 _ZN13QQmlListModel15setDynamicRolesEb@Base 5.1.0 1
 _ZN13QQmlListModel16emitItemsChangedEiiRK7QVectorIiE@Base 5.1.0 1
 _ZN13QQmlListModel16emitItemsRemovedEii@Base 5.1.0 1
 _ZN13QQmlListModel16staticMetaObjectE@Base 5.1.0 1
 _ZN13QQmlListModel17emitItemsInsertedEii@Base 5.1.0 1
 _ZN13QQmlListModel23emitItemsAboutToBeMovedEiii@Base 5.3.1 1
 _ZN13QQmlListModel25emitItemsAboutToBeRemovedEii@Base 5.3.1 1
 _ZN13QQmlListModel26emitItemsAboutToBeInsertedEii@Base 5.3.1 1
 _ZN13QQmlListModel3setEiRK12QQmlV4Handle@Base 5.2.0~beta1 1
 _ZN13QQmlListModel4moveEiii@Base 5.1.0 1
 _ZN13QQmlListModel4syncEPS_S0_P5QHashIiS0_E@Base 5.1.0 1
 _ZN13QQmlListModel4syncEv@Base 5.1.0 1
 _ZN13QQmlListModel5agentEv@Base 5.1.0 1
 _ZN13QQmlListModel5clearEv@Base 5.1.0 1
 _ZN13QQmlListModel6appendEP14QQmlV4Function@Base 5.2.0~beta1 1
 _ZN13QQmlListModel6insertEP14QQmlV4Function@Base 5.2.0~beta1 1
 _ZN13QQmlListModel6removeEP14QQmlV4Function@Base 5.2.0~beta1 1
 _ZN13QQmlListModelC1EP7QObject@Base 5.1.0 1
 _ZN13QQmlListModelC1EPKS_P9ListModelP9QV8EngineP7QObject@Base 5.1.0 1
 _ZN13QQmlListModelC1EPS_P24QQmlListModelWorkerAgent@Base 5.1.0 1
 _ZN13QQmlListModelC2EP7QObject@Base 5.1.0 1
 _ZN13QQmlListModelC2EPKS_P9ListModelP9QV8EngineP7QObject@Base 5.1.0 1
 _ZN13QQmlListModelC2EPS_P24QQmlListModelWorkerAgent@Base 5.1.0 1
 _ZN13QQmlListModelD0Ev@Base 5.1.0 1
 _ZN13QQmlListModelD1Ev@Base 5.1.0 1
 _ZN13QQmlListModelD2Ev@Base 5.1.0 1
 _ZN13QQmlValueType11qt_metacallEN11QMetaObject4CallEiPPv@Base 5.0.2 1
 _ZN13QQmlValueType11qt_metacastEPKc@Base 5.0.2 1
 _ZN13QQmlValueType16staticMetaObjectE@Base 5.0.2 1
 _ZN13QQmlValueTypeC1EiP7QObject@Base 5.0.2 1
 _ZN13QQmlValueTypeC2EiP7QObject@Base 5.0.2 1
 _ZN14QQmlExpression10clearErrorEv@Base 5.0.2
 _ZN14QQmlExpression11qt_metacallEN11QMetaObject4CallEiPPv@Base 5.0.2
 _ZN14QQmlExpression11qt_metacastEPKc@Base 5.0.2
 _ZN14QQmlExpression12valueChangedEv@Base 5.0.2
 _ZN14QQmlExpression13setExpressionERK7QString@Base 5.0.2
 _ZN14QQmlExpression16staticMetaObjectE@Base 5.0.2
 _ZN14QQmlExpression17setSourceLocationERK7QStringii@Base 5.0.2
 _ZN14QQmlExpression23setNotifyOnValueChangedEb@Base 5.0.2
 _ZN14QQmlExpression8evaluateEPb@Base 5.0.2
 _ZN14QQmlExpressionC1EP11QQmlContextP7QObjectRK7QStringS3_@Base 5.0.2
 _ZN14QQmlExpressionC1EP15QQmlContextDataP7QObjectRK7QString@Base 5.0.2 1
 _ZN14QQmlExpressionC1ERK16QQmlScriptStringP11QQmlContextP7QObjectS6_@Base 5.0.2
 _ZN14QQmlExpressionC1Ev@Base 5.0.2
 _ZN14QQmlExpressionC2EP11QQmlContextP7QObjectRK7QStringS3_@Base 5.0.2
 _ZN14QQmlExpressionC2EP15QQmlContextDataP7QObjectRK7QString@Base 5.0.2 1
 _ZN14QQmlExpressionC2ERK16QQmlScriptStringP11QQmlContextP7QObjectS6_@Base 5.0.2
 _ZN14QQmlExpressionC2Ev@Base 5.0.2
 _ZN14QQmlExpressionD0Ev@Base 5.0.2
 _ZN14QQmlExpressionD1Ev@Base 5.0.2
 _ZN14QQmlExpressionD2Ev@Base 5.0.2
 _ZN14QQmlMetaObject10canConvertERKS_S1_@Base 5.0.2 1
 _ZN14QQmlTypeLoader4Blob11fetchQmldirERK4QUrlPKN3QV412CompiledData6ImportEiP5QListI9QQmlErrorE@Base 5.3.0 1
 _ZN14QQmlTypeLoader4Blob12updateQmldirEP14QQmlQmldirDataPKN3QV412CompiledData6ImportEP5QListI9QQmlErrorE@Base 5.3.0 1
 _ZN14QQmlTypeLoader4Blob15dependencyErrorEP12QQmlDataBlob@Base 5.0.2 1
 _ZN14QQmlTypeLoader4Blob18dependencyCompleteEP12QQmlDataBlob@Base 5.0.2 1
 _ZN14QQmlTypeLoader4Blob19qmldirDataAvailableEP14QQmlQmldirDataP5QListI9QQmlErrorE@Base 5.0.2 1
 _ZN14QQmlTypeLoader4Blob9addImportEPKN3QV412CompiledData6ImportEP5QListI9QQmlErrorE@Base 5.3.0 1
 _ZN14QQmlTypeLoader4Blob9addPragmaERKN5QmlIR6PragmaEP5QListI9QQmlErrorE@Base 5.3.0 1
 _ZN14QQmlTypeLoader4BlobC1ERK4QUrlN12QQmlDataBlob4TypeEPS_@Base 5.0.2 1
 _ZN14QQmlTypeLoader4BlobC2ERK4QUrlN12QQmlDataBlob4TypeEPS_@Base 5.0.2 1
 _ZN14QQmlTypeLoader4BlobD0Ev@Base 5.0.2 1
 _ZN14QQmlTypeLoader4BlobD1Ev@Base 5.0.2 1
 _ZN14QQmlTypeLoader4BlobD2Ev@Base 5.0.2 1
 _ZN15QJSValuePrivate8getValueEPN3QV415ExecutionEngineE@Base 5.2.0~beta1 1
 (optional=gccinternal)_ZN15QJSValuePrivateD0Ev@Base 5.2.0~beta1 1
 (optional=gccinternal)_ZN15QJSValuePrivateD1Ev@Base 5.2.0~beta1 1
 (optional=gccinternal)_ZN15QJSValuePrivateD2Ev@Base 5.2.0~beta1 1
 _ZN15QQmlApplication10setVersionERK7QString@Base 5.1.0 1
 _ZN15QQmlApplication11aboutToQuitEv@Base 5.1.0 1
 _ZN15QQmlApplication11nameChangedEv@Base 5.1.0 1
 _ZN15QQmlApplication11qt_metacallEN11QMetaObject4CallEiPPv@Base 5.1.0 1
 _ZN15QQmlApplication11qt_metacastEPKc@Base 5.1.0 1
 _ZN15QQmlApplication13domainChangedEv@Base 5.2.0~beta1 1
 _ZN15QQmlApplication14versionChangedEv@Base 5.1.0 1
 _ZN15QQmlApplication15setOrganizationERK7QString@Base 5.2.0~beta1 1
 _ZN15QQmlApplication16staticMetaObjectE@Base 5.1.0 1
 _ZN15QQmlApplication19organizationChangedEv@Base 5.2.0~beta1 1
 _ZN15QQmlApplication4argsEv@Base 5.1.0 1
 _ZN15QQmlApplication7setNameERK7QString@Base 5.1.0 1
 _ZN15QQmlApplication9setDomainERK7QString@Base 5.2.0~beta1 1
 _ZN15QQmlApplicationC1EP7QObject@Base 5.1.0 1
 _ZN15QQmlApplicationC1ER22QQmlApplicationPrivateP7QObject@Base 5.1.0 1
 _ZN15QQmlApplicationC2EP7QObject@Base 5.1.0 1
 _ZN15QQmlApplicationC2ER22QQmlApplicationPrivateP7QObject@Base 5.1.0 1
 (optional=gccinternal)_ZN15QQmlApplicationD0Ev@Base 5.1.0 1
 (optional=gccinternal)_ZN15QQmlApplicationD1Ev@Base 5.1.0 1
 (optional=gccinternal)_ZN15QQmlApplicationD2Ev@Base 5.1.0 1
 _ZN15QQmlBoundSignal13setExpressionEP25QQmlBoundSignalExpression@Base 5.0.2 1
 _ZN15QQmlBoundSignal14takeExpressionEP25QQmlBoundSignalExpression@Base 5.0.2 1
 _ZN15QQmlBoundSignalC1EP7QObjectiS1_P10QQmlEngine@Base 5.0.2 1
 _ZN15QQmlBoundSignalC2EP7QObjectiS1_P10QQmlEngine@Base 5.0.2 1
 _ZN15QQmlBoundSignalD0Ev@Base 5.0.2 1
 _ZN15QQmlBoundSignalD1Ev@Base 5.0.2 1
 _ZN15QQmlBoundSignalD2Ev@Base 5.0.2 1
 _ZN15QQmlContextData10invalidateEv@Base 5.0.2 1
 _ZN15QQmlContextData11resolvedUrlERK4QUrl@Base 5.0.2 1
 (optional=gccinternal)_ZN15QQmlContextData12ContextGuardD0Ev@Base 5.0.2 1
 (optional=gccinternal)_ZN15QQmlContextData12ContextGuardD1Ev@Base 5.0.2 1
 (optional=gccinternal)_ZN15QQmlContextData12ContextGuardD2Ev@Base 5.0.2 1
 _ZN15QQmlContextData12clearContextEv@Base 5.0.2 1
 _ZN15QQmlContextData13asQQmlContextEv@Base 5.0.2 1
 _ZN15QQmlContextData13setIdPropertyEiP7QObject@Base 5.0.2 1
 _ZN15QQmlContextData15emitDestructionEv@Base 5.0.2 1
 _ZN15QQmlContextData17setIdPropertyDataERK7QVectorINS_15ObjectIdMappingEE@Base 5.2.0~beta1 1
 _ZN15QQmlContextData18refreshExpressionsEv@Base 5.0.2 1
 _ZN15QQmlContextData20asQQmlContextPrivateEv@Base 5.0.2 1
 _ZN15QQmlContextData27refreshExpressionsRecursiveEP22QQmlAbstractExpression@Base 5.0.2 1
 _ZN15QQmlContextData27refreshExpressionsRecursiveEb@Base 5.0.2 1
 _ZN15QQmlContextData7destroyEv@Base 5.0.2 1
 _ZN15QQmlContextData9addObjectEP7QObject@Base 5.0.2 1
 _ZN15QQmlContextData9setParentEPS_b@Base 5.0.2 1
 _ZN15QQmlContextDataC1EP11QQmlContext@Base 5.0.2 1
 _ZN15QQmlContextDataC1Ev@Base 5.0.2 1
 _ZN15QQmlContextDataC2EP11QQmlContext@Base 5.0.2 1
 _ZN15QQmlContextDataC2Ev@Base 5.0.2 1
 _ZN15QQmlDebugServer10addServiceEP16QQmlDebugService@Base 5.0.2 1
 _ZN15QQmlDebugServer10wakeEngineEP10QQmlEngine@Base 5.3.0 1
 _ZN15QQmlDebugServer11qt_metacallEN11QMetaObject4CallEiPPv@Base 5.0.2 1
 _ZN15QQmlDebugServer11qt_metacastEPKc@Base 5.0.2 1
 _ZN15QQmlDebugServer12removeEngineEP10QQmlEngine@Base 5.3.0 1
 _ZN15QQmlDebugServer12sendMessagesEP16QQmlDebugServiceRK5QListI10QByteArrayE@Base 5.0.2 1
 _ZN15QQmlDebugServer13removeServiceEP16QQmlDebugService@Base 5.0.2 1
 _ZN15QQmlDebugServer14receiveMessageERK10QByteArray@Base 5.0.2 1
 _ZN15QQmlDebugServer16staticMetaObjectE@Base 5.0.2 1
 _ZN15QQmlDebugServer19s_dataStreamVersionE@Base 5.0.2 1
 _ZN15QQmlDebugServer8instanceEv@Base 5.0.2 1
 _ZN15QQmlDebugServer9addEngineEP10QQmlEngine@Base 5.3.0 1
 _ZN15QQmlDebugServerC1Ev@Base 5.0.2 1
 _ZN15QQmlDebugServerC2Ev@Base 5.0.2 1
 _ZN15QQmlDebugServerD0Ev@Base 5.0.2 1
 _ZN15QQmlDebugServerD1Ev@Base 5.0.2 1
 _ZN15QQmlDebugServerD2Ev@Base 5.0.2 1
 _ZN15QQmlDebugStreamC1EP10QByteArray6QFlagsIN9QIODevice12OpenModeFlagEE@Base 5.0.2 1
 _ZN15QQmlDebugStreamC1EP9QIODevice@Base 5.0.2 1
 _ZN15QQmlDebugStreamC1ERK10QByteArray@Base 5.0.2 1
 _ZN15QQmlDebugStreamC1Ev@Base 5.0.2 1
 _ZN15QQmlDebugStreamC2EP10QByteArray6QFlagsIN9QIODevice12OpenModeFlagEE@Base 5.0.2 1
 _ZN15QQmlDebugStreamC2EP9QIODevice@Base 5.0.2 1
 _ZN15QQmlDebugStreamC2ERK10QByteArray@Base 5.0.2 1
 _ZN15QQmlDebugStreamC2Ev@Base 5.0.2 1
 _ZN15QQmlGuiProvider11applicationEP7QObject@Base 5.0.2 1
 _ZN15QQmlGuiProvider11inputMethodEv@Base 5.0.2 1
 _ZN15QQmlGuiProvider12fontFamiliesEv@Base 5.0.2 1
 _ZN15QQmlGuiProvider17openUrlExternallyER4QUrl@Base 5.0.2 1
 _ZN15QQmlGuiProviderD0Ev@Base 5.0.2 1
 _ZN15QQmlGuiProviderD1Ev@Base 5.0.2 1
 _ZN15QQmlGuiProviderD2Ev@Base 5.0.2 1
 _ZN15QQmlMemoryScopeC1EPKc@Base 5.0.2 1
 _ZN15QQmlMemoryScopeC1ERK4QUrl@Base 5.0.2 1
 _ZN15QQmlMemoryScopeC2EPKc@Base 5.0.2 1
 _ZN15QQmlMemoryScopeC2ERK4QUrl@Base 5.0.2 1
 _ZN15QQmlMemoryScopeD1Ev@Base 5.0.2 1
 _ZN15QQmlMemoryScopeD2Ev@Base 5.0.2 1
 _ZN15QQmlObjectModel11qt_metacallEN11QMetaObject4CallEiPPv@Base 5.1.0 1
 _ZN15QQmlObjectModel11qt_metacastEPKc@Base 5.1.0 1
 _ZN15QQmlObjectModel11stringValueEiRK7QString@Base 5.1.0 1
 _ZN15QQmlObjectModel15childrenChangedEv@Base 5.1.0 1
 _ZN15QQmlObjectModel16staticMetaObjectE@Base 5.1.0 1
 _ZN15QQmlObjectModel21qmlAttachedPropertiesEP7QObject@Base 5.1.0 1
 _ZN15QQmlObjectModel6objectEib@Base 5.1.0 1
 _ZN15QQmlObjectModel7releaseEP7QObject@Base 5.1.0 1
 _ZN15QQmlObjectModel8childrenEv@Base 5.1.0 1
 _ZN15QQmlObjectModelC1EP7QObject@Base 5.1.0 1
 _ZN15QQmlObjectModelC2EP7QObject@Base 5.1.0 1
 _ZN15QQmlPropertyMap11qt_metacallEN11QMetaObject4CallEiPPv@Base 5.0.2
 _ZN15QQmlPropertyMap11qt_metacastEPKc@Base 5.0.2
 _ZN15QQmlPropertyMap11updateValueERK7QStringRK8QVariant@Base 5.0.2
 _ZN15QQmlPropertyMap12valueChangedERK7QStringRK8QVariant@Base 5.0.2
 _ZN15QQmlPropertyMap15allocatePrivateEv@Base 5.0.2
 _ZN15QQmlPropertyMap16staticMetaObjectE@Base 5.0.2
 _ZN15QQmlPropertyMap4initEPK11QMetaObject@Base 5.0.2
 _ZN15QQmlPropertyMap5clearERK7QString@Base 5.0.2
 _ZN15QQmlPropertyMap6insertERK7QStringRK8QVariant@Base 5.0.2
 _ZN15QQmlPropertyMapC1EP7QObject@Base 5.0.2
 _ZN15QQmlPropertyMapC2EP7QObject@Base 5.0.2
 _ZN15QQmlPropertyMapD0Ev@Base 5.0.2
 _ZN15QQmlPropertyMapD1Ev@Base 5.0.2
 _ZN15QQmlPropertyMapD2Ev@Base 5.0.2
 _ZN15QQmlPropertyMapixERK7QString@Base 5.0.2
 _ZN16QJSValueIterator4nextEv@Base 5.0.2
 _ZN16QJSValueIteratorC1ERK8QJSValue@Base 5.0.2
 _ZN16QJSValueIteratorC2ERK8QJSValue@Base 5.0.2
 _ZN16QJSValueIteratorD1Ev@Base 5.0.2
 _ZN16QJSValueIteratorD2Ev@Base 5.0.2
 _ZN16QJSValueIteratoraSER8QJSValue@Base 5.0.2
 _ZN16QQmlCustomParser11clearErrorsEv@Base 5.0.2 1
 _ZN16QQmlCustomParser5errorERKN3QV412CompiledData8LocationERK7QString@Base 5.3.0 1
 _ZN16QQmlDebugService11engineAddedEP10QQmlEngine@Base 5.3.0 1
 _ZN16QQmlDebugService11idForObjectEP7QObject@Base 5.0.2 1
 _ZN16QQmlDebugService11objectForIdEi@Base 5.0.2 1
 _ZN16QQmlDebugService11qt_metacallEN11QMetaObject4CallEiPPv@Base 5.0.2 1
 _ZN16QQmlDebugService11qt_metacastEPKc@Base 5.0.2 1
 _ZN16QQmlDebugService11sendMessageERK10QByteArray@Base 5.0.2 1
 _ZN16QQmlDebugService12blockingModeEv@Base 5.0.2 1
 _ZN16QQmlDebugService12sendMessagesERK5QListI10QByteArrayE@Base 5.0.2 1
 _ZN16QQmlDebugService12stateChangedENS_5StateE@Base 5.0.2 1
 _ZN16QQmlDebugService13engineRemovedEP10QQmlEngine@Base 5.3.0 1
 _ZN16QQmlDebugService14objectToStringEP7QObject@Base 5.0.2 1
 _ZN16QQmlDebugService15messageReceivedERK10QByteArray@Base 5.0.2 1
 _ZN16QQmlDebugService15registerServiceEv@Base 5.0.2 1
 _ZN16QQmlDebugService16attachedToEngineEP10QQmlEngine@Base 5.3.0 1
 _ZN16QQmlDebugService16staticMetaObjectE@Base 5.0.2 1
 _ZN16QQmlDebugService18detachedFromEngineEP10QQmlEngine@Base 5.3.0 1
 _ZN16QQmlDebugService18hasDebuggingClientEv@Base 5.0.2 1
 _ZN16QQmlDebugService18isDebuggingEnabledEv@Base 5.0.2 1
 _ZN16QQmlDebugService20clearObjectsFromHashEv@Base 5.0.2 1
 _ZN16QQmlDebugService20engineAboutToBeAddedEP10QQmlEngine@Base 5.3.0 1
 _ZN16QQmlDebugService21objectForLocationInfoERK7QStringii@Base 5.0.2 1
 _ZN16QQmlDebugService21stateAboutToBeChangedENS_5StateE@Base 5.0.2 1
 _ZN16QQmlDebugService22engineAboutToBeRemovedEP10QQmlEngine@Base 5.3.0 1
 _ZN16QQmlDebugService28removeInvalidObjectsFromHashEv@Base 5.0.2 1
 _ZN16QQmlDebugServiceC1ER23QQmlDebugServicePrivateRK7QStringfP7QObject@Base 5.0.2 1
 _ZN16QQmlDebugServiceC1ERK7QStringfP7QObject@Base 5.0.2 1
 _ZN16QQmlDebugServiceC2ER23QQmlDebugServicePrivateRK7QStringfP7QObject@Base 5.0.2 1
 _ZN16QQmlDebugServiceC2ERK7QStringfP7QObject@Base 5.0.2 1
 _ZN16QQmlDebugServiceD0Ev@Base 5.0.2 1
 _ZN16QQmlDebugServiceD1Ev@Base 5.0.2 1
 _ZN16QQmlDebugServiceD2Ev@Base 5.0.2 1
 _ZN16QQmlFileSelector11qt_metacallEN11QMetaObject4CallEiPPv@Base 5.2.0~beta1
 _ZN16QQmlFileSelector11qt_metacastEPKc@Base 5.2.0~beta1
 _ZN16QQmlFileSelector11setSelectorEP13QFileSelector@Base 5.2.0~beta1
 _ZN16QQmlFileSelector16staticMetaObjectE@Base 5.2.0~beta1
 _ZN16QQmlFileSelector17setExtraSelectorsER11QStringList@Base 5.2.0~rc1
 _ZN16QQmlFileSelector17setExtraSelectorsERK11QStringList@Base 5.4.0
 _ZN16QQmlFileSelector3getEP10QQmlEngine@Base 5.2.0~rc1
 _ZN16QQmlFileSelectorC1EP10QQmlEngineP7QObject@Base 5.2.0~rc1
 _ZN16QQmlFileSelectorC2EP10QQmlEngineP7QObject@Base 5.2.0~rc1
 _ZN16QQmlFileSelectorD0Ev@Base 5.2.0~beta1
 _ZN16QQmlFileSelectorD1Ev@Base 5.2.0~beta1
 _ZN16QQmlFileSelectorD2Ev@Base 5.2.0~beta1
 _ZN16QQmlModelsModule12defineModuleEv@Base 5.1.0 1
 _ZN16QQmlParserStatusC1Ev@Base 5.0.2
 _ZN16QQmlParserStatusC2Ev@Base 5.0.2
 _ZN16QQmlParserStatusD0Ev@Base 5.0.2
 _ZN16QQmlParserStatusD1Ev@Base 5.0.2
 _ZN16QQmlParserStatusD2Ev@Base 5.0.2
 _ZN16QQmlScriptStringC1ERK7QStringP11QQmlContextP7QObject@Base 5.0.2
 _ZN16QQmlScriptStringC1ERKS_@Base 5.0.2
 _ZN16QQmlScriptStringC1Ev@Base 5.0.2
 _ZN16QQmlScriptStringC2ERK7QStringP11QQmlContextP7QObject@Base 5.0.2
 _ZN16QQmlScriptStringC2ERKS_@Base 5.0.2
 _ZN16QQmlScriptStringC2Ev@Base 5.0.2
 _ZN16QQmlScriptStringD1Ev@Base 5.0.2
 _ZN16QQmlScriptStringD2Ev@Base 5.0.2
 _ZN16QQmlScriptStringaSERKS_@Base 5.0.2
 _ZN17QQmlColorProvider14rgbaFromStringERK7QStringPb@Base 5.0.2 1
 _ZN17QQmlColorProvider15colorFromStringERK7QStringPb@Base 5.0.2 1
 _ZN17QQmlColorProvider4tintERK8QVariantS2_@Base 5.0.2 1
 _ZN17QQmlColorProvider6darkerERK8QVariantd@Base 5.2.0 1
 _ZN17QQmlColorProvider7lighterERK8QVariantd@Base 5.2.0 1
 _ZN17QQmlColorProvider8fromHslFEdddd@Base 5.0.2 1
 _ZN17QQmlColorProvider8fromRgbFEdddd@Base 5.0.2 1
 _ZN17QQmlColorProviderD0Ev@Base 5.0.2 1
 _ZN17QQmlColorProviderD1Ev@Base 5.0.2 1
 _ZN17QQmlColorProviderD2Ev@Base 5.0.2 1
 _ZN17QQmlDelegateModel10classBeginEv@Base 5.1.0 1
 _ZN17QQmlDelegateModel11qt_metacallEN11QMetaObject4CallEiPPv@Base 5.1.0 1
 _ZN17QQmlDelegateModel11qt_metacastEPKc@Base 5.1.0 1
 _ZN17QQmlDelegateModel11setDelegateEP13QQmlComponent@Base 5.1.0 1
 _ZN17QQmlDelegateModel11stringValueEiRK7QString@Base 5.1.0 1
 _ZN17QQmlDelegateModel12_q_rowsMovedERK11QModelIndexiiS2_i@Base 5.1.0 1
 _ZN17QQmlDelegateModel12setRootIndexERK8QVariant@Base 5.1.0 1
 _ZN17QQmlDelegateModel13_q_itemsMovedEiii@Base 5.1.0 1
 _ZN17QQmlDelegateModel13_q_modelResetEv@Base 5.1.0 1
 _ZN17QQmlDelegateModel14_q_dataChangedERK11QModelIndexS2_RK7QVectorIiE@Base 5.1.0 1
 _ZN17QQmlDelegateModel14_q_rowsRemovedERK11QModelIndexii@Base 5.1.0 1
 _ZN17QQmlDelegateModel14persistedItemsEv@Base 5.1.0 1
 _ZN17QQmlDelegateModel14setFilterGroupERK7QString@Base 5.1.0 1
 _ZN17QQmlDelegateModel15_q_itemsChangedEiiRK7QVectorIiE@Base 5.1.0 1
 _ZN17QQmlDelegateModel15_q_itemsRemovedEii@Base 5.1.0 1
 _ZN17QQmlDelegateModel15_q_rowsInsertedERK11QModelIndexii@Base 5.1.0 1
 _ZN17QQmlDelegateModel15setWatchedRolesE5QListI10QByteArrayE@Base 5.1.0 1
 _ZN17QQmlDelegateModel16_q_itemsInsertedEii@Base 5.1.0 1
 _ZN17QQmlDelegateModel16_q_layoutChangedERK5QListI21QPersistentModelIndexEN18QAbstractItemModel16LayoutChangeHintE@Base 5.3.1 1
 _ZN17QQmlDelegateModel16resetFilterGroupEv@Base 5.1.0 1
 _ZN17QQmlDelegateModel16rootIndexChangedEv@Base 5.1.0 1
 _ZN17QQmlDelegateModel16staticMetaObjectE@Base 5.1.0 1
 _ZN17QQmlDelegateModel17componentCompleteEv@Base 5.1.0 1
 _ZN17QQmlDelegateModel18filterGroupChangedEv@Base 5.1.0 1
 _ZN17QQmlDelegateModel20defaultGroupsChangedEv@Base 5.1.0 1
 _ZN17QQmlDelegateModel21qmlAttachedPropertiesEP7QObject@Base 5.1.0 1
 _ZN17QQmlDelegateModel23_q_rowsAboutToBeRemovedERK11QModelIndexii@Base 5.1.0 1
 _ZN17QQmlDelegateModel25_q_layoutAboutToBeChangedERK5QListI21QPersistentModelIndexEN18QAbstractItemModel16LayoutChangeHintE@Base 5.3.1 1
 _ZN17QQmlDelegateModel5eventEP6QEvent@Base 5.1.0 1
 _ZN17QQmlDelegateModel5itemsEv@Base 5.1.0 1
 _ZN17QQmlDelegateModel5partsEv@Base 5.1.0 1
 _ZN17QQmlDelegateModel6cancelEi@Base 5.1.0 1
 _ZN17QQmlDelegateModel6groupsEv@Base 5.1.0 1
 _ZN17QQmlDelegateModel6objectEib@Base 5.1.0 1
 _ZN17QQmlDelegateModel7releaseEP7QObject@Base 5.1.0 1
 _ZN17QQmlDelegateModel8setModelERK8QVariant@Base 5.1.0 1
 _ZN17QQmlDelegateModelC1EP11QQmlContextP7QObject@Base 5.1.0 1
 _ZN17QQmlDelegateModelC1Ev@Base 5.1.0 1
 _ZN17QQmlDelegateModelC2EP11QQmlContextP7QObject@Base 5.1.0 1
 _ZN17QQmlDelegateModelC2Ev@Base 5.1.0 1
 _ZN17QQmlDelegateModelD0Ev@Base 5.1.0 1
 _ZN17QQmlDelegateModelD1Ev@Base 5.1.0 1
 _ZN17QQmlDelegateModelD2Ev@Base 5.1.0 1
 _ZN17QQmlEnginePrivate11createCacheEP8QQmlTypeiR9QQmlError@Base 5.0.2 1
 _ZN17QQmlEnginePrivate11createCacheEPK11QMetaObject@Base 5.0.2 1
 _ZN17QQmlEnginePrivate12designerModeEv@Base 5.0.2 1
 _ZN17QQmlEnginePrivate14enableProfilerEv@Base 5.3.0 1
 _ZN17QQmlEnginePrivate14s_designerModeE@Base 5.0.2 1
 _ZN17QQmlEnginePrivate17registerBaseTypesEPKcii@Base 5.0.2 1
 _ZN17QQmlEnginePrivate20activateDesignerModeEv@Base 5.0.2 1
 _ZN17QQmlEnginePrivate20defineQtQuick2ModuleEv@Base 5.0.2 1
 _ZN17QQmlEnginePrivate20propertyCacheForTypeEi@Base 5.0.2 1
 _ZN17QQmlEnginePrivate21getWorkerScriptEngineEv@Base 5.0.2 1
 _ZN17QQmlEnginePrivate21qml_debugging_enabledE@Base 5.0.2 1
 _ZN17QQmlEnginePrivate21registerQtQuick2TypesEPKcii@Base 5.0.2 1
 _ZN17QQmlEnginePrivate22doDeleteInEngineThreadEv@Base 5.0.2 1
 _ZN17QQmlEnginePrivate23rawPropertyCacheForTypeEi@Base 5.0.2 1
 _ZN17QQmlEnginePrivate24baseModulesUninitializedE@Base 5.1.0 1
 _ZN17QQmlEnginePrivate24referenceScarceResourcesEv@Base 5.0.2 1
 _ZN17QQmlEnginePrivate24registerFinalizeCallbackEP7QObjecti@Base 5.0.2 1
 _ZN17QQmlEnginePrivate26dereferenceScarceResourcesEv@Base 5.0.2 1
 _ZN17QQmlEnginePrivate29registerInternalCompositeTypeEP16QQmlCompiledData@Base 5.1.0 1
 _ZN17QQmlEnginePrivate31unregisterInternalCompositeTypeEP16QQmlCompiledData@Base 5.1.0 1
 _ZN17QQmlEnginePrivate4initEv@Base 5.0.2 1
 _ZN17QQmlEnginePrivate7warningEP10QQmlEngineP16QQmlDelayedError@Base 5.0.2 1
 _ZN17QQmlEnginePrivate7warningEP10QQmlEngineRK5QListI9QQmlErrorE@Base 5.0.2 1
 _ZN17QQmlEnginePrivate7warningEP10QQmlEngineRK9QQmlError@Base 5.0.2 1
 _ZN17QQmlEnginePrivate7warningEP16QQmlDelayedError@Base 5.0.2 1
 _ZN17QQmlEnginePrivate7warningEPS_RK5QListI9QQmlErrorE@Base 5.0.2 1
 _ZN17QQmlEnginePrivate7warningEPS_RK9QQmlError@Base 5.0.2 1
 _ZN17QQmlEnginePrivate7warningERK5QListI9QQmlErrorE@Base 5.0.2 1
 _ZN17QQmlEnginePrivate7warningERK9QQmlError@Base 5.0.2 1
 _ZN17QQmlEnginePrivate8incubateER13QQmlIncubatorP15QQmlContextData@Base 5.0.2 1
 _ZN17QQmlEnginePrivate8sendQuitEv@Base 5.0.2 1
 _ZN17QQmlEnginePrivate9isQObjectEi@Base 5.0.2 1
 _ZN17QQmlEnginePrivateC1EP10QQmlEngine@Base 5.0.2 1
 _ZN17QQmlEnginePrivateC2EP10QQmlEngine@Base 5.0.2 1
 _ZN17QQmlEnginePrivateD0Ev@Base 5.0.2 1
 _ZN17QQmlEnginePrivateD1Ev@Base 5.0.2 1
 _ZN17QQmlEnginePrivateD2Ev@Base 5.0.2 1
 _ZN17QQmlInstanceModel11createdItemEiP7QObject@Base 5.1.0 1
 _ZN17QQmlInstanceModel11qt_metacallEN11QMetaObject4CallEiPPv@Base 5.1.0 1
 _ZN17QQmlInstanceModel11qt_metacastEPKc@Base 5.1.0 1
 _ZN17QQmlInstanceModel12countChangedEv@Base 5.1.0 1
 _ZN17QQmlInstanceModel12modelUpdatedERK13QQmlChangeSetb@Base 5.1.0 1
 _ZN17QQmlInstanceModel14destroyingItemEP7QObject@Base 5.1.0 1
 _ZN17QQmlInstanceModel16staticMetaObjectE@Base 5.1.0 1
 _ZN17QQmlInstanceModel8initItemEiP7QObject@Base 5.1.0 1
 _ZN17QQmlListReferenceC1EP7QObjectPKcP10QQmlEngine@Base 5.0.2
 _ZN17QQmlListReferenceC1ERKS_@Base 5.0.2
 _ZN17QQmlListReferenceC1Ev@Base 5.0.2
 _ZN17QQmlListReferenceC2EP7QObjectPKcP10QQmlEngine@Base 5.0.2
 _ZN17QQmlListReferenceC2ERKS_@Base 5.0.2
 _ZN17QQmlListReferenceC2Ev@Base 5.0.2
 _ZN17QQmlListReferenceD1Ev@Base 5.0.2
 _ZN17QQmlListReferenceD2Ev@Base 5.0.2
 _ZN17QQmlListReferenceaSERKS_@Base 5.0.2
 _ZN17QQmlPropertyCache10invalidateEP10QQmlEnginePK11QMetaObject@Base 5.0.2 1
 _ZN17QQmlPropertyCache11updateRecurEP10QQmlEnginePK11QMetaObject@Base 5.0.2 1
 _ZN17QQmlPropertyCache12appendMethodERK17QHashedCStringRefjiRK5QListI10QByteArrayE@Base 5.0.2 1
 _ZN17QQmlPropertyCache12appendMethodERK7QStringjiRK5QListI10QByteArrayE@Base 5.0.2 1
 _ZN17QQmlPropertyCache12appendSignalERK17QHashedCStringRefjiPKiRK5QListI10QByteArrayE@Base 5.0.2 1
 _ZN17QQmlPropertyCache12appendSignalERK7QStringjiPKiRK5QListI10QByteArrayE@Base 5.0.2 1
 _ZN17QQmlPropertyCache13copyAndAppendEP10QQmlEnginePK11QMetaObjectN19QQmlPropertyRawData4FlagES6_S6_@Base 5.0.2 1
 _ZN17QQmlPropertyCache13copyAndAppendEP10QQmlEnginePK11QMetaObjectiN19QQmlPropertyRawData4FlagES6_S6_@Base 5.0.2 1
 _ZN17QQmlPropertyCache13originalCloneEP7QObjecti@Base 5.0.2 1
 _ZN17QQmlPropertyCache13originalCloneEi@Base 5.0.2 1
 _ZN17QQmlPropertyCache14appendPropertyERK17QHashedCStringRefjiii@Base 5.0.2 1
 _ZN17QQmlPropertyCache14appendPropertyERK7QStringjiii@Base 5.0.2 1
 _ZN17QQmlPropertyCache14copyAndReserveEP10QQmlEngineiii@Base 5.0.2 1
 _ZN17QQmlPropertyCache16createMetaObjectEv@Base 5.0.2 1
 _ZN17QQmlPropertyCache16methodReturnTypeEP7QObjectRK16QQmlPropertyDataP10QByteArray@Base 5.0.2 1
 _ZN17QQmlPropertyCache19isDynamicMetaObjectEPK11QMetaObject@Base 5.0.2 1
 _ZN17QQmlPropertyCache19toMetaObjectBuilderER18QMetaObjectBuilder@Base 5.0.2 1
 _ZN17QQmlPropertyCache20methodParameterTypesEP7QObjectiR15QVarLengthArrayIiLi9EEP10QByteArray@Base 5.0.2 1
 _ZN17QQmlPropertyCache21createArgumentsObjectEiRK5QListI10QByteArrayE@Base 5.0.2 1
 _ZN17QQmlPropertyCache26signalParameterStringForJSEP10QQmlEngineRK5QListI10QByteArrayEP7QString@Base 5.2.0~beta1 1
 _ZN17QQmlPropertyCache26signalParameterStringForJSEiP7QString@Base 5.2.0~beta1 1
 _ZN17QQmlPropertyCache4copyEv@Base 5.0.2 1
 _ZN17QQmlPropertyCache5clearEv@Base 5.0.2 1
 _ZN17QQmlPropertyCache6appendEP10QQmlEnginePK11QMetaObjectiN19QQmlPropertyRawData4FlagES6_S6_@Base 5.0.2 1
 _ZN17QQmlPropertyCache6updateEP10QQmlEnginePK11QMetaObject@Base 5.0.2 1
 _ZN17QQmlPropertyCache7destroyEv@Base 5.0.2 1
 _ZN17QQmlPropertyCache8propertyEP10QQmlEngineP7QObjectPKN3QV46StringEP15QQmlContextDataR16QQmlPropertyData@Base 5.2.0~beta1 1
 _ZN17QQmlPropertyCache8propertyEP10QQmlEngineP7QObjectRK7QStringP15QQmlContextDataR16QQmlPropertyData@Base 5.0.2 1
 _ZN17QQmlPropertyCache9setParentEPS_@Base 5.0.2 1
 _ZN17QQmlPropertyCacheC1EP10QQmlEngine@Base 5.0.2 1
 _ZN17QQmlPropertyCacheC1EP10QQmlEnginePK11QMetaObject@Base 5.0.2 1
 _ZN17QQmlPropertyCacheC2EP10QQmlEngine@Base 5.0.2 1
 _ZN17QQmlPropertyCacheC2EP10QQmlEnginePK11QMetaObject@Base 5.0.2 1
 _ZN17QQmlPropertyCacheD0Ev@Base 5.0.2 1
 _ZN17QQmlPropertyCacheD1Ev@Base 5.0.2 1
 _ZN17QQmlPropertyCacheD2Ev@Base 5.0.2 1
 _ZN17QQmlRectValueType11qt_metacallEN11QMetaObject4CallEiPPv@Base 5.0.2 1
 _ZN17QQmlRectValueType11qt_metacastEPKc@Base 5.0.2 1
 _ZN17QQmlRectValueType16staticMetaObjectE@Base 5.0.2 1
 _ZN17QQmlRectValueType4setXEi@Base 5.0.2 1
 _ZN17QQmlRectValueType4setYEi@Base 5.0.2 1
 _ZN17QQmlRectValueType8setWidthEi@Base 5.0.2 1
 _ZN17QQmlRectValueType9setHeightEi@Base 5.0.2 1
 _ZN17QQmlRectValueTypeC1EP7QObject@Base 5.0.2 1
 _ZN17QQmlRectValueTypeC2EP7QObject@Base 5.0.2 1
 (optional=gccinternal)_ZN17QQmlRectValueTypeD0Ev@Base 5.0.2 1
 (optional=gccinternal)_ZN17QQmlRectValueTypeD1Ev@Base 5.0.2 1
 (optional=gccinternal)_ZN17QQmlRectValueTypeD2Ev@Base 5.0.2 1
 _ZN17QQmlSizeValueType11qt_metacallEN11QMetaObject4CallEiPPv@Base 5.0.2 1
 _ZN17QQmlSizeValueType11qt_metacastEPKc@Base 5.0.2 1
 _ZN17QQmlSizeValueType16staticMetaObjectE@Base 5.0.2 1
 _ZN17QQmlSizeValueType8setWidthEi@Base 5.0.2 1
 _ZN17QQmlSizeValueType9setHeightEi@Base 5.0.2 1
 _ZN17QQmlSizeValueTypeC1EP7QObject@Base 5.0.2 1
 _ZN17QQmlSizeValueTypeC2EP7QObject@Base 5.0.2 1
 (optional=gccinternal)_ZN17QQmlSizeValueTypeD0Ev@Base 5.0.2 1
 (optional=gccinternal)_ZN17QQmlSizeValueTypeD1Ev@Base 5.0.2 1
 (optional=gccinternal)_ZN17QQmlSizeValueTypeD2Ev@Base 5.0.2 1
 _ZN17QQmlVMEMetaObject10list_clearEP16QQmlListPropertyI7QObjectE@Base 5.0.2 1
 _ZN17QQmlVMEMetaObject10list_countEP16QQmlListPropertyI7QObjectE@Base 5.0.2 1
 _ZN17QQmlVMEMetaObject11listChangedEi@Base 5.0.2 1
 _ZN17QQmlVMEMetaObject11list_appendEP16QQmlListPropertyI7QObjectEPS1_@Base 5.0.2 1
 _ZN17QQmlVMEMetaObject11vmePropertyEi@Base 5.0.2 1
 _ZN17QQmlVMEMetaObject12connectAliasEi@Base 5.0.2 1
 _ZN17QQmlVMEMetaObject12getForMethodEP7QObjecti@Base 5.0.2 1
 _ZN17QQmlVMEMetaObject12getForSignalEP7QObjecti@Base 5.0.2 1
 _ZN17QQmlVMEMetaObject12setVmeMethodEiN3QV48ValueRefE@Base 5.2.0~beta1 1
 _ZN17QQmlVMEMetaObject13writePropertyEiRK8QVariant@Base 5.0.2 1
 _ZN17QQmlVMEMetaObject14getForPropertyEP7QObjecti@Base 5.0.2 1
 _ZN17QQmlVMEMetaObject14setVMEPropertyEiN3QV48ValueRefE@Base 5.2.0~beta1 1
 _ZN17QQmlVMEMetaObject15readVarPropertyEi@Base 5.0.2 1
 _ZN17QQmlVMEMetaObject16writeVarPropertyEiN3QV48ValueRefE@Base 5.2.0~beta1 1
 _ZN17QQmlVMEMetaObject18connectAliasSignalEib@Base 5.0.2 1
 _ZN17QQmlVMEMetaObject19registerInterceptorEiiP28QQmlPropertyValueInterceptor@Base 5.0.2 1
 _ZN17QQmlVMEMetaObject19toDynamicMetaObjectEP7QObject@Base 5.0.2 1
 _ZN17QQmlVMEMetaObject19vmeMethodLineNumberEi@Base 5.0.2 1
 _ZN17QQmlVMEMetaObject20ensureQObjectWrapperEv@Base 5.2.0~beta1 1
 _ZN17QQmlVMEMetaObject21readPropertyAsVariantEi@Base 5.0.2 1
 _ZN17QQmlVMEMetaObject4markEPN3QV415ExecutionEngineE@Base 5.2.0~rc1 1
 _ZN17QQmlVMEMetaObject6methodEi@Base 5.0.2 1
 _ZN17QQmlVMEMetaObject7list_atEP16QQmlListPropertyI7QObjectEi@Base 5.0.2 1
 _ZN17QQmlVMEMetaObject8activateEP7QObjectiPPv@Base 5.0.2 1
 _ZN17QQmlVMEMetaObject8metaCallEN11QMetaObject4CallEiPPv@Base 5.0.2 1
 _ZN17QQmlVMEMetaObject9vmeMethodEi@Base 5.0.2 1
 _ZN17QQmlVMEMetaObjectC1EP7QObjectP17QQmlPropertyCachePK15QQmlVMEMetaDataPN3QV416ExecutionContextEP16QQmlCompiledData@Base 5.2.0~beta1 1
 _ZN17QQmlVMEMetaObjectC2EP7QObjectP17QQmlPropertyCachePK15QQmlVMEMetaDataPN3QV416ExecutionContextEP16QQmlCompiledData@Base 5.2.0~beta1 1
 _ZN17QQmlVMEMetaObjectD0Ev@Base 5.0.2 1
 _ZN17QQmlVMEMetaObjectD1Ev@Base 5.0.2 1
 _ZN17QQmlVMEMetaObjectD2Ev@Base 5.0.2 1
 _ZN18QAnimationGroupJob15appendAnimationEP21QAbstractAnimationJob@Base 5.0.2 1
 _ZN18QAnimationGroupJob15removeAnimationEP21QAbstractAnimationJob@Base 5.0.2 1
 _ZN18QAnimationGroupJob16animationRemovedEP21QAbstractAnimationJobS1_S1_@Base 5.0.2 1
 _ZN18QAnimationGroupJob16prependAnimationEP21QAbstractAnimationJob@Base 5.0.2 1
 _ZN18QAnimationGroupJob28topLevelAnimationLoopChangedEv@Base 5.0.2 1
 _ZN18QAnimationGroupJob29uncontrolledAnimationFinishedEP21QAbstractAnimationJob@Base 5.0.2 1
 _ZN18QAnimationGroupJob34setUncontrolledAnimationFinishTimeEP21QAbstractAnimationJobi@Base 5.0.2 1
 _ZN18QAnimationGroupJob36resetUncontrolledAnimationFinishTimeEP21QAbstractAnimationJob@Base 5.0.2 1
 _ZN18QAnimationGroupJob37resetUncontrolledAnimationsFinishTimeEv@Base 5.0.2 1
 _ZN18QAnimationGroupJob5clearEv@Base 5.0.2 1
 _ZN18QAnimationGroupJobC1Ev@Base 5.0.2 1
 _ZN18QAnimationGroupJobC2Ev@Base 5.0.2 1
 _ZN18QAnimationGroupJobD0Ev@Base 5.0.2 1
 _ZN18QAnimationGroupJobD1Ev@Base 5.0.2 1
 _ZN18QAnimationGroupJobD2Ev@Base 5.0.2 1
 _ZN18QPauseAnimationJob11setDurationEi@Base 5.0.2 1
 _ZN18QPauseAnimationJob17updateCurrentTimeEi@Base 5.0.2 1
 _ZN18QPauseAnimationJobC1Ei@Base 5.0.2 1
 _ZN18QPauseAnimationJobC2Ei@Base 5.0.2 1
 _ZN18QPauseAnimationJobD0Ev@Base 5.0.2 1
 _ZN18QPauseAnimationJobD1Ev@Base 5.0.2 1
 _ZN18QPauseAnimationJobD2Ev@Base 5.0.2 1
 _ZN18QQmlAnimationTimer11qt_metacallEN11QMetaObject4CallEiPPv@Base 5.0.2 1
 _ZN18QQmlAnimationTimer11qt_metacastEPKc@Base 5.0.2 1
 _ZN18QQmlAnimationTimer15startAnimationsEv@Base 5.0.2 1
 _ZN18QQmlAnimationTimer16staticMetaObjectE@Base 5.0.2 1
 _ZN18QQmlAnimationTimer17ensureTimerUpdateEv@Base 5.0.2 1
 _ZN18QQmlAnimationTimer17registerAnimationEP21QAbstractAnimationJobb@Base 5.0.2 1
 _ZN18QQmlAnimationTimer19unregisterAnimationEP21QAbstractAnimationJob@Base 5.0.2 1
 _ZN18QQmlAnimationTimer20updateAnimationTimerEv@Base 5.0.2 1
 _ZN18QQmlAnimationTimer20updateAnimationsTimeEx@Base 5.0.2 1
 _ZN18QQmlAnimationTimer21restartAnimationTimerEv@Base 5.0.2 1
 _ZN18QQmlAnimationTimer24registerRunningAnimationEP21QAbstractAnimationJob@Base 5.0.2 1
 _ZN18QQmlAnimationTimer26unregisterRunningAnimationEP21QAbstractAnimationJob@Base 5.0.2 1
 _ZN18QQmlAnimationTimer33closestPauseAnimationTimeToFinishEv@Base 5.0.2 1
 _ZN18QQmlAnimationTimer8instanceEb@Base 5.0.2 1
 _ZN18QQmlAnimationTimer8instanceEv@Base 5.0.2 1
 _ZN18QQmlAnimationTimer9stopTimerEv@Base 5.0.2 1
 _ZN18QQmlAnimationTimerC1Ev@Base 5.0.2 1
 _ZN18QQmlAnimationTimerC2Ev@Base 5.0.2 1
 (optional=gccinternal)_ZN18QQmlAnimationTimerD0Ev@Base 5.0.2 1
 (optional=gccinternal)_ZN18QQmlAnimationTimerD1Ev@Base 5.0.2 1
 (optional=gccinternal)_ZN18QQmlAnimationTimerD2Ev@Base 5.0.2 1
 _ZN18QQmlMemoryProfiler4saveEPKc@Base 5.0.2 1
 _ZN18QQmlMemoryProfiler5clearEv@Base 5.0.2 1
 _ZN18QQmlMemoryProfiler5statsEPiS0_@Base 5.0.2 1
 _ZN18QQmlMemoryProfiler6enableEv@Base 5.0.2 1
 _ZN18QQmlMemoryProfiler7disableEv@Base 5.0.2 1
 _ZN18QQmlMemoryProfiler9isEnabledEv@Base 5.0.2 1
 _ZN18QQmlOpenMetaObject12initialValueEi@Base 5.0.2 1
 _ZN18QQmlOpenMetaObject12propertyReadEi@Base 5.0.2 1
 _ZN18QQmlOpenMetaObject13propertyWriteEi@Base 5.0.2 1
 _ZN18QQmlOpenMetaObject14createPropertyEPKcS1_@Base 5.0.2 1
 _ZN18QQmlOpenMetaObject15propertyCreatedEiR20QMetaPropertyBuilder@Base 5.0.2 1
 _ZN18QQmlOpenMetaObject15propertyWrittenEi@Base 5.0.2 1
 _ZN18QQmlOpenMetaObject18propertyWriteValueEiRK8QVariant@Base 5.0.2 1
 _ZN18QQmlOpenMetaObject8metaCallEN11QMetaObject4CallEiPPv@Base 5.0.2 1
 _ZN18QQmlOpenMetaObject8setValueERK10QByteArrayRK8QVariant@Base 5.0.2 1
 _ZN18QQmlOpenMetaObject8setValueEiRK8QVariant@Base 5.0.2 1
 _ZN18QQmlOpenMetaObject9setCachedEb@Base 5.0.2 1
 _ZN18QQmlOpenMetaObjectC1EP7QObjectP22QQmlOpenMetaObjectTypeb@Base 5.0.2 1
 _ZN18QQmlOpenMetaObjectC1EP7QObjectPK11QMetaObjectb@Base 5.0.2 1
 _ZN18QQmlOpenMetaObjectC2EP7QObjectP22QQmlOpenMetaObjectTypeb@Base 5.0.2 1
 _ZN18QQmlOpenMetaObjectC2EP7QObjectPK11QMetaObjectb@Base 5.0.2 1
 _ZN18QQmlOpenMetaObjectD0Ev@Base 5.0.2 1
 _ZN18QQmlOpenMetaObjectD1Ev@Base 5.0.2 1
 _ZN18QQmlOpenMetaObjectD2Ev@Base 5.0.2 1
 _ZN18QQmlOpenMetaObjectixERK10QByteArray@Base 5.0.2 1
 _ZN18QQmlOpenMetaObjectixEi@Base 5.0.2 1
 _ZN18QQmlPointValueType11qt_metacallEN11QMetaObject4CallEiPPv@Base 5.0.2 1
 _ZN18QQmlPointValueType11qt_metacastEPKc@Base 5.0.2 1
 _ZN18QQmlPointValueType16staticMetaObjectE@Base 5.0.2 1
 _ZN18QQmlPointValueType4setXEi@Base 5.0.2 1
 _ZN18QQmlPointValueType4setYEi@Base 5.0.2 1
 _ZN18QQmlPointValueTypeC1EP7QObject@Base 5.0.2 1
 _ZN18QQmlPointValueTypeC2EP7QObject@Base 5.0.2 1
 (optional=gccinternal)_ZN18QQmlPointValueTypeD0Ev@Base 5.0.2 1
 (optional=gccinternal)_ZN18QQmlPointValueTypeD1Ev@Base 5.0.2 1
 (optional=gccinternal)_ZN18QQmlPointValueTypeD2Ev@Base 5.0.2 1
 _ZN18QQmlRectFValueType11qt_metacallEN11QMetaObject4CallEiPPv@Base 5.0.2 1
 _ZN18QQmlRectFValueType11qt_metacastEPKc@Base 5.0.2 1
 _ZN18QQmlRectFValueType16staticMetaObjectE@Base 5.0.2 1
 _ZN18QQmlRectFValueType4setXEd@Base 5.2.0 1
 _ZN18QQmlRectFValueType4setYEd@Base 5.2.0 1
 _ZN18QQmlRectFValueType8setWidthEd@Base 5.2.0 1
 _ZN18QQmlRectFValueType9setHeightEd@Base 5.2.0 1
 _ZN18QQmlRectFValueTypeC1EP7QObject@Base 5.0.2 1
 _ZN18QQmlRectFValueTypeC2EP7QObject@Base 5.0.2 1
 (optional=gccinternal)_ZN18QQmlRectFValueTypeD0Ev@Base 5.0.2 1
 (optional=gccinternal)_ZN18QQmlRectFValueTypeD1Ev@Base 5.0.2 1
 (optional=gccinternal)_ZN18QQmlRectFValueTypeD2Ev@Base 5.0.2 1
 _ZN18QQmlSizeFValueType11qt_metacallEN11QMetaObject4CallEiPPv@Base 5.0.2 1
 _ZN18QQmlSizeFValueType11qt_metacastEPKc@Base 5.0.2 1
 _ZN18QQmlSizeFValueType16staticMetaObjectE@Base 5.0.2 1
 _ZN18QQmlSizeFValueType8setWidthEd@Base 5.2.0 1
 _ZN18QQmlSizeFValueType9setHeightEd@Base 5.2.0 1
 _ZN18QQmlSizeFValueTypeC1EP7QObject@Base 5.0.2 1
 _ZN18QQmlSizeFValueTypeC2EP7QObject@Base 5.0.2 1
 (optional=gccinternal)_ZN18QQmlSizeFValueTypeD0Ev@Base 5.0.2 1
 (optional=gccinternal)_ZN18QQmlSizeFValueTypeD1Ev@Base 5.0.2 1
 (optional=gccinternal)_ZN18QQmlSizeFValueTypeD2Ev@Base 5.0.2 1
 _ZN19QQmlAbstractBinding11addToObjectEv@Base 5.0.2 1
 _ZN19QQmlAbstractBinding11weakPointerEv@Base 5.0.2 1
 (optional=templinst)_ZN19QQmlAbstractBinding15default_destroyI11QQmlBindingEEvPS_NS_11DestroyModeE@Base 5.0.2 1
 (optional=templinst)_ZN19QQmlAbstractBinding15default_destroyI25QQmlValueTypeProxyBindingEEvPS_NS_11DestroyModeE@Base 5.0.2 1
 _ZN19QQmlAbstractBinding16removeFromObjectEv@Base 5.0.2 1
 _ZN19QQmlAbstractBinding18default_expressionEPKS_@Base 5.0.2 1
 _ZN19QQmlAbstractBinding21printBindingLoopErrorER12QQmlProperty@Base 5.0.2 1
 _ZN19QQmlAbstractBinding23default_retargetBindingEPS_P7QObjecti@Base 5.0.2 1
 _ZN19QQmlAbstractBinding5clearEv@Base 5.0.2 1
 _ZN19QQmlAbstractBinding7vTablesE@Base 5.0.2 1
 _ZN19QQmlAbstractBindingC1ENS_11BindingTypeE@Base 5.0.2 1
 _ZN19QQmlAbstractBindingC2ENS_11BindingTypeE@Base 5.0.2 1
 _ZN19QQmlAbstractBindingD1Ev@Base 5.0.2 1
 _ZN19QQmlAbstractBindingD2Ev@Base 5.0.2 1
 _ZN19QQmlEasingValueType11qt_metacallEN11QMetaObject4CallEiPPv@Base 5.0.2 1
 _ZN19QQmlEasingValueType11qt_metacastEPKc@Base 5.0.2 1
 _ZN19QQmlEasingValueType12setAmplitudeEd@Base 5.2.0 1
 _ZN19QQmlEasingValueType12setOvershootEd@Base 5.2.0 1
 _ZN19QQmlEasingValueType14setBezierCurveERK5QListI8QVariantE@Base 5.0.2 1
 _ZN19QQmlEasingValueType16staticMetaObjectE@Base 5.0.2 1
 _ZN19QQmlEasingValueType7setTypeENS_4TypeE@Base 5.0.2 1
 _ZN19QQmlEasingValueType9setPeriodEd@Base 5.2.0 1
 _ZN19QQmlEasingValueTypeC1EP7QObject@Base 5.0.2 1
 _ZN19QQmlEasingValueTypeC2EP7QObject@Base 5.0.2 1
 (optional=gccinternal)_ZN19QQmlEasingValueTypeD0Ev@Base 5.0.2 1
 (optional=gccinternal)_ZN19QQmlEasingValueTypeD1Ev@Base 5.0.2 1
 (optional=gccinternal)_ZN19QQmlEasingValueTypeD2Ev@Base 5.0.2 1
 _ZN19QQmlExtensionPlugin11qt_metacallEN11QMetaObject4CallEiPPv@Base 5.0.2
 _ZN19QQmlExtensionPlugin11qt_metacastEPKc@Base 5.0.2
 _ZN19QQmlExtensionPlugin16initializeEngineEP10QQmlEnginePKc@Base 5.0.2
 _ZN19QQmlExtensionPlugin16staticMetaObjectE@Base 5.0.2
 _ZN19QQmlExtensionPluginC1EP7QObject@Base 5.0.2
 _ZN19QQmlExtensionPluginC2EP7QObject@Base 5.0.2
 _ZN19QQmlExtensionPluginD0Ev@Base 5.0.2
 _ZN19QQmlExtensionPluginD1Ev@Base 5.0.2
 _ZN19QQmlExtensionPluginD2Ev@Base 5.0.2
 _ZN19QQmlPointFValueType11qt_metacallEN11QMetaObject4CallEiPPv@Base 5.0.2 1
 _ZN19QQmlPointFValueType11qt_metacastEPKc@Base 5.0.2 1
 _ZN19QQmlPointFValueType16staticMetaObjectE@Base 5.0.2 1
 _ZN19QQmlPointFValueType4setXEd@Base 5.2.0 1
 _ZN19QQmlPointFValueType4setYEd@Base 5.2.0 1
 _ZN19QQmlPointFValueTypeC1EP7QObject@Base 5.0.2 1
 _ZN19QQmlPointFValueTypeC2EP7QObject@Base 5.0.2 1
 (optional=gccinternal)_ZN19QQmlPointFValueTypeD0Ev@Base 5.0.2 1
 (optional=gccinternal)_ZN19QQmlPointFValueTypeD1Ev@Base 5.0.2 1
 (optional=gccinternal)_ZN19QQmlPointFValueTypeD2Ev@Base 5.0.2 1
 _ZN19QQmlProfilerService11engineAddedEP10QQmlEngine@Base 5.3.0 1
 _ZN19QQmlProfilerService11qt_metacallEN11QMetaObject4CallEiPPv@Base 5.3.0 1
 _ZN19QQmlProfilerService11qt_metacastEPKc@Base 5.3.0 1
 _ZN19QQmlProfilerService12sendMessagesEv@Base 5.0.2 1
 _ZN19QQmlProfilerService13engineRemovedEP10QQmlEngine@Base 5.3.0 1
 _ZN19QQmlProfilerService13stopProfilingEP10QQmlEngine@Base 5.3.0 1
 _ZN19QQmlProfilerService14startProfilingEP10QQmlEnginey@Base 5.4.0 1
 _ZN19QQmlProfilerService15messageReceivedERK10QByteArray@Base 5.0.2 1
 _ZN19QQmlProfilerService16staticMetaObjectE@Base 5.3.0 1
 _ZN19QQmlProfilerService17addEngineProfilerEP27QQmlAbstractProfilerAdapterP10QQmlEngine@Base 5.3.0 1
 _ZN19QQmlProfilerService17addGlobalProfilerEP27QQmlAbstractProfilerAdapter@Base 5.3.0 1
 _ZN19QQmlProfilerService20engineAboutToBeAddedEP10QQmlEngine@Base 5.3.0 1
 _ZN19QQmlProfilerService20removeGlobalProfilerEP27QQmlAbstractProfilerAdapter@Base 5.3.0 1
 _ZN19QQmlProfilerService21stateAboutToBeChangedEN16QQmlDebugService5StateE@Base 5.0.2 1
 _ZN19QQmlProfilerService22engineAboutToBeRemovedEP10QQmlEngine@Base 5.3.0 1
 _ZN19QQmlProfilerService28removeProfilerFromStartTimesEPK27QQmlAbstractProfilerAdapter@Base 5.3.0 1
 _ZN19QQmlProfilerService8instanceEv@Base 5.3.0 1
 _ZN19QQmlProfilerService9dataReadyEP27QQmlAbstractProfilerAdapter@Base 5.3.0 1
 _ZN19QQmlProfilerServiceC1Ev@Base 5.0.2 1
 _ZN19QQmlProfilerServiceC2Ev@Base 5.0.2 1
 _ZN19QQmlProfilerServiceD0Ev@Base 5.0.2 1
 _ZN19QQmlProfilerServiceD1Ev@Base 5.0.2 1
 _ZN19QQmlProfilerServiceD2Ev@Base 5.0.2 1
 _ZN19QQmlPropertyPrivate10setBindingEP7QObjectiiP19QQmlAbstractBinding6QFlagsINS_9WriteFlagEE@Base 5.0.2 1
 _ZN19QQmlPropertyPrivate10setBindingERK12QQmlPropertyP19QQmlAbstractBinding6QFlagsINS_9WriteFlagEE@Base 5.0.2 1
 _ZN19QQmlPropertyPrivate11flushSignalEPK7QObjecti@Base 5.0.2 1
 _ZN19QQmlPropertyPrivate11initDefaultEP7QObject@Base 5.0.2 1
 _ZN19QQmlPropertyPrivate12bindingIndexERK12QQmlProperty@Base 5.0.2 1
 _ZN19QQmlPropertyPrivate12bindingIndexERK16QQmlPropertyData@Base 5.0.2 1
 _ZN19QQmlPropertyPrivate12initPropertyEP7QObjectRK7QString@Base 5.0.2 1
 _ZN19QQmlPropertyPrivate12writeBindingEP7QObjectRK16QQmlPropertyDataP15QQmlContextDataP24QQmlJavaScriptExpressionN3QV48ValueRefEb6QFlagsINS_9WriteFlagEE@Base 5.2.0~beta1 1
 _ZN19QQmlPropertyPrivate13saveValueTypeERK16QQmlPropertyDataPK11QMetaObjectiP10QQmlEngine@Base 5.0.2 1
 _ZN19QQmlPropertyPrivate15findAliasTargetEP7QObjectiPS1_Pi@Base 5.0.2 1
 _ZN19QQmlPropertyPrivate16findSignalByNameEPK11QMetaObjectRK10QByteArray@Base 5.0.2 1
 _ZN19QQmlPropertyPrivate16signalExpressionERK12QQmlProperty@Base 5.0.2 1
 _ZN19QQmlPropertyPrivate17readValuePropertyEv@Base 5.0.2 1
 _ZN19QQmlPropertyPrivate17writeEnumPropertyERK13QMetaPropertyiP7QObjectRK8QVarianti@Base 5.0.2 1
 _ZN19QQmlPropertyPrivate18setBindingNoEnableEP7QObjectiiP19QQmlAbstractBinding@Base 5.0.2 1
 _ZN19QQmlPropertyPrivate18valueTypeCoreIndexERK12QQmlProperty@Base 5.0.2 1
 _ZN19QQmlPropertyPrivate18writeValuePropertyEP7QObjectRK16QQmlPropertyDataRK8QVariantP15QQmlContextData6QFlagsINS_9WriteFlagEE@Base 5.0.2 1
 _ZN19QQmlPropertyPrivate18writeValuePropertyERK8QVariant6QFlagsINS_9WriteFlagEE@Base 5.0.2 1
 _ZN19QQmlPropertyPrivate19setSignalExpressionERK12QQmlPropertyP25QQmlBoundSignalExpression@Base 5.0.2 1
 _ZN19QQmlPropertyPrivate20rawMetaObjectForTypeEP17QQmlEnginePrivatei@Base 5.0.2 1
 _ZN19QQmlPropertyPrivate20takeSignalExpressionERK12QQmlPropertyP25QQmlBoundSignalExpression@Base 5.0.2 1
 _ZN19QQmlPropertyPrivate5writeEP7QObjectRK16QQmlPropertyDataRK8QVariantP15QQmlContextData6QFlagsINS_9WriteFlagEE@Base 5.0.2 1
 _ZN19QQmlPropertyPrivate5writeERK12QQmlPropertyRK8QVariant6QFlagsINS_9WriteFlagEE@Base 5.0.2 1
 _ZN19QQmlPropertyPrivate7bindingEP7QObjectii@Base 5.0.2 1
 _ZN19QQmlPropertyPrivate7bindingERK12QQmlProperty@Base 5.0.2 1
 _ZN19QQmlPropertyPrivate7connectEPK7QObjectiS2_iiPi@Base 5.0.2 1
 _ZN19QQmlPropertyPrivate7restoreEP7QObjectRK16QQmlPropertyDataP15QQmlContextData@Base 5.0.2 1
 _ZN19QQmlPropertyPrivateC1Ev@Base 5.0.2 1
 _ZN19QQmlPropertyPrivateC2Ev@Base 5.0.2 1
 (optional=gccinternal)_ZN19QQmlPropertyPrivateD0Ev@Base 5.0.2 1
 (optional=gccinternal)_ZN19QQmlPropertyPrivateD1Ev@Base 5.0.2 1
 (optional=gccinternal)_ZN19QQmlPropertyPrivateD2Ev@Base 5.0.2 1
 _ZN20QQmlComponentPrivate11beginCreateEP15QQmlContextData@Base 5.0.2 1
 _ZN20QQmlComponentPrivate12fromTypeDataEP12QQmlTypeData@Base 5.0.2 1
 _ZN20QQmlComponentPrivate13beginDeferredEP17QQmlEnginePrivateP7QObjectPNS_17ConstructionStateE@Base 5.0.2 1
 _ZN20QQmlComponentPrivate13typeDataReadyEP12QQmlTypeData@Base 5.0.2 1
 _ZN20QQmlComponentPrivate14completeCreateEv@Base 5.0.2 1
 _ZN20QQmlComponentPrivate16typeDataProgressEP12QQmlTypeDatad@Base 5.2.0 1
 _ZN20QQmlComponentPrivate37initializeObjectWithInitialPropertiesEN3QV48ValueRefES1_P7QObject@Base 5.2.0~beta1 1
 _ZN20QQmlComponentPrivate5clearEv@Base 5.0.2 1
 _ZN20QQmlComponentPrivate7loadUrlERK4QUrlN13QQmlComponent15CompilationModeE@Base 5.0.2 1
 _ZN20QQmlComponentPrivate8completeEP17QQmlEnginePrivatePNS_17ConstructionStateE@Base 5.0.2 1
 (optional=gccinternal)_ZN20QQmlComponentPrivateD0Ev@Base 5.0.2 1
 (optional=gccinternal)_ZN20QQmlComponentPrivateD1Ev@Base 5.0.2 1
 (optional=gccinternal)_ZN20QQmlComponentPrivateD2Ev@Base 5.0.2 1
 _ZN20QQmlDebuggingEnablerC1Eb@Base 5.0.2
 _ZN20QQmlDebuggingEnablerC2Eb@Base 5.0.2
 _ZN20QQmlInspectorService10removeViewEP7QObject@Base 5.0.2 1
 _ZN20QQmlInspectorService11qt_metacallEN11QMetaObject4CallEiPPv@Base 5.0.2 1
 _ZN20QQmlInspectorService11qt_metacastEPKc@Base 5.0.2 1
 _ZN20QQmlInspectorService11sendMessageERK10QByteArray@Base 5.0.2 1
 _ZN20QQmlInspectorService11updateStateEv@Base 5.0.2 1
 _ZN20QQmlInspectorService12stateChangedEN16QQmlDebugService5StateE@Base 5.0.2 1
 _ZN20QQmlInspectorService14processMessageERK10QByteArray@Base 5.0.2 1
 _ZN20QQmlInspectorService15messageReceivedERK10QByteArray@Base 5.0.2 1
 _ZN20QQmlInspectorService16staticMetaObjectE@Base 5.0.2 1
 _ZN20QQmlInspectorService20loadInspectorPluginsEv@Base 5.0.2 1
 _ZN20QQmlInspectorService7addViewEP7QObject@Base 5.0.2 1
 _ZN20QQmlInspectorService8instanceEv@Base 5.0.2 1
 _ZN20QQmlInspectorServiceC1Ev@Base 5.0.2 1
 _ZN20QQmlInspectorServiceC2Ev@Base 5.0.2 1
 (optional=gccinternal)_ZN20QQmlInspectorServiceD0Ev@Base 5.0.2 1
 (optional=gccinternal)_ZN20QQmlInspectorServiceD1Ev@Base 5.0.2 1
 (optional=gccinternal)_ZN20QQmlInspectorServiceD2Ev@Base 5.0.2 1
 _ZN20QQmlStringConverters14dateFromStringERK7QStringPb@Base 5.0.2
 _ZN20QQmlStringConverters14rgbaFromStringERK7QStringPb@Base 5.0.2
 _ZN20QQmlStringConverters14timeFromStringERK7QStringPb@Base 5.0.2
 _ZN20QQmlStringConverters15colorFromStringERK7QStringPb@Base 5.0.2
 _ZN20QQmlStringConverters15rectFFromStringERK7QStringPb@Base 5.0.2
 _ZN20QQmlStringConverters15sizeFFromStringERK7QStringPb@Base 5.0.2
 (subst)_ZN20QQmlStringConverters16createFromStringEiRK7QStringPv{size_t}@Base 5.0.2
 _ZN20QQmlStringConverters16pointFFromStringERK7QStringPb@Base 5.0.2
 _ZN20QQmlStringConverters17variantFromStringERK7QString@Base 5.0.2
 _ZN20QQmlStringConverters17variantFromStringERK7QStringiPb@Base 5.0.2
 _ZN20QQmlStringConverters18dateTimeFromStringERK7QStringPb@Base 5.0.2
 _ZN20QQmlValueTypeFactory11isValueTypeEi@Base 5.0.2 1
 _ZN20QQmlValueTypeFactory18registerValueTypesEPKcii@Base 5.0.2 1
 _ZN20QQmlValueTypeFactory9valueTypeEi@Base 5.0.2 1
 _ZN21QAbstractAnimationJob11updateStateENS_5StateES0_@Base 5.0.2 1
 _ZN21QAbstractAnimationJob12setDirectionENS_9DirectionE@Base 5.0.2 1
 _ZN21QAbstractAnimationJob12setLoopCountEi@Base 5.0.2 1
 _ZN21QAbstractAnimationJob12stateChangedENS_5StateES0_@Base 5.0.2 1
 _ZN21QAbstractAnimationJob14setCurrentTimeEi@Base 5.0.2 1
 _ZN21QAbstractAnimationJob15updateDirectionENS_9DirectionE@Base 5.0.2 1
 _ZN21QAbstractAnimationJob18currentLoopChangedEv@Base 5.0.2 1
 _ZN21QAbstractAnimationJob18currentTimeChangedEi@Base 5.0.2 1
 _ZN21QAbstractAnimationJob20setEnableUserControlEv@Base 5.0.2 1
 _ZN21QAbstractAnimationJob21setDisableUserControlEv@Base 5.0.2 1
 _ZN21QAbstractAnimationJob26addAnimationChangeListenerEP27QAnimationJobChangeListener6QFlagsINS_10ChangeTypeEE@Base 5.0.2 1
 _ZN21QAbstractAnimationJob29removeAnimationChangeListenerEP27QAnimationJobChangeListener6QFlagsINS_10ChangeTypeEE@Base 5.0.2 1
 _ZN21QAbstractAnimationJob32fireTopLevelAnimationLoopChangedEv@Base 5.2.0~beta1 1
 _ZN21QAbstractAnimationJob4stopEv@Base 5.0.2 1
 _ZN21QAbstractAnimationJob5pauseEv@Base 5.0.2 1
 _ZN21QAbstractAnimationJob5startEv@Base 5.0.2 1
 _ZN21QAbstractAnimationJob6resumeEv@Base 5.0.2 1
 _ZN21QAbstractAnimationJob8finishedEv@Base 5.0.2 1
 _ZN21QAbstractAnimationJob8setStateENS_5StateE@Base 5.0.2 1
 _ZN21QAbstractAnimationJobC1Ev@Base 5.0.2 1
 _ZN21QAbstractAnimationJobC2Ev@Base 5.0.2 1
 _ZN21QAbstractAnimationJobD0Ev@Base 5.0.2 1
 _ZN21QAbstractAnimationJobD1Ev@Base 5.0.2 1
 _ZN21QAbstractAnimationJobD2Ev@Base 5.0.2 1
 _ZN21QQmlApplicationEngine11qt_metacallEN11QMetaObject4CallEiPPv@Base 5.1.0
 _ZN21QQmlApplicationEngine11qt_metacastEPKc@Base 5.1.0
 _ZN21QQmlApplicationEngine11rootObjectsEv@Base 5.1.0
 _ZN21QQmlApplicationEngine13objectCreatedEP7QObjectRK4QUrl@Base 5.1.0
 _ZN21QQmlApplicationEngine16staticMetaObjectE@Base 5.1.0
 _ZN21QQmlApplicationEngine4loadERK4QUrl@Base 5.1.0
 _ZN21QQmlApplicationEngine4loadERK7QString@Base 5.1.0
 _ZN21QQmlApplicationEngine8loadDataERK10QByteArrayRK4QUrl@Base 5.1.0
 _ZN21QQmlApplicationEngineC1EP7QObject@Base 5.1.0
 _ZN21QQmlApplicationEngineC1ERK4QUrlP7QObject@Base 5.1.0
 _ZN21QQmlApplicationEngineC1ERK7QStringP7QObject@Base 5.1.0
 _ZN21QQmlApplicationEngineC2EP7QObject@Base 5.1.0
 _ZN21QQmlApplicationEngineC2ERK4QUrlP7QObject@Base 5.1.0
 _ZN21QQmlApplicationEngineC2ERK7QStringP7QObject@Base 5.1.0
 _ZN21QQmlApplicationEngineD0Ev@Base 5.1.0
 _ZN21QQmlApplicationEngineD1Ev@Base 5.1.0
 _ZN21QQmlApplicationEngineD2Ev@Base 5.1.0
 _ZN21QQmlComponentAttached11destructionEv@Base 5.1.0 1
 _ZN21QQmlComponentAttached11qt_metacallEN11QMetaObject4CallEiPPv@Base 5.1.0 1
 _ZN21QQmlComponentAttached11qt_metacastEPKc@Base 5.1.0 1
 _ZN21QQmlComponentAttached16staticMetaObjectE@Base 5.1.0 1
 _ZN21QQmlComponentAttached9completedEv@Base 5.1.0 1
 _ZN21QQmlComponentAttachedC1EP7QObject@Base 5.1.0 1
 _ZN21QQmlComponentAttachedC2EP7QObject@Base 5.1.0 1
 _ZN21QQmlComponentAttachedD0Ev@Base 5.1.0 1
 _ZN21QQmlComponentAttachedD1Ev@Base 5.1.0 1
 _ZN21QQmlComponentAttachedD2Ev@Base 5.1.0 1
 _ZN21QQmlImageProviderBaseC1Ev@Base 5.0.2
 _ZN21QQmlImageProviderBaseC2Ev@Base 5.0.2
 _ZN21QQmlImageProviderBaseD0Ev@Base 5.0.2
 _ZN21QQmlImageProviderBaseD1Ev@Base 5.0.2
 _ZN21QQmlImageProviderBaseD2Ev@Base 5.0.2
 (subst)_ZN21QQmlValueTypeProvider13copyValueTypeEiPKvPv{size_t}@Base 5.0.2 1
 (subst)_ZN21QQmlValueTypeProvider13initValueTypeEiPv{size_t}@Base 5.0.2 1
 (subst)_ZN21QQmlValueTypeProvider13readValueTypeEiPKv{size_t}iPv@Base 5.0.2 1
 (subst)_ZN21QQmlValueTypeProvider14equalValueTypeEiPKvS1_{size_t}@Base 5.0.2 1
 (subst)_ZN21QQmlValueTypeProvider14storeValueTypeEiPKvPv{size_t}@Base 5.0.2 1
 (subst)_ZN21QQmlValueTypeProvider14writeValueTypeEiPKvPv{size_t}@Base 5.0.2 1
 _ZN21QQmlValueTypeProvider15createValueTypeEi@Base 5.0.2 1
 _ZN21QQmlValueTypeProvider15createValueTypeEiiPPKv@Base 5.0.2 1
 (subst)_ZN21QQmlValueTypeProvider16createFromStringEiRK7QStringPv{size_t}@Base 5.0.2 1
 _ZN21QQmlValueTypeProvider16createStringFromEiPKvP7QString@Base 5.0.2 1
 (subst)_ZN21QQmlValueTypeProvider16destroyValueTypeEiPv{size_t}@Base 5.0.2 1
 _ZN21QQmlValueTypeProvider17variantFromStringERK7QStringP8QVariant@Base 5.0.2 1
 _ZN21QQmlValueTypeProvider17variantFromStringEiRK7QStringP8QVariant@Base 5.0.2 1
 _ZN21QQmlValueTypeProvider19variantFromJsObjectEi12QQmlV4HandleP9QV8EngineP8QVariant@Base 5.2.0~beta1 1
 _ZN21QQmlValueTypeProvider21createStringFromValueEiPKvP7QString@Base 5.0.2 1
 (subst)_ZN21QQmlValueTypeProvider21createValueFromStringEiRK7QStringPv{size_t}@Base 5.0.2 1
 _ZN21QQmlValueTypeProvider23createVariantFromStringERK7QString@Base 5.0.2 1
 _ZN21QQmlValueTypeProvider23createVariantFromStringEiRK7QStringPb@Base 5.0.2 1
 _ZN21QQmlValueTypeProvider25createVariantFromJsObjectEi12QQmlV4HandleP9QV8EnginePb@Base 5.2.0~beta1 1
 (subst)_ZN21QQmlValueTypeProvider4copyEiPKvPv{size_t}@Base 5.0.2 1
 (subst)_ZN21QQmlValueTypeProvider4initEiPv{size_t}@Base 5.0.2 1
 (subst)_ZN21QQmlValueTypeProvider4readEiPKv{size_t}iPv@Base 5.0.2 1
 (subst)_ZN21QQmlValueTypeProvider5equalEiPKvS1_{size_t}@Base 5.0.2 1
 (subst)_ZN21QQmlValueTypeProvider5storeEiPKvPv{size_t}@Base 5.0.2 1
 (subst)_ZN21QQmlValueTypeProvider5writeEiPKvPv{size_t}@Base 5.0.2 1
 _ZN21QQmlValueTypeProvider6createEiRP13QQmlValueType@Base 5.0.2 1
 _ZN21QQmlValueTypeProvider6createEiiPPKvP8QVariant@Base 5.0.2 1
 (subst)_ZN21QQmlValueTypeProvider7destroyEiPv{size_t}@Base 5.0.2 1
 _ZN21QQmlValueTypeProviderC1Ev@Base 5.0.2 1
 _ZN21QQmlValueTypeProviderC2Ev@Base 5.0.2 1
 _ZN21QQmlValueTypeProviderD0Ev@Base 5.0.2 1
 _ZN21QQmlValueTypeProviderD1Ev@Base 5.0.2 1
 _ZN21QQmlValueTypeProviderD2Ev@Base 5.0.2 1
 _ZN22QQmlAbstractExpression10setContextEP15QQmlContextData@Base 5.0.2 1
 _ZN22QQmlAbstractExpression7refreshEv@Base 5.0.2 1
 _ZN22QQmlAbstractExpressionC1Ev@Base 5.0.2 1
 _ZN22QQmlAbstractExpressionC2Ev@Base 5.0.2 1
 _ZN22QQmlAbstractExpressionD0Ev@Base 5.0.2 1
 _ZN22QQmlAbstractExpressionD1Ev@Base 5.0.2 1
 _ZN22QQmlAbstractExpressionD2Ev@Base 5.0.2 1
 _ZN22QQmlAccessorProperties18registerPropertiesEPK11QMetaObjectiPNS_8PropertyE@Base 5.0.2
 _ZN22QQmlDelegateModelGroup11nameChangedEv@Base 5.1.0 1
 _ZN22QQmlDelegateModelGroup11qt_metacallEN11QMetaObject4CallEiPPv@Base 5.1.0 1
 _ZN22QQmlDelegateModelGroup11qt_metacastEPKc@Base 5.1.0 1
 _ZN22QQmlDelegateModelGroup12countChangedEv@Base 5.1.0 1
 _ZN22QQmlDelegateModelGroup12removeGroupsEP14QQmlV4Function@Base 5.2.0~beta1 1
 _ZN22QQmlDelegateModelGroup16staticMetaObjectE@Base 5.1.0 1
 _ZN22QQmlDelegateModelGroup17setDefaultIncludeEb@Base 5.1.0 1
 _ZN22QQmlDelegateModelGroup21defaultIncludeChangedEv@Base 5.1.0 1
 _ZN22QQmlDelegateModelGroup3getEi@Base 5.1.0 1
 _ZN22QQmlDelegateModelGroup4moveEP14QQmlV4Function@Base 5.2.0~beta1 1
 _ZN22QQmlDelegateModelGroup6createEP14QQmlV4Function@Base 5.2.0~beta1 1
 _ZN22QQmlDelegateModelGroup6insertEP14QQmlV4Function@Base 5.2.0~beta1 1
 _ZN22QQmlDelegateModelGroup6removeEP14QQmlV4Function@Base 5.2.0~beta1 1
 _ZN22QQmlDelegateModelGroup7changedERK12QQmlV4HandleS2_@Base 5.2.0~beta1 1
 _ZN22QQmlDelegateModelGroup7resolveEP14QQmlV4Function@Base 5.2.0~beta1 1
 _ZN22QQmlDelegateModelGroup7setNameERK7QString@Base 5.1.0 1
 _ZN22QQmlDelegateModelGroup9addGroupsEP14QQmlV4Function@Base 5.2.0~beta1 1
 _ZN22QQmlDelegateModelGroup9setGroupsEP14QQmlV4Function@Base 5.2.0~beta1 1
 _ZN22QQmlDelegateModelGroupC1EP7QObject@Base 5.1.0 1
 _ZN22QQmlDelegateModelGroupC1ERK7QStringP17QQmlDelegateModeliP7QObject@Base 5.1.0 1
 _ZN22QQmlDelegateModelGroupC2EP7QObject@Base 5.1.0 1
 _ZN22QQmlDelegateModelGroupC2ERK7QStringP17QQmlDelegateModeliP7QObject@Base 5.1.0 1
 _ZN22QQmlDelegateModelGroupD0Ev@Base 5.1.0 1
 _ZN22QQmlDelegateModelGroupD1Ev@Base 5.1.0 1
 _ZN22QQmlDelegateModelGroupD2Ev@Base 5.1.0 1
 _ZN22QQmlEngineDebugService10objectDataEP7QObject@Base 5.0.2 1
 _ZN22QQmlEngineDebugService10setBindingEiRK7QStringRK8QVariantbS0_ii@Base 5.0.2 1
 _ZN22QQmlEngineDebugService11qt_metacallEN11QMetaObject4CallEiPPv@Base 5.0.2 1
 _ZN22QQmlEngineDebugService11qt_metacastEPKc@Base 5.0.2 1
 _ZN22QQmlEngineDebugService12propertyDataEP7QObjecti@Base 5.0.2 1
 _ZN22QQmlEngineDebugService12resetBindingEiRK7QString@Base 5.0.2 1
 _ZN22QQmlEngineDebugService13objectCreatedEP10QQmlEngineP7QObject@Base 5.0.2 1
 _ZN22QQmlEngineDebugService13setMethodBodyEiRK7QStringS2_@Base 5.0.2 1
 _ZN22QQmlEngineDebugService14processMessageERK10QByteArray@Base 5.0.2 1
 _ZN22QQmlEngineDebugService14storeObjectIdsEP7QObject@Base 5.0.2 1
 _ZN22QQmlEngineDebugService15buildObjectDumpER11QDataStreamP7QObjectbb@Base 5.0.2 1
 _ZN22QQmlEngineDebugService15buildObjectListER11QDataStreamP11QQmlContextRK5QListI8QPointerI7QObjectEE@Base 5.0.2 1
 _ZN22QQmlEngineDebugService15buildStatesListEbRK5QListI8QPointerI7QObjectEE@Base 5.0.2 1
 _ZN22QQmlEngineDebugService15messageReceivedERK10QByteArray@Base 5.0.2 1
 _ZN22QQmlEngineDebugService15propertyChangedEiiRK13QMetaPropertyRK8QVariant@Base 5.0.2 1
 _ZN22QQmlEngineDebugService16staticMetaObjectE@Base 5.0.2 1
 _ZN22QQmlEngineDebugService17setStatesDelegateEP23QQmlDebugStatesDelegate@Base 5.0.2 1
 _ZN22QQmlEngineDebugService20engineAboutToBeAddedEP10QQmlEngine@Base 5.3.0 1
 _ZN22QQmlEngineDebugService22engineAboutToBeRemovedEP10QQmlEngine@Base 5.3.0 1
 _ZN22QQmlEngineDebugService22prepareDeferredObjectsEP7QObject@Base 5.0.2 1
 _ZN22QQmlEngineDebugService8instanceEv@Base 5.0.2 1
 _ZN22QQmlEngineDebugServiceC1EP7QObject@Base 5.0.2 1
 _ZN22QQmlEngineDebugServiceC2EP7QObject@Base 5.0.2 1
 _ZN22QQmlEngineDebugServiceD0Ev@Base 5.0.2 1
 _ZN22QQmlEngineDebugServiceD1Ev@Base 5.0.2 1
 _ZN22QQmlEngineDebugServiceD2Ev@Base 5.0.2 1
 _ZN22QQmlOpenMetaObjectType14createPropertyERK10QByteArray@Base 5.0.2 1
 _ZN22QQmlOpenMetaObjectType15propertyCreatedEiR20QMetaPropertyBuilder@Base 5.0.2 1
 _ZN22QQmlOpenMetaObjectType5clearEv@Base 5.0.2 1
 _ZN22QQmlOpenMetaObjectTypeC1EPK11QMetaObjectP10QQmlEngine@Base 5.0.2 1
 _ZN22QQmlOpenMetaObjectTypeC2EPK11QMetaObjectP10QQmlEngine@Base 5.0.2 1
 _ZN22QQmlOpenMetaObjectTypeD0Ev@Base 5.0.2 1
 _ZN22QQmlOpenMetaObjectTypeD1Ev@Base 5.0.2 1
 _ZN22QQmlOpenMetaObjectTypeD2Ev@Base 5.0.2 1
 _ZN23QQmlAbstractBoundSignal11addToObjectEP7QObject@Base 5.0.2 1
 _ZN23QQmlAbstractBoundSignal16removeFromObjectEv@Base 5.0.2 1
 _ZN23QQmlAbstractBoundSignalC1Ev@Base 5.0.2 1
 _ZN23QQmlAbstractBoundSignalC2Ev@Base 5.0.2 1
 _ZN23QQmlAbstractBoundSignalD0Ev@Base 5.0.2 1
 _ZN23QQmlAbstractBoundSignalD1Ev@Base 5.0.2 1
 _ZN23QQmlAbstractBoundSignalD2Ev@Base 5.0.2 1
 _ZN23QQmlFileSelectorPrivateC1Ev@Base 5.2.0~beta1 1
 _ZN23QQmlFileSelectorPrivateC2Ev@Base 5.2.0~beta1 1
 (optional=gccinternal)_ZN23QQmlFileSelectorPrivateD0Ev@Base 5.2.0~beta1 1
 (optional=gccinternal)_ZN23QQmlFileSelectorPrivateD1Ev@Base 5.2.0~beta1 1
 (optional=gccinternal)_ZN23QQmlFileSelectorPrivateD2Ev@Base 5.2.0~beta1 1
 _ZN23QQmlPropertyValueSourceC1Ev@Base 5.0.2
 _ZN23QQmlPropertyValueSourceC2Ev@Base 5.0.2
 _ZN23QQmlPropertyValueSourceD0Ev@Base 5.0.2
 _ZN23QQmlPropertyValueSourceD1Ev@Base 5.0.2
 _ZN23QQmlPropertyValueSourceD2Ev@Base 5.0.2
 _ZN24QQmlIncubationController11incubateForEi@Base 5.0.2
 _ZN24QQmlIncubationController13incubateWhileEPVbi@Base 5.0.2
 _ZN24QQmlIncubationController28incubatingObjectCountChangedEi@Base 5.0.2
 _ZN24QQmlIncubationControllerC1Ev@Base 5.0.2
 _ZN24QQmlIncubationControllerC2Ev@Base 5.0.2
 _ZN24QQmlIncubationControllerD0Ev@Base 5.0.2
 _ZN24QQmlIncubationControllerD1Ev@Base 5.0.2
 _ZN24QQmlIncubationControllerD2Ev@Base 5.0.2
 _ZN25QQmlBoundSignalExpression17expressionChangedEP24QQmlJavaScriptExpression@Base 5.0.2 1
 _ZN25QQmlBoundSignalExpression20expressionIdentifierEP24QQmlJavaScriptExpression@Base 5.0.2 1
 _ZN25QQmlBoundSignalExpression4initEP15QQmlContextDataP7QObject@Base 5.0.2 1
 _ZN25QQmlBoundSignalExpression8evaluateEPPv@Base 5.0.2 1
 _ZN25QQmlBoundSignalExpression9ExtraDataC1ERK7QStringS3_S3_S3_tt@Base 5.3.0 1
 _ZN25QQmlBoundSignalExpression9ExtraDataC2ERK7QStringS3_S3_S3_tt@Base 5.3.0 1
 _ZN25QQmlBoundSignalExpressionC1EP7QObjectiP15QQmlContextDataS1_PN3QV48FunctionE@Base 5.3.0 1
 _ZN25QQmlBoundSignalExpressionC1EP7QObjectiP15QQmlContextDataS1_RK7QStringS6_ttS6_S6_@Base 5.2.0~beta1 1
 _ZN25QQmlBoundSignalExpressionC1EP7QObjectiP15QQmlContextDataS1_RKN3QV48ValueRefE@Base 5.2.0~beta1 1
 _ZN25QQmlBoundSignalExpressionC2EP7QObjectiP15QQmlContextDataS1_PN3QV48FunctionE@Base 5.3.0 1
 _ZN25QQmlBoundSignalExpressionC2EP7QObjectiP15QQmlContextDataS1_RK7QStringS6_ttS6_S6_@Base 5.2.0~beta1 1
 _ZN25QQmlBoundSignalExpressionC2EP7QObjectiP15QQmlContextDataS1_RKN3QV48ValueRefE@Base 5.2.0~beta1 1
 _ZN25QQmlBoundSignalExpressionD0Ev@Base 5.0.2 1
 _ZN25QQmlBoundSignalExpressionD1Ev@Base 5.0.2 1
 _ZN25QQmlBoundSignalExpressionD2Ev@Base 5.0.2 1
 (optional=gccinternal)_ZN26QAbstractDynamicMetaObjectD0Ev@Base 5.0.2
 (optional=gccinternal)_ZN26QAbstractDynamicMetaObjectD1Ev@Base 5.0.2
 (optional=gccinternal)_ZN26QAbstractDynamicMetaObjectD2Ev@Base 5.0.2
 _ZN26QParallelAnimationGroupJob11updateStateEN21QAbstractAnimationJob5StateES1_@Base 5.0.2 1
 _ZN26QParallelAnimationGroupJob15applyGroupStateEP21QAbstractAnimationJob@Base 5.0.2 1
 _ZN26QParallelAnimationGroupJob15updateDirectionEN21QAbstractAnimationJob9DirectionE@Base 5.0.2 1
 _ZN26QParallelAnimationGroupJob17updateCurrentTimeEi@Base 5.0.2 1
 _ZN26QParallelAnimationGroupJob29uncontrolledAnimationFinishedEP21QAbstractAnimationJob@Base 5.0.2 1
 _ZN26QParallelAnimationGroupJobC1Ev@Base 5.0.2 1
 _ZN26QParallelAnimationGroupJobC2Ev@Base 5.0.2 1
 _ZN26QParallelAnimationGroupJobD0Ev@Base 5.0.2 1
 _ZN26QParallelAnimationGroupJobD1Ev@Base 5.0.2 1
 _ZN26QParallelAnimationGroupJobD2Ev@Base 5.0.2 1
 _ZN27QAnimationJobChangeListenerD0Ev@Base 5.0.2 1
 _ZN27QAnimationJobChangeListenerD1Ev@Base 5.0.2 1
 _ZN27QAnimationJobChangeListenerD2Ev@Base 5.0.2 1
 _ZN27QQmlAbstractProfilerAdapter11qt_metacallEN11QMetaObject4CallEiPPv@Base 5.3.0 1
 _ZN27QQmlAbstractProfilerAdapter11qt_metacastEPKc@Base 5.3.0 1
 _ZN27QQmlAbstractProfilerAdapter13dataRequestedEv@Base 5.3.0 1
 _ZN27QQmlAbstractProfilerAdapter13stopProfilingEv@Base 5.3.0 1
 _ZN27QQmlAbstractProfilerAdapter14startProfilingEy@Base 5.4.0 1
 _ZN27QQmlAbstractProfilerAdapter16profilingEnabledEy@Base 5.4.0 1
 _ZN27QQmlAbstractProfilerAdapter16staticMetaObjectE@Base 5.3.0 1
 _ZN27QQmlAbstractProfilerAdapter17profilingDisabledEv@Base 5.3.0 1
 _ZN27QQmlAbstractProfilerAdapter18referenceTimeKnownERK13QElapsedTimer@Base 5.3.0 1
 _ZN27QQmlAbstractProfilerAdapter28profilingEnabledWhileWaitingEy@Base 5.4.0 1
 _ZN27QQmlAbstractProfilerAdapter29profilingDisabledWhileWaitingEv@Base 5.3.0 1
 _ZN27QQmlFileSelectorInterceptor9interceptERK4QUrlN26QQmlAbstractUrlInterceptor8DataTypeE@Base 5.2.0~rc1 1
 _ZN27QQmlFileSelectorInterceptorC1EP23QQmlFileSelectorPrivate@Base 5.2.0~rc1 1
 _ZN27QQmlFileSelectorInterceptorC2EP23QQmlFileSelectorPrivate@Base 5.2.0~rc1 1
 (optional=gccinternal)_ZN27QQmlFileSelectorInterceptorD0Ev@Base 5.2.0~rc1 1
 (optional=gccinternal)_ZN27QQmlFileSelectorInterceptorD1Ev@Base 5.2.0~rc1 1
 (optional=gccinternal)_ZN27QQmlFileSelectorInterceptorD2Ev@Base 5.2.0~rc1 1
 _ZN28QContinuingAnimationGroupJob11updateStateEN21QAbstractAnimationJob5StateES1_@Base 5.3.0 1
 _ZN28QContinuingAnimationGroupJob15updateDirectionEN21QAbstractAnimationJob9DirectionE@Base 5.3.0 1
 _ZN28QContinuingAnimationGroupJob17updateCurrentTimeEi@Base 5.3.0 1
 _ZN28QContinuingAnimationGroupJob29uncontrolledAnimationFinishedEP21QAbstractAnimationJob@Base 5.3.0 1
 _ZN28QContinuingAnimationGroupJobC1Ev@Base 5.3.0 1
 _ZN28QContinuingAnimationGroupJobC2Ev@Base 5.3.0 1
 _ZN28QContinuingAnimationGroupJobD0Ev@Base 5.3.0 1
 _ZN28QContinuingAnimationGroupJobD1Ev@Base 5.3.0 1
 _ZN28QContinuingAnimationGroupJobD2Ev@Base 5.3.0 1
 _ZN28QQmlApplicationEnginePrivate13_q_finishLoadEP7QObject@Base 5.1.0 1
 _ZN28QQmlApplicationEnginePrivate16loadTranslationsERK4QUrl@Base 5.1.0 1
 _ZN28QQmlApplicationEnginePrivate4initEv@Base 5.1.0 1
 _ZN28QQmlApplicationEnginePrivate7cleanUpEv@Base 5.2.0~beta1 1
 _ZN28QQmlApplicationEnginePrivate9startLoadERK4QUrlRK10QByteArrayb@Base 5.1.0 1
 _ZN28QQmlApplicationEnginePrivateC1EP10QQmlEngine@Base 5.1.0 1
 _ZN28QQmlApplicationEnginePrivateC2EP10QQmlEngine@Base 5.1.0 1
 _ZN28QQmlApplicationEnginePrivateD0Ev@Base 5.1.0 1
 _ZN28QQmlApplicationEnginePrivateD1Ev@Base 5.1.0 1
 _ZN28QQmlApplicationEnginePrivateD2Ev@Base 5.1.0 1
 _ZN28QQmlPropertyValueInterceptorC1Ev@Base 5.0.2 1
 _ZN28QQmlPropertyValueInterceptorC2Ev@Base 5.0.2 1
 _ZN28QQmlPropertyValueInterceptorD0Ev@Base 5.0.2 1
 _ZN28QQmlPropertyValueInterceptorD1Ev@Base 5.0.2 1
 _ZN28QQmlPropertyValueInterceptorD2Ev@Base 5.0.2 1
 _ZN28QSequentialAnimationGroupJob11updateStateEN21QAbstractAnimationJob5StateES1_@Base 5.0.2 1
 _ZN28QSequentialAnimationGroupJob14rewindForwardsERKNS_14AnimationIndexE@Base 5.0.2 1
 _ZN28QSequentialAnimationGroupJob15advanceForwardsERKNS_14AnimationIndexE@Base 5.0.2 1
 _ZN28QSequentialAnimationGroupJob15updateDirectionEN21QAbstractAnimationJob9DirectionE@Base 5.0.2 1
 _ZN28QSequentialAnimationGroupJob16animationRemovedEP21QAbstractAnimationJobS1_S1_@Base 5.0.2 1
 _ZN28QSequentialAnimationGroupJob17animationInsertedEP21QAbstractAnimationJob@Base 5.0.2 1
 _ZN28QSequentialAnimationGroupJob17updateCurrentTimeEi@Base 5.0.2 1
 _ZN28QSequentialAnimationGroupJob19setCurrentAnimationEP21QAbstractAnimationJobb@Base 5.0.2 1
 _ZN28QSequentialAnimationGroupJob24activateCurrentAnimationEb@Base 5.0.2 1
 _ZN28QSequentialAnimationGroupJob29uncontrolledAnimationFinishedEP21QAbstractAnimationJob@Base 5.0.2 1
 _ZN28QSequentialAnimationGroupJob7restartEv@Base 5.0.2 1
 _ZN28QSequentialAnimationGroupJobC1Ev@Base 5.0.2 1
 _ZN28QSequentialAnimationGroupJobC2Ev@Base 5.0.2 1
 _ZN28QSequentialAnimationGroupJobD0Ev@Base 5.0.2 1
 _ZN28QSequentialAnimationGroupJobD1Ev@Base 5.0.2 1
 _ZN28QSequentialAnimationGroupJobD2Ev@Base 5.0.2 1
 _ZN31QQmlNetworkAccessManagerFactoryD0Ev@Base 5.0.2
 _ZN31QQmlNetworkAccessManagerFactoryD1Ev@Base 5.0.2
 _ZN31QQmlNetworkAccessManagerFactoryD2Ev@Base 5.0.2
 _ZN32QQmlBoundSignalExpressionPointer4takeEP25QQmlBoundSignalExpression@Base 5.0.2 1
 _ZN32QQmlBoundSignalExpressionPointerC1EP25QQmlBoundSignalExpression@Base 5.0.2 1
 _ZN32QQmlBoundSignalExpressionPointerC1ERKS_@Base 5.0.2 1
 _ZN32QQmlBoundSignalExpressionPointerC2EP25QQmlBoundSignalExpression@Base 5.0.2 1
 _ZN32QQmlBoundSignalExpressionPointerC2ERKS_@Base 5.0.2 1
 _ZN32QQmlBoundSignalExpressionPointerD1Ev@Base 5.0.2 1
 _ZN32QQmlBoundSignalExpressionPointerD2Ev@Base 5.0.2 1
 _ZN32QQmlBoundSignalExpressionPointeraSEP25QQmlBoundSignalExpression@Base 5.0.2 1
 _ZN32QQmlBoundSignalExpressionPointeraSERKS_@Base 5.0.2 1
 _ZN3QV411SparseArray10createNodeEjPNS_15SparseArrayNodeEb@Base 5.2.0~beta1
 _ZN3QV411SparseArray10deleteNodeEPNS_15SparseArrayNodeE@Base 5.2.0~beta1
 _ZN3QV411SparseArray10rotateLeftEPNS_15SparseArrayNodeE@Base 5.2.0~beta1
 _ZN3QV411SparseArray11rotateRightEPNS_15SparseArrayNodeE@Base 5.2.0~beta1
 _ZN3QV411SparseArray18recalcMostLeftNodeEv@Base 5.2.0~beta1
 _ZN3QV411SparseArray6insertEj@Base 5.2.0~beta1
 _ZN3QV411SparseArray8freeTreeEPNS_15SparseArrayNodeEi@Base 5.2.0~beta1
 _ZN3QV411SparseArray9rebalanceEPNS_15SparseArrayNodeE@Base 5.2.0~beta1
 _ZN3QV411SparseArrayC1ERKS0_@Base 5.2.0~beta1
 _ZN3QV411SparseArrayC1Ev@Base 5.2.0~beta1
 _ZN3QV411SparseArrayC2ERKS0_@Base 5.2.0~beta1
 _ZN3QV411SparseArrayC2Ev@Base 5.2.0~beta1
 _ZN3QV412CompiledData15CompilationUnit11markObjectsEPNS_15ExecutionEngineE@Base 5.2.0~rc1
 _ZN3QV412CompiledData15CompilationUnit12linkToEngineEPNS_15ExecutionEngineE@Base 5.2.0~beta1
 _ZN3QV412CompiledData15CompilationUnit14createUnitDataEPN5QmlIR8DocumentE@Base 5.3.0
 _ZN3QV412CompiledData15CompilationUnit6unlinkEv@Base 5.2.0~beta1
 _ZN3QV412CompiledData15CompilationUnitD0Ev@Base 5.2.0~beta1
 _ZN3QV412CompiledData15CompilationUnitD1Ev@Base 5.2.0~beta1
 _ZN3QV412CompiledData15CompilationUnitD2Ev@Base 5.2.0~beta1
 _ZN3QV412CompiledData7Binding13escapedStringERK7QString@Base 5.4.0
 _ZN3QV412EvalFunction11static_vtblE@Base 5.2.0~beta1
 _ZN3QV412EvalFunction4DataC1EPNS_16ExecutionContextE@Base 5.4.0
 _ZN3QV412EvalFunction4DataC2EPNS_16ExecutionContextE@Base 5.4.0
 _ZN3QV412EvalFunction4callEPNS_7ManagedEPNS_8CallDataE@Base 5.2.0~beta1 1
 _ZN3QV412EvalFunction8evalCallEPNS_8CallDataEb@Base 5.2.0~beta1
 _ZN3QV413MemoryManager12setGCBlockedEb@Base 5.2.0~beta1 1
 _ZN3QV413MemoryManager17registerDeletableEPNS_11GCDeletableE@Base 5.3.0 1
 _ZN3QV413MemoryManager18setExecutionEngineEPNS_15ExecutionEngineE@Base 5.2.0~beta1 1
 _ZN3QV413MemoryManager4markEv@Base 5.2.0~beta1 1
 _ZN3QV413MemoryManager5runGCEv@Base 5.2.0~beta1 1
 (subst)_ZN3QV413MemoryManager5sweepEPc{size_t}{size_t}@Base 5.3.0 1
 _ZN3QV413MemoryManager5sweepEb@Base 5.2.0~beta1 1
 (subst)_ZN3QV413MemoryManager9allocDataE{size_t}@Base 5.4.0 1
 _ZN3QV413MemoryManagerC1Ev@Base 5.2.0~beta1 1
 _ZN3QV413MemoryManagerC2Ev@Base 5.2.0~beta1 1
 _ZN3QV413MemoryManagerD1Ev@Base 5.2.0~beta1 1
 _ZN3QV413MemoryManagerD2Ev@Base 5.2.0~beta1 1
 _ZN3QV413QObjectMethod11static_vtblE@Base 5.4.0
 _ZN3QV413QObjectMethod12callInternalEPNS_8CallDataE@Base 5.4.0
 _ZN3QV413QObjectMethod14method_destroyEPNS_16ExecutionContextENS_8ValueRefEi@Base 5.4.0
 _ZN3QV413QObjectMethod15method_toStringEPNS_16ExecutionContextE@Base 5.4.0
 _ZN3QV413QObjectMethod4DataC1EPNS_16ExecutionContextEP7QObjectiNS_8ValueRefE@Base 5.4.0
 _ZN3QV413QObjectMethod4DataC2EPNS_16ExecutionContextEP7QObjectiNS_8ValueRefE@Base 5.4.0
 _ZN3QV413QObjectMethod4callEPNS_7ManagedEPNS_8CallDataE@Base 5.4.0 1
 _ZN3QV413QObjectMethod6createEPNS_16ExecutionContextEP7QObjectiNS_8ValueRefE@Base 5.4.0
 _ZN3QV413QmlExtensions11markObjectsEPNS_15ExecutionEngineE@Base 5.2.0~rc1
 _ZN3QV414FunctionObject11markObjectsEPNS_7ManagedEPNS_15ExecutionEngineE@Base 5.2.0~rc1 1
 _ZN3QV414FunctionObject11newInstanceEv@Base 5.2.0~beta1
 _ZN3QV414FunctionObject11static_vtblE@Base 5.2.0~beta1
 _ZN3QV414FunctionObject20createScriptFunctionEPNS_16ExecutionContextEPNS_8FunctionEb@Base 5.3.0
 _ZN3QV414FunctionObject4DataC1EPNS_13InternalClassE@Base 5.4.0
 _ZN3QV414FunctionObject4DataC1EPNS_16ExecutionContextEPNS_6StringEb@Base 5.4.0
 _ZN3QV414FunctionObject4DataC1EPNS_16ExecutionContextERK7QStringb@Base 5.4.0
 _ZN3QV414FunctionObject4DataC1EPNS_16ExecutionContextEy@Base 5.4.0
 _ZN3QV414FunctionObject4DataC2EPNS_13InternalClassE@Base 5.4.0
 _ZN3QV414FunctionObject4DataC2EPNS_16ExecutionContextEPNS_6StringEb@Base 5.4.0
 _ZN3QV414FunctionObject4DataC2EPNS_16ExecutionContextERK7QStringb@Base 5.4.0
 _ZN3QV414FunctionObject4DataC2EPNS_16ExecutionContextEy@Base 5.4.0
 _ZN3QV414FunctionObject4DataD1Ev@Base 5.4.0
 _ZN3QV414FunctionObject4DataD2Ev@Base 5.4.0
 _ZN3QV414FunctionObject4callEPNS_7ManagedEPNS_8CallDataE@Base 5.2.0~beta1 1
 _ZN3QV414FunctionObject4initEPNS_6StringEb@Base 5.4.0
 _ZN3QV414FunctionObject4nameEv@Base 5.3.0
 _ZN3QV414FunctionObject9constructEPNS_7ManagedEPNS_8CallDataE@Base 5.2.0~beta1 1
 _ZN3QV414ObjectIterator16nextPropertyNameENS_8ValueRefE@Base 5.2.0~beta1
 _ZN3QV414ObjectIterator24nextPropertyNameAsStringENS_8ValueRefE@Base 5.2.0~beta1
 _ZN3QV414ObjectIterator24nextPropertyNameAsStringEv@Base 5.2.0~beta1
 _ZN3QV414ObjectIterator4initEPNS_6ObjectE@Base 5.4.0
 _ZN3QV414ObjectIterator4nextERPNS_6StringEPjPNS_8PropertyEPNS_18PropertyAttributesE@Base 5.4.0
 _ZN3QV414ObjectIteratorC1EPNS_5ValueES2_PNS_6ObjectEj@Base 5.4.0
 _ZN3QV414ObjectIteratorC1EPNS_5ValueES2_j@Base 5.4.0
 _ZN3QV414ObjectIteratorC1ERNS_5ScopeEPNS_6ObjectEj@Base 5.4.0
 _ZN3QV414ObjectIteratorC2EPNS_5ValueES2_PNS_6ObjectEj@Base 5.4.0
 _ZN3QV414ObjectIteratorC2EPNS_5ValueES2_j@Base 5.4.0
 _ZN3QV414ObjectIteratorC2ERNS_5ScopeEPNS_6ObjectEj@Base 5.4.0
 _ZN3QV414QObjectWrapper11getPropertyEP7QObjectPNS_16ExecutionContextEP16QQmlPropertyDatab@Base 5.2.1
 _ZN3QV414QObjectWrapper11getPropertyEP7QObjectPNS_16ExecutionContextEib@Base 5.2.1
 _ZN3QV414QObjectWrapper11markObjectsEPNS_7ManagedEPNS_15ExecutionEngineE@Base 5.2.0~rc1 1
 _ZN3QV414QObjectWrapper11setPropertyEP7QObjectPNS_16ExecutionContextEP16QQmlPropertyDataNS_8ValueRefE@Base 5.2.0~rc1
 _ZN3QV414QObjectWrapper11setPropertyEPNS_16ExecutionContextEiNS_8ValueRefE@Base 5.2.0~rc1
 _ZN3QV414QObjectWrapper11static_vtblE@Base 5.2.0~beta1
 _ZN3QV414QObjectWrapper14getQmlPropertyEPNS_16ExecutionContextEP15QQmlContextDataP7QObjectPNS_6StringENS0_12RevisionModeEPb@Base 5.2.0~beta1 1
 _ZN3QV414QObjectWrapper14getQmlPropertyEPNS_16ExecutionContextEP15QQmlContextDataPNS_6StringENS0_12RevisionModeEPbb@Base 5.2.0~beta1 1
 _ZN3QV414QObjectWrapper14method_connectEPNS_11CallContextE@Base 5.2.0~rc1
 _ZN3QV414QObjectWrapper14setQmlPropertyEPNS_16ExecutionContextEP15QQmlContextDataP7QObjectPNS_6StringENS0_12RevisionModeENS_8ValueRefE@Base 5.2.0~beta1 1
 _ZN3QV414QObjectWrapper15advanceIteratorEPNS_7ManagedEPNS_14ObjectIteratorERPNS_6StringEPjPNS_8PropertyEPNS_18PropertyAttributesE@Base 5.4.0 1
 _ZN3QV414QObjectWrapper17method_disconnectEPNS_11CallContextE@Base 5.2.0~rc1
 _ZN3QV414QObjectWrapper18initializeBindingsEPNS_15ExecutionEngineE@Base 5.2.0~beta1
 _ZN3QV414QObjectWrapper3getEPNS_7ManagedEPNS_6StringEPb@Base 5.4.0 1
 _ZN3QV414QObjectWrapper3putEPNS_7ManagedEPNS_6StringENS_8ValueRefE@Base 5.4.0 1
 _ZN3QV414QObjectWrapper4DataC1EPNS_15ExecutionEngineEP7QObject@Base 5.4.0
 _ZN3QV414QObjectWrapper4DataC2EPNS_15ExecutionEngineEP7QObject@Base 5.4.0
 _ZN3QV414QObjectWrapper4wrapEPNS_15ExecutionEngineEP7QObject@Base 5.2.0~beta1
 _ZN3QV414QObjectWrapper5queryEPKNS_7ManagedEPNS_6StringE@Base 5.4.0 1
 _ZN3QV414QObjectWrapper6createEPNS_15ExecutionEngineEP7QObject@Base 5.2.1
 _ZN3QV414QObjectWrapper7destroyEPNS_7ManagedE@Base 5.3.0 1
 _ZN3QV414QObjectWrapper9isEqualToEPNS_7ManagedES2_@Base 5.2.0~rc1 1
 _ZN3QV414QmlListWrapper10getIndexedEPNS_7ManagedEjPb@Base 5.2.0~beta1 1
 _ZN3QV414QmlListWrapper11static_vtblE@Base 5.2.0~beta1
 _ZN3QV414QmlListWrapper15advanceIteratorEPNS_7ManagedEPNS_14ObjectIteratorERPNS_6StringEPjPNS_8PropertyEPNS_18PropertyAttributesE@Base 5.4.0 1
 _ZN3QV414QmlListWrapper3getEPNS_7ManagedEPNS_6StringEPb@Base 5.4.0 1
 _ZN3QV414QmlListWrapper3putEPNS_7ManagedEPNS_6StringENS_8ValueRefE@Base 5.4.0 1
 _ZN3QV414QmlListWrapper4DataC1EP9QV8Engine@Base 5.4.0 1
 _ZN3QV414QmlListWrapper4DataC2EP9QV8Engine@Base 5.4.0 1
 _ZN3QV414QmlListWrapper4DataD1Ev@Base 5.4.0
 _ZN3QV414QmlListWrapper4DataD2Ev@Base 5.4.0
 _ZN3QV414QmlListWrapper6createEP9QV8EngineP7QObjectii@Base 5.2.0~beta1 1
 _ZN3QV414QmlListWrapper6createEP9QV8EngineRK16QQmlListPropertyI7QObjectEi@Base 5.2.0~beta1 1
 _ZN3QV414QmlListWrapper7destroyEPNS_7ManagedE@Base 5.2.0~beta1 1
 _ZN3QV414QmlTypeWrapper11static_vtblE@Base 5.2.0~beta1
 _ZN3QV414QmlTypeWrapper3getEPNS_7ManagedEPNS_6StringEPb@Base 5.4.0 1
 _ZN3QV414QmlTypeWrapper3putEPNS_7ManagedEPNS_6StringENS_8ValueRefE@Base 5.4.0 1
 _ZN3QV414QmlTypeWrapper4DataC1EP9QV8Engine@Base 5.4.0 1
 _ZN3QV414QmlTypeWrapper4DataC2EP9QV8Engine@Base 5.4.0 1
 _ZN3QV414QmlTypeWrapper4DataD1Ev@Base 5.4.0
 _ZN3QV414QmlTypeWrapper4DataD2Ev@Base 5.4.0
 _ZN3QV414QmlTypeWrapper5queryEPKNS_7ManagedEPNS_6StringE@Base 5.4.0 1
 _ZN3QV414QmlTypeWrapper6createEP9QV8EngineP7QObjectP17QQmlTypeNameCachePKvNS0_12TypeNameModeE@Base 5.2.0~beta1 1
 _ZN3QV414QmlTypeWrapper6createEP9QV8EngineP7QObjectP8QQmlTypeNS0_12TypeNameModeE@Base 5.2.0~beta1 1
 _ZN3QV414QmlTypeWrapper7destroyEPNS_7ManagedE@Base 5.2.0~beta1 1
 _ZN3QV414QmlTypeWrapper9isEqualToEPNS_7ManagedES2_@Base 5.2.0~rc1 1
 _ZN3QV414RuntimeHelpers11equalHelperENS_8ValueRefES1_@Base 5.3.0
 _ZN3QV414RuntimeHelpers11strictEqualENS_8ValueRefES1_@Base 5.3.0
 _ZN3QV414RuntimeHelpers14numberToStringEP7QStringdi@Base 5.3.0
 _ZN3QV414RuntimeHelpers14stringToNumberERK7QString@Base 5.3.0
 _ZN3QV414RuntimeHelpers15convertToObjectEPNS_16ExecutionContextENS_8ValueRefE@Base 5.3.0
 _ZN3QV414RuntimeHelpers15convertToStringEPNS_16ExecutionContextENS_8ValueRefE@Base 5.3.0
 _ZN3QV414RuntimeHelpers16stringFromNumberEPNS_16ExecutionContextEd@Base 5.3.0
 _ZN3QV414RuntimeHelpers18objectDefaultValueEPNS_6ObjectEi@Base 5.3.0
 _ZN3QV414RuntimeHelpers8toObjectEPNS_16ExecutionContextENS_8ValueRefE@Base 5.3.0
 _ZN3QV414RuntimeHelpers8toStringEPNS_16ExecutionContextENS_8ValueRefE@Base 5.3.0
 _ZN3QV414RuntimeHelpers9addHelperEPNS_16ExecutionContextENS_8ValueRefES3_@Base 5.3.0
 _ZN3QV415BuiltinFunction11static_vtblE@Base 5.4.0
 _ZN3QV415BuiltinFunction4DataC1EPNS_16ExecutionContextEPNS_6StringEPFyPNS_11CallContextEE@Base 5.4.0
 _ZN3QV415BuiltinFunction4DataC2EPNS_16ExecutionContextEPNS_6StringEPFyPNS_11CallContextEE@Base 5.4.0
 _ZN3QV415BuiltinFunction4callEPNS_7ManagedEPNS_8CallDataE@Base 5.4.0 1
 _ZN3QV415BuiltinFunction9constructEPNS_7ManagedEPNS_8CallDataE@Base 5.4.0 1
 _ZN3QV415EvalISelFactoryD0Ev@Base 5.3.0 1
 _ZN3QV415EvalISelFactoryD1Ev@Base 5.3.0 1
 _ZN3QV415EvalISelFactoryD2Ev@Base 5.3.0 1
 _ZN3QV415ExecutionEngine11markObjectsEv@Base 5.2.0~beta1
 _ZN3QV415ExecutionEngine11resolvedUrlERK7QString@Base 5.2.0~beta1
 _ZN3QV415ExecutionEngine13newDateObjectENS_8ValueRefE@Base 5.2.0~beta1
 _ZN3QV415ExecutionEngine13newDateObjectERK9QDateTime@Base 5.2.0~beta1
 _ZN3QV415ExecutionEngine13newIdentifierERK7QString@Base 5.2.0~beta1
 _ZN3QV415ExecutionEngine13qmlExtensionsEv@Base 5.2.0~beta1
 _ZN3QV415ExecutionEngine14catchExceptionEPNS_16ExecutionContextEP7QVectorINS_10StackFrameEE@Base 5.2.0~beta1
 _ZN3QV415ExecutionEngine14enableDebuggerEv@Base 5.2.0~beta1
 _ZN3QV415ExecutionEngine14enableProfilerEv@Base 5.3.0
 _ZN3QV415ExecutionEngine14newArrayObjectEPNS_13InternalClassE@Base 5.2.0~beta1
 _ZN3QV415ExecutionEngine14newArrayObjectERK11QStringList@Base 5.2.0~beta1
 _ZN3QV415ExecutionEngine14newArrayObjectEi@Base 5.2.0~beta1
 _ZN3QV415ExecutionEngine14newErrorObjectENS_8ValueRefE@Base 5.2.0~beta1
 _ZN3QV415ExecutionEngine14throwExceptionENS_8ValueRefE@Base 5.2.0~beta1
 _ZN3QV415ExecutionEngine15initRootContextEv@Base 5.2.0~beta1
 _ZN3QV415ExecutionEngine15newNumberObjectENS_8ValueRefE@Base 5.2.0~beta1
 _ZN3QV415ExecutionEngine15newRegExpObjectEPNS_6RegExpEb@Base 5.4.0
 _ZN3QV415ExecutionEngine15newRegExpObjectERK7QRegExp@Base 5.2.0~beta1
 _ZN3QV415ExecutionEngine15newRegExpObjectERK7QStringi@Base 5.2.0~beta1
 _ZN3QV415ExecutionEngine15newStringObjectENS_8ValueRefE@Base 5.2.0~beta1
 _ZN3QV415ExecutionEngine16newBooleanObjectENS_8ValueRefE@Base 5.2.0~beta1
 _ZN3QV415ExecutionEngine16newVariantObjectERK8QVariant@Base 5.2.0~beta1
 _ZN3QV415ExecutionEngine17newURIErrorObjectENS_8ValueRefE@Base 5.2.0~beta1
 _ZN3QV415ExecutionEngine17pushGlobalContextEv@Base 5.2.0~beta1
 _ZN3QV415ExecutionEngine18newTypeErrorObjectERK7QString@Base 5.2.0~beta1
 _ZN3QV415ExecutionEngine19newRangeErrorObjectERK7QString@Base 5.2.0~beta1
 _ZN3QV415ExecutionEngine19recheckCStackLimitsEv@Base 5.2.0~rc1
 _ZN3QV415ExecutionEngine20newSyntaxErrorObjectERK7QString@Base 5.2.0~beta1
 _ZN3QV415ExecutionEngine20newSyntaxErrorObjectERK7QStringS3_ii@Base 5.2.0~beta1
 _ZN3QV415ExecutionEngine23newReferenceErrorObjectERK7QString@Base 5.2.0~beta1
 _ZN3QV415ExecutionEngine23newReferenceErrorObjectERK7QStringS3_ii@Base 5.2.0~beta1
 _ZN3QV415ExecutionEngine24catchExceptionAsQmlErrorEPNS_16ExecutionContextE@Base 5.2.0~rc1
 _ZN3QV415ExecutionEngine24newForEachIteratorObjectEPNS_16ExecutionContextEPNS_6ObjectE@Base 5.4.0
 _ZN3QV415ExecutionEngine25requireArgumentsAccessorsEi@Base 5.2.0~beta1
 _ZN3QV415ExecutionEngine8newClassERKNS_13InternalClassE@Base 5.2.0~beta1
 _ZN3QV415ExecutionEngine9newObjectEPNS_13InternalClassE@Base 5.2.0~beta1
 _ZN3QV415ExecutionEngine9newObjectEv@Base 5.2.0~beta1
 _ZN3QV415ExecutionEngine9newStringERK7QString@Base 5.2.0~beta1
 _ZN3QV415ExecutionEngineC1EPNS_15EvalISelFactoryE@Base 5.3.0 1
 _ZN3QV415ExecutionEngineC2EPNS_15EvalISelFactoryE@Base 5.3.0 1
 _ZN3QV415ExecutionEngineD1Ev@Base 5.2.0~beta1
 _ZN3QV415ExecutionEngineD2Ev@Base 5.2.0~beta1
 _ZN3QV415PersistentValueC1ENS_8ValueRefE@Base 5.2.0~beta1 1
 _ZN3QV415PersistentValueC1ERKS0_@Base 5.2.0~beta1 1
 _ZN3QV415PersistentValueC1Ey@Base 5.2.0~beta1 1
 _ZN3QV415PersistentValueC2ENS_8ValueRefE@Base 5.2.0~beta1 1
 _ZN3QV415PersistentValueC2ERKS0_@Base 5.2.0~beta1 1
 _ZN3QV415PersistentValueC2Ey@Base 5.2.0~beta1 1
 _ZN3QV415PersistentValueD1Ev@Base 5.2.0~beta1 1
 _ZN3QV415PersistentValueD2Ev@Base 5.2.0~beta1 1
 _ZN3QV415PersistentValueaSENS_8ValueRefE@Base 5.2.0~beta1 1
 _ZN3QV415PersistentValueaSERKS0_@Base 5.2.0~beta1 1
 _ZN3QV415PersistentValueaSEy@Base 5.2.0~beta1 1
 _ZN3QV415SimpleArrayData10push_frontEPNS_6ObjectEPNS_5ValueEj@Base 5.3.0
 _ZN3QV415SimpleArrayData10reallocateEPNS_6ObjectEjb@Base 5.3.0
 _ZN3QV415SimpleArrayData11markObjectsEPNS_7ManagedEPNS_15ExecutionEngineE@Base 5.3.0 1
 _ZN3QV415SimpleArrayData11static_vtblE@Base 5.3.0
 _ZN3QV415SimpleArrayData12setAttributeEPNS_6ObjectEjNS_18PropertyAttributesE@Base 5.3.0
 _ZN3QV415SimpleArrayData3delEPNS_6ObjectEj@Base 5.3.0
 _ZN3QV415SimpleArrayData3getEPKNS_9ArrayDataEj@Base 5.3.0
 _ZN3QV415SimpleArrayData3putEPNS_6ObjectEjNS_8ValueRefE@Base 5.3.0
 _ZN3QV415SimpleArrayData6lengthEPKNS_9ArrayDataE@Base 5.3.0
 _ZN3QV415SimpleArrayData8putArrayEPNS_6ObjectEjPNS_5ValueEj@Base 5.3.0
 _ZN3QV415SimpleArrayData8truncateEPNS_6ObjectEj@Base 5.3.0
 _ZN3QV415SimpleArrayData9attributeEPKNS_9ArrayDataEj@Base 5.3.0
 _ZN3QV415SimpleArrayData9pop_frontEPNS_6ObjectE@Base 5.3.0
 _ZN3QV415SparseArrayData10push_frontEPNS_6ObjectEPNS_5ValueEj@Base 5.3.0
 _ZN3QV415SparseArrayData10reallocateEPNS_6ObjectEjb@Base 5.3.0
 _ZN3QV415SparseArrayData11markObjectsEPNS_7ManagedEPNS_15ExecutionEngineE@Base 5.3.0 1
 _ZN3QV415SparseArrayData11static_vtblE@Base 5.3.0
 _ZN3QV415SparseArrayData12setAttributeEPNS_6ObjectEjNS_18PropertyAttributesE@Base 5.3.0
 _ZN3QV415SparseArrayData3delEPNS_6ObjectEj@Base 5.3.0
 _ZN3QV415SparseArrayData3getEPKNS_9ArrayDataEj@Base 5.3.0
 _ZN3QV415SparseArrayData3putEPNS_6ObjectEjNS_8ValueRefE@Base 5.3.0
 _ZN3QV415SparseArrayData4freeEPNS_9ArrayDataEj@Base 5.3.0
 _ZN3QV415SparseArrayData6lengthEPKNS_9ArrayDataE@Base 5.3.0
 _ZN3QV415SparseArrayData7destroyEPNS_7ManagedE@Base 5.3.0 1
 _ZN3QV415SparseArrayData8allocateEPNS_6ObjectEb@Base 5.3.0
 _ZN3QV415SparseArrayData8putArrayEPNS_6ObjectEjPNS_5ValueEj@Base 5.3.0
 _ZN3QV415SparseArrayData8truncateEPNS_6ObjectEj@Base 5.3.0
 _ZN3QV415SparseArrayData9attributeEPKNS_9ArrayDataEj@Base 5.3.0
 _ZN3QV415SparseArrayData9pop_frontEPNS_6ObjectE@Base 5.3.0
 _ZN3QV416ExecutionContext10throwErrorENS_8ValueRefE@Base 5.2.0~beta1
 _ZN3QV416ExecutionContext10throwErrorERK7QString@Base 5.2.0~beta1
 _ZN3QV416ExecutionContext11getPropertyEPNS_6StringE@Base 5.4.0
 _ZN3QV416ExecutionContext11markObjectsEPNS_7ManagedEPNS_15ExecutionEngineE@Base 5.2.1 1
 _ZN3QV416ExecutionContext11setPropertyEPNS_6StringENS_8ValueRefE@Base 5.4.0
 _ZN3QV416ExecutionContext11static_vtblE@Base 5.2.1
 _ZN3QV416ExecutionContext13newQmlContextEPNS_14FunctionObjectEPNS_6ObjectE@Base 5.4.0
 _ZN3QV416ExecutionContext13throwURIErrorENS_8ValueRefE@Base 5.2.0~beta1
 _ZN3QV416ExecutionContext14catchExceptionEP7QVectorINS_10StackFrameEE@Base 5.2.0~beta1
 _ZN3QV416ExecutionContext14deletePropertyEPNS_6StringE@Base 5.4.0
 _ZN3QV416ExecutionContext14newCallContextEPNS_14FunctionObjectEPNS_8CallDataE@Base 5.2.0~beta1
 _ZN3QV416ExecutionContext14newWithContextEPNS_6ObjectE@Base 5.4.0
 _ZN3QV416ExecutionContext14throwTypeErrorERK7QString@Base 5.2.0~beta1
 _ZN3QV416ExecutionContext14throwTypeErrorEv@Base 5.2.0~beta1
 _ZN3QV416ExecutionContext15newCatchContextEPNS_6StringENS_8ValueRefE@Base 5.4.0
 _ZN3QV416ExecutionContext15throwRangeErrorENS_8ValueRefE@Base 5.2.0~beta1
 _ZN3QV416ExecutionContext15throwRangeErrorERK7QString@Base 5.2.0~rc1
 _ZN3QV416ExecutionContext16throwSyntaxErrorERK7QString@Base 5.2.0~beta1
 _ZN3QV416ExecutionContext16throwSyntaxErrorERK7QStringS3_ii@Base 5.2.0~beta1
 _ZN3QV416ExecutionContext18getPropertyAndBaseEPNS_6StringERPNS_6ObjectE@Base 5.4.0
 _ZN3QV416ExecutionContext18throwUnimplementedERK7QString@Base 5.2.0~beta1
 _ZN3QV416ExecutionContext19throwReferenceErrorENS_8ValueRefE@Base 5.2.0~beta1
 _ZN3QV416ExecutionContext19throwReferenceErrorERK7QStringS3_ii@Base 5.2.0~beta1
 _ZN3QV416ExecutionContext20createMutableBindingEPNS_6StringEb@Base 5.4.0
 _ZN3QV417QmlBindingWrapper11markObjectsEPNS_7ManagedEPNS_15ExecutionEngineE@Base 5.4.0 1
 _ZN3QV417QmlBindingWrapper11static_vtblE@Base 5.4.0
 _ZN3QV417QmlBindingWrapper28createQmlCallableForFunctionEP15QQmlContextDataP7QObjectPNS_8FunctionERK5QListI10QByteArrayEP7QString@Base 5.4.0 1
 _ZN3QV417QmlBindingWrapper4DataC1EPNS_16ExecutionContextEPNS_6ObjectE@Base 5.4.0
 _ZN3QV417QmlBindingWrapper4DataC1EPNS_16ExecutionContextEPNS_8FunctionEPNS_6ObjectE@Base 5.4.0
 _ZN3QV417QmlBindingWrapper4DataC2EPNS_16ExecutionContextEPNS_6ObjectE@Base 5.4.0
 _ZN3QV417QmlBindingWrapper4DataC2EPNS_16ExecutionContextEPNS_8FunctionEPNS_6ObjectE@Base 5.4.0
 _ZN3QV417QmlBindingWrapper4callEPNS_7ManagedEPNS_8CallDataE@Base 5.4.0 1
 _ZN3QV417QmlContextWrapper10getContextENS_8ValueRefE@Base 5.2.0~beta1
 _ZN3QV417QmlContextWrapper11markObjectsEPNS_7ManagedEPNS_15ExecutionEngineE@Base 5.2.1 1
 _ZN3QV417QmlContextWrapper11static_vtblE@Base 5.2.0~beta1
 _ZN3QV417QmlContextWrapper14callingContextEPNS_15ExecutionEngineE@Base 5.2.0~beta1
 _ZN3QV417QmlContextWrapper14idObjectsArrayEv@Base 5.2.1
 _ZN3QV417QmlContextWrapper19qmlSingletonWrapperEP9QV8EnginePNS_6StringE@Base 5.4.0 1
 _ZN3QV417QmlContextWrapper20takeContextOwnershipENS_8ValueRefE@Base 5.2.0~beta1
 _ZN3QV417QmlContextWrapper23registerQmlDependenciesEPNS_15ExecutionEngineEPKNS_12CompiledData8FunctionE@Base 5.2.0~rc1
 _ZN3QV417QmlContextWrapper3getEPNS_7ManagedEPNS_6StringEPb@Base 5.4.0 1
 _ZN3QV417QmlContextWrapper3putEPNS_7ManagedEPNS_6StringENS_8ValueRefE@Base 5.4.0 1
 _ZN3QV417QmlContextWrapper4DataC1EP9QV8EngineP15QQmlContextDataP7QObjectb@Base 5.4.0 1
 _ZN3QV417QmlContextWrapper4DataC2EP9QV8EngineP15QQmlContextDataP7QObjectb@Base 5.4.0 1
 _ZN3QV417QmlContextWrapper4DataD1Ev@Base 5.4.0
 _ZN3QV417QmlContextWrapper4DataD2Ev@Base 5.4.0
 _ZN3QV417QmlContextWrapper7destroyEPNS_7ManagedE@Base 5.2.0~beta1 1
 _ZN3QV417QmlContextWrapper8qmlScopeEP9QV8EngineP15QQmlContextDataP7QObject@Base 5.2.0~beta1 1
 _ZN3QV417QmlContextWrapper8urlScopeEP9QV8EngineRK4QUrl@Base 5.2.0~beta1 1
 _ZN3QV419QmlValueTypeWrapper11static_vtblE@Base 5.2.0~beta1
 _ZN3QV419QmlValueTypeWrapper15method_toStringEPNS_11CallContextE@Base 5.2.0~rc1
 _ZN3QV419QmlValueTypeWrapper3getEPNS_7ManagedEPNS_6StringEPb@Base 5.4.0 1
 _ZN3QV419QmlValueTypeWrapper3putEPNS_7ManagedEPNS_6StringENS_8ValueRefE@Base 5.4.0 1
 _ZN3QV419QmlValueTypeWrapper4DataC1EP9QV8EngineNS0_10ObjectTypeE@Base 5.4.0 1
 _ZN3QV419QmlValueTypeWrapper4DataC2EP9QV8EngineNS0_10ObjectTypeE@Base 5.4.0 1
 _ZN3QV419QmlValueTypeWrapper5queryEPKNS_7ManagedEPNS_6StringE@Base 5.4.0 1
 _ZN3QV419QmlValueTypeWrapper6createEP9QV8EngineP7QObjectiP13QQmlValueType@Base 5.2.0~beta1 1
 _ZN3QV419QmlValueTypeWrapper6createEP9QV8EngineRK8QVariantP13QQmlValueType@Base 5.2.0~beta1 1
 _ZN3QV419QmlValueTypeWrapper7destroyEPNS_7ManagedE@Base 5.2.0~beta1 1
 _ZN3QV419QmlValueTypeWrapper7isEqualERK8QVariant@Base 5.2.0~beta1
 _ZN3QV419QmlValueTypeWrapper9initProtoEPNS_15ExecutionEngineE@Base 5.2.0~beta1
 _ZN3QV419QmlValueTypeWrapper9isEqualToEPNS_7ManagedES2_@Base 5.2.0~beta1 1
 _ZN3QV422PersistentValuePrivate14removeFromListEv@Base 5.2.0~beta1
 _ZN3QV422PersistentValuePrivate4initEv@Base 5.2.0~beta1
 _ZN3QV422PersistentValuePrivate5derefEv@Base 5.2.0~beta1
 _ZN3QV422PersistentValuePrivate6detachEyb@Base 5.2.0~beta1
 _ZN3QV422PersistentValuePrivateC1EyPNS_15ExecutionEngineEb@Base 5.2.0~beta1
 _ZN3QV422PersistentValuePrivateC2EyPNS_15ExecutionEngineEb@Base 5.2.0~beta1
 _ZN3QV422PersistentValuePrivateD0Ev@Base 5.2.0~beta1
 _ZN3QV422PersistentValuePrivateD1Ev@Base 5.2.0~beta1
 _ZN3QV422PersistentValuePrivateD2Ev@Base 5.2.0~beta1
 _ZN3QV424EvalInstructionSelection7compileEb@Base 5.3.0 1
 _ZN3QV424EvalInstructionSelectionC1EPNS_19ExecutableAllocatorEPNS_2IR6ModuleEPNS_8Compiler15JSUnitGeneratorE@Base 5.3.0 1
 _ZN3QV424EvalInstructionSelectionC2EPNS_19ExecutableAllocatorEPNS_2IR6ModuleEPNS_8Compiler15JSUnitGeneratorE@Base 5.3.0 1
 _ZN3QV424EvalInstructionSelectionD0Ev@Base 5.3.0 1
 _ZN3QV424EvalInstructionSelectionD1Ev@Base 5.3.0 1
 _ZN3QV424EvalInstructionSelectionD2Ev@Base 5.3.0 1
 _ZN3QV42IR6Module11newFunctionERK7QStringPNS0_8FunctionE@Base 5.3.0
 _ZN3QV42IR6Module11setFileNameERK7QString@Base 5.3.0
 _ZN3QV42IR6ModuleD1Ev@Base 5.3.0
 _ZN3QV42IR6ModuleD2Ev@Base 5.3.0
 _ZN3QV42IR9IRDecoder11callBuiltinEPNS0_4CallEPNS0_4ExprE@Base 5.4.0 1
 _ZN3QV42IR9IRDecoder8visitExpEPNS0_3ExpE@Base 5.3.0 1
 _ZN3QV42IR9IRDecoder9visitMoveEPNS0_4MoveE@Base 5.3.0 1
 _ZN3QV42IR9IRDecoderD0Ev@Base 5.3.0 1
 _ZN3QV42IR9IRDecoderD1Ev@Base 5.3.0 1
 _ZN3QV42IR9IRDecoderD2Ev@Base 5.3.0 1
 _ZN3QV42IR9Optimizer13showMeTheCodeEPNS0_8FunctionE@Base 5.3.0 1
 _ZN3QV42IR9Optimizer15convertOutOfSSAEv@Base 5.3.0 1
 _ZN3QV42IR9Optimizer22calculateOptionalJumpsEv@Base 5.3.0 1
 _ZN3QV42IR9Optimizer3runEP17QQmlEnginePrivatebb@Base 5.4.0 1
 _ZN3QV42IR9OptimizerC1EPNS0_8FunctionE@Base 5.3.1 1
 _ZN3QV42IR9OptimizerC2EPNS0_8FunctionE@Base 5.3.1 1
 (arch=amd64 armhf i386)_ZN3QV43JIT20InstructionSelection10getElementEPNS_2IR4ExprES4_S4_@Base 5.4.0 1
 (arch=amd64 armhf i386)_ZN3QV43JIT20InstructionSelection10loadRegexpEPNS_2IR6RegExpEPNS2_4ExprE@Base 5.4.0 1
 (arch=amd64 armhf i386)_ZN3QV43JIT20InstructionSelection10loadStringERK7QStringPNS_2IR4ExprE@Base 5.4.0 1
 (arch=amd64 armhf i386)_ZN3QV43JIT20InstructionSelection10setElementEPNS_2IR4ExprES4_S4_@Base 5.3.0 1
 (arch=amd64 armhf i386)_ZN3QV43JIT20InstructionSelection10swapValuesEPNS_2IR4ExprES4_@Base 5.4.0 1
 (arch=amd64 armhf i386)_ZN3QV43JIT20InstructionSelection10visitCJumpEPNS_2IR5CJumpE@Base 5.3.0 1
 (arch=amd64 armhf i386)_ZN3QV43JIT20InstructionSelection11convertTypeEPNS_2IR4ExprES4_@Base 5.4.0 1
 (arch=amd64 armhf i386)_ZN3QV43JIT20InstructionSelection11getPropertyEPNS_2IR4ExprERK7QStringS4_@Base 5.4.0 1
 (arch=amd64 armhf i386)_ZN3QV43JIT20InstructionSelection11initClosureEPNS_2IR7ClosureEPNS2_4ExprE@Base 5.4.0 1
 (arch=amd64 armhf i386)_ZN3QV43JIT20InstructionSelection11setPropertyEPNS_2IR4ExprES4_RK7QString@Base 5.3.0 1
 (arch=amd64 armhf i386)_ZN3QV43JIT20InstructionSelection12callPropertyEPNS_2IR4ExprERK7QStringPNS2_8ExprListES4_@Base 5.4.0 1
 (arch=amd64 armhf i386)_ZN3QV43JIT20InstructionSelection13callSubscriptEPNS_2IR4ExprES4_PNS2_8ExprListES4_@Base 5.4.0 1
 (arch=amd64 armhf i386)_ZN3QV43JIT20InstructionSelection14constructValueEPNS_2IR4ExprEPNS2_8ExprListES4_@Base 5.4.0 1
 (arch=amd64 armhf i386)_ZN3QV43JIT20InstructionSelection14loadQmlIdArrayEPNS_2IR4ExprE@Base 5.4.0 1
 (arch=amd64 armhf i386)_ZN3QV43JIT20InstructionSelection14loadThisObjectEPNS_2IR4ExprE@Base 5.4.0 1
 (arch=amd64 armhf i386)_ZN3QV43JIT20InstructionSelection15prepareCallDataEPNS_2IR8ExprListEPNS2_4ExprE@Base 5.3.0 1
 (arch=amd64 armhf i386)_ZN3QV43JIT20InstructionSelection15visitCJumpEqualEPNS_2IR5BinopEPNS2_10BasicBlockES6_@Base 5.3.0 1
 (arch=amd64 armhf i386)_ZN3QV43JIT20InstructionSelection16addConstantTableEP7QVectorINS_9PrimitiveEE@Base 5.3.0 1
 (arch=amd64 armhf i386)_ZN3QV43JIT20InstructionSelection16callBuiltinThrowEPNS_2IR4ExprE@Base 5.3.0 1
 (arch=amd64 armhf i386)_ZN3QV43JIT20InstructionSelection16loadQmlSingletonERK7QStringPNS_2IR4ExprE@Base 5.4.0 1
 (arch=amd64 armhf i386)_ZN3QV43JIT20InstructionSelection16visitCJumpDoubleENS_2IR5AluOpEPNS2_4ExprES5_PNS2_10BasicBlockES7_@Base 5.3.0 1
 (arch=amd64 armhf i386)_ZN3QV43JIT20InstructionSelection16visitCJumpSInt32ENS_2IR5AluOpEPNS2_4ExprES5_PNS2_10BasicBlockES7_@Base 5.4.0 1
 (arch=amd64 armhf i386)_ZN3QV43JIT20InstructionSelection16visitCJumpStrictEPNS_2IR5BinopEPNS2_10BasicBlockES6_@Base 5.3.0 1
 (arch=amd64 armhf i386)_ZN3QV43JIT20InstructionSelection17constructPropertyEPNS_2IR4ExprERK7QStringPNS2_8ExprListES4_@Base 5.4.0 1
 (arch=amd64 armhf i386)_ZN3QV43JIT20InstructionSelection17convertTypeToBoolEPNS_2IR4ExprES4_@Base 5.4.0 1
 (arch=amd64 armhf i386)_ZN3QV43JIT20InstructionSelection18backendCompileStepEv@Base 5.3.0 1
 (arch=amd64 armhf i386)_ZN3QV43JIT20InstructionSelection18callBuiltinInvalidEPNS_2IR4NameEPNS2_8ExprListEPNS2_4ExprE@Base 5.4.0 1
 (arch=amd64 armhf i386)_ZN3QV43JIT20InstructionSelection18callBuiltinReThrowEv@Base 5.3.0 1
 (arch=amd64 armhf i386)_ZN3QV43JIT20InstructionSelection18getQObjectPropertyEPNS_2IR4ExprEibbiS4_@Base 5.4.0 1
 (arch=amd64 armhf i386)_ZN3QV43JIT20InstructionSelection18loadQmlScopeObjectEPNS_2IR4ExprE@Base 5.4.0 1
 (arch=amd64 armhf i386)_ZN3QV43JIT20InstructionSelection18setQObjectPropertyEPNS_2IR4ExprES4_i@Base 5.3.0 1
 (arch=amd64 armhf i386)_ZN3QV43JIT20InstructionSelection19callBuiltinPopScopeEv@Base 5.3.0 1
 (arch=amd64 armhf i386)_ZN3QV43JIT20InstructionSelection19convertTypeSlowPathEPNS_2IR4ExprES4_@Base 5.4.0 1
 (arch=amd64 armhf i386)_ZN3QV43JIT20InstructionSelection19convertTypeToDoubleEPNS_2IR4ExprES4_@Base 5.4.0 1
 (arch=amd64 armhf i386)_ZN3QV43JIT20InstructionSelection19convertTypeToSInt32EPNS_2IR4ExprES4_@Base 5.4.0 1
 (arch=amd64 armhf i386)_ZN3QV43JIT20InstructionSelection19convertTypeToUInt32EPNS_2IR4ExprES4_@Base 5.4.0 1
 (arch=amd64 armhf i386)_ZN3QV43JIT20InstructionSelection20loadQmlContextObjectEPNS_2IR4ExprE@Base 5.4.0 1
 (arch=amd64 armhf i386)_ZN3QV43JIT20InstructionSelection20visitCJumpStrictBoolEPNS_2IR5BinopEPNS2_10BasicBlockES6_@Base 5.3.0 1
 (arch=amd64 armhf i386)_ZN3QV43JIT20InstructionSelection21callBuiltinDeclareVarEbRK7QString@Base 5.3.0 1
 (arch=amd64 armhf i386)_ZN3QV43JIT20InstructionSelection21callBuiltinDeleteNameERK7QStringPNS_2IR4ExprE@Base 5.4.0 1
 (arch=amd64 armhf i386)_ZN3QV43JIT20InstructionSelection21callBuiltinTypeofNameERK7QStringPNS_2IR4ExprE@Base 5.4.0 1
 (arch=amd64 armhf i386)_ZN3QV43JIT20InstructionSelection21getActivationPropertyEPKNS_2IR4NameEPNS2_4ExprE@Base 5.4.0 1
 (arch=amd64 armhf i386)_ZN3QV43JIT20InstructionSelection21setActivationPropertyEPNS_2IR4ExprERK7QString@Base 5.3.0 1
 (arch=amd64 armhf i386)_ZN3QV43JIT20InstructionSelection22callBuiltinDefineArrayEPNS_2IR4ExprEPNS2_8ExprListE@Base 5.4.0 1
 (arch=amd64 armhf i386)_ZN3QV43JIT20InstructionSelection22callBuiltinDeleteValueEPNS_2IR4ExprE@Base 5.4.0 1
 (arch=amd64 armhf i386)_ZN3QV43JIT20InstructionSelection22callBuiltinTypeofValueEPNS_2IR4ExprES4_@Base 5.4.0 1
 (arch=amd64 armhf i386)_ZN3QV43JIT20InstructionSelection22loadQmlImportedScriptsEPNS_2IR4ExprE@Base 5.4.0 1
 (arch=amd64 armhf i386)_ZN3QV43JIT20InstructionSelection23callBuiltinDeleteMemberEPNS_2IR4ExprERK7QStringS4_@Base 5.4.0 1
 (arch=amd64 armhf i386)_ZN3QV43JIT20InstructionSelection23callBuiltinTypeofMemberEPNS_2IR4ExprERK7QStringS4_@Base 5.4.0 1
 (arch=amd64 armhf i386)_ZN3QV43JIT20InstructionSelection23visitCJumpNullUndefinedENS_2IR4TypeEPNS2_5BinopEPNS2_10BasicBlockES7_@Base 5.3.0 1
 (arch=amd64 armhf i386)_ZN3QV43JIT20InstructionSelection24calculateRegistersToSaveERK7QVectorINS0_12RegisterInfoEE@Base 5.4.0 1
 (arch=amd64 armhf i386)_ZN3QV43JIT20InstructionSelection24callBuiltinPushWithScopeEPNS_2IR4ExprE@Base 5.4.0 1
 (arch=amd64 armhf i386)_ZN3QV43JIT20InstructionSelection24prepareVariableArgumentsEPNS_2IR8ExprListE@Base 5.3.0 1
 (arch=amd64 armhf i386)_ZN3QV43JIT20InstructionSelection25callBuiltinPushCatchScopeERK7QString@Base 5.3.0 1
 (arch=amd64 armhf i386)_ZN3QV43JIT20InstructionSelection26callBuiltinDeleteSubscriptEPNS_2IR4ExprES4_S4_@Base 5.4.0 1
 (arch=amd64 armhf i386)_ZN3QV43JIT20InstructionSelection26callBuiltinTypeofSubscriptEPNS_2IR4ExprES4_S4_@Base 5.4.0 1
 (arch=amd64 armhf i386)_ZN3QV43JIT20InstructionSelection26callBuiltinUnwindExceptionEPNS_2IR4ExprE@Base 5.4.0 1
 (arch=amd64 armhf i386)_ZN3QV43JIT20InstructionSelection27constructActivationPropertyEPNS_2IR4NameEPNS2_8ExprListEPNS2_4ExprE@Base 5.4.0 1
 (arch=amd64 armhf i386)_ZN3QV43JIT20InstructionSelection29visitCJumpStrictNullUndefinedENS_2IR4TypeEPNS2_5BinopEPNS2_10BasicBlockES7_@Base 5.3.0 1
 (arch=amd64 armhf i386)_ZN3QV43JIT20InstructionSelection30callBuiltinConvertThisToObjectEv@Base 5.3.0 1
 (arch=amd64 armhf i386)_ZN3QV43JIT20InstructionSelection30callBuiltinDefineObjectLiteralEPNS_2IR4ExprEiPNS2_8ExprListES6_b@Base 5.4.0 1
 (arch=amd64 armhf i386)_ZN3QV43JIT20InstructionSelection30callBuiltinSetupArgumentObjectEPNS_2IR4ExprE@Base 5.4.0 1
 (arch=amd64 armhf i386)_ZN3QV43JIT20InstructionSelection32callBuiltinForeachIteratorObjectEPNS_2IR4ExprES4_@Base 5.4.0 1
 (arch=amd64 armhf i386)_ZN3QV43JIT20InstructionSelection34callBuiltinForeachNextPropertynameEPNS_2IR4ExprES4_@Base 5.4.0 1
 (arch=amd64 armhf i386)_ZN3QV43JIT20InstructionSelection3runEi@Base 5.3.0 1
 (arch=amd64 armhf i386)_ZN3QV43JIT20InstructionSelection4unopENS_2IR5AluOpEPNS2_4ExprES5_@Base 5.4.0 1
 (arch=amd64 armhf i386)_ZN3QV43JIT20InstructionSelection5binopENS_2IR5AluOpEPNS2_4ExprES5_S5_@Base 5.4.0 1
 (arch=amd64 armhf i386)_ZN3QV43JIT20InstructionSelection8visitRetEPNS_2IR3RetE@Base 5.3.0 1
 (arch=amd64 armhf i386)_ZN3QV43JIT20InstructionSelection9callValueEPNS_2IR4ExprEPNS2_8ExprListES4_@Base 5.4.0 1
 (arch=amd64 armhf i386)_ZN3QV43JIT20InstructionSelection9copyValueEPNS_2IR4ExprES4_@Base 5.4.0 1
 (arch=amd64 armhf i386)_ZN3QV43JIT20InstructionSelection9loadConstEPNS_2IR5ConstEPNS2_4ExprE@Base 5.4.0 1
 (arch=amd64 armhf i386)_ZN3QV43JIT20InstructionSelection9visitJumpEPNS_2IR4JumpE@Base 5.3.0 1
 (arch=amd64 armhf i386)_ZN3QV43JIT20InstructionSelectionC1EP17QQmlEnginePrivatePNS_19ExecutableAllocatorEPNS_2IR6ModuleEPNS_8Compiler15JSUnitGeneratorE@Base 5.3.0 1
 (arch=amd64 armhf i386)_ZN3QV43JIT20InstructionSelectionC2EP17QQmlEnginePrivatePNS_19ExecutableAllocatorEPNS_2IR6ModuleEPNS_8Compiler15JSUnitGeneratorE@Base 5.3.0 1
 (optional=gccinternal|arch=amd64 armhf i386)_ZN3QV43JIT20InstructionSelectionD0Ev@Base 5.3.0 1
 (optional=gccinternal|arch=amd64 armhf i386)_ZN3QV43JIT20InstructionSelectionD1Ev@Base 5.3.0 1
 (optional=gccinternal|arch=amd64 armhf i386)_ZN3QV43JIT20InstructionSelectionD2Ev@Base 5.3.0 1
 _ZN3QV44Moth20InstructionSelection10getElementEPNS_2IR4ExprES4_S4_@Base 5.4.0 1
 _ZN3QV44Moth20InstructionSelection10loadRegexpEPNS_2IR6RegExpEPNS2_4ExprE@Base 5.4.0 1
 _ZN3QV44Moth20InstructionSelection10loadStringERK7QStringPNS_2IR4ExprE@Base 5.4.0 1
 _ZN3QV44Moth20InstructionSelection10setElementEPNS_2IR4ExprES4_S4_@Base 5.3.0 1
 _ZN3QV44Moth20InstructionSelection10swapValuesEPNS_2IR4ExprES4_@Base 5.4.0 1
 _ZN3QV44Moth20InstructionSelection10visitCJumpEPNS_2IR5CJumpE@Base 5.3.0 1
 _ZN3QV44Moth20InstructionSelection11binopHelperENS_2IR5AluOpEPNS2_4ExprES5_S5_@Base 5.4.0 1
 _ZN3QV44Moth20InstructionSelection11convertTypeEPNS_2IR4ExprES4_@Base 5.4.0 1
 _ZN3QV44Moth20InstructionSelection11getPropertyEPNS_2IR4ExprERK7QStringS4_@Base 5.4.0 1
 _ZN3QV44Moth20InstructionSelection11initClosureEPNS_2IR7ClosureEPNS2_4ExprE@Base 5.4.0 1
 _ZN3QV44Moth20InstructionSelection11setPropertyEPNS_2IR4ExprES4_RK7QString@Base 5.3.0 1
 _ZN3QV44Moth20InstructionSelection12callPropertyEPNS_2IR4ExprERK7QStringPNS2_8ExprListES4_@Base 5.4.0 1
 _ZN3QV44Moth20InstructionSelection13callSubscriptEPNS_2IR4ExprES4_PNS2_8ExprListES4_@Base 5.4.0 1
 _ZN3QV44Moth20InstructionSelection14constructValueEPNS_2IR4ExprEPNS2_8ExprListES4_@Base 5.4.0 1
 _ZN3QV44Moth20InstructionSelection14loadQmlIdArrayEPNS_2IR4ExprE@Base 5.4.0 1
 _ZN3QV44Moth20InstructionSelection14loadThisObjectEPNS_2IR4ExprE@Base 5.4.0 1
 _ZN3QV44Moth20InstructionSelection15prepareCallArgsEPNS_2IR8ExprListERjPj@Base 5.3.0 1
 _ZN3QV44Moth20InstructionSelection16callBuiltinThrowEPNS_2IR4ExprE@Base 5.3.0 1
 _ZN3QV44Moth20InstructionSelection16loadQmlSingletonERK7QStringPNS_2IR4ExprE@Base 5.4.0 1
 _ZN3QV44Moth20InstructionSelection17constructPropertyEPNS_2IR4ExprERK7QStringPNS2_8ExprListES4_@Base 5.4.0 1
 _ZN3QV44Moth20InstructionSelection18backendCompileStepEv@Base 5.3.0 1
 _ZN3QV44Moth20InstructionSelection18callBuiltinInvalidEPNS_2IR4NameEPNS2_8ExprListEPNS2_4ExprE@Base 5.4.0 1
 _ZN3QV44Moth20InstructionSelection18callBuiltinReThrowEv@Base 5.3.0 1
 _ZN3QV44Moth20InstructionSelection18getQObjectPropertyEPNS_2IR4ExprEibbiS4_@Base 5.4.0 1
 _ZN3QV44Moth20InstructionSelection18loadQmlScopeObjectEPNS_2IR4ExprE@Base 5.4.0 1
 _ZN3QV44Moth20InstructionSelection18patchJumpAddressesEv@Base 5.3.0 1
 _ZN3QV44Moth20InstructionSelection18setQObjectPropertyEPNS_2IR4ExprES4_i@Base 5.3.0 1
 _ZN3QV44Moth20InstructionSelection19callBuiltinPopScopeEv@Base 5.3.0 1
 _ZN3QV44Moth20InstructionSelection20addInstructionHelperENS0_5Instr4TypeERS2_@Base 5.3.0 1
 _ZN3QV44Moth20InstructionSelection20loadQmlContextObjectEPNS_2IR4ExprE@Base 5.4.0 1
 _ZN3QV44Moth20InstructionSelection21callBuiltinDeclareVarEbRK7QString@Base 5.3.0 1
 _ZN3QV44Moth20InstructionSelection21callBuiltinDeleteNameERK7QStringPNS_2IR4ExprE@Base 5.4.0 1
 _ZN3QV44Moth20InstructionSelection21callBuiltinTypeofNameERK7QStringPNS_2IR4ExprE@Base 5.4.0 1
 _ZN3QV44Moth20InstructionSelection21getActivationPropertyEPKNS_2IR4NameEPNS2_4ExprE@Base 5.4.0 1
 _ZN3QV44Moth20InstructionSelection21setActivationPropertyEPNS_2IR4ExprERK7QString@Base 5.3.0 1
 _ZN3QV44Moth20InstructionSelection22callBuiltinDefineArrayEPNS_2IR4ExprEPNS2_8ExprListE@Base 5.4.0 1
 _ZN3QV44Moth20InstructionSelection22callBuiltinDeleteValueEPNS_2IR4ExprE@Base 5.4.0 1
 _ZN3QV44Moth20InstructionSelection22callBuiltinTypeofValueEPNS_2IR4ExprES4_@Base 5.4.0 1
 _ZN3QV44Moth20InstructionSelection22loadQmlImportedScriptsEPNS_2IR4ExprE@Base 5.4.0 1
 _ZN3QV44Moth20InstructionSelection23callBuiltinDeleteMemberEPNS_2IR4ExprERK7QStringS4_@Base 5.4.0 1
 _ZN3QV44Moth20InstructionSelection23callBuiltinTypeofMemberEPNS_2IR4ExprERK7QStringS4_@Base 5.4.0 1
 _ZN3QV44Moth20InstructionSelection24callBuiltinPushWithScopeEPNS_2IR4ExprE@Base 5.4.0 1
 _ZN3QV44Moth20InstructionSelection25callBuiltinPushCatchScopeERK7QString@Base 5.3.0 1
 _ZN3QV44Moth20InstructionSelection26callBuiltinDeleteSubscriptEPNS_2IR4ExprES4_S4_@Base 5.4.0 1
 _ZN3QV44Moth20InstructionSelection26callBuiltinTypeofSubscriptEPNS_2IR4ExprES4_S4_@Base 5.4.0 1
 _ZN3QV44Moth20InstructionSelection26callBuiltinUnwindExceptionEPNS_2IR4ExprE@Base 5.4.0 1
 _ZN3QV44Moth20InstructionSelection27constructActivationPropertyEPNS_2IR4NameEPNS2_8ExprListEPNS2_4ExprE@Base 5.4.0 1
 _ZN3QV44Moth20InstructionSelection30callBuiltinConvertThisToObjectEv@Base 5.3.0 1
 _ZN3QV44Moth20InstructionSelection30callBuiltinDefineObjectLiteralEPNS_2IR4ExprEiPNS2_8ExprListES6_b@Base 5.4.0 1
 _ZN3QV44Moth20InstructionSelection30callBuiltinSetupArgumentObjectEPNS_2IR4ExprE@Base 5.4.0 1
 _ZN3QV44Moth20InstructionSelection32callBuiltinForeachIteratorObjectEPNS_2IR4ExprES4_@Base 5.4.0 1
 _ZN3QV44Moth20InstructionSelection34callBuiltinForeachNextPropertynameEPNS_2IR4ExprES4_@Base 5.4.0 1
 _ZN3QV44Moth20InstructionSelection3runEi@Base 5.3.0 1
 _ZN3QV44Moth20InstructionSelection4unopENS_2IR5AluOpEPNS2_4ExprES5_@Base 5.4.0 1
 _ZN3QV44Moth20InstructionSelection5binopENS_2IR5AluOpEPNS2_4ExprES5_S5_@Base 5.4.0 1
 _ZN3QV44Moth20InstructionSelection8getParamEPNS_2IR4ExprE@Base 5.3.0 1
 _ZN3QV44Moth20InstructionSelection8visitRetEPNS_2IR3RetE@Base 5.3.0 1
 _ZN3QV44Moth20InstructionSelection9callValueEPNS_2IR4ExprEPNS2_8ExprListES4_@Base 5.4.0 1
 _ZN3QV44Moth20InstructionSelection9copyValueEPNS_2IR4ExprES4_@Base 5.4.0 1
 _ZN3QV44Moth20InstructionSelection9loadConstEPNS_2IR5ConstEPNS2_4ExprE@Base 5.4.0 1
 _ZN3QV44Moth20InstructionSelection9visitJumpEPNS_2IR4JumpE@Base 5.3.0 1
 _ZN3QV44Moth20InstructionSelectionC1EP17QQmlEnginePrivatePNS_19ExecutableAllocatorEPNS_2IR6ModuleEPNS_8Compiler15JSUnitGeneratorE@Base 5.3.0 1
 _ZN3QV44Moth20InstructionSelectionC2EP17QQmlEnginePrivatePNS_19ExecutableAllocatorEPNS_2IR6ModuleEPNS_8Compiler15JSUnitGeneratorE@Base 5.3.0 1
 _ZN3QV44Moth20InstructionSelectionD0Ev@Base 5.3.0 1
 _ZN3QV44Moth20InstructionSelectionD1Ev@Base 5.3.0 1
 _ZN3QV44Moth20InstructionSelectionD2Ev@Base 5.3.0 1
 _ZN3QV46Object10getIndexedEPNS_7ManagedEjPb@Base 5.2.0~beta1 1
 _ZN3QV46Object10putIndexedEPNS_7ManagedEjNS_8ValueRefE@Base 5.2.0~beta1 1
 _ZN3QV46Object11internalGetEPNS_6StringEPb@Base 5.4.0
 _ZN3QV46Object11internalPutEPNS_6StringENS_8ValueRefE@Base 5.4.0
 _ZN3QV46Object11markObjectsEPNS_7ManagedEPNS_15ExecutionEngineE@Base 5.2.0~rc1 1
 _ZN3QV46Object11static_vtblE@Base 5.2.0~beta1
 _ZN3QV46Object12insertMemberEPNS_6StringERKNS_8PropertyENS_18PropertyAttributesE@Base 5.4.0
 _ZN3QV46Object12queryIndexedEPKNS_7ManagedEj@Base 5.2.0~beta1 1
 _ZN3QV46Object12setPrototypeEPS0_@Base 5.2.0~beta1
 _ZN3QV46Object13copyArrayDataEPS0_@Base 5.2.0~beta1
 _ZN3QV46Object14deletePropertyEPNS_7ManagedEPNS_6StringE@Base 5.4.0 1
 _ZN3QV46Object14setArrayLengthEj@Base 5.2.0~beta1
 _ZN3QV46Object15advanceIteratorEPNS_7ManagedEPNS_14ObjectIteratorERPNS_6StringEPjPNS_8PropertyEPNS_18PropertyAttributesE@Base 5.4.0 1
 _ZN3QV46Object15initSparseArrayEv@Base 5.3.0
 _ZN3QV46Object17ensureMemberIndexEj@Base 5.2.0~beta1
 _ZN3QV46Object18__getOwnProperty__EPNS_6StringEPNS_18PropertyAttributesE@Base 5.4.0
 _ZN3QV46Object18__getOwnProperty__EjPNS_18PropertyAttributesE@Base 5.2.0~beta1
 _ZN3QV46Object18defineOwnProperty2EPNS_16ExecutionContextEjRKNS_8PropertyENS_18PropertyAttributesE@Base 5.3.0
 _ZN3QV46Object18internalGetIndexedEjPb@Base 5.2.0~beta1
 _ZN3QV46Object18internalPutIndexedEjNS_8ValueRefE@Base 5.2.0~beta1
 _ZN3QV46Object21__defineOwnProperty__EPNS_16ExecutionContextEPNS_6StringERKNS_8PropertyENS_18PropertyAttributesE@Base 5.4.0
 _ZN3QV46Object21__defineOwnProperty__EPNS_16ExecutionContextERK7QStringRKNS_8PropertyENS_18PropertyAttributesE@Base 5.2.0~beta1
 _ZN3QV46Object21__defineOwnProperty__EPNS_16ExecutionContextEjPNS_6StringERKNS_8PropertyENS_18PropertyAttributesE@Base 5.4.0
 _ZN3QV46Object21__defineOwnProperty__EPNS_16ExecutionContextEjRKNS_8PropertyENS_18PropertyAttributesE@Base 5.2.0~beta1
 _ZN3QV46Object21defineDefaultPropertyEPNS_6StringEPFyPNS_11CallContextEEi@Base 5.4.0
 _ZN3QV46Object21defineDefaultPropertyERK7QStringNS_8ValueRefE@Base 5.2.0~beta1
 _ZN3QV46Object21defineDefaultPropertyERK7QStringPFyPNS_11CallContextEEi@Base 5.2.0~rc1
 _ZN3QV46Object21deleteIndexedPropertyEPNS_7ManagedEj@Base 5.2.0~beta1 1
 _ZN3QV46Object22defineAccessorPropertyEPNS_6StringEPFyPNS_11CallContextEES6_@Base 5.4.0
 _ZN3QV46Object22defineAccessorPropertyERK7QStringPFyPNS_11CallContextEES7_@Base 5.2.0~rc1
 _ZN3QV46Object22defineReadonlyPropertyEPNS_6StringENS_8ValueRefE@Base 5.4.0
 _ZN3QV46Object22defineReadonlyPropertyERK7QStringNS_8ValueRefE@Base 5.2.0~beta1
 _ZN3QV46Object22internalDeletePropertyEPNS_6StringE@Base 5.4.0
 _ZN3QV46Object29internalDeleteIndexedPropertyEj@Base 5.2.0~beta1
 _ZN3QV46Object3getEPNS_7ManagedEPNS_6StringEPb@Base 5.4.0 1
 _ZN3QV46Object3putEPNS_16ExecutionContextERK7QStringNS_8ValueRefE@Base 5.2.0~beta1
 _ZN3QV46Object3putEPNS_7ManagedEPNS_6StringENS_8ValueRefE@Base 5.4.0 1
 _ZN3QV46Object4DataC1EPNS_13InternalClassE@Base 5.4.0
 _ZN3QV46Object4DataC2EPNS_13InternalClassE@Base 5.4.0
 _ZN3QV46Object4callEPNS_7ManagedEPNS_8CallDataE@Base 5.3.0 1
 _ZN3QV46Object5queryEPKNS_7ManagedEPNS_6StringE@Base 5.4.0 1
 _ZN3QV46Object8getValueENS_8ValueRefEPKNS_8PropertyENS_18PropertyAttributesE@Base 5.2.0~beta1
 _ZN3QV46Object8putValueEPNS_8PropertyENS_18PropertyAttributesENS_8ValueRefE@Base 5.2.0~beta1
 _ZN3QV46Object9constructEPNS_7ManagedEPNS_8CallDataE@Base 5.3.0 1
 _ZN3QV46Object9getLengthEPKNS_7ManagedE@Base 5.3.0 1
 _ZN3QV46Object9getLookupEPNS_7ManagedEPNS_6LookupE@Base 5.2.0~beta1 1
 (optional=gccinternal)_ZN3QV46Object9push_backENS_8ValueRefE@Base 5.3.0
 _ZN3QV46Object9setLookupEPNS_7ManagedEPNS_6LookupENS_8ValueRefE@Base 5.2.0~beta1 1
 _ZN3QV46Script10precompileEPNS_2IR6ModuleEPNS_8Compiler15JSUnitGeneratorEPNS_15ExecutionEngineERK4QUrlRK7QStringP5QListI9QQmlErrorE@Base 5.3.0
 _ZN3QV46Script10qmlBindingEv@Base 5.2.0~beta1
 _ZN3QV46Script3runEv@Base 5.2.0~beta1
 _ZN3QV46Script5parseEv@Base 5.2.0~beta1
 _ZN3QV46Script8evaluateEPNS_15ExecutionEngineERK7QStringPNS_6ObjectE@Base 5.4.0
 _ZN3QV46Script8functionEv@Base 5.2.0~beta1
 _ZN3QV46ScriptC1EPNS_15ExecutionEngineEPNS_6ObjectEPNS_12CompiledData15CompilationUnitE@Base 5.4.0
 _ZN3QV46ScriptC2EPNS_15ExecutionEngineEPNS_6ObjectEPNS_12CompiledData15CompilationUnitE@Base 5.4.0
 _ZN3QV46ScriptD1Ev@Base 5.2.0~beta1
 _ZN3QV46ScriptD2Ev@Base 5.2.0~beta1
 _ZN3QV46String10getIndexedEPNS_7ManagedEjPb@Base 5.2.0~beta1 1
 _ZN3QV46String10putIndexedEPNS_7ManagedEjNS_8ValueRefE@Base 5.2.0~beta1 1
 _ZN3QV46String11markObjectsEPNS_7ManagedEPNS_15ExecutionEngineE@Base 5.2.0~rc1 1
 _ZN3QV46String11static_vtblE@Base 5.2.0~beta1
 _ZN3QV46String12queryIndexedEPKNS_7ManagedEj@Base 5.2.0~beta1 1
 _ZN3QV46String12toArrayIndexERK7QString@Base 5.2.1
 _ZN3QV46String14deletePropertyEPNS_7ManagedEPS0_@Base 5.4.0 1
 _ZN3QV46String15createHashValueEPK5QChari@Base 5.2.0~beta1
 _ZN3QV46String15createHashValueEPKci@Base 5.2.0~beta1
 _ZN3QV46String21deleteIndexedPropertyEPNS_7ManagedEj@Base 5.2.0~beta1 1
 _ZN3QV46String3getEPNS_7ManagedEPS0_Pb@Base 5.4.0 1
 _ZN3QV46String3putEPNS_7ManagedEPS0_NS_8ValueRefE@Base 5.4.0 1
 _ZN3QV46String4Data6appendEPKS1_P5QChar@Base 5.4.0
 _ZN3QV46String4DataC1EPNS_15ExecutionEngineEPS0_S4_@Base 5.4.0
 _ZN3QV46String4DataC1EPNS_15ExecutionEngineERK7QString@Base 5.4.0
 _ZN3QV46String4DataC2EPNS_15ExecutionEngineEPS0_S4_@Base 5.4.0
 _ZN3QV46String4DataC2EPNS_15ExecutionEngineERK7QString@Base 5.4.0
 _ZN3QV46String5queryEPKNS_7ManagedEPS0_@Base 5.4.0 1
 _ZN3QV46String7destroyEPNS_7ManagedE@Base 5.2.0~beta1 1
 _ZN3QV46String9getLengthEPKNS_7ManagedE@Base 5.3.0 1
 _ZN3QV46String9isEqualToEPNS_7ManagedES2_@Base 5.2.0~beta1 1
 _ZN3QV47Managed11static_vtblE@Base 5.2.0~beta1 1
 _ZN3QV47Managed4Data9setVTableEPKNS_13ManagedVTableE@Base 5.4.0 1
 _ZN3QV47Managed9isEqualToEPS0_S1_@Base 5.2.0~beta1 1
 _ZN3QV47Managed9setVTableEPKNS_13ManagedVTableE@Base 5.2.1 1
 (subst)_ZN3QV47ManagednwE{size_t}PNS_13MemoryManagerE@Base 5.2.0~beta1 1
 (arch=amd64 armhf i386)_ZN3QV47Runtime10complementENS_8ValueRefE@Base 5.3.0
 _ZN3QV47Runtime10declareVarEPNS_16ExecutionContextEbPNS_6StringE@Base 5.4.0
 _ZN3QV47Runtime10deleteNameEPNS_16ExecutionContextEPNS_6StringE@Base 5.4.0
 _ZN3QV47Runtime10getElementEPNS_16ExecutionContextENS_8ValueRefES3_@Base 5.3.0
 _ZN3QV47Runtime10instanceofEPNS_16ExecutionContextENS_8ValueRefES3_@Base 5.3.0
 _ZN3QV47Runtime10setElementEPNS_16ExecutionContextENS_8ValueRefES3_S3_@Base 5.3.0
 _ZN3QV47Runtime10typeofNameEPNS_16ExecutionContextEPNS_6StringE@Base 5.4.0
 _ZN3QV47Runtime11callElementEPNS_16ExecutionContextENS_8ValueRefEPNS_8CallDataE@Base 5.4.0
 _ZN3QV47Runtime11doubleToIntERKd@Base 5.3.0
 _ZN3QV47Runtime11getPropertyEPNS_16ExecutionContextENS_8ValueRefEPNS_6StringE@Base 5.4.0
 _ZN3QV47Runtime11greaterThanENS_8ValueRefES1_@Base 5.3.0
 _ZN3QV47Runtime11setPropertyEPNS_16ExecutionContextENS_8ValueRefEPNS_6StringES3_@Base 5.4.0
 _ZN3QV47Runtime11strictEqualENS_8ValueRefES1_@Base 5.3.0
 _ZN3QV47Runtime11typeofValueEPNS_16ExecutionContextENS_8ValueRefE@Base 5.3.0
 _ZN3QV47Runtime12arrayLiteralEPNS_16ExecutionContextEPNS_5ValueEj@Base 5.3.0
 _ZN3QV47Runtime12callPropertyEPNS_16ExecutionContextEPNS_6StringEPNS_8CallDataE@Base 5.4.0
 _ZN3QV47Runtime12compareEqualENS_8ValueRefES1_@Base 5.3.0
 _ZN3QV47Runtime12deleteMemberEPNS_16ExecutionContextENS_8ValueRefEPNS_6StringE@Base 5.4.0
 _ZN3QV47Runtime12doubleToUIntERKd@Base 5.3.0
 _ZN3QV47Runtime12greaterEqualENS_8ValueRefES1_@Base 5.3.0
 _ZN3QV47Runtime12typeofMemberEPNS_16ExecutionContextENS_8ValueRefEPNS_6StringE@Base 5.4.0
 _ZN3QV47Runtime13deleteElementEPNS_16ExecutionContextENS_8ValueRefES3_@Base 5.3.0
 _ZN3QV47Runtime13getQmlIdArrayEPNS_14NoThrowContextE@Base 5.3.0
 _ZN3QV47Runtime13objectLiteralEPNS_16ExecutionContextEPKNS_5ValueEiii@Base 5.3.0
 _ZN3QV47Runtime13pushWithScopeENS_8ValueRefEPNS_16ExecutionContextE@Base 5.3.0
 _ZN3QV47Runtime13regexpLiteralEPNS_16ExecutionContextEi@Base 5.3.0
 _ZN3QV47Runtime13typeofElementEPNS_16ExecutionContextENS_8ValueRefES3_@Base 5.3.0
 _ZN3QV47Runtime14constructValueEPNS_16ExecutionContextENS_8ValueRefEPNS_8CallDataE@Base 5.4.0
 _ZN3QV47Runtime14pushCatchScopeEPNS_16ExecutionContextEPNS_6StringE@Base 5.4.0
 _ZN3QV47Runtime14strictNotEqualENS_8ValueRefES1_@Base 5.3.0
 _ZN3QV47Runtime14throwExceptionEPNS_16ExecutionContextENS_8ValueRefE@Base 5.3.0
 _ZN3QV47Runtime15compareLessThanENS_8ValueRefES1_@Base 5.3.0
 (arch=amd64 armhf i386)_ZN3QV47Runtime15compareNotEqualENS_8ValueRefES1_@Base 5.3.0
 _ZN3QV47Runtime15foreachIteratorEPNS_16ExecutionContextENS_8ValueRefE@Base 5.3.0
 _ZN3QV47Runtime15getQmlSingletonEPNS_14NoThrowContextEPNS_6StringE@Base 5.4.0
 _ZN3QV47Runtime15unwindExceptionEPNS_16ExecutionContextE@Base 5.3.0
 _ZN3QV47Runtime16callGlobalLookupEPNS_16ExecutionContextEjPNS_8CallDataE@Base 5.4.0
 _ZN3QV47Runtime16compareLessEqualENS_8ValueRefES1_@Base 5.3.0
 (arch=amd64 armhf i386)_ZN3QV47Runtime17compareInstanceofEPNS_16ExecutionContextENS_8ValueRefES3_@Base 5.3.0
 _ZN3QV47Runtime17constructPropertyEPNS_16ExecutionContextEPNS_6StringEPNS_8CallDataE@Base 5.4.0
 _ZN3QV47Runtime17getQmlScopeObjectEPNS_14NoThrowContextE@Base 5.3.0
 _ZN3QV47Runtime18callPropertyLookupEPNS_16ExecutionContextEjPNS_8CallDataE@Base 5.4.0
 _ZN3QV47Runtime18compareGreaterThanENS_8ValueRefES1_@Base 5.3.0
 (arch=amd64 armhf i386)_ZN3QV47Runtime18compareStrictEqualENS_8ValueRefES1_@Base 5.3.0
 _ZN3QV47Runtime19compareGreaterEqualENS_8ValueRefES1_@Base 5.3.0
 _ZN3QV47Runtime19convertThisToObjectEPNS_16ExecutionContextE@Base 5.3.0
 _ZN3QV47Runtime19getQmlContextObjectEPNS_14NoThrowContextE@Base 5.3.0
 _ZN3QV47Runtime20setupArgumentsObjectEPNS_16ExecutionContextE@Base 5.3.0
 (arch=amd64 armhf i386)_ZN3QV47Runtime21compareStrictNotEqualENS_8ValueRefES1_@Base 5.3.0
 _ZN3QV47Runtime21constructGlobalLookupEPNS_16ExecutionContextEjPNS_8CallDataE@Base 5.4.0
 _ZN3QV47Runtime21getActivationPropertyEPNS_16ExecutionContextEPNS_6StringE@Base 5.4.0
 _ZN3QV47Runtime21getQmlImportedScriptsEPNS_14NoThrowContextE@Base 5.3.0
 _ZN3QV47Runtime21getQmlQObjectPropertyEPNS_16ExecutionContextENS_8ValueRefEib@Base 5.3.0
 _ZN3QV47Runtime21setActivationPropertyEPNS_16ExecutionContextEPNS_6StringENS_8ValueRefE@Base 5.4.0
 _ZN3QV47Runtime21setQmlQObjectPropertyEPNS_16ExecutionContextENS_8ValueRefEiS3_@Base 5.3.0
 _ZN3QV47Runtime22callActivationPropertyEPNS_16ExecutionContextEPNS_6StringEPNS_8CallDataE@Base 5.4.0
 _ZN3QV47Runtime22getQmlAttachedPropertyEPNS_16ExecutionContextEii@Base 5.3.0
 _ZN3QV47Runtime23constructPropertyLookupEPNS_16ExecutionContextEjPNS_8CallDataE@Base 5.4.0
 _ZN3QV47Runtime23foreachNextPropertyNameENS_8ValueRefE@Base 5.3.0
 _ZN3QV47Runtime27constructActivationPropertyEPNS_16ExecutionContextEPNS_6StringEPNS_8CallDataE@Base 5.4.0
 _ZN3QV47Runtime2inEPNS_16ExecutionContextENS_8ValueRefES3_@Base 5.3.0
 _ZN3QV47Runtime30getQmlSingletonQObjectPropertyEPNS_16ExecutionContextENS_8ValueRefEib@Base 5.4.0
 _ZN3QV47Runtime3addEPNS_16ExecutionContextENS_8ValueRefES3_@Base 5.3.0
 _ZN3QV47Runtime3divENS_8ValueRefES1_@Base 5.3.0
 _ZN3QV47Runtime3modENS_8ValueRefES1_@Base 5.3.0
 _ZN3QV47Runtime3mulENS_8ValueRefES1_@Base 5.3.0
 _ZN3QV47Runtime3shlENS_8ValueRefES1_@Base 5.3.0
 _ZN3QV47Runtime3shrENS_8ValueRefES1_@Base 5.3.0
 _ZN3QV47Runtime3subENS_8ValueRefES1_@Base 5.3.0
 (arch=amd64 armhf i386)_ZN3QV47Runtime4uNotENS_8ValueRefE@Base 5.3.0
 _ZN3QV47Runtime4ushrENS_8ValueRefES1_@Base 5.3.0
 _ZN3QV47Runtime5bitOrENS_8ValueRefES1_@Base 5.3.0
 _ZN3QV47Runtime5equalENS_8ValueRefES1_@Base 5.3.0
 _ZN3QV47Runtime5toIntENS_8ValueRefE@Base 5.3.0
 (arch=amd64 armhf i386)_ZN3QV47Runtime5uPlusENS_8ValueRefE@Base 5.3.0
 _ZN3QV47Runtime6bitAndENS_8ValueRefES1_@Base 5.3.0
 _ZN3QV47Runtime6bitXorENS_8ValueRefES1_@Base 5.3.0
 _ZN3QV47Runtime6toUIntENS_8ValueRefE@Base 5.3.0
 (arch=amd64 armhf i386)_ZN3QV47Runtime6uMinusENS_8ValueRefE@Base 5.3.0
 _ZN3QV47Runtime7closureEPNS_16ExecutionContextEi@Base 5.3.0
 _ZN3QV47Runtime8lessThanENS_8ValueRefES1_@Base 5.3.0
 _ZN3QV47Runtime8notEqualENS_8ValueRefES1_@Base 5.3.0
 _ZN3QV47Runtime8popScopeEPNS_16ExecutionContextE@Base 5.3.0
 _ZN3QV47Runtime8toDoubleENS_8ValueRefE@Base 5.3.0
 _ZN3QV47Runtime9addStringEPNS_16ExecutionContextENS_8ValueRefES3_@Base 5.3.0
 _ZN3QV47Runtime9callValueEPNS_16ExecutionContextENS_8ValueRefEPNS_8CallDataE@Base 5.4.0
 (arch=amd64 armhf i386)_ZN3QV47Runtime9compareInEPNS_16ExecutionContextENS_8ValueRefES3_@Base 5.3.0
 _ZN3QV47Runtime9decrementENS_8ValueRefE@Base 5.3.0
 _ZN3QV47Runtime9incrementENS_8ValueRefE@Base 5.3.0
 _ZN3QV47Runtime9lessEqualENS_8ValueRefES1_@Base 5.3.0
 (arch=amd64 armhf i386)_ZN3QV47Runtime9toBooleanENS_8ValueRefE@Base 5.3.0
 _ZN3QV48Compiler15JSUnitGenerator12generateUnitENS1_15GeneratorOptionE@Base 5.4.0
 _ZN3QV48Compiler15JSUnitGenerator13writeFunctionEPciPNS_2IR8FunctionE@Base 5.3.0
 _ZN3QV48Compiler15JSUnitGenerator14registerRegExpEPNS_2IR6RegExpE@Base 5.3.0
 _ZN3QV48Compiler15JSUnitGenerator15registerJSClassEiPNS_2IR8ExprListE@Base 5.3.0
 _ZN3QV48Compiler15JSUnitGenerator16registerConstantEy@Base 5.2.0~rc1
 _ZN3QV48Compiler15JSUnitGenerator20registerGetterLookupERK7QString@Base 5.2.0~beta1
 _ZN3QV48Compiler15JSUnitGenerator20registerSetterLookupERK7QString@Base 5.2.0~beta1
 _ZN3QV48Compiler15JSUnitGenerator26registerGlobalGetterLookupERK7QString@Base 5.2.0~beta1
 _ZN3QV48Compiler15JSUnitGenerator27registerIndexedGetterLookupEv@Base 5.3.0
 _ZN3QV48Compiler15JSUnitGenerator27registerIndexedSetterLookupEv@Base 5.3.0
 _ZN3QV48Compiler15JSUnitGeneratorC1EPNS_2IR6ModuleE@Base 5.4.0
 _ZN3QV48Compiler15JSUnitGeneratorC2EPNS_2IR6ModuleE@Base 5.4.0
 _ZN3QV48Compiler20StringTableGenerator14registerStringERK7QString@Base 5.3.0
 _ZN3QV48Compiler20StringTableGenerator5clearEv@Base 5.3.0
 _ZN3QV48Compiler20StringTableGenerator9serializeEPNS_12CompiledData4UnitE@Base 5.4.0
 _ZN3QV48Compiler20StringTableGeneratorC1Ev@Base 5.3.0
 _ZN3QV48Compiler20StringTableGeneratorC2Ev@Base 5.3.0
 _ZN3QV48FunctionC1EPNS_15ExecutionEngineEPNS_12CompiledData15CompilationUnitEPKNS3_8FunctionEPFyPNS_16ExecutionContextEPKhE@Base 5.3.0
 _ZN3QV48FunctionC2EPNS_15ExecutionEngineEPNS_12CompiledData15CompilationUnitEPKNS3_8FunctionEPFyPNS_16ExecutionContextEPKhE@Base 5.3.0
 _ZN3QV48FunctionD1Ev@Base 5.3.0
 _ZN3QV48FunctionD2Ev@Base 5.3.0
 _ZN3QV49ArrayData11static_vtblE@Base 5.4.0
 _ZN3QV49ArrayData16ensureAttributesEPNS_6ObjectE@Base 5.3.0
 _ZN3QV49ArrayData4sortEPNS_16ExecutionContextEPNS_6ObjectENS_8ValueRefEj@Base 5.4.0
 _ZN3QV49ArrayData6appendEPNS_6ObjectEPNS_11ArrayObjectEj@Base 5.4.0
 _ZN3QV49ArrayData6insertEPNS_6ObjectEjb@Base 5.3.0
 _ZN3QV49ArrayData7reallocEPNS_6ObjectENS0_4TypeEjb@Base 5.4.0
 _ZN3QV49Debugging13DebuggerAgent11addDebuggerEPNS0_8DebuggerE@Base 5.2.0~beta1 1
 _ZN3QV49Debugging13DebuggerAgent11qt_metacallEN11QMetaObject4CallEiPPv@Base 5.2.0~beta1 1
 _ZN3QV49Debugging13DebuggerAgent11qt_metacastEPKc@Base 5.2.0~beta1 1
 _ZN3QV49Debugging13DebuggerAgent13addBreakPointERK7QStringibS4_@Base 5.2.0~rc1 1
 _ZN3QV49Debugging13DebuggerAgent14removeDebuggerEPNS0_8DebuggerE@Base 5.2.0~beta1 1
 _ZN3QV49Debugging13DebuggerAgent15setBreakOnThrowEb@Base 5.2.0~rc1 1
 _ZN3QV49Debugging13DebuggerAgent16enableBreakPointEib@Base 5.2.0~rc1 1
 _ZN3QV49Debugging13DebuggerAgent16removeBreakPointEi@Base 5.2.0~rc1 1
 _ZN3QV49Debugging13DebuggerAgent16staticMetaObjectE@Base 5.2.0~beta1 1
 _ZN3QV49Debugging13DebuggerAgent20removeAllBreakPointsEv@Base 5.2.0~rc1 1
 _ZN3QV49Debugging13DebuggerAgentD0Ev@Base 5.2.0~beta1 1
 _ZN3QV49Debugging13DebuggerAgentD1Ev@Base 5.2.0~beta1 1
 _ZN3QV49Debugging13DebuggerAgentD2Ev@Base 5.2.0~beta1 1
 _ZN3QV49Debugging8Debugger11runInEngineEPNS1_3JobE@Base 5.2.0~rc1 1
 _ZN3QV49Debugging8Debugger12aboutToThrowEv@Base 5.2.0~rc1 1
 _ZN3QV49Debugging8Debugger12pauseAndWaitENS0_11PauseReasonE@Base 5.2.0~rc1 1
 _ZN3QV49Debugging8Debugger13addBreakPointERK7QStringiS4_@Base 5.2.0~rc1 1
 _ZN3QV49Debugging8Debugger13attachToAgentEPNS0_13DebuggerAgentE@Base 5.2.0~beta1 1
 _ZN3QV49Debugging8Debugger13gatherSourcesEi@Base 5.2.0~rc1 1
 _ZN3QV49Debugging8Debugger15detachFromAgentEv@Base 5.2.0~beta1 1
 _ZN3QV49Debugging8Debugger15leavingFunctionERKy@Base 5.2.0~rc1 1
 _ZN3QV49Debugging8Debugger15setBreakOnThrowEb@Base 5.2.0~rc1 1
 _ZN3QV49Debugging8Debugger16enteringFunctionEv@Base 5.2.0~rc1 1
 _ZN3QV49Debugging8Debugger16removeBreakPointERK7QStringi@Base 5.2.0~beta1 1
 _ZN3QV49Debugging8Debugger18collectThrownValueEPNS1_9CollectorE@Base 5.2.0~rc1 1
 _ZN3QV49Debugging8Debugger18evaluateExpressionEiRK7QStringPNS1_9CollectorE@Base 5.4.0 1
 _ZN3QV49Debugging8Debugger20collectThisInContextEPNS1_9CollectorEi@Base 5.2.0~rc1 1
 _ZN3QV49Debugging8Debugger22collectLocalsInContextEPNS1_9CollectorEii@Base 5.2.0~rc1 1
 _ZN3QV49Debugging8Debugger22reallyHitTheBreakPointERK7QStringi@Base 5.2.0~rc1 1
 _ZN3QV49Debugging8Debugger22runInEngine_havingLockEPNS1_3JobE@Base 5.2.0~rc1 1
 _ZN3QV49Debugging8Debugger23maybeBreakAtInstructionEv@Base 5.3.0 1
 _ZN3QV49Debugging8Debugger25collectArgumentsInContextEPNS1_9CollectorEii@Base 5.2.0~rc1 1
 _ZN3QV49Debugging8Debugger3JobD0Ev@Base 5.2.0~rc1 1
 _ZN3QV49Debugging8Debugger3JobD1Ev@Base 5.2.0~rc1 1
 _ZN3QV49Debugging8Debugger3JobD2Ev@Base 5.2.0~rc1 1
 _ZN3QV49Debugging8Debugger5pauseEv@Base 5.2.0~beta1 1
 _ZN3QV49Debugging8Debugger6resumeENS1_5SpeedE@Base 5.2.0~rc1 1
 _ZN3QV49Debugging8Debugger9Collector7collectEPNS_6ObjectE@Base 5.4.0 1
 _ZN3QV49Debugging8Debugger9Collector7collectERK7QStringRKNS_11ScopedValueE@Base 5.2.0~rc1 1
 _ZN3QV49Debugging8Debugger9CollectorD0Ev@Base 5.2.0~rc1 1
 _ZN3QV49Debugging8Debugger9CollectorD1Ev@Base 5.2.0~rc1 1
 _ZN3QV49Debugging8Debugger9CollectorD2Ev@Base 5.2.0~rc1 1
 _ZN3QV49Debugging8DebuggerC1EPNS_15ExecutionEngineE@Base 5.2.0~beta1 1
 _ZN3QV49Debugging8DebuggerC2EPNS_15ExecutionEngineE@Base 5.2.0~beta1 1
 _ZN3QV49Debugging8DebuggerD1Ev@Base 5.2.0~beta1 1
 _ZN3QV49Debugging8DebuggerD2Ev@Base 5.2.0~beta1 1
 _ZN3QV49Primitive7toInt32Ed@Base 5.2.0~beta1
 _ZN3QV49Primitive8toUInt32Ed@Base 5.2.0~beta1
 _ZN3QV49Primitive9toIntegerEd@Base 5.2.0~beta1
 _ZN3QV49Profiling8Profiler10reportDataEv@Base 5.3.0 1
 _ZN3QV49Profiling8Profiler11qt_metacallEN11QMetaObject4CallEiPPv@Base 5.3.0 1
 _ZN3QV49Profiling8Profiler11qt_metacastEPKc@Base 5.3.0 1
 _ZN3QV49Profiling8Profiler13stopProfilingEv@Base 5.3.0 1
 _ZN3QV49Profiling8Profiler14startProfilingEy@Base 5.4.0 1
 _ZN3QV49Profiling8Profiler16staticMetaObjectE@Base 5.3.0 1
 _ZN3QV49Profiling8Profiler9dataReadyERK5QListINS0_22FunctionCallPropertiesEERKS2_INS0_26MemoryAllocationPropertiesEE@Base 5.4.0 1
 _ZN3QV49Profiling8ProfilerC1EPNS_15ExecutionEngineE@Base 5.4.0 1
 _ZN3QV49Profiling8ProfilerC2EPNS_15ExecutionEngineE@Base 5.4.0 1
 (optional=gccinternal)_ZN3QV49Profiling8ProfilerD0Ev@Base 5.3.0 1
 (optional=gccinternal)_ZN3QV49Profiling8ProfilerD1Ev@Base 5.3.0 1
 (optional=gccinternal)_ZN3QV49Profiling8ProfilerD2Ev@Base 5.3.0 1
 _ZN3QV49WeakValue8markOnceEPNS_15ExecutionEngineE@Base 5.2.0~rc1 1
 _ZN3QV49WeakValueC1ENS_8ValueRefE@Base 5.2.0~beta1 1
 _ZN3QV49WeakValueC1ERKS0_@Base 5.2.0~beta1 1
 _ZN3QV49WeakValueC1Ey@Base 5.2.0~beta1 1
 _ZN3QV49WeakValueC2ENS_8ValueRefE@Base 5.2.0~beta1 1
 _ZN3QV49WeakValueC2ERKS0_@Base 5.2.0~beta1 1
 _ZN3QV49WeakValueC2Ey@Base 5.2.0~beta1 1
 _ZN3QV49WeakValueD1Ev@Base 5.2.0~beta1 1
 _ZN3QV49WeakValueD2Ev@Base 5.2.0~beta1 1
 _ZN3QV49WeakValueaSENS_8ValueRefE@Base 5.2.0~beta1 1
 _ZN3QV49WeakValueaSERKS0_@Base 5.2.0~beta1 1
 _ZN3QV49WeakValueaSERKy@Base 5.2.0~beta1 1
 _ZN5QmlIR16PropertyResolver6signalERK7QStringPbP7QObjectP15QQmlContextData@Base 5.3.0 1
 _ZN5QmlIR16PropertyResolver8propertyERK7QStringPbP7QObjectP15QQmlContextData@Base 5.3.0 1
 _ZN5QmlIR16QmlUnitGenerator8generateERNS_8DocumentE@Base 5.3.0
 _ZN5QmlIR6Object12appendSignalEPNS_6SignalE@Base 5.3.0
 _ZN5QmlIR6Object12insertSortedEPNS_7BindingE@Base 5.3.0
 _ZN5QmlIR6Object13appendBindingEPNS_7BindingEb@Base 5.3.0
 _ZN5QmlIR6Object14appendFunctionEPNS_8FunctionE@Base 5.3.0
 _ZN5QmlIR6Object14appendPropertyEPNS_8PropertyERK7QStringbRKN6QQmlJS3AST14SourceLocationEPS8_@Base 5.3.0
 _ZN5QmlIR6Object24sanityCheckFunctionNamesERK4QSetI7QStringEPN6QQmlJS3AST14SourceLocationE@Base 5.3.0
 _ZN5QmlIR6Object4initEPN6QQmlJS10MemoryPoolEiiRKNS1_3AST14SourceLocationE@Base 5.3.0 1
 _ZN5QmlIR8Document19removeScriptPragmasER7QString@Base 5.3.0
 _ZN5QmlIR8Document21collectTypeReferencesEv@Base 5.3.0
 _ZN5QmlIR8Document21extractScriptMetaDataER7QStringPN6QQmlJS17DiagnosticMessageE@Base 5.3.0 1
 _ZN5QmlIR8DocumentC1Eb@Base 5.3.0
 _ZN5QmlIR8DocumentC2Eb@Base 5.3.0
 (optional=gccinternal)_ZN5QmlIR8DocumentD1Ev@Base 5.3.0
 (optional=gccinternal)_ZN5QmlIR8DocumentD2Ev@Base 5.3.0
 _ZN5QmlIR9IRBuilder11asStringRefEPN6QQmlJS3AST4NodeE@Base 5.3.0 1
 _ZN5QmlIR9IRBuilder11recordErrorERKN6QQmlJS3AST14SourceLocationERK7QString@Base 5.3.0
 _ZN5QmlIR9IRBuilder13appendBindingEPN6QQmlJS3AST13UiQualifiedIdEPNS2_9StatementE@Base 5.3.0 1
 _ZN5QmlIR9IRBuilder13appendBindingEPN6QQmlJS3AST13UiQualifiedIdEib@Base 5.3.0 1
 _ZN5QmlIR9IRBuilder13appendBindingERKN6QQmlJS3AST14SourceLocationES5_jPNS2_9StatementE@Base 5.3.0 1
 _ZN5QmlIR9IRBuilder13appendBindingERKN6QQmlJS3AST14SourceLocationES5_jibb@Base 5.3.0
 _ZN5QmlIR9IRBuilder14extractVersionE10QStringRefPiS2_@Base 5.3.0
 _ZN5QmlIR9IRBuilder15defineQMLObjectEPiPN6QQmlJS3AST13UiQualifiedIdERKNS3_14SourceLocationEPNS3_19UiObjectInitializerEPNS_6ObjectE@Base 5.3.0 1
 _ZN5QmlIR9IRBuilder15generateFromQmlERK7QStringS3_PNS_8DocumentE@Base 5.4.0
 _ZN5QmlIR9IRBuilder15setBindingValueEPN3QV412CompiledData7BindingEPN6QQmlJS3AST9StatementE@Base 5.3.0 1
 _ZN5QmlIR9IRBuilder18resolveQualifiedIdEPPN6QQmlJS3AST13UiQualifiedIdEPPNS_6ObjectEb@Base 5.3.0 1
 _ZN5QmlIR9IRBuilder20isSignalPropertyNameERK7QString@Base 5.3.0
 _ZN5QmlIR9IRBuilder21isStatementNodeScriptEPN6QQmlJS3AST9StatementE@Base 5.3.0 1
 _ZN5QmlIR9IRBuilder5setIdERKN6QQmlJS3AST14SourceLocationEPNS2_9StatementE@Base 5.3.0 1
 _ZN5QmlIR9IRBuilder5visitEPN6QQmlJS3AST13UiQualifiedIdE@Base 5.3.0 1
 _ZN5QmlIR9IRBuilder5visitEPN6QQmlJS3AST14UiArrayBindingE@Base 5.3.0 1
 _ZN5QmlIR9IRBuilder5visitEPN6QQmlJS3AST14UiPublicMemberE@Base 5.3.0 1
 _ZN5QmlIR9IRBuilder5visitEPN6QQmlJS3AST15UiObjectBindingE@Base 5.3.0 1
 _ZN5QmlIR9IRBuilder5visitEPN6QQmlJS3AST15UiParameterListE@Base 5.3.0 1
 _ZN5QmlIR9IRBuilder5visitEPN6QQmlJS3AST15UiScriptBindingE@Base 5.3.0 1
 _ZN5QmlIR9IRBuilder5visitEPN6QQmlJS3AST15UiSourceElementE@Base 5.3.0 1
 _ZN5QmlIR9IRBuilder5visitEPN6QQmlJS3AST16UiHeaderItemListE@Base 5.3.0 1
 _ZN5QmlIR9IRBuilder5visitEPN6QQmlJS3AST17UiArrayMemberListE@Base 5.3.0 1
 _ZN5QmlIR9IRBuilder5visitEPN6QQmlJS3AST18UiObjectDefinitionE@Base 5.3.0 1
 _ZN5QmlIR9IRBuilder5visitEPN6QQmlJS3AST18UiObjectMemberListE@Base 5.3.0 1
 _ZN5QmlIR9IRBuilder5visitEPN6QQmlJS3AST19UiObjectInitializerE@Base 5.3.0 1
 _ZN5QmlIR9IRBuilder5visitEPN6QQmlJS3AST8UiImportE@Base 5.3.0 1
 _ZN5QmlIR9IRBuilder5visitEPN6QQmlJS3AST8UiPragmaE@Base 5.3.0 1
 _ZN5QmlIR9IRBuilder5visitEPN6QQmlJS3AST9UiProgramE@Base 5.3.0 1
 _ZN5QmlIR9IRBuilder6acceptEPN6QQmlJS3AST4NodeE@Base 5.3.0 1
 _ZN5QmlIR9IRBuilder8asStringEPN6QQmlJS3AST13UiQualifiedIdE@Base 5.3.0 1
 _ZN5QmlIR9IRBuilderC1ERK4QSetI7QStringE@Base 5.3.0
 _ZN5QmlIR9IRBuilderC2ERK4QSetI7QStringE@Base 5.3.0
 (optional=gccinternal)_ZN5QmlIR9IRBuilderD0Ev@Base 5.3.0
 (optional=gccinternal)_ZN5QmlIR9IRBuilderD1Ev@Base 5.3.0
 (optional=gccinternal)_ZN5QmlIR9IRBuilderD2Ev@Base 5.3.0
 _ZN5QmlIR9JSCodeGen16beginObjectScopeEP17QQmlPropertyCache@Base 5.3.0 1
 _ZN5QmlIR9JSCodeGen17beginContextScopeERK7QVectorINS0_9IdMappingEEP17QQmlPropertyCache@Base 5.3.0 1
 _ZN5QmlIR9JSCodeGen18fallbackNameLookupERK7QStringii@Base 5.3.0
 _ZN5QmlIR9JSCodeGen21beginFunctionBodyHookEv@Base 5.3.0
 _ZN5QmlIR9JSCodeGen26lookupQmlCompliantPropertyEP17QQmlPropertyCacheRK7QStringPb@Base 5.3.0 1
 _ZN5QmlIR9JSCodeGen37generateJSCodeForFunctionsAndBindingsERK5QListINS_28CompiledFunctionOrExpressionEE@Base 5.3.0
 _ZN5QmlIR9JSCodeGenC1ERK7QStringS3_PN3QV42IR6ModuleEPN6QQmlJS6EngineEPNS8_3AST9UiProgramEP17QQmlTypeNameCachePKNS4_8Compiler20StringTableGeneratorE@Base 5.3.0 1
 _ZN5QmlIR9JSCodeGenC2ERK7QStringS3_PN3QV42IR6ModuleEPN6QQmlJS6EngineEPNS8_3AST9UiProgramEP17QQmlTypeNameCachePKNS4_8Compiler20StringTableGeneratorE@Base 5.3.0 1
 (optional=gccinternal)_ZN5QmlIR9JSCodeGenD0Ev@Base 5.3.0
 (optional=gccinternal)_ZN5QmlIR9JSCodeGenD1Ev@Base 5.3.0
 (optional=gccinternal)_ZN5QmlIR9JSCodeGenD2Ev@Base 5.3.0
 _ZN5QtQml10qmlContextEPK7QObject@Base 5.1.0
 _ZN5QtQml18qmlExecuteDeferredEP7QObject@Base 5.1.0
 _ZN5QtQml27qmlAttachedPropertiesObjectEPiPK7QObjectPK11QMetaObjectb@Base 5.1.0
 _ZN5QtQml31qmlAttachedPropertiesObjectByIdEiPK7QObjectb@Base 5.1.0
 _ZN5QtQml7qmlInfoEPK7QObject@Base 5.1.0
 _ZN5QtQml7qmlInfoEPK7QObjectRK5QListI9QQmlErrorE@Base 5.1.0
 _ZN5QtQml7qmlInfoEPK7QObjectRK9QQmlError@Base 5.1.0
 _ZN5QtQml9qmlEngineEPK7QObject@Base 5.1.0
 _ZN6QQmlJS3AST10CaseClause7accept0EPNS0_7VisitorE@Base 5.3.0 1
 (optional=gccinternal)_ZN6QQmlJS3AST10CaseClauseD0Ev@Base 5.3.0 1
 (optional=gccinternal)_ZN6QQmlJS3AST10CaseClauseD1Ev@Base 5.3.0 1
 (optional=gccinternal)_ZN6QQmlJS3AST10CaseClauseD2Ev@Base 5.3.0 1
 _ZN6QQmlJS3AST10Expression7accept0EPNS0_7VisitorE@Base 5.3.0 1
 (optional=gccinternal)_ZN6QQmlJS3AST10ExpressionD0Ev@Base 5.3.0 1
 (optional=gccinternal)_ZN6QQmlJS3AST10ExpressionD1Ev@Base 5.3.0 1
 (optional=gccinternal)_ZN6QQmlJS3AST10ExpressionD2Ev@Base 5.3.0 1
 _ZN6QQmlJS3AST11CaseClauses7accept0EPNS0_7VisitorE@Base 5.3.0 1
 (optional=gccinternal)_ZN6QQmlJS3AST11CaseClausesD0Ev@Base 5.3.0 1
 (optional=gccinternal)_ZN6QQmlJS3AST11CaseClausesD1Ev@Base 5.3.0 1
 (optional=gccinternal)_ZN6QQmlJS3AST11CaseClausesD2Ev@Base 5.3.0 1
 _ZN6QQmlJS3AST11ElementList7accept0EPNS0_7VisitorE@Base 5.3.0 1
 (optional=gccinternal)_ZN6QQmlJS3AST11ElementListD0Ev@Base 5.3.0 1
 (optional=gccinternal)_ZN6QQmlJS3AST11ElementListD1Ev@Base 5.3.0 1
 (optional=gccinternal)_ZN6QQmlJS3AST11ElementListD2Ev@Base 5.3.0 1
 _ZN6QQmlJS3AST11IfStatement7accept0EPNS0_7VisitorE@Base 5.3.0 1
 (optional=gccinternal)_ZN6QQmlJS3AST11IfStatementD0Ev@Base 5.3.0 1
 (optional=gccinternal)_ZN6QQmlJS3AST11IfStatementD1Ev@Base 5.3.0 1
 (optional=gccinternal)_ZN6QQmlJS3AST11IfStatementD2Ev@Base 5.3.0 1
 _ZN6QQmlJS3AST11TrueLiteral7accept0EPNS0_7VisitorE@Base 5.3.0 1
 (optional=gccinternal)_ZN6QQmlJS3AST11TrueLiteralD0Ev@Base 5.3.0 1
 (optional=gccinternal)_ZN6QQmlJS3AST11TrueLiteralD1Ev@Base 5.3.0 1
 (optional=gccinternal)_ZN6QQmlJS3AST11TrueLiteralD2Ev@Base 5.3.0 1
 _ZN6QQmlJS3AST12ArgumentList7accept0EPNS0_7VisitorE@Base 5.3.0 1
 (optional=gccinternal)_ZN6QQmlJS3AST12ArgumentListD0Ev@Base 5.3.0 1
 (optional=gccinternal)_ZN6QQmlJS3AST12ArgumentListD1Ev@Base 5.3.0 1
 (optional=gccinternal)_ZN6QQmlJS3AST12ArgumentListD2Ev@Base 5.3.0 1
 _ZN6QQmlJS3AST12ArrayLiteral7accept0EPNS0_7VisitorE@Base 5.3.0 1
 (optional=gccinternal)_ZN6QQmlJS3AST12ArrayLiteralD0Ev@Base 5.3.0 1
 (optional=gccinternal)_ZN6QQmlJS3AST12ArrayLiteralD1Ev@Base 5.3.0 1
 (optional=gccinternal)_ZN6QQmlJS3AST12ArrayLiteralD2Ev@Base 5.3.0 1
 _ZN6QQmlJS3AST12FalseLiteral7accept0EPNS0_7VisitorE@Base 5.3.0 1
 (optional=gccinternal)_ZN6QQmlJS3AST12FalseLiteralD0Ev@Base 5.3.0 1
 (optional=gccinternal)_ZN6QQmlJS3AST12FalseLiteralD1Ev@Base 5.3.0 1
 (optional=gccinternal)_ZN6QQmlJS3AST12FalseLiteralD2Ev@Base 5.3.0 1
 _ZN6QQmlJS3AST12ForStatement7accept0EPNS0_7VisitorE@Base 5.3.0 1
 (optional=gccinternal)_ZN6QQmlJS3AST12ForStatementD0Ev@Base 5.3.0 1
 (optional=gccinternal)_ZN6QQmlJS3AST12ForStatementD1Ev@Base 5.3.0 1
 (optional=gccinternal)_ZN6QQmlJS3AST12ForStatementD2Ev@Base 5.3.0 1
 _ZN6QQmlJS3AST12FunctionBody7accept0EPNS0_7VisitorE@Base 5.3.0 1
 (optional=gccinternal)_ZN6QQmlJS3AST12FunctionBodyD0Ev@Base 5.3.0 1
 (optional=gccinternal)_ZN6QQmlJS3AST12FunctionBodyD1Ev@Base 5.3.0 1
 (optional=gccinternal)_ZN6QQmlJS3AST12FunctionBodyD2Ev@Base 5.3.0 1
 _ZN6QQmlJS3AST12TryStatement7accept0EPNS0_7VisitorE@Base 5.3.0 1
 (optional=gccinternal)_ZN6QQmlJS3AST12TryStatementD0Ev@Base 5.3.0 1
 (optional=gccinternal)_ZN6QQmlJS3AST12TryStatementD1Ev@Base 5.3.0 1
 (optional=gccinternal)_ZN6QQmlJS3AST12TryStatementD2Ev@Base 5.3.0 1
 _ZN6QQmlJS3AST13DefaultClause7accept0EPNS0_7VisitorE@Base 5.3.0 1
 (optional=gccinternal)_ZN6QQmlJS3AST13DefaultClauseD0Ev@Base 5.3.0 1
 (optional=gccinternal)_ZN6QQmlJS3AST13DefaultClauseD1Ev@Base 5.3.0 1
 (optional=gccinternal)_ZN6QQmlJS3AST13DefaultClauseD2Ev@Base 5.3.0 1
 _ZN6QQmlJS3AST13NewExpression7accept0EPNS0_7VisitorE@Base 5.3.0 1
 (optional=gccinternal)_ZN6QQmlJS3AST13NewExpressionD0Ev@Base 5.3.0 1
 (optional=gccinternal)_ZN6QQmlJS3AST13NewExpressionD1Ev@Base 5.3.0 1
 (optional=gccinternal)_ZN6QQmlJS3AST13NewExpressionD2Ev@Base 5.3.0 1
 _ZN6QQmlJS3AST13NotExpression7accept0EPNS0_7VisitorE@Base 5.3.0 1
 (optional=gccinternal)_ZN6QQmlJS3AST13NotExpressionD0Ev@Base 5.3.0 1
 (optional=gccinternal)_ZN6QQmlJS3AST13NotExpressionD1Ev@Base 5.3.0 1
 (optional=gccinternal)_ZN6QQmlJS3AST13NotExpressionD2Ev@Base 5.3.0 1
 _ZN6QQmlJS3AST13ObjectLiteral7accept0EPNS0_7VisitorE@Base 5.3.0 1
 (optional=gccinternal)_ZN6QQmlJS3AST13ObjectLiteralD0Ev@Base 5.3.0 1
 (optional=gccinternal)_ZN6QQmlJS3AST13ObjectLiteralD1Ev@Base 5.3.0 1
 (optional=gccinternal)_ZN6QQmlJS3AST13ObjectLiteralD2Ev@Base 5.3.0 1
 _ZN6QQmlJS3AST13RegExpLiteral7accept0EPNS0_7VisitorE@Base 5.3.0 1
 (optional=gccinternal)_ZN6QQmlJS3AST13RegExpLiteralD0Ev@Base 5.3.0 1
 (optional=gccinternal)_ZN6QQmlJS3AST13RegExpLiteralD1Ev@Base 5.3.0 1
 (optional=gccinternal)_ZN6QQmlJS3AST13RegExpLiteralD2Ev@Base 5.3.0 1
 _ZN6QQmlJS3AST13StatementList7accept0EPNS0_7VisitorE@Base 5.3.0 1
 (optional=gccinternal)_ZN6QQmlJS3AST13StatementListD0Ev@Base 5.3.0 1
 (optional=gccinternal)_ZN6QQmlJS3AST13StatementListD1Ev@Base 5.3.0 1
 (optional=gccinternal)_ZN6QQmlJS3AST13StatementListD2Ev@Base 5.3.0 1
 _ZN6QQmlJS3AST13StringLiteral7accept0EPNS0_7VisitorE@Base 5.3.0 1
 (optional=gccinternal)_ZN6QQmlJS3AST13StringLiteralD0Ev@Base 5.3.0 1
 (optional=gccinternal)_ZN6QQmlJS3AST13StringLiteralD1Ev@Base 5.3.0 1
 (optional=gccinternal)_ZN6QQmlJS3AST13StringLiteralD2Ev@Base 5.3.0 1
 _ZN6QQmlJS3AST13UiQualifiedId7accept0EPNS0_7VisitorE@Base 5.3.0 1
 (optional=gccinternal)_ZN6QQmlJS3AST13UiQualifiedIdD0Ev@Base 5.3.0 1
 (optional=gccinternal)_ZN6QQmlJS3AST13UiQualifiedIdD1Ev@Base 5.3.0 1
 (optional=gccinternal)_ZN6QQmlJS3AST13UiQualifiedIdD2Ev@Base 5.3.0 1
 _ZN6QQmlJS3AST13WithStatement7accept0EPNS0_7VisitorE@Base 5.3.0 1
 (optional=gccinternal)_ZN6QQmlJS3AST13WithStatementD0Ev@Base 5.3.0 1
 (optional=gccinternal)_ZN6QQmlJS3AST13WithStatementD1Ev@Base 5.3.0 1
 (optional=gccinternal)_ZN6QQmlJS3AST13WithStatementD2Ev@Base 5.3.0 1
 _ZN6QQmlJS3AST14BreakStatement7accept0EPNS0_7VisitorE@Base 5.3.0 1
 (optional=gccinternal)_ZN6QQmlJS3AST14BreakStatementD0Ev@Base 5.3.0 1
 (optional=gccinternal)_ZN6QQmlJS3AST14BreakStatementD1Ev@Base 5.3.0 1
 (optional=gccinternal)_ZN6QQmlJS3AST14BreakStatementD2Ev@Base 5.3.0 1
 _ZN6QQmlJS3AST14CallExpression7accept0EPNS0_7VisitorE@Base 5.3.0 1
 (optional=gccinternal)_ZN6QQmlJS3AST14CallExpressionD0Ev@Base 5.3.0 1
 (optional=gccinternal)_ZN6QQmlJS3AST14CallExpressionD1Ev@Base 5.3.0 1
 (optional=gccinternal)_ZN6QQmlJS3AST14CallExpressionD2Ev@Base 5.3.0 1
 _ZN6QQmlJS3AST14EmptyStatement7accept0EPNS0_7VisitorE@Base 5.3.0 1
 (optional=gccinternal)_ZN6QQmlJS3AST14EmptyStatementD0Ev@Base 5.3.0 1
 (optional=gccinternal)_ZN6QQmlJS3AST14EmptyStatementD1Ev@Base 5.3.0 1
 (optional=gccinternal)_ZN6QQmlJS3AST14EmptyStatementD2Ev@Base 5.3.0 1
 _ZN6QQmlJS3AST14ExpressionNode14expressionCastEv@Base 5.3.0 1
 _ZN6QQmlJS3AST14NullExpression7accept0EPNS0_7VisitorE@Base 5.3.0 1
 (optional=gccinternal)_ZN6QQmlJS3AST14NullExpressionD0Ev@Base 5.3.0 1
 (optional=gccinternal)_ZN6QQmlJS3AST14NullExpressionD1Ev@Base 5.3.0 1
 (optional=gccinternal)_ZN6QQmlJS3AST14NullExpressionD2Ev@Base 5.3.0 1
 _ZN6QQmlJS3AST14NumericLiteral7accept0EPNS0_7VisitorE@Base 5.3.0 1
 (optional=gccinternal)_ZN6QQmlJS3AST14NumericLiteralD0Ev@Base 5.3.0 1
 (optional=gccinternal)_ZN6QQmlJS3AST14NumericLiteralD1Ev@Base 5.3.0 1
 (optional=gccinternal)_ZN6QQmlJS3AST14NumericLiteralD2Ev@Base 5.3.0 1
 _ZN6QQmlJS3AST14SourceElements7accept0EPNS0_7VisitorE@Base 5.3.0 1
 (optional=gccinternal)_ZN6QQmlJS3AST14SourceElementsD0Ev@Base 5.3.0 1
 (optional=gccinternal)_ZN6QQmlJS3AST14SourceElementsD1Ev@Base 5.3.0 1
 (optional=gccinternal)_ZN6QQmlJS3AST14SourceElementsD2Ev@Base 5.3.0 1
 _ZN6QQmlJS3AST14ThisExpression7accept0EPNS0_7VisitorE@Base 5.3.0 1
 (optional=gccinternal)_ZN6QQmlJS3AST14ThisExpressionD0Ev@Base 5.3.0 1
 (optional=gccinternal)_ZN6QQmlJS3AST14ThisExpressionD1Ev@Base 5.3.0 1
 (optional=gccinternal)_ZN6QQmlJS3AST14ThisExpressionD2Ev@Base 5.3.0 1
 _ZN6QQmlJS3AST14ThrowStatement7accept0EPNS0_7VisitorE@Base 5.3.0 1
 (optional=gccinternal)_ZN6QQmlJS3AST14ThrowStatementD0Ev@Base 5.3.0 1
 (optional=gccinternal)_ZN6QQmlJS3AST14ThrowStatementD1Ev@Base 5.3.0 1
 (optional=gccinternal)_ZN6QQmlJS3AST14ThrowStatementD2Ev@Base 5.3.0 1
 _ZN6QQmlJS3AST14UiArrayBinding7accept0EPNS0_7VisitorE@Base 5.3.0 1
 (optional=gccinternal)_ZN6QQmlJS3AST14UiArrayBindingD0Ev@Base 5.3.0 1
 (optional=gccinternal)_ZN6QQmlJS3AST14UiArrayBindingD1Ev@Base 5.3.0 1
 (optional=gccinternal)_ZN6QQmlJS3AST14UiArrayBindingD2Ev@Base 5.3.0 1
 _ZN6QQmlJS3AST14UiObjectMember18uiObjectMemberCastEv@Base 5.3.0 1
 _ZN6QQmlJS3AST14UiPublicMember7accept0EPNS0_7VisitorE@Base 5.3.0 1
 (optional=gccinternal)_ZN6QQmlJS3AST14UiPublicMemberD0Ev@Base 5.3.0 1
 (optional=gccinternal)_ZN6QQmlJS3AST14UiPublicMemberD1Ev@Base 5.3.0 1
 (optional=gccinternal)_ZN6QQmlJS3AST14UiPublicMemberD2Ev@Base 5.3.0 1
 _ZN6QQmlJS3AST14VoidExpression7accept0EPNS0_7VisitorE@Base 5.3.0 1
 (optional=gccinternal)_ZN6QQmlJS3AST14VoidExpressionD0Ev@Base 5.3.0 1
 (optional=gccinternal)_ZN6QQmlJS3AST14VoidExpressionD1Ev@Base 5.3.0 1
 (optional=gccinternal)_ZN6QQmlJS3AST14VoidExpressionD2Ev@Base 5.3.0 1
 _ZN6QQmlJS3AST14WhileStatement7accept0EPNS0_7VisitorE@Base 5.3.0 1
 (optional=gccinternal)_ZN6QQmlJS3AST14WhileStatementD0Ev@Base 5.3.0 1
 (optional=gccinternal)_ZN6QQmlJS3AST14WhileStatementD1Ev@Base 5.3.0 1
 (optional=gccinternal)_ZN6QQmlJS3AST14WhileStatementD2Ev@Base 5.3.0 1
 _ZN6QQmlJS3AST15ReturnStatement7accept0EPNS0_7VisitorE@Base 5.3.0 1
 (optional=gccinternal)_ZN6QQmlJS3AST15ReturnStatementD0Ev@Base 5.3.0 1
 (optional=gccinternal)_ZN6QQmlJS3AST15ReturnStatementD1Ev@Base 5.3.0 1
 (optional=gccinternal)_ZN6QQmlJS3AST15ReturnStatementD2Ev@Base 5.3.0 1
 _ZN6QQmlJS3AST15SwitchStatement7accept0EPNS0_7VisitorE@Base 5.3.0 1
 (optional=gccinternal)_ZN6QQmlJS3AST15SwitchStatementD0Ev@Base 5.3.0 1
 (optional=gccinternal)_ZN6QQmlJS3AST15SwitchStatementD1Ev@Base 5.3.0 1
 (optional=gccinternal)_ZN6QQmlJS3AST15SwitchStatementD2Ev@Base 5.3.0 1
 _ZN6QQmlJS3AST15TildeExpression7accept0EPNS0_7VisitorE@Base 5.3.0 1
 (optional=gccinternal)_ZN6QQmlJS3AST15TildeExpressionD0Ev@Base 5.3.0 1
 (optional=gccinternal)_ZN6QQmlJS3AST15TildeExpressionD1Ev@Base 5.3.0 1
 (optional=gccinternal)_ZN6QQmlJS3AST15TildeExpressionD2Ev@Base 5.3.0 1
 _ZN6QQmlJS3AST15UiObjectBinding7accept0EPNS0_7VisitorE@Base 5.3.0 1
 (optional=gccinternal)_ZN6QQmlJS3AST15UiObjectBindingD0Ev@Base 5.3.0 1
 (optional=gccinternal)_ZN6QQmlJS3AST15UiObjectBindingD1Ev@Base 5.3.0 1
 (optional=gccinternal)_ZN6QQmlJS3AST15UiObjectBindingD2Ev@Base 5.3.0 1
 _ZN6QQmlJS3AST15UiParameterList7accept0EPNS0_7VisitorE@Base 5.3.0 1
 (optional=gccinternal)_ZN6QQmlJS3AST15UiParameterListD0Ev@Base 5.3.0 1
 (optional=gccinternal)_ZN6QQmlJS3AST15UiParameterListD1Ev@Base 5.3.0 1
 (optional=gccinternal)_ZN6QQmlJS3AST15UiParameterListD2Ev@Base 5.3.0 1
 _ZN6QQmlJS3AST15UiScriptBinding7accept0EPNS0_7VisitorE@Base 5.3.0 1
 (optional=gccinternal)_ZN6QQmlJS3AST15UiScriptBindingD0Ev@Base 5.3.0 1
 (optional=gccinternal)_ZN6QQmlJS3AST15UiScriptBindingD1Ev@Base 5.3.0 1
 (optional=gccinternal)_ZN6QQmlJS3AST15UiScriptBindingD2Ev@Base 5.3.0 1
 _ZN6QQmlJS3AST15UiSourceElement7accept0EPNS0_7VisitorE@Base 5.3.0 1
 (optional=gccinternal)_ZN6QQmlJS3AST15UiSourceElementD0Ev@Base 5.3.0 1
 (optional=gccinternal)_ZN6QQmlJS3AST15UiSourceElementD1Ev@Base 5.3.0 1
 (optional=gccinternal)_ZN6QQmlJS3AST15UiSourceElementD2Ev@Base 5.3.0 1
 _ZN6QQmlJS3AST16BinaryExpression20binaryExpressionCastEv@Base 5.3.0 1
 _ZN6QQmlJS3AST16BinaryExpression7accept0EPNS0_7VisitorE@Base 5.3.0 1
 (optional=gccinternal)_ZN6QQmlJS3AST16BinaryExpressionD0Ev@Base 5.3.0 1
 (optional=gccinternal)_ZN6QQmlJS3AST16BinaryExpressionD1Ev@Base 5.3.0 1
 (optional=gccinternal)_ZN6QQmlJS3AST16BinaryExpressionD2Ev@Base 5.3.0 1
 _ZN6QQmlJS3AST16DeleteExpression7accept0EPNS0_7VisitorE@Base 5.3.0 1
 (optional=gccinternal)_ZN6QQmlJS3AST16DeleteExpressionD0Ev@Base 5.3.0 1
 (optional=gccinternal)_ZN6QQmlJS3AST16DeleteExpressionD1Ev@Base 5.3.0 1
 (optional=gccinternal)_ZN6QQmlJS3AST16DeleteExpressionD2Ev@Base 5.3.0 1
 _ZN6QQmlJS3AST16DoWhileStatement7accept0EPNS0_7VisitorE@Base 5.3.0 1
 (optional=gccinternal)_ZN6QQmlJS3AST16DoWhileStatementD0Ev@Base 5.3.0 1
 (optional=gccinternal)_ZN6QQmlJS3AST16DoWhileStatementD1Ev@Base 5.3.0 1
 (optional=gccinternal)_ZN6QQmlJS3AST16DoWhileStatementD2Ev@Base 5.3.0 1
 _ZN6QQmlJS3AST16ForEachStatement7accept0EPNS0_7VisitorE@Base 5.3.0 1
 (optional=gccinternal)_ZN6QQmlJS3AST16ForEachStatementD0Ev@Base 5.3.0 1
 (optional=gccinternal)_ZN6QQmlJS3AST16ForEachStatementD1Ev@Base 5.3.0 1
 (optional=gccinternal)_ZN6QQmlJS3AST16ForEachStatementD2Ev@Base 5.3.0 1
 _ZN6QQmlJS3AST16NestedExpression7accept0EPNS0_7VisitorE@Base 5.3.0 1
 (optional=gccinternal)_ZN6QQmlJS3AST16NestedExpressionD0Ev@Base 5.3.0 1
 (optional=gccinternal)_ZN6QQmlJS3AST16NestedExpressionD1Ev@Base 5.3.0 1
 (optional=gccinternal)_ZN6QQmlJS3AST16NestedExpressionD2Ev@Base 5.3.0 1
 _ZN6QQmlJS3AST16TypeOfExpression7accept0EPNS0_7VisitorE@Base 5.3.0 1
 (optional=gccinternal)_ZN6QQmlJS3AST16TypeOfExpressionD0Ev@Base 5.3.0 1
 (optional=gccinternal)_ZN6QQmlJS3AST16TypeOfExpressionD1Ev@Base 5.3.0 1
 (optional=gccinternal)_ZN6QQmlJS3AST16TypeOfExpressionD2Ev@Base 5.3.0 1
 _ZN6QQmlJS3AST16UiHeaderItemList7accept0EPNS0_7VisitorE@Base 5.3.0 1
 (optional=gccinternal)_ZN6QQmlJS3AST16UiHeaderItemListD0Ev@Base 5.3.0 1
 (optional=gccinternal)_ZN6QQmlJS3AST16UiHeaderItemListD1Ev@Base 5.3.0 1
 (optional=gccinternal)_ZN6QQmlJS3AST16UiHeaderItemListD2Ev@Base 5.3.0 1
 _ZN6QQmlJS3AST17ContinueStatement7accept0EPNS0_7VisitorE@Base 5.3.0 1
 (optional=gccinternal)_ZN6QQmlJS3AST17ContinueStatementD0Ev@Base 5.3.0 1
 (optional=gccinternal)_ZN6QQmlJS3AST17ContinueStatementD1Ev@Base 5.3.0 1
 (optional=gccinternal)_ZN6QQmlJS3AST17ContinueStatementD2Ev@Base 5.3.0 1
 _ZN6QQmlJS3AST17DebuggerStatement7accept0EPNS0_7VisitorE@Base 5.3.0 1
 (optional=gccinternal)_ZN6QQmlJS3AST17DebuggerStatementD0Ev@Base 5.3.0 1
 (optional=gccinternal)_ZN6QQmlJS3AST17DebuggerStatementD1Ev@Base 5.3.0 1
 (optional=gccinternal)_ZN6QQmlJS3AST17DebuggerStatementD2Ev@Base 5.3.0 1
 _ZN6QQmlJS3AST17LabelledStatement7accept0EPNS0_7VisitorE@Base 5.3.0 1
 (optional=gccinternal)_ZN6QQmlJS3AST17LabelledStatementD0Ev@Base 5.3.0 1
 (optional=gccinternal)_ZN6QQmlJS3AST17LabelledStatementD1Ev@Base 5.3.0 1
 (optional=gccinternal)_ZN6QQmlJS3AST17LabelledStatementD2Ev@Base 5.3.0 1
 _ZN6QQmlJS3AST17LocalForStatement7accept0EPNS0_7VisitorE@Base 5.3.0 1
 (optional=gccinternal)_ZN6QQmlJS3AST17LocalForStatementD0Ev@Base 5.3.0 1
 (optional=gccinternal)_ZN6QQmlJS3AST17LocalForStatementD1Ev@Base 5.3.0 1
 (optional=gccinternal)_ZN6QQmlJS3AST17LocalForStatementD2Ev@Base 5.3.0 1
 _ZN6QQmlJS3AST17UiArrayMemberList7accept0EPNS0_7VisitorE@Base 5.3.0 1
 (optional=gccinternal)_ZN6QQmlJS3AST17UiArrayMemberListD0Ev@Base 5.3.0 1
 (optional=gccinternal)_ZN6QQmlJS3AST17UiArrayMemberListD1Ev@Base 5.3.0 1
 (optional=gccinternal)_ZN6QQmlJS3AST17UiArrayMemberListD2Ev@Base 5.3.0 1
 _ZN6QQmlJS3AST17VariableStatement7accept0EPNS0_7VisitorE@Base 5.3.0 1
 (optional=gccinternal)_ZN6QQmlJS3AST17VariableStatementD0Ev@Base 5.3.0 1
 (optional=gccinternal)_ZN6QQmlJS3AST17VariableStatementD1Ev@Base 5.3.0 1
 (optional=gccinternal)_ZN6QQmlJS3AST17VariableStatementD2Ev@Base 5.3.0 1
 _ZN6QQmlJS3AST18FunctionExpression7accept0EPNS0_7VisitorE@Base 5.3.0 1
 (optional=gccinternal)_ZN6QQmlJS3AST18FunctionExpressionD0Ev@Base 5.3.0 1
 (optional=gccinternal)_ZN6QQmlJS3AST18FunctionExpressionD1Ev@Base 5.3.0 1
 (optional=gccinternal)_ZN6QQmlJS3AST18FunctionExpressionD2Ev@Base 5.3.0 1
 _ZN6QQmlJS3AST18UiObjectDefinition7accept0EPNS0_7VisitorE@Base 5.3.0 1
 (optional=gccinternal)_ZN6QQmlJS3AST18UiObjectDefinitionD0Ev@Base 5.3.0 1
 (optional=gccinternal)_ZN6QQmlJS3AST18UiObjectDefinitionD1Ev@Base 5.3.0 1
 (optional=gccinternal)_ZN6QQmlJS3AST18UiObjectDefinitionD2Ev@Base 5.3.0 1
 _ZN6QQmlJS3AST18UiObjectMemberList7accept0EPNS0_7VisitorE@Base 5.3.0 1
 (optional=gccinternal)_ZN6QQmlJS3AST18UiObjectMemberListD0Ev@Base 5.3.0 1
 (optional=gccinternal)_ZN6QQmlJS3AST18UiObjectMemberListD1Ev@Base 5.3.0 1
 (optional=gccinternal)_ZN6QQmlJS3AST18UiObjectMemberListD2Ev@Base 5.3.0 1
 _ZN6QQmlJS3AST19ExpressionStatement7accept0EPNS0_7VisitorE@Base 5.3.0 1
 (optional=gccinternal)_ZN6QQmlJS3AST19ExpressionStatementD0Ev@Base 5.3.0 1
 (optional=gccinternal)_ZN6QQmlJS3AST19ExpressionStatementD1Ev@Base 5.3.0 1
 (optional=gccinternal)_ZN6QQmlJS3AST19ExpressionStatementD2Ev@Base 5.3.0 1
 _ZN6QQmlJS3AST19FormalParameterList7accept0EPNS0_7VisitorE@Base 5.3.0 1
 (optional=gccinternal)_ZN6QQmlJS3AST19FormalParameterListD0Ev@Base 5.3.0 1
 (optional=gccinternal)_ZN6QQmlJS3AST19FormalParameterListD1Ev@Base 5.3.0 1
 (optional=gccinternal)_ZN6QQmlJS3AST19FormalParameterListD2Ev@Base 5.3.0 1
 _ZN6QQmlJS3AST19FunctionDeclaration7accept0EPNS0_7VisitorE@Base 5.3.0 1
 (optional=gccinternal)_ZN6QQmlJS3AST19FunctionDeclarationD0Ev@Base 5.3.0 1
 (optional=gccinternal)_ZN6QQmlJS3AST19FunctionDeclarationD1Ev@Base 5.3.0 1
 (optional=gccinternal)_ZN6QQmlJS3AST19FunctionDeclarationD2Ev@Base 5.3.0 1
 _ZN6QQmlJS3AST19NewMemberExpression7accept0EPNS0_7VisitorE@Base 5.3.0 1
 (optional=gccinternal)_ZN6QQmlJS3AST19NewMemberExpressionD0Ev@Base 5.3.0 1
 (optional=gccinternal)_ZN6QQmlJS3AST19NewMemberExpressionD1Ev@Base 5.3.0 1
 (optional=gccinternal)_ZN6QQmlJS3AST19NewMemberExpressionD2Ev@Base 5.3.0 1
 _ZN6QQmlJS3AST19UiObjectInitializer7accept0EPNS0_7VisitorE@Base 5.3.0 1
 (optional=gccinternal)_ZN6QQmlJS3AST19UiObjectInitializerD0Ev@Base 5.3.0 1
 (optional=gccinternal)_ZN6QQmlJS3AST19UiObjectInitializerD1Ev@Base 5.3.0 1
 (optional=gccinternal)_ZN6QQmlJS3AST19UiObjectInitializerD2Ev@Base 5.3.0 1
 _ZN6QQmlJS3AST19UiQualifiedPragmaId7accept0EPNS0_7VisitorE@Base 5.3.0 1
 (optional=gccinternal)_ZN6QQmlJS3AST19UiQualifiedPragmaIdD0Ev@Base 5.3.0 1
 (optional=gccinternal)_ZN6QQmlJS3AST19UiQualifiedPragmaIdD1Ev@Base 5.3.0 1
 (optional=gccinternal)_ZN6QQmlJS3AST19UiQualifiedPragmaIdD2Ev@Base 5.3.0 1
 _ZN6QQmlJS3AST19UnaryPlusExpression7accept0EPNS0_7VisitorE@Base 5.3.0 1
 (optional=gccinternal)_ZN6QQmlJS3AST19UnaryPlusExpressionD0Ev@Base 5.3.0 1
 (optional=gccinternal)_ZN6QQmlJS3AST19UnaryPlusExpressionD1Ev@Base 5.3.0 1
 (optional=gccinternal)_ZN6QQmlJS3AST19UnaryPlusExpressionD2Ev@Base 5.3.0 1
 _ZN6QQmlJS3AST19VariableDeclaration7accept0EPNS0_7VisitorE@Base 5.3.0 1
 (optional=gccinternal)_ZN6QQmlJS3AST19VariableDeclarationD0Ev@Base 5.3.0 1
 (optional=gccinternal)_ZN6QQmlJS3AST19VariableDeclarationD1Ev@Base 5.3.0 1
 (optional=gccinternal)_ZN6QQmlJS3AST19VariableDeclarationD2Ev@Base 5.3.0 1
 _ZN6QQmlJS3AST20IdentifierExpression7accept0EPNS0_7VisitorE@Base 5.3.0 1
 (optional=gccinternal)_ZN6QQmlJS3AST20IdentifierExpressionD0Ev@Base 5.3.0 1
 (optional=gccinternal)_ZN6QQmlJS3AST20IdentifierExpressionD1Ev@Base 5.3.0 1
 (optional=gccinternal)_ZN6QQmlJS3AST20IdentifierExpressionD2Ev@Base 5.3.0 1
 _ZN6QQmlJS3AST20PropertyGetterSetter7accept0EPNS0_7VisitorE@Base 5.3.0 1
 (optional=gccinternal)_ZN6QQmlJS3AST20PropertyGetterSetterD0Ev@Base 5.3.0 1
 (optional=gccinternal)_ZN6QQmlJS3AST20PropertyGetterSetterD1Ev@Base 5.3.0 1
 (optional=gccinternal)_ZN6QQmlJS3AST20PropertyGetterSetterD2Ev@Base 5.3.0 1
 _ZN6QQmlJS3AST20PropertyNameAndValue7accept0EPNS0_7VisitorE@Base 5.3.0 1
 (optional=gccinternal)_ZN6QQmlJS3AST20PropertyNameAndValueD0Ev@Base 5.3.0 1
 (optional=gccinternal)_ZN6QQmlJS3AST20PropertyNameAndValueD1Ev@Base 5.3.0 1
 (optional=gccinternal)_ZN6QQmlJS3AST20PropertyNameAndValueD2Ev@Base 5.3.0 1
 _ZN6QQmlJS3AST20UnaryMinusExpression7accept0EPNS0_7VisitorE@Base 5.3.0 1
 (optional=gccinternal)_ZN6QQmlJS3AST20UnaryMinusExpressionD0Ev@Base 5.3.0 1
 (optional=gccinternal)_ZN6QQmlJS3AST20UnaryMinusExpressionD1Ev@Base 5.3.0 1
 (optional=gccinternal)_ZN6QQmlJS3AST20UnaryMinusExpressionD2Ev@Base 5.3.0 1
 _ZN6QQmlJS3AST21ArrayMemberExpression7accept0EPNS0_7VisitorE@Base 5.3.0 1
 (optional=gccinternal)_ZN6QQmlJS3AST21ArrayMemberExpressionD0Ev@Base 5.3.0 1
 (optional=gccinternal)_ZN6QQmlJS3AST21ArrayMemberExpressionD1Ev@Base 5.3.0 1
 (optional=gccinternal)_ZN6QQmlJS3AST21ArrayMemberExpressionD2Ev@Base 5.3.0 1
 _ZN6QQmlJS3AST21ConditionalExpression7accept0EPNS0_7VisitorE@Base 5.3.0 1
 (optional=gccinternal)_ZN6QQmlJS3AST21ConditionalExpressionD0Ev@Base 5.3.0 1
 (optional=gccinternal)_ZN6QQmlJS3AST21ConditionalExpressionD1Ev@Base 5.3.0 1
 (optional=gccinternal)_ZN6QQmlJS3AST21ConditionalExpressionD2Ev@Base 5.3.0 1
 _ZN6QQmlJS3AST21FieldMemberExpression7accept0EPNS0_7VisitorE@Base 5.3.0 1
 (optional=gccinternal)_ZN6QQmlJS3AST21FieldMemberExpressionD0Ev@Base 5.3.0 1
 (optional=gccinternal)_ZN6QQmlJS3AST21FieldMemberExpressionD1Ev@Base 5.3.0 1
 (optional=gccinternal)_ZN6QQmlJS3AST21FieldMemberExpressionD2Ev@Base 5.3.0 1
 _ZN6QQmlJS3AST21FunctionSourceElement7accept0EPNS0_7VisitorE@Base 5.3.0 1
 (optional=gccinternal)_ZN6QQmlJS3AST21FunctionSourceElementD0Ev@Base 5.3.0 1
 (optional=gccinternal)_ZN6QQmlJS3AST21FunctionSourceElementD1Ev@Base 5.3.0 1
 (optional=gccinternal)_ZN6QQmlJS3AST21FunctionSourceElementD2Ev@Base 5.3.0 1
 _ZN6QQmlJS3AST21LocalForEachStatement7accept0EPNS0_7VisitorE@Base 5.3.0 1
 (optional=gccinternal)_ZN6QQmlJS3AST21LocalForEachStatementD0Ev@Base 5.3.0 1
 (optional=gccinternal)_ZN6QQmlJS3AST21LocalForEachStatementD1Ev@Base 5.3.0 1
 (optional=gccinternal)_ZN6QQmlJS3AST21LocalForEachStatementD2Ev@Base 5.3.0 1
 _ZN6QQmlJS3AST22IdentifierPropertyName7accept0EPNS0_7VisitorE@Base 5.3.0 1
 (optional=gccinternal)_ZN6QQmlJS3AST22IdentifierPropertyNameD0Ev@Base 5.3.0 1
 (optional=gccinternal)_ZN6QQmlJS3AST22IdentifierPropertyNameD1Ev@Base 5.3.0 1
 (optional=gccinternal)_ZN6QQmlJS3AST22IdentifierPropertyNameD2Ev@Base 5.3.0 1
 _ZN6QQmlJS3AST22PreDecrementExpression7accept0EPNS0_7VisitorE@Base 5.3.0 1
 (optional=gccinternal)_ZN6QQmlJS3AST22PreDecrementExpressionD0Ev@Base 5.3.0 1
 (optional=gccinternal)_ZN6QQmlJS3AST22PreDecrementExpressionD1Ev@Base 5.3.0 1
 (optional=gccinternal)_ZN6QQmlJS3AST22PreDecrementExpressionD2Ev@Base 5.3.0 1
 _ZN6QQmlJS3AST22PreIncrementExpression7accept0EPNS0_7VisitorE@Base 5.3.0 1
 (optional=gccinternal)_ZN6QQmlJS3AST22PreIncrementExpressionD0Ev@Base 5.3.0 1
 (optional=gccinternal)_ZN6QQmlJS3AST22PreIncrementExpressionD1Ev@Base 5.3.0 1
 (optional=gccinternal)_ZN6QQmlJS3AST22PreIncrementExpressionD2Ev@Base 5.3.0 1
 _ZN6QQmlJS3AST22PropertyAssignmentList7accept0EPNS0_7VisitorE@Base 5.3.0 1
 (optional=gccinternal)_ZN6QQmlJS3AST22PropertyAssignmentListD0Ev@Base 5.3.0 1
 (optional=gccinternal)_ZN6QQmlJS3AST22PropertyAssignmentListD1Ev@Base 5.3.0 1
 (optional=gccinternal)_ZN6QQmlJS3AST22PropertyAssignmentListD2Ev@Base 5.3.0 1
 _ZN6QQmlJS3AST22StatementSourceElement7accept0EPNS0_7VisitorE@Base 5.3.0 1
 (optional=gccinternal)_ZN6QQmlJS3AST22StatementSourceElementD0Ev@Base 5.3.0 1
 (optional=gccinternal)_ZN6QQmlJS3AST22StatementSourceElementD1Ev@Base 5.3.0 1
 (optional=gccinternal)_ZN6QQmlJS3AST22StatementSourceElementD2Ev@Base 5.3.0 1
 _ZN6QQmlJS3AST23PostDecrementExpression7accept0EPNS0_7VisitorE@Base 5.3.0 1
 (optional=gccinternal)_ZN6QQmlJS3AST23PostDecrementExpressionD0Ev@Base 5.3.0 1
 (optional=gccinternal)_ZN6QQmlJS3AST23PostDecrementExpressionD1Ev@Base 5.3.0 1
 (optional=gccinternal)_ZN6QQmlJS3AST23PostDecrementExpressionD2Ev@Base 5.3.0 1
 _ZN6QQmlJS3AST23PostIncrementExpression7accept0EPNS0_7VisitorE@Base 5.3.0 1
 (optional=gccinternal)_ZN6QQmlJS3AST23PostIncrementExpressionD0Ev@Base 5.3.0 1
 (optional=gccinternal)_ZN6QQmlJS3AST23PostIncrementExpressionD1Ev@Base 5.3.0 1
 (optional=gccinternal)_ZN6QQmlJS3AST23PostIncrementExpressionD2Ev@Base 5.3.0 1
 _ZN6QQmlJS3AST23VariableDeclarationList7accept0EPNS0_7VisitorE@Base 5.3.0 1
 (optional=gccinternal)_ZN6QQmlJS3AST23VariableDeclarationListD0Ev@Base 5.3.0 1
 (optional=gccinternal)_ZN6QQmlJS3AST23VariableDeclarationListD1Ev@Base 5.3.0 1
 (optional=gccinternal)_ZN6QQmlJS3AST23VariableDeclarationListD2Ev@Base 5.3.0 1
 _ZN6QQmlJS3AST25StringLiteralPropertyName7accept0EPNS0_7VisitorE@Base 5.3.0 1
 (optional=gccinternal)_ZN6QQmlJS3AST25StringLiteralPropertyNameD0Ev@Base 5.3.0 1
 (optional=gccinternal)_ZN6QQmlJS3AST25StringLiteralPropertyNameD1Ev@Base 5.3.0 1
 (optional=gccinternal)_ZN6QQmlJS3AST25StringLiteralPropertyNameD2Ev@Base 5.3.0 1
 _ZN6QQmlJS3AST26NumericLiteralPropertyName7accept0EPNS0_7VisitorE@Base 5.3.0 1
 (optional=gccinternal)_ZN6QQmlJS3AST26NumericLiteralPropertyNameD0Ev@Base 5.3.0 1
 (optional=gccinternal)_ZN6QQmlJS3AST26NumericLiteralPropertyNameD1Ev@Base 5.3.0 1
 (optional=gccinternal)_ZN6QQmlJS3AST26NumericLiteralPropertyNameD2Ev@Base 5.3.0 1
 _ZN6QQmlJS3AST4Node13statementCastEv@Base 5.3.0 1
 _ZN6QQmlJS3AST4Node14expressionCastEv@Base 5.3.0 1
 _ZN6QQmlJS3AST4Node18uiObjectMemberCastEv@Base 5.3.0 1
 _ZN6QQmlJS3AST4Node20binaryExpressionCastEv@Base 5.3.0 1
 _ZN6QQmlJS3AST4Node6acceptEPNS0_7VisitorE@Base 5.3.0 1
 _ZN6QQmlJS3AST4Node6acceptEPS1_PNS0_7VisitorE@Base 5.3.0 1
 _ZN6QQmlJS3AST5Block7accept0EPNS0_7VisitorE@Base 5.3.0 1
 (optional=gccinternal)_ZN6QQmlJS3AST5BlockD0Ev@Base 5.3.0 1
 (optional=gccinternal)_ZN6QQmlJS3AST5BlockD1Ev@Base 5.3.0 1
 (optional=gccinternal)_ZN6QQmlJS3AST5BlockD2Ev@Base 5.3.0 1
 _ZN6QQmlJS3AST5Catch7accept0EPNS0_7VisitorE@Base 5.3.0 1
 (optional=gccinternal)_ZN6QQmlJS3AST5CatchD0Ev@Base 5.3.0 1
 (optional=gccinternal)_ZN6QQmlJS3AST5CatchD1Ev@Base 5.3.0 1
 (optional=gccinternal)_ZN6QQmlJS3AST5CatchD2Ev@Base 5.3.0 1
 _ZN6QQmlJS3AST7Elision7accept0EPNS0_7VisitorE@Base 5.3.0 1
 (optional=gccinternal)_ZN6QQmlJS3AST7ElisionD0Ev@Base 5.3.0 1
 (optional=gccinternal)_ZN6QQmlJS3AST7ElisionD1Ev@Base 5.3.0 1
 (optional=gccinternal)_ZN6QQmlJS3AST7ElisionD2Ev@Base 5.3.0 1
 _ZN6QQmlJS3AST7Finally7accept0EPNS0_7VisitorE@Base 5.3.0 1
 (optional=gccinternal)_ZN6QQmlJS3AST7FinallyD0Ev@Base 5.3.0 1
 (optional=gccinternal)_ZN6QQmlJS3AST7FinallyD1Ev@Base 5.3.0 1
 (optional=gccinternal)_ZN6QQmlJS3AST7FinallyD2Ev@Base 5.3.0 1
 _ZN6QQmlJS3AST7Program7accept0EPNS0_7VisitorE@Base 5.3.0 1
 (optional=gccinternal)_ZN6QQmlJS3AST7ProgramD0Ev@Base 5.3.0 1
 (optional=gccinternal)_ZN6QQmlJS3AST7ProgramD1Ev@Base 5.3.0 1
 (optional=gccinternal)_ZN6QQmlJS3AST7ProgramD2Ev@Base 5.3.0 1
 _ZN6QQmlJS3AST7VisitorC1Ev@Base 5.3.0 1
 _ZN6QQmlJS3AST7VisitorC2Ev@Base 5.3.0 1
 _ZN6QQmlJS3AST7VisitorD0Ev@Base 5.3.0 1
 _ZN6QQmlJS3AST7VisitorD1Ev@Base 5.3.0 1
 _ZN6QQmlJS3AST7VisitorD2Ev@Base 5.3.0 1
 _ZN6QQmlJS3AST8UiImport7accept0EPNS0_7VisitorE@Base 5.3.0 1
 (optional=gccinternal)_ZN6QQmlJS3AST8UiImportD0Ev@Base 5.3.0 1
 (optional=gccinternal)_ZN6QQmlJS3AST8UiImportD1Ev@Base 5.3.0 1
 (optional=gccinternal)_ZN6QQmlJS3AST8UiImportD2Ev@Base 5.3.0 1
 _ZN6QQmlJS3AST8UiPragma7accept0EPNS0_7VisitorE@Base 5.3.0 1
 (optional=gccinternal)_ZN6QQmlJS3AST8UiPragmaD0Ev@Base 5.3.0 1
 (optional=gccinternal)_ZN6QQmlJS3AST8UiPragmaD1Ev@Base 5.3.0 1
 (optional=gccinternal)_ZN6QQmlJS3AST8UiPragmaD2Ev@Base 5.3.0 1
 _ZN6QQmlJS3AST9CaseBlock7accept0EPNS0_7VisitorE@Base 5.3.0 1
 (optional=gccinternal)_ZN6QQmlJS3AST9CaseBlockD0Ev@Base 5.3.0 1
 (optional=gccinternal)_ZN6QQmlJS3AST9CaseBlockD1Ev@Base 5.3.0 1
 (optional=gccinternal)_ZN6QQmlJS3AST9CaseBlockD2Ev@Base 5.3.0 1
 _ZN6QQmlJS3AST9Statement13statementCastEv@Base 5.3.0 1
 _ZN6QQmlJS3AST9UiProgram7accept0EPNS0_7VisitorE@Base 5.3.0 1
 (optional=gccinternal)_ZN6QQmlJS3AST9UiProgramD0Ev@Base 5.3.0 1
 (optional=gccinternal)_ZN6QQmlJS3AST9UiProgramD1Ev@Base 5.3.0 1
 (optional=gccinternal)_ZN6QQmlJS3AST9UiProgramD2Ev@Base 5.3.0 1
 _ZN6QQmlJS5Lexer10isHexDigitE5QChar@Base 5.3.0 1
 _ZN6QQmlJS5Lexer10scanNumberE5QChar@Base 5.3.0 1
 _ZN6QQmlJS5Lexer10scanRegExpENS0_16RegExpBodyPrefixE@Base 5.3.0 1
 _ZN6QQmlJS5Lexer12isOctalDigitEt@Base 5.3.0 1
 _ZN6QQmlJS5Lexer13isIdentLetterE5QChar@Base 5.3.0 1
 _ZN6QQmlJS5Lexer14isDecimalDigitEt@Base 5.3.0 1
 _ZN6QQmlJS5Lexer14scanDirectivesEPNS_10DirectivesE@Base 5.3.0 1
 _ZN6QQmlJS5Lexer23isUnicodeEscapeSequenceEPK5QChar@Base 5.3.0 1
 _ZN6QQmlJS5Lexer24decodeHexEscapeCharacterEPb@Base 5.3.0 1
 _ZN6QQmlJS5Lexer28decodeUnicodeEscapeCharacterEPb@Base 5.3.0 1
 _ZN6QQmlJS5Lexer30syncProhibitAutomaticSemicolonEv@Base 5.3.0 1
 _ZN6QQmlJS5Lexer3lexEv@Base 5.3.0 1
 _ZN6QQmlJS5Lexer7setCodeERK7QStringib@Base 5.3.0 1
 _ZN6QQmlJS5Lexer8classifyEPK5QCharib@Base 5.3.0 1
 _ZN6QQmlJS5Lexer9scanTokenEv@Base 5.3.0 1
 _ZN6QQmlJS5LexerC1EPNS_6EngineE@Base 5.3.0 1
 _ZN6QQmlJS5LexerC2EPNS_6EngineE@Base 5.3.0 1
 _ZN6QQmlJS6Engine10addCommentEiiii@Base 5.3.0 1
 _ZN6QQmlJS6Engine12newStringRefEPK5QChari@Base 5.3.0 1
 _ZN6QQmlJS6Engine12newStringRefERK7QString@Base 5.3.0 1
 _ZN6QQmlJS6Engine4poolEv@Base 5.3.0 1
 _ZN6QQmlJS6Engine7setCodeERK7QString@Base 5.3.0 1
 _ZN6QQmlJS6Engine8setLexerEPNS_5LexerE@Base 5.3.0 1
 _ZN6QQmlJS6EngineC1Ev@Base 5.3.0 1
 _ZN6QQmlJS6EngineC2Ev@Base 5.3.0 1
 _ZN6QQmlJS6EngineD1Ev@Base 5.3.0 1
 _ZN6QQmlJS6EngineD2Ev@Base 5.3.0 1
 _ZN6QQmlJS6Parser15reallocateStackEv@Base 5.3.0 1
 _ZN6QQmlJS6Parser20reparseAsQualifiedIdEPNS_3AST14ExpressionNodeE@Base 5.3.0 1
 _ZN6QQmlJS6Parser26reparseAsQualifiedPragmaIdEPNS_3AST14ExpressionNodeE@Base 5.3.0 1
 _ZN6QQmlJS6Parser5parseEi@Base 5.3.0 1
 _ZN6QQmlJS6ParserC1EPNS_6EngineE@Base 5.3.0 1
 _ZN6QQmlJS6ParserC2EPNS_6EngineE@Base 5.3.0 1
 _ZN6QQmlJS6ParserD1Ev@Base 5.3.0 1
 _ZN6QQmlJS6ParserD2Ev@Base 5.3.0 1
 _ZN6QQmlJS7Codegen10expressionEPNS_3AST14ExpressionNodeE@Base 5.2.0~beta1 1
 _ZN6QQmlJS7Codegen10identifierERK7QStringii@Base 5.2.0~beta1 1
 _ZN6QQmlJS7Codegen12functionBodyEPNS_3AST12FunctionBodyE@Base 5.2.0~beta1 1
 _ZN6QQmlJS7Codegen13ScanFunctions13enterFunctionEPNS_3AST18FunctionExpressionEbb@Base 5.2.0~beta1 1
 _ZN6QQmlJS7Codegen13ScanFunctions13enterFunctionEPNS_3AST4NodeERK7QStringPNS2_19FormalParameterListEPNS2_12FunctionBodyEPNS2_18FunctionExpressionEb@Base 5.2.0~beta1 1
 _ZN6QQmlJS7Codegen13ScanFunctions16enterEnvironmentEPNS_3AST4NodeENS0_15CompilationModeE@Base 5.2.0~beta1 1
 _ZN6QQmlJS7Codegen13ScanFunctions16leaveEnvironmentEv@Base 5.2.0~beta1 1
 _ZN6QQmlJS7Codegen13ScanFunctions17checkForArgumentsEPNS_3AST19FormalParameterListE@Base 5.2.0~beta1 1
 _ZN6QQmlJS7Codegen13ScanFunctions22checkDirectivePrologueEPNS_3AST14SourceElementsE@Base 5.2.0~beta1 1
 _ZN6QQmlJS7Codegen13ScanFunctions5visitEPNS_3AST12ArrayLiteralE@Base 5.2.0~beta1 1
 _ZN6QQmlJS7Codegen13ScanFunctions5visitEPNS_3AST12ForStatementE@Base 5.2.0~beta1 1
 _ZN6QQmlJS7Codegen13ScanFunctions5visitEPNS_3AST13ObjectLiteralE@Base 5.2.0~beta1 1
 _ZN6QQmlJS7Codegen13ScanFunctions5visitEPNS_3AST13WithStatementE@Base 5.2.0~beta1 1
 _ZN6QQmlJS7Codegen13ScanFunctions5visitEPNS_3AST14CallExpressionE@Base 5.2.0~beta1 1
 _ZN6QQmlJS7Codegen13ScanFunctions5visitEPNS_3AST14ThisExpressionE@Base 5.2.0~rc1 1
 _ZN6QQmlJS7Codegen13ScanFunctions5visitEPNS_3AST16DoWhileStatementE@Base 5.2.0~beta1 1
 _ZN6QQmlJS7Codegen13ScanFunctions5visitEPNS_3AST16ForEachStatementE@Base 5.2.0~beta1 1
 _ZN6QQmlJS7Codegen13ScanFunctions5visitEPNS_3AST17LocalForStatementE@Base 5.2.0~beta1 1
 _ZN6QQmlJS7Codegen13ScanFunctions5visitEPNS_3AST18FunctionExpressionE@Base 5.2.0~beta1 1
 _ZN6QQmlJS7Codegen13ScanFunctions5visitEPNS_3AST19ExpressionStatementE@Base 5.2.0~beta1 1
 _ZN6QQmlJS7Codegen13ScanFunctions5visitEPNS_3AST19FunctionDeclarationE@Base 5.2.0~beta1 1
 _ZN6QQmlJS7Codegen13ScanFunctions5visitEPNS_3AST19NewMemberExpressionE@Base 5.2.0~beta1 1
 _ZN6QQmlJS7Codegen13ScanFunctions5visitEPNS_3AST19VariableDeclarationE@Base 5.2.0~beta1 1
 _ZN6QQmlJS7Codegen13ScanFunctions5visitEPNS_3AST20IdentifierExpressionE@Base 5.2.0~beta1 1
 _ZN6QQmlJS7Codegen13ScanFunctions5visitEPNS_3AST20PropertyGetterSetterE@Base 5.2.0~beta1 1
 _ZN6QQmlJS7Codegen13ScanFunctions5visitEPNS_3AST21LocalForEachStatementE@Base 5.2.0~beta1 1
 _ZN6QQmlJS7Codegen13ScanFunctions5visitEPNS_3AST5BlockE@Base 5.2.0~beta1 1
 _ZN6QQmlJS7Codegen13ScanFunctions5visitEPNS_3AST7ProgramE@Base 5.2.0~beta1 1
 _ZN6QQmlJS7Codegen13ScanFunctions8endVisitEPNS_3AST18FunctionExpressionE@Base 5.2.0~beta1 1
 _ZN6QQmlJS7Codegen13ScanFunctions8endVisitEPNS_3AST19FunctionDeclarationE@Base 5.2.0~beta1 1
 _ZN6QQmlJS7Codegen13ScanFunctions8endVisitEPNS_3AST20PropertyGetterSetterE@Base 5.2.0~beta1 1
 _ZN6QQmlJS7Codegen13ScanFunctions8endVisitEPNS_3AST7ProgramE@Base 5.2.0~beta1 1
 _ZN6QQmlJS7Codegen13ScanFunctions9checkNameERK10QStringRefRKNS_3AST14SourceLocationE@Base 5.2.0~beta1 1
 _ZN6QQmlJS7Codegen13ScanFunctionsC1EPS0_RK7QStringNS0_15CompilationModeE@Base 5.2.0~beta1 1
 _ZN6QQmlJS7Codegen13ScanFunctionsC2EPS0_RK7QStringNS0_15CompilationModeE@Base 5.2.0~beta1 1
 (optional=gccinternal)_ZN6QQmlJS7Codegen13ScanFunctionsD0Ev@Base 5.2.0~beta1 1
 (optional=gccinternal)_ZN6QQmlJS7Codegen13ScanFunctionsD1Ev@Base 5.2.0~beta1 1
 (optional=gccinternal)_ZN6QQmlJS7Codegen13ScanFunctionsD2Ev@Base 5.2.0~beta1 1
 _ZN6QQmlJS7Codegen13ScanFunctionsclEPNS_3AST4NodeE@Base 5.2.0~beta1 1
 _ZN6QQmlJS7Codegen13sourceElementEPNS_3AST13SourceElementE@Base 5.2.0~beta1 1
 _ZN6QQmlJS7Codegen14defineFunctionERK7QStringPNS_3AST4NodeEPNS4_19FormalParameterListEPNS4_14SourceElementsERK11QStringList@Base 5.2.0~beta1 1
 _ZN6QQmlJS7Codegen14sourceElementsEPNS_3AST14SourceElementsE@Base 5.2.0~beta1 1
 _ZN6QQmlJS7Codegen14uiObjectMemberEPNS_3AST14UiObjectMemberE@Base 5.2.0~beta1 1
 _ZN6QQmlJS7Codegen15unwindExceptionEPNS0_15ScopeAndFinallyE@Base 5.2.0~beta1 1
 _ZN6QQmlJS7Codegen16enterEnvironmentEPNS_3AST4NodeE@Base 5.2.0~beta1 1
 _ZN6QQmlJS7Codegen16leaveEnvironmentEv@Base 5.2.0~beta1 1
 _ZN6QQmlJS7Codegen16throwSyntaxErrorERKNS_3AST14SourceLocationERK7QString@Base 5.2.0~beta1 1
 _ZN6QQmlJS7Codegen18fallbackNameLookupERK7QStringii@Base 5.2.0~rc1 1
 _ZN6QQmlJS7Codegen19generateFromProgramERK7QStringS3_PNS_3AST7ProgramEPN3QV42IR6ModuleENS0_15CompilationModeERK11QStringList@Base 5.3.0 1
 _ZN6QQmlJS7Codegen19throwReferenceErrorERKNS_3AST14SourceLocationERK7QString@Base 5.2.0~beta1 1
 _ZN6QQmlJS7Codegen19variableDeclarationEPNS_3AST19VariableDeclarationE@Base 5.2.0~beta1 1
 _ZN6QQmlJS7Codegen23variableDeclarationListEPNS_3AST23VariableDeclarationListE@Base 5.2.0~beta1 1
 _ZN6QQmlJS7Codegen30generateFromFunctionExpressionERK7QStringS3_PNS_3AST18FunctionExpressionEPN3QV42IR6ModuleE@Base 5.3.0 1
 _ZN6QQmlJS7Codegen45throwSyntaxErrorOnEvalOrArgumentsInStrictModeEPN3QV42IR4ExprERKNS_3AST14SourceLocationE@Base 5.3.0 1
 _ZN6QQmlJS7Codegen4callEPN3QV42IR4ExprEPNS2_8ExprListE@Base 5.3.0 1
 _ZN6QQmlJS7Codegen4moveEPN3QV42IR4ExprES4_NS2_5AluOpE@Base 5.3.0 1
 _ZN6QQmlJS7Codegen4unopEN3QV42IR5AluOpEPNS2_4ExprERKNS_3AST14SourceLocationE@Base 5.4.0 1
 _ZN6QQmlJS7Codegen5binopEN3QV42IR5AluOpEPNS2_4ExprES5_RKNS_3AST14SourceLocationE@Base 5.4.0 1
 _ZN6QQmlJS7Codegen5cjumpEPN3QV42IR4ExprEPNS2_10BasicBlockES6_@Base 5.3.0 1
 _ZN6QQmlJS7Codegen5visitEPNS_3AST10CaseClauseE@Base 5.2.0~beta1 1
 _ZN6QQmlJS7Codegen5visitEPNS_3AST10ExpressionE@Base 5.2.0~beta1 1
 _ZN6QQmlJS7Codegen5visitEPNS_3AST11CaseClausesE@Base 5.2.0~beta1 1
 _ZN6QQmlJS7Codegen5visitEPNS_3AST11ElementListE@Base 5.2.0~beta1 1
 _ZN6QQmlJS7Codegen5visitEPNS_3AST11IfStatementE@Base 5.2.0~beta1 1
 _ZN6QQmlJS7Codegen5visitEPNS_3AST11TrueLiteralE@Base 5.2.0~beta1 1
 _ZN6QQmlJS7Codegen5visitEPNS_3AST12ArgumentListE@Base 5.2.0~beta1 1
 _ZN6QQmlJS7Codegen5visitEPNS_3AST12ArrayLiteralE@Base 5.2.0~beta1 1
 _ZN6QQmlJS7Codegen5visitEPNS_3AST12FalseLiteralE@Base 5.2.0~beta1 1
 _ZN6QQmlJS7Codegen5visitEPNS_3AST12ForStatementE@Base 5.2.0~beta1 1
 _ZN6QQmlJS7Codegen5visitEPNS_3AST12FunctionBodyE@Base 5.2.0~beta1 1
 _ZN6QQmlJS7Codegen5visitEPNS_3AST12TryStatementE@Base 5.2.0~beta1 1
 _ZN6QQmlJS7Codegen5visitEPNS_3AST13DefaultClauseE@Base 5.2.0~beta1 1
 _ZN6QQmlJS7Codegen5visitEPNS_3AST13NewExpressionE@Base 5.2.0~beta1 1
 _ZN6QQmlJS7Codegen5visitEPNS_3AST13NotExpressionE@Base 5.2.0~beta1 1
 _ZN6QQmlJS7Codegen5visitEPNS_3AST13ObjectLiteralE@Base 5.2.0~beta1 1
 _ZN6QQmlJS7Codegen5visitEPNS_3AST13RegExpLiteralE@Base 5.2.0~beta1 1
 _ZN6QQmlJS7Codegen5visitEPNS_3AST13StatementListE@Base 5.2.0~beta1 1
 _ZN6QQmlJS7Codegen5visitEPNS_3AST13StringLiteralE@Base 5.2.0~beta1 1
 _ZN6QQmlJS7Codegen5visitEPNS_3AST13UiQualifiedIdE@Base 5.2.0~beta1 1
 _ZN6QQmlJS7Codegen5visitEPNS_3AST13WithStatementE@Base 5.2.0~beta1 1
 _ZN6QQmlJS7Codegen5visitEPNS_3AST14BreakStatementE@Base 5.2.0~beta1 1
 _ZN6QQmlJS7Codegen5visitEPNS_3AST14CallExpressionE@Base 5.2.0~beta1 1
 _ZN6QQmlJS7Codegen5visitEPNS_3AST14EmptyStatementE@Base 5.2.0~beta1 1
 _ZN6QQmlJS7Codegen5visitEPNS_3AST14NullExpressionE@Base 5.2.0~beta1 1
 _ZN6QQmlJS7Codegen5visitEPNS_3AST14NumericLiteralE@Base 5.2.0~beta1 1
 _ZN6QQmlJS7Codegen5visitEPNS_3AST14SourceElementsE@Base 5.2.0~beta1 1
 _ZN6QQmlJS7Codegen5visitEPNS_3AST14ThisExpressionE@Base 5.2.0~beta1 1
 _ZN6QQmlJS7Codegen5visitEPNS_3AST14ThrowStatementE@Base 5.2.0~beta1 1
 _ZN6QQmlJS7Codegen5visitEPNS_3AST14UiArrayBindingE@Base 5.2.0~beta1 1
 _ZN6QQmlJS7Codegen5visitEPNS_3AST14UiPublicMemberE@Base 5.2.0~beta1 1
 _ZN6QQmlJS7Codegen5visitEPNS_3AST14VoidExpressionE@Base 5.2.0~beta1 1
 _ZN6QQmlJS7Codegen5visitEPNS_3AST14WhileStatementE@Base 5.2.0~beta1 1
 _ZN6QQmlJS7Codegen5visitEPNS_3AST15ReturnStatementE@Base 5.2.0~beta1 1
 _ZN6QQmlJS7Codegen5visitEPNS_3AST15SwitchStatementE@Base 5.2.0~beta1 1
 _ZN6QQmlJS7Codegen5visitEPNS_3AST15TildeExpressionE@Base 5.2.0~beta1 1
 _ZN6QQmlJS7Codegen5visitEPNS_3AST15UiObjectBindingE@Base 5.2.0~beta1 1
 _ZN6QQmlJS7Codegen5visitEPNS_3AST15UiParameterListE@Base 5.2.0~beta1 1
 _ZN6QQmlJS7Codegen5visitEPNS_3AST15UiScriptBindingE@Base 5.2.0~beta1 1
 _ZN6QQmlJS7Codegen5visitEPNS_3AST15UiSourceElementE@Base 5.2.0~beta1 1
 _ZN6QQmlJS7Codegen5visitEPNS_3AST16BinaryExpressionE@Base 5.2.0~beta1 1
 _ZN6QQmlJS7Codegen5visitEPNS_3AST16DeleteExpressionE@Base 5.2.0~beta1 1
 _ZN6QQmlJS7Codegen5visitEPNS_3AST16DoWhileStatementE@Base 5.2.0~beta1 1
 _ZN6QQmlJS7Codegen5visitEPNS_3AST16ForEachStatementE@Base 5.2.0~beta1 1
 _ZN6QQmlJS7Codegen5visitEPNS_3AST16NestedExpressionE@Base 5.2.0~beta1 1
 _ZN6QQmlJS7Codegen5visitEPNS_3AST16TypeOfExpressionE@Base 5.2.0~beta1 1
 _ZN6QQmlJS7Codegen5visitEPNS_3AST16UiHeaderItemListE@Base 5.2.0~beta1 1
 _ZN6QQmlJS7Codegen5visitEPNS_3AST17ContinueStatementE@Base 5.2.0~beta1 1
 _ZN6QQmlJS7Codegen5visitEPNS_3AST17DebuggerStatementE@Base 5.2.0~beta1 1
 _ZN6QQmlJS7Codegen5visitEPNS_3AST17LabelledStatementE@Base 5.2.0~beta1 1
 _ZN6QQmlJS7Codegen5visitEPNS_3AST17LocalForStatementE@Base 5.2.0~beta1 1
 _ZN6QQmlJS7Codegen5visitEPNS_3AST17UiArrayMemberListE@Base 5.2.0~beta1 1
 _ZN6QQmlJS7Codegen5visitEPNS_3AST17VariableStatementE@Base 5.2.0~beta1 1
 _ZN6QQmlJS7Codegen5visitEPNS_3AST18FunctionExpressionE@Base 5.2.0~beta1 1
 _ZN6QQmlJS7Codegen5visitEPNS_3AST18UiObjectDefinitionE@Base 5.2.0~beta1 1
 _ZN6QQmlJS7Codegen5visitEPNS_3AST18UiObjectMemberListE@Base 5.2.0~beta1 1
 _ZN6QQmlJS7Codegen5visitEPNS_3AST19ExpressionStatementE@Base 5.2.0~beta1 1
 _ZN6QQmlJS7Codegen5visitEPNS_3AST19FormalParameterListE@Base 5.2.0~beta1 1
 _ZN6QQmlJS7Codegen5visitEPNS_3AST19FunctionDeclarationE@Base 5.2.0~beta1 1
 _ZN6QQmlJS7Codegen5visitEPNS_3AST19NewMemberExpressionE@Base 5.2.0~beta1 1
 _ZN6QQmlJS7Codegen5visitEPNS_3AST19UiObjectInitializerE@Base 5.2.0~beta1 1
 _ZN6QQmlJS7Codegen5visitEPNS_3AST19UiQualifiedPragmaIdE@Base 5.2.0~beta1 1
 _ZN6QQmlJS7Codegen5visitEPNS_3AST19UnaryPlusExpressionE@Base 5.2.0~beta1 1
 _ZN6QQmlJS7Codegen5visitEPNS_3AST19VariableDeclarationE@Base 5.2.0~beta1 1
 _ZN6QQmlJS7Codegen5visitEPNS_3AST20IdentifierExpressionE@Base 5.2.0~beta1 1
 _ZN6QQmlJS7Codegen5visitEPNS_3AST20PropertyGetterSetterE@Base 5.2.0~beta1 1
 _ZN6QQmlJS7Codegen5visitEPNS_3AST20PropertyNameAndValueE@Base 5.2.0~beta1 1
 _ZN6QQmlJS7Codegen5visitEPNS_3AST20UnaryMinusExpressionE@Base 5.2.0~beta1 1
 _ZN6QQmlJS7Codegen5visitEPNS_3AST21ArrayMemberExpressionE@Base 5.2.0~beta1 1
 _ZN6QQmlJS7Codegen5visitEPNS_3AST21ConditionalExpressionE@Base 5.2.0~beta1 1
 _ZN6QQmlJS7Codegen5visitEPNS_3AST21FieldMemberExpressionE@Base 5.2.0~beta1 1
 _ZN6QQmlJS7Codegen5visitEPNS_3AST21FunctionSourceElementE@Base 5.2.0~beta1 1
 _ZN6QQmlJS7Codegen5visitEPNS_3AST21LocalForEachStatementE@Base 5.2.0~beta1 1
 _ZN6QQmlJS7Codegen5visitEPNS_3AST22PreDecrementExpressionE@Base 5.2.0~beta1 1
 _ZN6QQmlJS7Codegen5visitEPNS_3AST22PreIncrementExpressionE@Base 5.2.0~beta1 1
 _ZN6QQmlJS7Codegen5visitEPNS_3AST22PropertyAssignmentListE@Base 5.2.0~beta1 1
 _ZN6QQmlJS7Codegen5visitEPNS_3AST22StatementSourceElementE@Base 5.2.0~beta1 1
 _ZN6QQmlJS7Codegen5visitEPNS_3AST23PostDecrementExpressionE@Base 5.2.0~beta1 1
 _ZN6QQmlJS7Codegen5visitEPNS_3AST23PostIncrementExpressionE@Base 5.2.0~beta1 1
 _ZN6QQmlJS7Codegen5visitEPNS_3AST23VariableDeclarationListE@Base 5.2.0~beta1 1
 _ZN6QQmlJS7Codegen5visitEPNS_3AST5BlockE@Base 5.2.0~beta1 1
 _ZN6QQmlJS7Codegen5visitEPNS_3AST5CatchE@Base 5.2.0~beta1 1
 _ZN6QQmlJS7Codegen5visitEPNS_3AST7ElisionE@Base 5.2.0~beta1 1
 _ZN6QQmlJS7Codegen5visitEPNS_3AST7FinallyE@Base 5.2.0~beta1 1
 _ZN6QQmlJS7Codegen5visitEPNS_3AST7ProgramE@Base 5.2.0~beta1 1
 _ZN6QQmlJS7Codegen5visitEPNS_3AST8UiImportE@Base 5.2.0~beta1 1
 _ZN6QQmlJS7Codegen5visitEPNS_3AST8UiPragmaE@Base 5.2.0~beta1 1
 _ZN6QQmlJS7Codegen5visitEPNS_3AST9CaseBlockE@Base 5.2.0~beta1 1
 _ZN6QQmlJS7Codegen5visitEPNS_3AST9UiProgramE@Base 5.2.0~beta1 1
 _ZN6QQmlJS7Codegen6acceptEPNS_3AST4NodeE@Base 5.2.0~beta1 1
 _ZN6QQmlJS7Codegen6memberEPN3QV42IR4ExprEPK7QString@Base 5.3.0 1
 _ZN6QQmlJS7Codegen7programEPNS_3AST7ProgramE@Base 5.2.0~beta1 1
 _ZN6QQmlJS7Codegen8argumentEPN3QV42IR4ExprE@Base 5.3.0 1
 _ZN6QQmlJS7Codegen9conditionEPNS_3AST14ExpressionNodeEPN3QV42IR10BasicBlockES7_@Base 5.3.0 1
 _ZN6QQmlJS7Codegen9enterLoopEPNS_3AST9StatementEPN3QV42IR10BasicBlockES7_@Base 5.4.0 1
 _ZN6QQmlJS7Codegen9leaveLoopEv@Base 5.2.0~beta1 1
 _ZN6QQmlJS7Codegen9referenceEPN3QV42IR4ExprE@Base 5.3.0 1
 _ZN6QQmlJS7Codegen9statementEPNS_3AST14ExpressionNodeE@Base 5.2.0~beta1 1
 _ZN6QQmlJS7Codegen9statementEPNS_3AST9StatementE@Base 5.2.0~beta1 1
 _ZN6QQmlJS7Codegen9subscriptEPN3QV42IR4ExprES4_@Base 5.3.0 1
 _ZN6QQmlJS7CodegenC1Eb@Base 5.2.0~beta1 1
 _ZN6QQmlJS7CodegenC2Eb@Base 5.2.0~beta1 1
 (optional=gccinternal)_ZN6QQmlJS7CodegenD0Ev@Base 5.2.0~beta1 1
 (optional=gccinternal)_ZN6QQmlJS7CodegenD1Ev@Base 5.2.0~beta1 1
 (optional=gccinternal)_ZN6QQmlJS7CodegenD2Ev@Base 5.2.0~beta1 1
 _ZN7QQmlVME23enableComponentCompleteEv@Base 5.1.0 1
 _ZN7QQmlVME24componentCompleteEnabledEv@Base 5.1.0 1
 _ZN7QQmlVME24disableComponentCompleteEv@Base 5.1.0 1
 _ZN7QQmlVME25s_enableComponentCompleteE@Base 5.1.0 1
 _ZN8QJSValue11setPropertyERK7QStringRKS_@Base 5.0.2
 _ZN8QJSValue11setPropertyEjRKS_@Base 5.0.2
 _ZN8QJSValue12setPrototypeERKS_@Base 5.0.2
 _ZN8QJSValue14deletePropertyERK7QString@Base 5.0.2
 _ZN8QJSValue16callWithInstanceERKS_RK5QListIS_E@Base 5.0.2
 _ZN8QJSValue17callAsConstructorERK5QListIS_E@Base 5.0.2
 _ZN8QJSValue4callERK5QListIS_E@Base 5.0.2
 _ZN8QJSValueC1ENS_12SpecialValueE@Base 5.0.2
 _ZN8QJSValueC1EP15QJSValuePrivate@Base 5.0.2 1
 _ZN8QJSValueC1EPKc@Base 5.0.2
 _ZN8QJSValueC1ERK13QLatin1String@Base 5.0.2
 _ZN8QJSValueC1ERK7QString@Base 5.0.2
 _ZN8QJSValueC1ERKS_@Base 5.0.2
 _ZN8QJSValueC1Eb@Base 5.0.2
 _ZN8QJSValueC1Ed@Base 5.0.2
 _ZN8QJSValueC1Ei@Base 5.0.2
 _ZN8QJSValueC1Ej@Base 5.0.2
 _ZN8QJSValueC2ENS_12SpecialValueE@Base 5.0.2
 _ZN8QJSValueC2EP15QJSValuePrivate@Base 5.0.2 1
 _ZN8QJSValueC2EPKc@Base 5.0.2
 _ZN8QJSValueC2ERK13QLatin1String@Base 5.0.2
 _ZN8QJSValueC2ERK7QString@Base 5.0.2
 _ZN8QJSValueC2ERKS_@Base 5.0.2
 _ZN8QJSValueC2Eb@Base 5.0.2
 _ZN8QJSValueC2Ed@Base 5.0.2
 _ZN8QJSValueC2Ei@Base 5.0.2
 _ZN8QJSValueC2Ej@Base 5.0.2
 _ZN8QJSValueD1Ev@Base 5.0.2
 _ZN8QJSValueD2Ev@Base 5.0.2
 _ZN8QJSValueaSERKS_@Base 5.0.2
 _ZN8QQmlData10NotifyList6layoutEP20QQmlNotifierEndpoint@Base 5.0.2 1
 _ZN8QQmlData10NotifyList6layoutEv@Base 5.0.2 1
 _ZN8QQmlData13endpointCountEi@Base 5.0.2 1
 _ZN8QQmlData13markAsDeletedEP7QObject@Base 5.0.2 1
 _ZN8QQmlData13parentChangedEP24QAbstractDeclarativeDataP7QObjectS3_@Base 5.0.2 1
 _ZN8QQmlData13parentChangedEP7QObjectS1_@Base 5.0.2 1
 _ZN8QQmlData13setBindingBitEP7QObjecti@Base 5.0.2 1
 _ZN8QQmlData13signalEmittedEP24QAbstractDeclarativeDataP7QObjectiPPv@Base 5.0.2 1
 _ZN8QQmlData15clearBindingBitEi@Base 5.0.2 1
 _ZN8QQmlData17isSignalConnectedEP24QAbstractDeclarativeDataPK7QObjecti@Base 5.0.2 1
 _ZN8QQmlData17signalHasEndpointEi@Base 5.0.2 1
 _ZN8QQmlData19disconnectNotifiersEv@Base 5.0.2 1
 _ZN8QQmlData19ensurePropertyCacheEP10QQmlEngineP7QObject@Base 5.2.1 1
 _ZN8QQmlData20setPendingBindingBitEP7QObjecti@Base 5.0.2 1
 _ZN8QQmlData20setQueuedForDeletionEP7QObject@Base 5.0.2 1
 _ZN8QQmlData22clearPendingBindingBitEi@Base 5.0.2 1
 _ZN8QQmlData23flushPendingBindingImplEi@Base 5.0.2 1
 _ZN8QQmlData9addNotifyEiP20QQmlNotifierEndpoint@Base 5.0.2 1
 _ZN8QQmlData9destroyedEP24QAbstractDeclarativeDataP7QObject@Base 5.0.2 1
 _ZN8QQmlData9destroyedEP7QObject@Base 5.0.2 1
 _ZN8QQmlData9receiversEP24QAbstractDeclarativeDataPK7QObjecti@Base 5.0.2 1
 _ZN8QQmlFile11isLocalFileERK4QUrl@Base 5.0.2
 _ZN8QQmlFile11isLocalFileERK7QString@Base 5.0.2
 _ZN8QQmlFile13isSynchronousERK4QUrl@Base 5.0.2
 _ZN8QQmlFile13isSynchronousERK7QString@Base 5.0.2
 _ZN8QQmlFile14bundleFileNameERK4QUrlP10QQmlEngine@Base 5.0.2
 _ZN8QQmlFile14bundleFileNameERK7QStringP10QQmlEngine@Base 5.0.2
 _ZN8QQmlFile15connectFinishedEP7QObjectPKc@Base 5.0.2
 _ZN8QQmlFile15connectFinishedEP7QObjecti@Base 5.0.2
 _ZN8QQmlFile16bundleFileExistsERK4QUrlP10QQmlEngine@Base 5.0.2
 _ZN8QQmlFile16bundleFileExistsERK7QStringP10QQmlEngine@Base 5.0.2
 _ZN8QQmlFile19urlToLocalFileOrQrcERK4QUrl@Base 5.0.2
 _ZN8QQmlFile19urlToLocalFileOrQrcERK7QString@Base 5.0.2
 _ZN8QQmlFile21bundleDirectoryExistsERK4QUrlP10QQmlEngine@Base 5.0.2
 _ZN8QQmlFile21bundleDirectoryExistsERK7QStringP10QQmlEngine@Base 5.0.2
 _ZN8QQmlFile23connectDownloadProgressEP7QObjectPKc@Base 5.0.2
 _ZN8QQmlFile23connectDownloadProgressEP7QObjecti@Base 5.0.2
 _ZN8QQmlFile4loadEP10QQmlEngineRK4QUrl@Base 5.0.2
 _ZN8QQmlFile4loadEP10QQmlEngineRK7QString@Base 5.0.2
 _ZN8QQmlFile5clearEP7QObject@Base 5.0.2
 _ZN8QQmlFile5clearEv@Base 5.0.2
 _ZN8QQmlFile8isBundleERK4QUrl@Base 5.0.2
 _ZN8QQmlFile8isBundleERK7QString@Base 5.0.2
 _ZN8QQmlFileC1EP10QQmlEngineRK4QUrl@Base 5.0.2
 _ZN8QQmlFileC1EP10QQmlEngineRK7QString@Base 5.0.2
 _ZN8QQmlFileC1Ev@Base 5.0.2
 _ZN8QQmlFileC2EP10QQmlEngineRK4QUrl@Base 5.0.2
 _ZN8QQmlFileC2EP10QQmlEngineRK7QString@Base 5.0.2
 _ZN8QQmlFileC2Ev@Base 5.0.2
 _ZN8QQmlFileD1Ev@Base 5.0.2
 _ZN8QQmlFileD2Ev@Base 5.0.2
 _ZN8QQmlInfoC1EP15QQmlInfoPrivate@Base 5.0.2
 _ZN8QQmlInfoC1ERKS_@Base 5.0.2
 _ZN8QQmlInfoC2EP15QQmlInfoPrivate@Base 5.0.2
 _ZN8QQmlInfoC2ERKS_@Base 5.0.2
 _ZN8QQmlInfoD1Ev@Base 5.0.2
 _ZN8QQmlInfoD2Ev@Base 5.0.2
 _ZN8QQmlPool5clearEv@Base 5.0.2 1
 _ZN8QQmlPool7newpageEv@Base 5.0.2 1
 _ZN8QQmlType21SingletonInstanceInfo12setScriptApiEP10QQmlEngine8QJSValue@Base 5.0.2 1
 _ZN8QQmlType21SingletonInstanceInfo13setQObjectApiEP10QQmlEngineP7QObject@Base 5.0.2 1
 _ZN8QQmlType21SingletonInstanceInfo4initEP10QQmlEngine@Base 5.0.2 1
 _ZN8QQmlType21SingletonInstanceInfo7destroyEP10QQmlEngine@Base 5.0.2 1
 _ZN8QQmlTypeC1EiRK7QStringRKN11QQmlPrivate12RegisterTypeE@Base 5.0.2 1
 _ZN8QQmlTypeC1EiRK7QStringRKN11QQmlPrivate21RegisterCompositeTypeE@Base 5.1.0 1
 _ZN8QQmlTypeC1EiRK7QStringRKN11QQmlPrivate21RegisterSingletonTypeE@Base 5.0.2 1
 _ZN8QQmlTypeC1EiRK7QStringRKN11QQmlPrivate30RegisterCompositeSingletonTypeE@Base 5.2.0~beta1 1
 _ZN8QQmlTypeC1EiRKN11QQmlPrivate17RegisterInterfaceE@Base 5.0.2 1
 _ZN8QQmlTypeC2EiRK7QStringRKN11QQmlPrivate12RegisterTypeE@Base 5.0.2 1
 _ZN8QQmlTypeC2EiRK7QStringRKN11QQmlPrivate21RegisterCompositeTypeE@Base 5.1.0 1
 _ZN8QQmlTypeC2EiRK7QStringRKN11QQmlPrivate21RegisterSingletonTypeE@Base 5.0.2 1
 _ZN8QQmlTypeC2EiRK7QStringRKN11QQmlPrivate30RegisterCompositeSingletonTypeE@Base 5.2.0~beta1 1
 _ZN8QQmlTypeC2EiRKN11QQmlPrivate17RegisterInterfaceE@Base 5.0.2 1
 _ZN8QQmlTypeD1Ev@Base 5.0.2 1
 _ZN8QQmlTypeD2Ev@Base 5.0.2 1
 (optional=templinst|arch=ia64)_ZN8QVariant9fromValueIP9ListModelEES_RKT_@Base 5.2.0
 _ZN9QBitArray6setBitEi@Base 5.3.0
 _ZN9QJSEngine10newQObjectEP7QObject@Base 5.0.2
 _ZN9QJSEngine11qt_metacallEN11QMetaObject4CallEiPPv@Base 5.0.2
 _ZN9QJSEngine11qt_metacastEPKc@Base 5.0.2
 _ZN9QJSEngine14collectGarbageEv@Base 5.0.2
 _ZN9QJSEngine16staticMetaObjectE@Base 5.0.2
 _ZN9QJSEngine26installTranslatorFunctionsERK8QJSValue@Base 5.4.0
 _ZN9QJSEngine6createEiPKv@Base 5.0.2
 _ZN9QJSEngine8evaluateERK7QStringS2_i@Base 5.0.2
 _ZN9QJSEngine8newArrayEj@Base 5.0.2
 _ZN9QJSEngine9convertV2ERK8QJSValueiPv@Base 5.0.2
 _ZN9QJSEngine9newObjectEv@Base 5.0.2
 _ZN9QJSEngineC1EP7QObject@Base 5.0.2
 _ZN9QJSEngineC1ER16QJSEnginePrivateP7QObject@Base 5.0.2
 _ZN9QJSEngineC1Ev@Base 5.0.2
 _ZN9QJSEngineC2EP7QObject@Base 5.0.2
 _ZN9QJSEngineC2ER16QJSEnginePrivateP7QObject@Base 5.0.2
 _ZN9QJSEngineC2Ev@Base 5.0.2
 _ZN9QJSEngineD0Ev@Base 5.0.2
 _ZN9QJSEngineD1Ev@Base 5.0.2
 _ZN9QJSEngineD2Ev@Base 5.0.2
 _ZN9QQmlError14setDescriptionERK7QString@Base 5.0.2
 _ZN9QQmlError6setUrlERK4QUrl@Base 5.0.2
 _ZN9QQmlError7setLineEi@Base 5.0.2
 _ZN9QQmlError9setColumnEi@Base 5.0.2
 _ZN9QQmlError9setObjectEP7QObject@Base 5.2.0~beta1
 _ZN9QQmlErrorC1ERKS_@Base 5.0.2
 _ZN9QQmlErrorC1Ev@Base 5.0.2
 _ZN9QQmlErrorC2ERKS_@Base 5.0.2
 _ZN9QQmlErrorC2Ev@Base 5.0.2
 _ZN9QQmlErrorD1Ev@Base 5.0.2
 _ZN9QQmlErrorD2Ev@Base 5.0.2
 _ZN9QQmlErroraSERKS_@Base 5.0.2
 _ZN9QQmlTimer10classBeginEv@Base 5.0.2 1
 _ZN9QQmlTimer10setRunningEb@Base 5.0.2 1
 _ZN9QQmlTimer11qt_metacallEN11QMetaObject4CallEiPPv@Base 5.0.2 1
 _ZN9QQmlTimer11qt_metacastEPKc@Base 5.0.2 1
 _ZN9QQmlTimer11setIntervalEi@Base 5.0.2 1
 _ZN9QQmlTimer12setRepeatingEb@Base 5.0.2 1
 _ZN9QQmlTimer13repeatChangedEv@Base 5.0.2 1
 _ZN9QQmlTimer14runningChangedEv@Base 5.0.2 1
 _ZN9QQmlTimer15intervalChangedEv@Base 5.0.2 1
 _ZN9QQmlTimer16staticMetaObjectE@Base 5.0.2 1
 _ZN9QQmlTimer17componentCompleteEv@Base 5.0.2 1
 _ZN9QQmlTimer19setTriggeredOnStartEb@Base 5.0.2 1
 _ZN9QQmlTimer23triggeredOnStartChangedEv@Base 5.0.2 1
 _ZN9QQmlTimer4stopEv@Base 5.0.2 1
 _ZN9QQmlTimer5eventEP6QEvent@Base 5.4.0 1
 _ZN9QQmlTimer5startEv@Base 5.0.2 1
 _ZN9QQmlTimer6tickedEv@Base 5.0.2 1
 _ZN9QQmlTimer6updateEv@Base 5.0.2 1
 _ZN9QQmlTimer7restartEv@Base 5.0.2 1
 _ZN9QQmlTimer9triggeredEv@Base 5.0.2 1
 _ZN9QQmlTimerC1EP7QObject@Base 5.0.2 1
 _ZN9QQmlTimerC2EP7QObject@Base 5.0.2 1
 (optional=gccinternal)_ZN9QQmlTimerD0Ev@Base 5.0.2 1
 (optional=gccinternal)_ZN9QQmlTimerD1Ev@Base 5.0.2 1
 (optional=gccinternal)_ZN9QQmlTimerD2Ev@Base 5.0.2 1
 _ZN9QV8Engine10startTimerERK7QString@Base 5.0.2 1
 _ZN9QV8Engine11fromVariantERK8QVariant@Base 5.0.2 1
 _ZN9QV8Engine11variantToJSERK8QVariant@Base 5.0.2 1
 _ZN9QV8Engine12freezeObjectEN3QV48ValueRefE@Base 5.2.0~beta1 1
 _ZN9QV8Engine12metaTypeToJSEiPKv@Base 5.0.2 1
 _ZN9QV8Engine14callingContextEv@Base 5.0.2 1
 _ZN9QV8Engine14metaTypeFromJSEN3QV48ValueRefEiPv@Base 5.2.0~beta1 1
 _ZN9QV8Engine14qtObjectFromJSEN3QV48ValueRefE@Base 5.2.0~beta1 1
 _ZN9QV8Engine14variantMapToJSERK4QMapI7QString8QVariantE@Base 5.0.2 1
 _ZN9QV8Engine15objectToVariantEPN3QV46ObjectEP4QSetIS2_E@Base 5.4.0 1
 _ZN9QV8Engine15variantListToJSERK5QListI8QVariantE@Base 5.0.2 1
 _ZN9QV8Engine16initializeGlobalEv@Base 5.2.0~beta1 1
 _ZN9QV8Engine16setExtensionDataEiPNS_9DeletableE@Base 5.0.2 1
 _ZN9QV8Engine17registerExtensionEv@Base 5.0.2 1
 _ZN9QV8Engine17registrationMutexEv@Base 5.0.2 1
 _ZN9QV8Engine18consoleCountHelperERK7QStringtt@Base 5.0.2 1
 _ZN9QV8Engine19initQmlGlobalObjectEv@Base 5.0.2 1
 _ZN9QV8Engine20networkAccessManagerEv@Base 5.0.2 1
 _ZN9QV8Engine22convertToNativeQObjectEN3QV48ValueRefERK10QByteArrayPPv@Base 5.2.0~beta1 1
 _ZN9QV8Engine6globalEv@Base 5.2.0~beta1 1
 _ZN9QV8Engine8toStringERK7QString@Base 5.2.0~beta1 1
 _ZN9QV8Engine9setEngineEP10QQmlEngine@Base 5.0.2 1
 _ZN9QV8Engine9stopTimerERK7QStringPb@Base 5.0.2 1
 _ZN9QV8Engine9toVariantEN3QV48ValueRefEibP4QSetIPNS0_6ObjectEE@Base 5.4.0 1
 _ZN9QV8EngineC1EP9QJSEngine@Base 5.2.0~beta1 1
 _ZN9QV8EngineC2EP9QJSEngine@Base 5.2.0~beta1 1
 _ZN9QV8EngineD0Ev@Base 5.0.2 1
 _ZN9QV8EngineD1Ev@Base 5.0.2 1
 _ZN9QV8EngineD2Ev@Base 5.0.2 1
 _ZNK10QQmlBundle4findEPK5QChari@Base 5.0.2 1
 _ZNK10QQmlBundle4findERK7QString@Base 5.0.2 1
 _ZNK10QQmlBundle4linkEPKNS_9FileEntryERK7QString@Base 5.0.2 1
 _ZNK10QQmlBundle5filesEv@Base 5.0.2 1
 _ZNK10QQmlBundle9FileEntry10isFileNameERK7QString@Base 5.0.2 1
 _ZNK10QQmlBundle9FileEntry8contentsEv@Base 5.0.2 1
 _ZNK10QQmlBundle9FileEntry8fileNameEv@Base 5.0.2 1
 _ZNK10QQmlBundle9FileEntry8fileSizeEv@Base 5.0.2 1
 _ZNK10QQmlEngine10metaObjectEv@Base 5.0.2
 _ZNK10QQmlEngine11rootContextEv@Base 5.0.2
 _ZNK10QQmlEngine13imageProviderERK7QString@Base 5.0.2
 _ZNK10QQmlEngine14importPathListEv@Base 5.0.2
 _ZNK10QQmlEngine14pluginPathListEv@Base 5.0.2
 _ZNK10QQmlEngine14urlInterceptorEv@Base 5.1.0
 _ZNK10QQmlEngine18offlineStoragePathEv@Base 5.0.2
 _ZNK10QQmlEngine20incubationControllerEv@Base 5.0.2
 _ZNK10QQmlEngine20networkAccessManagerEv@Base 5.0.2
 _ZNK10QQmlEngine27networkAccessManagerFactoryEv@Base 5.0.2
 _ZNK10QQmlEngine29outputWarningsToStandardErrorEv@Base 5.0.2
 _ZNK10QQmlEngine7baseUrlEv@Base 5.0.2
 _ZNK11QQmlBinding10expressionEv@Base 5.0.2 1
 _ZNK11QQmlBinding13propertyIndexEv@Base 5.0.2 1
 _ZNK11QQmlBinding6objectEv@Base 5.0.2 1
 _ZNK11QQmlBinding8propertyEv@Base 5.0.2 1
 _ZNK11QQmlContext10metaObjectEv@Base 5.0.2
 _ZNK11QQmlContext13contextObjectEv@Base 5.0.2
 _ZNK11QQmlContext13nameForObjectEP7QObject@Base 5.0.2
 _ZNK11QQmlContext13parentContextEv@Base 5.0.2
 _ZNK11QQmlContext15contextPropertyERK7QString@Base 5.0.2
 _ZNK11QQmlContext6engineEv@Base 5.0.2
 _ZNK11QQmlContext7baseUrlEv@Base 5.0.2
 _ZNK11QQmlContext7isValidEv@Base 5.0.2
 _ZNK11QQmlImports11resolveTypeEP19QQmlImportNamespaceRK16QHashedStringRefPP8QQmlTypePiS8_@Base 5.1.0 1
 _ZNK11QQmlImports11resolveTypeERK16QHashedStringRefPP8QQmlTypePiS6_PP19QQmlImportNamespaceP5QListI9QQmlErrorE@Base 5.1.0 1
 _ZNK11QQmlImports13populateCacheEP17QQmlTypeNameCache@Base 5.0.2 1
 _ZNK11QQmlImports15resolvedScriptsEv@Base 5.0.2 1
 _ZNK11QQmlImports27resolvedCompositeSingletonsEv@Base 5.2.0~beta1 1
 _ZNK11QQmlImports7baseUrlEv@Base 5.0.2 1
 _ZNK12QQmlDataBlob10isCompleteEv@Base 5.0.2 1
 _ZNK12QQmlDataBlob14finalUrlStringEv@Base 5.0.2 1
 _ZNK12QQmlDataBlob17isCompleteOrErrorEv@Base 5.0.2 1
 _ZNK12QQmlDataBlob3urlEv@Base 5.0.2 1
 _ZNK12QQmlDataBlob4typeEv@Base 5.0.2 1
 _ZNK12QQmlDataBlob6errorsEv@Base 5.0.2 1
 _ZNK12QQmlDataBlob6isNullEv@Base 5.0.2 1
 _ZNK12QQmlDataBlob6statusEv@Base 5.0.2 1
 _ZNK12QQmlDataBlob7isErrorEv@Base 5.0.2 1
 _ZNK12QQmlDataBlob8finalUrlEv@Base 5.0.2 1
 _ZNK12QQmlDataBlob8progressEv@Base 5.0.2 1
 _ZNK12QQmlDataBlob9isLoadingEv@Base 5.0.2 1
 _ZNK12QQmlDataBlob9isWaitingEv@Base 5.0.2 1
 _ZNK12QQmlPlatform10metaObjectEv@Base 5.1.0 1
 _ZNK12QQmlProperty10isPropertyEv@Base 5.0.2
 _ZNK12QQmlProperty10isWritableEv@Base 5.0.2
 _ZNK12QQmlProperty12isDesignableEv@Base 5.0.2
 _ZNK12QQmlProperty12isResettableEv@Base 5.0.2
 _ZNK12QQmlProperty12propertyTypeEv@Base 5.0.2
 _ZNK12QQmlProperty15hasNotifySignalEv@Base 5.0.2
 _ZNK12QQmlProperty16isSignalPropertyEv@Base 5.0.2
 _ZNK12QQmlProperty16propertyTypeNameEv@Base 5.0.2
 _ZNK12QQmlProperty17needsNotifySignalEv@Base 5.0.2
 _ZNK12QQmlProperty19connectNotifySignalEP7QObjectPKc@Base 5.0.2
 _ZNK12QQmlProperty19connectNotifySignalEP7QObjecti@Base 5.0.2
 _ZNK12QQmlProperty20propertyTypeCategoryEv@Base 5.0.2
 _ZNK12QQmlProperty4nameEv@Base 5.0.2
 _ZNK12QQmlProperty4readEv@Base 5.0.2
 _ZNK12QQmlProperty4typeEv@Base 5.0.2
 _ZNK12QQmlProperty5indexEv@Base 5.0.2
 _ZNK12QQmlProperty5resetEv@Base 5.0.2
 _ZNK12QQmlProperty5writeERK8QVariant@Base 5.0.2
 _ZNK12QQmlProperty6methodEv@Base 5.0.2
 _ZNK12QQmlProperty6objectEv@Base 5.0.2
 _ZNK12QQmlProperty7isValidEv@Base 5.0.2
 _ZNK12QQmlProperty8propertyEv@Base 5.0.2
 _ZNK12QQmlPropertyeqERKS_@Base 5.0.2
 _ZNK13QQmlComponent10metaObjectEv@Base 5.0.2
 _ZNK13QQmlComponent11errorStringEv@Base 5.0.2
 _ZNK13QQmlComponent15creationContextEv@Base 5.0.2
 _ZNK13QQmlComponent3urlEv@Base 5.0.2
 _ZNK13QQmlComponent6errorsEv@Base 5.0.2
 _ZNK13QQmlComponent6isNullEv@Base 5.0.2
 _ZNK13QQmlComponent6statusEv@Base 5.0.2
 _ZNK13QQmlComponent7isErrorEv@Base 5.0.2
 _ZNK13QQmlComponent7isReadyEv@Base 5.0.2
 _ZNK13QQmlComponent8progressEv@Base 5.0.2
 _ZNK13QQmlComponent9isLoadingEv@Base 5.0.2
 _ZNK13QQmlDirParser10componentsEv@Base 5.3.0 1
 _ZNK13QQmlDirParser12dependenciesEv@Base 5.4.0 1
 _ZNK13QQmlDirParser13typeNamespaceEv@Base 5.3.0 1
 _ZNK13QQmlDirParser17designerSupportedEv@Base 5.4.0 1
 _ZNK13QQmlDirParser6errorsERK7QString@Base 5.3.0 1
 _ZNK13QQmlDirParser7pluginsEv@Base 5.3.0 1
 _ZNK13QQmlDirParser7scriptsEv@Base 5.3.0 1
 _ZNK13QQmlDirParser8hasErrorEv@Base 5.3.0 1
 _ZNK13QQmlIncubator14incubationModeEv@Base 5.0.2
 _ZNK13QQmlIncubator6errorsEv@Base 5.0.2
 _ZNK13QQmlIncubator6isNullEv@Base 5.0.2
 _ZNK13QQmlIncubator6objectEv@Base 5.0.2
 _ZNK13QQmlIncubator6statusEv@Base 5.0.2
 _ZNK13QQmlIncubator7isErrorEv@Base 5.0.2
 _ZNK13QQmlIncubator7isReadyEv@Base 5.0.2
 _ZNK13QQmlIncubator9isLoadingEv@Base 5.0.2
 _ZNK13QQmlListModel10metaObjectEv@Base 5.1.0 1
 _ZNK13QQmlListModel3getEi@Base 5.1.0 1
 _ZNK13QQmlListModel4dataERK11QModelIndexi@Base 5.1.0 1
 _ZNK13QQmlListModel4dataEii@Base 5.1.0 1
 _ZNK13QQmlListModel5countEv@Base 5.1.0 1
 _ZNK13QQmlListModel5indexEiiRK11QModelIndex@Base 5.1.0 1
 _ZNK13QQmlListModel6engineEv@Base 5.1.0 1
 _ZNK13QQmlListModel8rowCountERK11QModelIndex@Base 5.1.0 1
 _ZNK13QQmlListModel9roleNamesEv@Base 5.1.0 1
 _ZNK13QQmlValueType10metaObjectEv@Base 5.0.2 1
 _ZNK14QQmlExpression10expressionEv@Base 5.0.2
 _ZNK14QQmlExpression10lineNumberEv@Base 5.0.2
 _ZNK14QQmlExpression10metaObjectEv@Base 5.0.2
 _ZNK14QQmlExpression10sourceFileEv@Base 5.0.2
 _ZNK14QQmlExpression11scopeObjectEv@Base 5.0.2
 _ZNK14QQmlExpression12columnNumberEv@Base 5.0.2
 _ZNK14QQmlExpression20notifyOnValueChangedEv@Base 5.0.2
 _ZNK14QQmlExpression5errorEv@Base 5.0.2
 _ZNK14QQmlExpression6engineEv@Base 5.0.2
 _ZNK14QQmlExpression7contextEv@Base 5.0.2
 _ZNK14QQmlExpression8hasErrorEv@Base 5.0.2
 _ZNK14QQmlMetaObject13propertyCacheEP17QQmlEnginePrivate@Base 5.0.2 1
 _ZNK15QQmlApplication10metaObjectEv@Base 5.1.0 1
 _ZNK15QQmlApplication12organizationEv@Base 5.2.0~beta1 1
 _ZNK15QQmlApplication4nameEv@Base 5.1.0 1
 _ZNK15QQmlApplication6domainEv@Base 5.2.0~beta1 1
 _ZNK15QQmlApplication7versionEv@Base 5.1.0 1
 _ZNK15QQmlBoundSignal10expressionEv@Base 5.0.2 1
 _ZNK15QQmlBoundSignal5indexEv@Base 5.0.2 1
 _ZNK15QQmlContextData12findObjectIdEPK7QObject@Base 5.0.2 1
 _ZNK15QQmlDebugServer10metaObjectEv@Base 5.0.2 1
 _ZNK15QQmlDebugServer12blockingModeEv@Base 5.0.2 1
 _ZNK15QQmlDebugServer12serviceNamesEv@Base 5.0.2 1
 _ZNK15QQmlDebugServer18hasDebuggingClientEv@Base 5.0.2 1
 _ZNK15QQmlDebugServer8servicesEv@Base 5.0.2 1
 _ZNK15QQmlObjectModel10metaObjectEv@Base 5.1.0 1
 _ZNK15QQmlObjectModel5countEv@Base 5.1.0 1
 _ZNK15QQmlObjectModel7indexOfEP7QObjectS1_@Base 5.1.0 1
 _ZNK15QQmlObjectModel7isValidEv@Base 5.1.0 1
 _ZNK15QQmlPropertyMap10metaObjectEv@Base 5.0.2
 _ZNK15QQmlPropertyMap4keysEv@Base 5.0.2
 _ZNK15QQmlPropertyMap4sizeEv@Base 5.0.2
 _ZNK15QQmlPropertyMap5countEv@Base 5.0.2
 _ZNK15QQmlPropertyMap5valueERK7QString@Base 5.0.2
 _ZNK15QQmlPropertyMap7isEmptyEv@Base 5.0.2
 _ZNK15QQmlPropertyMap8containsERK7QString@Base 5.0.2
 _ZNK15QQmlPropertyMapixERK7QString@Base 5.0.2
 _ZNK16QJSValueIterator4nameEv@Base 5.0.2
 _ZNK16QJSValueIterator5valueEv@Base 5.0.2
 _ZNK16QJSValueIterator7hasNextEv@Base 5.0.2
 _ZNK16QQmlCustomParser11resolveTypeERK7QString@Base 5.0.2 1
 _ZNK16QQmlCustomParser12evaluateEnumERK10QByteArrayPb@Base 5.0.2 1
 _ZNK16QQmlDebugService10metaObjectEv@Base 5.0.2 1
 _ZNK16QQmlDebugService4nameEv@Base 5.0.2 1
 _ZNK16QQmlDebugService5stateEv@Base 5.0.2 1
 _ZNK16QQmlDebugService7versionEv@Base 5.0.2 1
 _ZNK16QQmlFileSelector10metaObjectEv@Base 5.2.0~beta1
 _ZNK16QQmlScriptString13isNullLiteralEv@Base 5.0.2
 _ZNK16QQmlScriptString13numberLiteralEPb@Base 5.0.2
 _ZNK16QQmlScriptString13stringLiteralEv@Base 5.0.2
 _ZNK16QQmlScriptString14booleanLiteralEPb@Base 5.0.2
 _ZNK16QQmlScriptString18isUndefinedLiteralEv@Base 5.0.2
 _ZNK16QQmlScriptString7isEmptyEv@Base 5.0.2
 _ZNK16QQmlScriptStringeqERKS_@Base 5.4.0
 _ZNK16QQmlScriptStringneERKS_@Base 5.4.0
 _ZNK17QQmlDelegateModel10metaObjectEv@Base 5.1.0 1
 _ZNK17QQmlDelegateModel10modelIndexEi@Base 5.1.0 1
 _ZNK17QQmlDelegateModel11filterGroupEv@Base 5.1.0 1
 _ZNK17QQmlDelegateModel14isDescendantOfERK21QPersistentModelIndexRK5QListIS0_E@Base 5.3.2 1
 _ZNK17QQmlDelegateModel16parentModelIndexEv@Base 5.1.0 1
 _ZNK17QQmlDelegateModel5countEv@Base 5.1.0 1
 _ZNK17QQmlDelegateModel5modelEv@Base 5.1.0 1
 _ZNK17QQmlDelegateModel7indexOfEP7QObjectS1_@Base 5.1.0 1
 _ZNK17QQmlDelegateModel8delegateEv@Base 5.1.0 1
 _ZNK17QQmlDelegateModel9rootIndexEv@Base 5.1.0 1
 _ZNK17QQmlEnginePrivate12isTypeLoadedERK4QUrl@Base 5.0.2 1
 _ZNK17QQmlEnginePrivate12typeCategoryEi@Base 5.0.2 1
 _ZNK17QQmlEnginePrivate14isScriptLoadedERK4QUrl@Base 5.0.2 1
 _ZNK17QQmlEnginePrivate17metaObjectForTypeEi@Base 5.0.2 1
 _ZNK17QQmlEnginePrivate20rawMetaObjectForTypeEi@Base 5.0.2 1
 _ZNK17QQmlEnginePrivate23getNetworkAccessManagerEv@Base 5.0.2 1
 _ZNK17QQmlEnginePrivate26createNetworkAccessManagerEP7QObject@Base 5.0.2 1
 _ZNK17QQmlEnginePrivate6isListEi@Base 5.0.2 1
 _ZNK17QQmlEnginePrivate8listTypeEi@Base 5.0.2 1
 _ZNK17QQmlEnginePrivate9toQObjectERK8QVariantPb@Base 5.0.2 1
 _ZNK17QQmlInstanceModel10metaObjectEv@Base 5.1.0 1
 _ZNK17QQmlListReference10isReadableEv@Base 5.0.2
 _ZNK17QQmlListReference13isManipulableEv@Base 5.0.2
 _ZNK17QQmlListReference15listElementTypeEv@Base 5.0.2
 _ZNK17QQmlListReference2atEi@Base 5.0.2
 _ZNK17QQmlListReference5canAtEv@Base 5.0.2
 _ZNK17QQmlListReference5clearEv@Base 5.0.2
 _ZNK17QQmlListReference5countEv@Base 5.0.2
 _ZNK17QQmlListReference6appendEP7QObject@Base 5.0.2
 _ZNK17QQmlListReference6objectEv@Base 5.0.2
 _ZNK17QQmlListReference7isValidEv@Base 5.0.2
 _ZNK17QQmlListReference8canClearEv@Base 5.0.2
 _ZNK17QQmlListReference8canCountEv@Base 5.0.2
 _ZNK17QQmlListReference9canAppendEv@Base 5.0.2
 _ZNK17QQmlPropertyCache10metaObjectEv@Base 5.0.2 1
 _ZNK17QQmlPropertyCache12findPropertyEN11QStringHashI5QPairIiP16QQmlPropertyDataEE13ConstIteratorEP7QObjectP15QQmlContextData@Base 5.0.2 1
 _ZNK17QQmlPropertyCache12findPropertyEN11QStringHashI5QPairIiP16QQmlPropertyDataEE13ConstIteratorEPK17QQmlVMEMetaObjectP15QQmlContextData@Base 5.0.2 1
 _ZNK17QQmlPropertyCache13propertyNamesEv@Base 5.0.2 1
 _ZNK17QQmlPropertyCache14ensureResolvedEP16QQmlPropertyData@Base 5.0.2 1
 _ZNK17QQmlPropertyCache15defaultPropertyEv@Base 5.0.2 1
 _ZNK17QQmlPropertyCache18firstCppMetaObjectEv@Base 5.0.2 1
 _ZNK17QQmlPropertyCache19defaultPropertyNameEv@Base 5.0.2 1
 _ZNK17QQmlPropertyCache20signalParameterNamesEi@Base 5.0.2 1
 _ZNK17QQmlPropertyCache24methodIndexToSignalIndexEi@Base 5.0.2 1
 _ZNK17QQmlPropertyCache6methodEi@Base 5.0.2 1
 _ZNK17QQmlPropertyCache6parentEv@Base 5.0.2 1
 _ZNK17QQmlPropertyCache6signalEiPPS_@Base 5.0.2 1
 _ZNK17QQmlPropertyCache7resolveEP16QQmlPropertyData@Base 5.0.2 1
 _ZNK17QQmlPropertyCache8propertyEi@Base 5.0.2 1
 _ZNK17QQmlPropertyCache8propertyI7QStringEEP16QQmlPropertyDataRKT_P7QObjectP15QQmlContextData@Base 5.2.0~beta1 1
 _ZNK17QQmlPropertyCache9classNameEv@Base 5.0.2 1
 _ZNK17QQmlRectValueType10metaObjectEv@Base 5.0.2 1
 _ZNK17QQmlRectValueType1xEv@Base 5.0.2 1
 _ZNK17QQmlRectValueType1yEv@Base 5.0.2 1
 _ZNK17QQmlRectValueType5widthEv@Base 5.0.2 1
 _ZNK17QQmlRectValueType6heightEv@Base 5.0.2 1
 _ZNK17QQmlRectValueType8toStringEv@Base 5.0.2 1
 _ZNK17QQmlSizeValueType10metaObjectEv@Base 5.0.2 1
 _ZNK17QQmlSizeValueType5widthEv@Base 5.0.2 1
 _ZNK17QQmlSizeValueType6heightEv@Base 5.0.2 1
 _ZNK17QQmlSizeValueType8toStringEv@Base 5.0.2 1
 _ZNK17QQmlVMEMetaObject11aliasTargetEiPP7QObjectPiS3_@Base 5.0.2 1
 _ZNK17QQmlVMEMetaObject26getQObjectGuardForPropertyEi@Base 5.0.2 1
 _ZNK18QAnimationGroupJob13debugChildrenE6QDebug@Base 5.3.0 1
 _ZNK18QPauseAnimationJob14debugAnimationE6QDebug@Base 5.3.0 1
 _ZNK18QPauseAnimationJob8durationEv@Base 5.0.2 1
 _ZNK18QQmlAnimationTimer10metaObjectEv@Base 5.0.2 1
 _ZNK18QQmlOpenMetaObject4nameEi@Base 5.0.2 1
 _ZNK18QQmlOpenMetaObject4typeEv@Base 5.0.2 1
 _ZNK18QQmlOpenMetaObject5countEv@Base 5.0.2 1
 _ZNK18QQmlOpenMetaObject5valueERK10QByteArray@Base 5.0.2 1
 _ZNK18QQmlOpenMetaObject5valueEi@Base 5.0.2 1
 _ZNK18QQmlOpenMetaObject6objectEv@Base 5.0.2 1
 _ZNK18QQmlOpenMetaObject6parentEv@Base 5.0.2 1
 _ZNK18QQmlOpenMetaObject8hasValueEi@Base 5.0.2 1
 _ZNK18QQmlPointValueType10metaObjectEv@Base 5.0.2 1
 _ZNK18QQmlPointValueType1xEv@Base 5.0.2 1
 _ZNK18QQmlPointValueType1yEv@Base 5.0.2 1
 _ZNK18QQmlPointValueType8toStringEv@Base 5.0.2 1
 _ZNK18QQmlRectFValueType10metaObjectEv@Base 5.0.2 1
 _ZNK18QQmlRectFValueType1xEv@Base 5.0.2 1
 _ZNK18QQmlRectFValueType1yEv@Base 5.0.2 1
 _ZNK18QQmlRectFValueType5widthEv@Base 5.0.2 1
 _ZNK18QQmlRectFValueType6heightEv@Base 5.0.2 1
 _ZNK18QQmlRectFValueType8toStringEv@Base 5.0.2 1
 _ZNK18QQmlSizeFValueType10metaObjectEv@Base 5.0.2 1
 _ZNK18QQmlSizeFValueType5widthEv@Base 5.0.2 1
 _ZNK18QQmlSizeFValueType6heightEv@Base 5.0.2 1
 _ZNK18QQmlSizeFValueType8toStringEv@Base 5.0.2 1
 _ZNK19QQmlEasingValueType10metaObjectEv@Base 5.0.2 1
 _ZNK19QQmlEasingValueType11bezierCurveEv@Base 5.0.2 1
 _ZNK19QQmlEasingValueType4typeEv@Base 5.0.2 1
 _ZNK19QQmlEasingValueType6periodEv@Base 5.0.2 1
 _ZNK19QQmlEasingValueType8toStringEv@Base 5.0.2 1
 _ZNK19QQmlEasingValueType9amplitudeEv@Base 5.0.2 1
 _ZNK19QQmlEasingValueType9overshootEv@Base 5.0.2 1
 _ZNK19QQmlExtensionPlugin10metaObjectEv@Base 5.0.2
 _ZNK19QQmlExtensionPlugin7baseUrlEv@Base 5.1.0
 _ZNK19QQmlPointFValueType10metaObjectEv@Base 5.0.2 1
 _ZNK19QQmlPointFValueType1xEv@Base 5.0.2 1
 _ZNK19QQmlPointFValueType1yEv@Base 5.0.2 1
 _ZNK19QQmlPointFValueType8toStringEv@Base 5.0.2 1
 _ZNK19QQmlProfilerService10metaObjectEv@Base 5.3.0 1
 _ZNK19QQmlPropertyPrivate11isValueTypeEv@Base 5.0.2 1
 _ZNK19QQmlPropertyPrivate11signalIndexEv@Base 5.0.2 1
 _ZNK19QQmlPropertyPrivate12propertyTypeEv@Base 5.0.2 1
 _ZNK19QQmlPropertyPrivate20propertyTypeCategoryEv@Base 5.0.2 1
 _ZNK19QQmlPropertyPrivate4typeEv@Base 5.0.2 1
 _ZNK20QQmlInspectorService10metaObjectEv@Base 5.0.2 1
 _ZNK21QAbstractAnimationJob13totalDurationEv@Base 5.0.2 1
 _ZNK21QAbstractAnimationJob14debugAnimationE6QDebug@Base 5.3.0 1
 _ZNK21QAbstractAnimationJob19userControlDisabledEv@Base 5.0.2 1
 _ZNK21QQmlApplicationEngine10metaObjectEv@Base 5.1.0
 _ZNK21QQmlComponentAttached10metaObjectEv@Base 5.1.0 1
 _ZNK22QQmlAbstractExpression7contextEv@Base 5.0.2 1
 _ZNK22QQmlAbstractExpression7isValidEv@Base 5.0.2 1
 _ZNK22QQmlDelegateModelGroup10metaObjectEv@Base 5.1.0 1
 _ZNK22QQmlDelegateModelGroup14defaultIncludeEv@Base 5.1.0 1
 _ZNK22QQmlDelegateModelGroup4nameEv@Base 5.1.0 1
 _ZNK22QQmlDelegateModelGroup5countEv@Base 5.1.0 1
 _ZNK22QQmlEngineDebugService10metaObjectEv@Base 5.0.2 1
 _ZNK22QQmlEngineDebugService13valueContentsE8QVariant@Base 5.4.0 1
 _ZNK22QQmlOpenMetaObjectType10metaObjectEv@Base 5.0.2 1
 _ZNK22QQmlOpenMetaObjectType12propertyNameEi@Base 5.0.2 1
 _ZNK22QQmlOpenMetaObjectType12signalOffsetEv@Base 5.0.2 1
 _ZNK22QQmlOpenMetaObjectType13propertyCountEv@Base 5.0.2 1
 _ZNK22QQmlOpenMetaObjectType14propertyOffsetEv@Base 5.0.2 1
 _ZNK24QQmlIncubationController21incubatingObjectCountEv@Base 5.0.2
 _ZNK24QQmlIncubationController6engineEv@Base 5.0.2
 _ZNK25QQmlBoundSignalExpression10expressionEv@Base 5.0.2 1
 _ZNK25QQmlBoundSignalExpression14sourceLocationEv@Base 5.3.0 1
 _ZNK25QQmlBoundSignalExpression8functionEv@Base 5.3.0 1
 _ZNK26QParallelAnimationGroupJob14debugAnimationE6QDebug@Base 5.3.0 1
 _ZNK26QParallelAnimationGroupJob20shouldAnimationStartEP21QAbstractAnimationJobb@Base 5.0.2 1
 _ZNK26QParallelAnimationGroupJob8durationEv@Base 5.0.2 1
 _ZNK27QQmlAbstractProfilerAdapter10metaObjectEv@Base 5.3.0 1
 _ZNK28QContinuingAnimationGroupJob14debugAnimationE6QDebug@Base 5.3.0 1
 _ZNK28QSequentialAnimationGroupJob14debugAnimationE6QDebug@Base 5.3.0 1
 _ZNK28QSequentialAnimationGroupJob19indexForCurrentTimeEv@Base 5.0.2 1
 _ZNK28QSequentialAnimationGroupJob28animationActualTotalDurationEP21QAbstractAnimationJob@Base 5.0.2 1
 _ZNK28QSequentialAnimationGroupJob5atEndEv@Base 5.0.2 1
 _ZNK28QSequentialAnimationGroupJob8durationEv@Base 5.0.2 1
 _ZNK3QV412CompiledData7Binding13valueAsStringEPKNS0_4UnitE@Base 5.3.0
 _ZNK3QV412CompiledData7Binding19valueAsScriptStringEPKNS0_4UnitE@Base 5.3.0
 _ZNK3QV413MemoryManager10getUsedMemEv@Base 5.4.0 1
 _ZNK3QV413MemoryManager11isGCBlockedEv@Base 5.2.0~beta1 1
 _ZNK3QV413MemoryManager15getAllocatedMemEv@Base 5.4.0 1
 _ZNK3QV413MemoryManager16getLargeItemsMemEv@Base 5.4.0 1
 _ZNK3QV413MemoryManager18collectFromJSStackEv@Base 5.2.0~beta1 1
 _ZNK3QV413MemoryManager9dumpStatsEv@Base 5.2.0~beta1 1
 _ZNK3QV414QObjectWrapper12findPropertyEPNS_15ExecutionEngineEP15QQmlContextDataPNS_6StringENS0_12RevisionModeEP16QQmlPropertyData@Base 5.2.0~beta1 1
 _ZNK3QV414QmlListWrapper9toVariantEv@Base 5.2.0~beta1
 _ZNK3QV414QmlTypeWrapper11isSingletonEv@Base 5.2.0~rc1
 _ZNK3QV414QmlTypeWrapper15singletonObjectEv@Base 5.4.0
 _ZNK3QV414QmlTypeWrapper9toVariantEv@Base 5.2.0~beta1
 _ZNK3QV415ExecutionEngine10stackTraceEi@Base 5.2.0~beta1
 _ZNK3QV415ExecutionEngine16qmlContextObjectEv@Base 5.2.0~beta1
 _ZNK3QV415ExecutionEngine17currentStackFrameEv@Base 5.2.0~beta1
 _ZNK3QV419QmlValueTypeWrapper9toVariantEv@Base 5.2.0~beta1
 _ZNK3QV42IR9Optimizer17lifeTimeIntervalsEv@Base 5.3.1 1
 _ZNK3QV44Moth20InstructionSelection11squeezeCodeEv@Base 5.3.0 1
 _ZNK3QV45Value12toNumberImplEv@Base 5.2.0~beta1
 _ZNK3QV45Value16toQStringNoThrowEv@Base 5.2.0~beta1
 (optional=inline|arch=!armel !armhf !hppa !hurd-i386 !i386 !kfreebsd-i386 !mips !mipsel !powerpc)_ZNK3QV45Value2asINS_14QObjectWrapperEEEPT_v@Base 5.2.0~beta1
 _ZNK3QV45Value8toObjectEPNS_16ExecutionContextE@Base 5.2.0~beta1
 _ZNK3QV45Value8toStringEPNS_15ExecutionEngineE@Base 5.3.0
 _ZNK3QV45Value8toStringEPNS_16ExecutionContextE@Base 5.2.0~beta1
 _ZNK3QV45Value8toUInt16Ev@Base 5.2.0~beta1
 _ZNK3QV45Value9sameValueES0_@Base 5.2.0~beta1
 _ZNK3QV45Value9toIntegerEv@Base 5.2.0~beta1
 _ZNK3QV45Value9toQStringEv@Base 5.2.0~beta1
 _ZNK3QV46Object11hasPropertyEPNS_6StringE@Base 5.4.0
 _ZNK3QV46Object11hasPropertyEj@Base 5.3.0
 _ZNK3QV46Object14hasOwnPropertyEPNS_6StringE@Base 5.4.0
 _ZNK3QV46Object14hasOwnPropertyEj@Base 5.3.0
 _ZNK3QV46Object25__getPropertyDescriptor__EPNS_6StringEPNS_18PropertyAttributesE@Base 5.4.0
 _ZNK3QV46Object25__getPropertyDescriptor__EjPNS_18PropertyAttributesE@Base 5.2.0~beta1
 _ZNK3QV46String15createHashValueEv@Base 5.2.0~beta1
 _ZNK3QV46String18makeIdentifierImplEv@Base 5.2.0~beta1
 _ZNK3QV46String4Data14simplifyStringEv@Base 5.4.0
 _ZNK3QV46String6equalsEPS0_@Base 5.4.0
 _ZNK3QV46String6toUIntEPb@Base 5.2.0~beta1
 _ZNK3QV47Managed6engineEv@Base 5.2.0~beta1 1
 _ZNK3QV47Managed9classNameEv@Base 5.2.0~beta1 1
 _ZNK3QV48Compiler20StringTableGenerator11getStringIdERK7QString@Base 5.3.0
 _ZNK3QV49Debugging13DebuggerAgent10metaObjectEv@Base 5.2.0~beta1 1
 _ZNK3QV49Debugging13DebuggerAgent13breakPointIdsERK7QStringi@Base 5.2.0~rc1 1
 _ZNK3QV49Debugging13DebuggerAgent5pauseEPNS0_8DebuggerE@Base 5.2.0~beta1 1
 _ZNK3QV49Debugging13DebuggerAgent8pauseAllEv@Base 5.2.0~beta1 1
 _ZNK3QV49Debugging13DebuggerAgent9resumeAllEv@Base 5.2.0~rc1 1
 _ZNK3QV49Debugging8Debugger10stackTraceEi@Base 5.2.0~rc1 1
 _ZNK3QV49Debugging8Debugger11getFunctionEv@Base 5.2.0~rc1 1
 _ZNK3QV49Debugging8Debugger13getScopeTypesEi@Base 5.2.0~rc1 1
 _ZNK3QV49Debugging8Debugger20collectReturnedValueEPNS1_9CollectorE@Base 5.2.0~rc1 1
 _ZNK3QV49Debugging8Debugger21currentExecutionStateEv@Base 5.3.0 1
 _ZNK3QV49Profiling8Profiler10metaObjectEv@Base 5.3.0 1
 _ZNK5QmlIR16QmlUnitGenerator13writeBindingsEPcPNS_6ObjectEMNS_7BindingEKFbvE@Base 5.3.0
 _ZNK5QmlIR6Object11findBindingEj@Base 5.3.0
 _ZNK5QmlIR6Object15bindingAsStringEPNS_8DocumentEi@Base 5.3.0
 _ZNK5QmlIR9IRBuilder14bindingsTargetEv@Base 5.3.0
 _ZNK5QmlIR9IRBuilder9textRefAtERKN6QQmlJS3AST14SourceLocationES5_@Base 5.3.0
 _ZNK6QQmlJS5Lexer12errorMessageEv@Base 5.3.0 1
 _ZNK6QQmlJS5Lexer12tokenEndLineEv@Base 5.3.0 1
 _ZNK6QQmlJS5Lexer14prevTerminatorEv@Base 5.3.0 1
 _ZNK6QQmlJS5Lexer14tokenEndColumnEv@Base 5.3.0 1
 _ZNK6QQmlJS5Lexer16isLineTerminatorEv@Base 5.3.0 1
 _ZNK6QQmlJS5Lexer19followsClosingBraceEv@Base 5.3.0 1
 _ZNK6QQmlJS5Lexer24isLineTerminatorSequenceEv@Base 5.3.0 1
 _ZNK6QQmlJS5Lexer27canInsertAutomaticSemicolonEi@Base 5.3.0 1
 _ZNK6QQmlJS5Lexer4codeEv@Base 5.3.0 1
 _ZNK6QQmlJS5Lexer7qmlModeEv@Base 5.3.0 1
 _ZNK6QQmlJS5Lexer9errorCodeEv@Base 5.3.0 1
 _ZNK6QQmlJS5Lexer9tokenTextEv@Base 5.3.0 1
 _ZNK6QQmlJS6Engine5lexerEv@Base 5.3.0 1
 _ZNK6QQmlJS6Engine8commentsEv@Base 5.3.0 1
 _ZNK6QQmlJS7Codegen6errorsEv@Base 5.2.0~beta1 1
 _ZNK6QQmlJS7Codegen9qmlErrorsEv@Base 5.3.0 1
 _ZNK8QJSValue10isCallableEv@Base 5.0.2
 _ZNK8QJSValue10toDateTimeEv@Base 5.0.2
 _ZNK8QJSValue11hasPropertyERK7QString@Base 5.0.2
 _ZNK8QJSValue11isUndefinedEv@Base 5.0.2
 _ZNK8QJSValue14hasOwnPropertyERK7QString@Base 5.0.2
 _ZNK8QJSValue14strictlyEqualsERKS_@Base 5.0.2
 _ZNK8QJSValue5toIntEv@Base 5.0.2
 _ZNK8QJSValue6engineEv@Base 5.0.2
 _ZNK8QJSValue6equalsERKS_@Base 5.0.2
 _ZNK8QJSValue6isBoolEv@Base 5.0.2
 _ZNK8QJSValue6isDateEv@Base 5.0.2
 _ZNK8QJSValue6isNullEv@Base 5.0.2
 _ZNK8QJSValue6toBoolEv@Base 5.0.2
 _ZNK8QJSValue6toUIntEv@Base 5.0.2
 _ZNK8QJSValue7isArrayEv@Base 5.0.2
 _ZNK8QJSValue7isErrorEv@Base 5.0.2
 _ZNK8QJSValue8isNumberEv@Base 5.0.2
 _ZNK8QJSValue8isObjectEv@Base 5.0.2
 _ZNK8QJSValue8isRegExpEv@Base 5.0.2
 _ZNK8QJSValue8isStringEv@Base 5.0.2
 _ZNK8QJSValue8propertyERK7QString@Base 5.0.2
 _ZNK8QJSValue8propertyEj@Base 5.0.2
 _ZNK8QJSValue8toNumberEv@Base 5.0.2
 _ZNK8QJSValue8toStringEv@Base 5.0.2
 _ZNK8QJSValue9isQObjectEv@Base 5.0.2
 _ZNK8QJSValue9isVariantEv@Base 5.0.2
 _ZNK8QJSValue9prototypeEv@Base 5.0.2
 _ZNK8QJSValue9toQObjectEv@Base 5.0.2
 _ZNK8QJSValue9toVariantEv@Base 5.0.2
 _ZNK8QQmlData18attachedPropertiesEv@Base 5.0.2 1
 _ZNK8QQmlFile13dataByteArrayEv@Base 5.0.2
 _ZNK8QQmlFile3urlEv@Base 5.0.2
 _ZNK8QQmlFile4dataEv@Base 5.0.2
 _ZNK8QQmlFile4sizeEv@Base 5.0.2
 _ZNK8QQmlFile5errorEv@Base 5.0.2
 _ZNK8QQmlFile6isNullEv@Base 5.0.2
 _ZNK8QQmlFile6statusEv@Base 5.0.2
 _ZNK8QQmlFile7isErrorEv@Base 5.0.2
 _ZNK8QQmlFile7isReadyEv@Base 5.0.2
 _ZNK8QQmlFile8metaDataERK7QString@Base 5.0.2
 _ZNK8QQmlFile9isLoadingEv@Base 5.0.2
 _ZNK8QQmlType10createSizeEv@Base 5.0.2 1
 _ZNK8QQmlType10metaObjectEv@Base 5.0.2 1
 _ZNK8QQmlType11elementNameEv@Base 5.0.2 1
 _ZNK8QQmlType11isCompositeEv@Base 5.1.0 1
 _ZNK8QQmlType11isCreatableEv@Base 5.0.2 1
 _ZNK8QQmlType11isInterfaceEv@Base 5.0.2 1
 _ZNK8QQmlType11isSingletonEv@Base 5.0.2 1
 _ZNK8QQmlType11qListTypeIdEv@Base 5.0.2 1
 _ZNK8QQmlType11qmlTypeNameEv@Base 5.0.2 1
 _ZNK8QQmlType12customParserEv@Base 5.0.2 1
 _ZNK8QQmlType12interfaceIIdEv@Base 5.0.2 1
 _ZNK8QQmlType12majorVersionEv@Base 5.0.2 1
 _ZNK8QQmlType12minorVersionEv@Base 5.0.2 1
 _ZNK8QQmlType14baseMetaObjectEv@Base 5.0.2 1
 _ZNK8QQmlType14createFunctionEv@Base 5.0.2 1
 _ZNK8QQmlType14isExtendedTypeEv@Base 5.0.2 1
 _ZNK8QQmlType16noCreationReasonEv@Base 5.0.2 1
 _ZNK8QQmlType16parserStatusCastEv@Base 5.0.2 1
 _ZNK8QQmlType18availableInVersionERK16QHashedStringRefii@Base 5.0.2 1
 _ZNK8QQmlType18availableInVersionEii@Base 5.0.2 1
 _ZNK8QQmlType18metaObjectRevisionEv@Base 5.0.2 1
 _ZNK8QQmlType20attachedPropertiesIdEv@Base 5.0.2 1
 _ZNK8QQmlType20isCompositeSingletonEv@Base 5.2.0~beta1 1
 _ZNK8QQmlType21SingletonInstanceInfo10qobjectApiEP10QQmlEngine@Base 5.0.2 1
 _ZNK8QQmlType21SingletonInstanceInfo9scriptApiEP10QQmlEngine@Base 5.0.2 1
 _ZNK8QQmlType21singletonInstanceInfoEv@Base 5.0.2 1
 _ZNK8QQmlType22attachedPropertiesTypeEv@Base 5.0.2 1
 _ZNK8QQmlType23propertyValueSourceCastEv@Base 5.0.2 1
 _ZNK8QQmlType26attachedPropertiesFunctionEv@Base 5.0.2 1
 _ZNK8QQmlType28containsRevisionedAttributesEv@Base 5.0.2 1
 _ZNK8QQmlType28propertyValueInterceptorCastEv@Base 5.0.2 1
 _ZNK8QQmlType5indexEv@Base 5.0.2 1
 (subst)_ZNK8QQmlType6createEPP7QObjectPPv{size_t}@Base 5.0.2 1
 _ZNK8QQmlType6createEv@Base 5.0.2 1
 _ZNK8QQmlType6moduleEv@Base 5.0.2 1
 _ZNK8QQmlType6typeIdEv@Base 5.0.2 1
 _ZNK8QQmlType8typeNameEv@Base 5.0.2 1
 _ZNK8QQmlType9enumValueEPKN3QV46StringEPb@Base 5.2.0~beta1 1
 _ZNK8QQmlType9enumValueERK16QHashedStringRefPb@Base 5.0.2 1
 _ZNK8QQmlType9enumValueERK17QHashedCStringRefPb@Base 5.0.2 1
 _ZNK8QQmlType9sourceUrlEv@Base 5.1.0 1
 _ZNK8QQmlType9superTypeEv@Base 5.0.2 1
 _ZNK9QJSEngine10metaObjectEv@Base 5.0.2
 _ZNK9QJSEngine12globalObjectEv@Base 5.0.2
 _ZNK9QQmlError11descriptionEv@Base 5.0.2
 _ZNK9QQmlError3urlEv@Base 5.0.2
 _ZNK9QQmlError4lineEv@Base 5.0.2
 _ZNK9QQmlError6columnEv@Base 5.0.2
 _ZNK9QQmlError6objectEv@Base 5.2.0~beta1
 _ZNK9QQmlError7isValidEv@Base 5.0.2
 _ZNK9QQmlError8toStringEv@Base 5.0.2
 _ZNK9QQmlTimer10metaObjectEv@Base 5.0.2 1
 _ZNK9QQmlTimer11isRepeatingEv@Base 5.0.2 1
 _ZNK9QQmlTimer16triggeredOnStartEv@Base 5.0.2 1
 _ZNK9QQmlTimer8intervalEv@Base 5.0.2 1
 _ZNK9QQmlTimer9isRunningEv@Base 5.0.2 1
 _ZNK9QV8Engine12illegalNamesEv@Base 5.0.2 1
 _ZNSt6vectorIPKN3QV46String4DataESaIS4_EE12emplace_backIIS4_EEEvDpOT_@Base 5.4.0
 _ZNSt6vectorIPKN3QV46String4DataESaIS4_EE12emplace_backIJS4_EEEvDpOT_@Base 5.4.0
 _ZNSt6vectorIPKN3QV46String4DataESaIS4_EE19_M_emplace_back_auxIIRKS4_EEEvDpOT_@Base 5.4.0
 _ZNSt6vectorIPKN3QV46String4DataESaIS4_EE19_M_emplace_back_auxIIS4_EEEvDpOT_@Base 5.4.0
 _ZNSt6vectorIPKN3QV46String4DataESaIS4_EE19_M_emplace_back_auxIJRKS4_EEEvDpOT_@Base 5.4.0
 _ZNSt6vectorIPKN3QV46String4DataESaIS4_EE19_M_emplace_back_auxIJS4_EEEvDpOT_@Base 5.4.0
 (subst)_ZNSt6vectorIS_IiSaIiEESaIS1_EE6resizeE{size_t}@Base 5.4.0
 (subst)_ZNSt6vectorIbSaIbEE14_M_fill_assignE{size_t}b@Base 5.4.0
 (subst)_ZNSt6vectorIbSaIbEE14_M_fill_insertESt13_Bit_iterator{size_t}b@Base 5.4.0
 (arch=amd64 kfreebsd-amd64 ppc64el)_ZNSt6vectorIbSaIbEE6resizeEmb@Base 5.4.0
 (subst)_ZNSt6vectorIbSaIbEEC1E{size_t}RKbRKS0_@Base 5.4.0
 (subst)_ZNSt6vectorIbSaIbEEC2E{size_t}RKbRKS0_@Base 5.4.0
 _ZNSt6vectorIiSaIiEE12emplace_backIIiEEEvDpOT_@Base 5.4.0
 _ZNSt6vectorIiSaIiEE12emplace_backIJiEEEvDpOT_@Base 5.4.0
 (optional=templinst|subst)_ZNSt6vectorIiSaIiEE14_M_fill_assignE{size_t}RKi@Base 5.4.0
 (optional=templinst|subst)_ZNSt6vectorIiSaIiEE14_M_fill_insertEN9__gnu_cxx17__normal_iteratorIPiS1_EE{size_t}RKi@Base 5.2.1
 (optional=templinst)_ZNSt6vectorIiSaIiEE19_M_emplace_back_auxIIRKiEEEvDpOT_@Base 5.2.1
 (optional=templinst)_ZNSt6vectorIiSaIiEE19_M_emplace_back_auxIIiEEEvDpOT_@Base 5.3.1
 (optional=templinst)_ZNSt6vectorIiSaIiEE19_M_emplace_back_auxIJRKiEEEvDpOT_@Base 5.2.1
 (optional=templinst)_ZNSt6vectorIiSaIiEE19_M_emplace_back_auxIJiEEEvDpOT_@Base 5.3.1
 (optional=templinst|subst)_ZNSt6vectorIiSaIiEE6resizeE{size_t}RKi@Base 5.4.0
 (optional=templinst|subst)_ZNSt6vectorIiSaIiEE7reserveE{size_t}@Base 5.2.1
 (optional=templinst)_ZNSt6vectorIiSaIiEEC1ERKS1_@Base 5.2.1
 (optional=templinst|subst)_ZNSt6vectorIiSaIiEEC1E{size_t}RKiRKS0_@Base 5.2.1
 (optional=templinst)_ZNSt6vectorIiSaIiEEC2ERKS1_@Base 5.2.1
 (optional=templinst|subst)_ZNSt6vectorIiSaIiEEC2E{size_t}RKiRKS0_@Base 5.2.1
 (optional=templinst)_ZNSt6vectorIiSaIiEEaSERKS1_@Base 5.2.1
 _ZNSt6vectorItSaItEE12emplace_backIItEEEvDpOT_@Base 5.3.0
 _ZNSt6vectorItSaItEE12emplace_backIJtEEEvDpOT_@Base 5.3.0
 _ZNSt6vectorItSaItEE13_M_insert_auxIIRKtEEEvN9__gnu_cxx17__normal_iteratorIPtS1_EEDpOT_@Base 5.2.0~beta1
 _ZNSt6vectorItSaItEE13_M_insert_auxIItEEEvN9__gnu_cxx17__normal_iteratorIPtS1_EEDpOT_@Base 5.2.0~beta1
 _ZNSt6vectorItSaItEE13_M_insert_auxIJRKtEEEvN9__gnu_cxx17__normal_iteratorIPtS1_EEDpOT_@Base 5.3.0
 _ZNSt6vectorItSaItEE13_M_insert_auxIJtEEEvN9__gnu_cxx17__normal_iteratorIPtS1_EEDpOT_@Base 5.3.0
 _ZNSt6vectorItSaItEE19_M_emplace_back_auxIIRKtEEEvDpOT_@Base 5.3.0
 _ZNSt6vectorItSaItEE19_M_emplace_back_auxIJRKtEEEvDpOT_@Base 5.3.0
 (optional=templinst|arch=ia64)_ZSt11__push_heapIN5QListI4QUrlE8iteratorExS1_N12QQmlSequenceIS2_E14CompareFunctorEEvT_T0_S8_T1_T2_@Base 5.2.0 1
 (optional=templinst|arch=ia64)_ZSt11__push_heapIN5QListI4QUrlE8iteratorExS1_N12QQmlSequenceIS2_E21DefaultCompareFunctorEEvT_T0_S8_T1_T2_@Base 5.2.0 1
 (optional=templinst|arch=ia64)_ZSt11__push_heapIN5QListI5QPairI7QStringP16QQmlPropertyDataEE8iteratorExS5_PFbRKS5_S9_EEvT_T0_SD_T1_T2_@Base 5.2.0 1
 (optional=templinst|arch=ia64)_ZSt11__push_heapIN5QListI7QStringE8iteratorExS1_N12QQmlSequenceI11QStringListE14CompareFunctorEEvT_T0_S9_T1_T2_@Base 5.2.0 1
 (optional=templinst|arch=ia64)_ZSt11__push_heapIN5QListI7QStringE8iteratorExS1_N12QQmlSequenceI11QStringListE21DefaultCompareFunctorEEvT_T0_S9_T1_T2_@Base 5.2.0 1
 (optional=templinst|arch=ia64)_ZSt11__push_heapIN5QListI7QStringE8iteratorExS1_N12QQmlSequenceIS2_E14CompareFunctorEEvT_T0_S8_T1_T2_@Base 5.2.0 1
 (optional=templinst|arch=ia64)_ZSt11__push_heapIN5QListI7QStringE8iteratorExS1_N12QQmlSequenceIS2_E21DefaultCompareFunctorEEvT_T0_S8_T1_T2_@Base 5.2.0 1
 (optional=templinst|arch=ia64)_ZSt13__adjust_heapIN5QListI4QUrlE8iteratorExS1_N12QQmlSequenceIS2_E14CompareFunctorEEvT_T0_S8_T1_T2_@Base 5.2.0 1
 (optional=templinst|arch=ia64)_ZSt13__adjust_heapIN5QListI4QUrlE8iteratorExS1_N12QQmlSequenceIS2_E21DefaultCompareFunctorEEvT_T0_S8_T1_T2_@Base 5.2.0 1
 (optional=templinst|arch=ia64)_ZSt13__adjust_heapIN5QListI5QPairI7QStringP16QQmlPropertyDataEE8iteratorExS5_PFbRKS5_S9_EEvT_T0_SD_T1_T2_@Base 5.2.0 1
 (optional=templinst|arch=ia64)_ZSt13__adjust_heapIN5QListI7QStringE8iteratorExS1_N12QQmlSequenceI11QStringListE14CompareFunctorEEvT_T0_S9_T1_T2_@Base 5.2.0 1
 (optional=templinst|arch=ia64)_ZSt13__adjust_heapIN5QListI7QStringE8iteratorExS1_N12QQmlSequenceI11QStringListE21DefaultCompareFunctorEEvT_T0_S9_T1_T2_@Base 5.2.0 1
 (optional=templinst|arch=ia64)_ZSt13__adjust_heapIN5QListI7QStringE8iteratorExS1_N12QQmlSequenceIS2_E14CompareFunctorEEvT_T0_S8_T1_T2_@Base 5.2.0 1
 (optional=templinst|arch=ia64)_ZSt13__adjust_heapIN5QListI7QStringE8iteratorExS1_N12QQmlSequenceIS2_E21DefaultCompareFunctorEEvT_T0_S8_T1_T2_@Base 5.2.0 1
 (optional=templinst|arch=ia64)_ZSt13__adjust_heapIN5QListI7QStringE8iteratorExS1_PFbRKS1_S5_EEvT_T0_S9_T1_T2_@Base 5.2.0 1
 (optional=templinst|arch=ia64)_ZSt13__adjust_heapIN5QListIbE8iteratorExbN12QQmlSequenceIS1_E14CompareFunctorEEvT_T0_S7_T1_T2_@Base 5.2.0 1
 (optional=templinst|arch=ia64)_ZSt13__adjust_heapIN5QListIbE8iteratorExbN12QQmlSequenceIS1_E21DefaultCompareFunctorEEvT_T0_S7_T1_T2_@Base 5.2.0 1
 (optional=templinst|arch=ia64)_ZSt13__adjust_heapIN5QListIdE8iteratorExdN12QQmlSequenceIS1_E14CompareFunctorEEvT_T0_S7_T1_T2_@Base 5.2.0 1
 (optional=templinst|arch=ia64)_ZSt13__adjust_heapIN5QListIdE8iteratorExdN12QQmlSequenceIS1_E21DefaultCompareFunctorEEvT_T0_S7_T1_T2_@Base 5.2.0 1
 (optional=templinst|arch=ia64)_ZSt13__adjust_heapIN5QListIiE8iteratorExiEvT_T0_S4_T1_@Base 5.2.0 1
 (optional=templinst|arch=ia64)_ZSt13__adjust_heapIN5QListIiE8iteratorExiN12QQmlSequenceIS1_E14CompareFunctorEEvT_T0_S7_T1_T2_@Base 5.2.0 1
 (optional=templinst|arch=ia64)_ZSt13__adjust_heapIN5QListIiE8iteratorExiN12QQmlSequenceIS1_E21DefaultCompareFunctorEEvT_T0_S7_T1_T2_@Base 5.2.0 1
 (optional=templinst|arch=ia64)_ZSt22__final_insertion_sortIN5QListI4QUrlE8iteratorEN12QQmlSequenceIS2_E14CompareFunctorEEvT_S7_T0_@Base 5.2.0 1
 (optional=templinst|arch=ia64)_ZSt22__final_insertion_sortIN5QListI7QStringE8iteratorEN12QQmlSequenceI11QStringListE14CompareFunctorEEvT_S8_T0_@Base 5.2.0 1
 (optional=templinst|arch=ia64)_ZSt22__final_insertion_sortIN5QListI7QStringE8iteratorEN12QQmlSequenceIS2_E14CompareFunctorEEvT_S7_T0_@Base 5.2.0 1
 (optional=templinst|arch=ia64)_ZSt22__final_insertion_sortIN5QListIbE8iteratorEN12QQmlSequenceIS1_E14CompareFunctorEEvT_S6_T0_@Base 5.2.0 1
 (optional=templinst|arch=ia64)_ZSt22__final_insertion_sortIN5QListIdE8iteratorEN12QQmlSequenceIS1_E14CompareFunctorEEvT_S6_T0_@Base 5.2.0 1
 (optional=templinst|arch=ia64)_ZSt22__final_insertion_sortIN5QListIiE8iteratorEN12QQmlSequenceIS1_E14CompareFunctorEEvT_S6_T0_@Base 5.2.0 1
 (optional=templinst|arch=ia64)_ZSt4moveIN9__gnu_cxx17__normal_iteratorIPN3JSC4Yarr11PatternTermESt6vectorIS4_SaIS4_EEEES9_ET0_T_SB_SA_@Base 5.2.0
 (optional=templinst|arch=!alpha !amd64 !arm64 !hppa !ia64 !kfreebsd-amd64 !mips64el !ppc64 !ppc64el !s390x !sparc !sparc64)_ZSt4swapIN8QVariant7PrivateEEvRT_S3_@Base 5.0.2
 _ZTI10QQmlBundle@Base 5.0.2 1
 _ZTI10QQmlEngine@Base 5.0.2
 _ZTI11QMetaObject@Base 5.0.2
 _ZTI11QQmlBinding@Base 5.0.2 1
 _ZTI11QQmlCleanup@Base 5.0.2 1
 _ZTI11QQmlContext@Base 5.0.2
 _ZTI12QQmlDataBlob@Base 5.0.2 1
 _ZTI12QQmlPlatform@Base 5.1.0 1
 _ZTI12QQmlRefCount@Base 5.4.0 1
 _ZTI13QQmlComponent@Base 5.0.2
 _ZTI13QQmlIncubator@Base 5.0.2
 _ZTI13QQmlListModel@Base 5.1.0 1
 _ZTI13QQmlValueType@Base 5.0.2 1
 _ZTI14QQmlExpression@Base 5.0.2
 _ZTI15QJSValuePrivate@Base 5.2.0~beta1 1
 _ZTI15QQmlApplication@Base 5.1.0 1
 _ZTI15QQmlBoundSignal@Base 5.0.2 1
 _ZTI15QQmlDebugServer@Base 5.0.2 1
 _ZTI15QQmlGuiProvider@Base 5.0.2 1
 _ZTI15QQmlObjectModel@Base 5.1.0 1
 _ZTI15QQmlPropertyMap@Base 5.0.2
 _ZTI16QQmlCustomParser@Base 5.0.2 1
 _ZTI16QQmlDebugService@Base 5.0.2 1
 _ZTI16QQmlFileSelector@Base 5.2.0~beta1
 _ZTI16QQmlParserStatus@Base 5.0.2
 _ZTI17QQmlColorProvider@Base 5.0.2 1
 _ZTI17QQmlDelegateModel@Base 5.1.0 1
 _ZTI17QQmlEnginePrivate@Base 5.0.2 1
 _ZTI17QQmlInstanceModel@Base 5.1.0 1
 _ZTI17QQmlPropertyCache@Base 5.0.2 1
 _ZTI17QQmlRectValueType@Base 5.0.2 1
 _ZTI17QQmlSizeValueType@Base 5.0.2 1
 _ZTI17QQmlVMEMetaObject@Base 5.0.2 1
 _ZTI18QAnimationGroupJob@Base 5.0.2 1
 _ZTI18QPauseAnimationJob@Base 5.0.2 1
 _ZTI18QQmlAnimationTimer@Base 5.0.2 1
 _ZTI18QQmlOpenMetaObject@Base 5.0.2 1
 _ZTI18QQmlPointValueType@Base 5.0.2 1
 _ZTI18QQmlRectFValueType@Base 5.0.2 1
 _ZTI18QQmlSizeFValueType@Base 5.0.2 1
 _ZTI19QQmlAbstractBinding@Base 5.0.2 1
 _ZTI19QQmlEasingValueType@Base 5.0.2 1
 _ZTI19QQmlExtensionPlugin@Base 5.0.2
 _ZTI19QQmlPointFValueType@Base 5.0.2 1
 _ZTI19QQmlProfilerService@Base 5.0.2 1
 _ZTI19QQmlPropertyPrivate@Base 5.0.2 1
 _ZTI20QQmlComponentPrivate@Base 5.0.2 1
 _ZTI20QQmlInspectorService@Base 5.0.2 1
 _ZTI21QAbstractAnimationJob@Base 5.0.2 1
 _ZTI21QQmlApplicationEngine@Base 5.1.0
 _ZTI21QQmlComponentAttached@Base 5.1.0 1
 _ZTI21QQmlImageProviderBase@Base 5.0.2
 _ZTI21QQmlValueTypeProvider@Base 5.0.2 1
 _ZTI22QDynamicMetaObjectData@Base 5.0.2
 _ZTI22QQmlAbstractExpression@Base 5.0.2 1
 _ZTI22QQmlDelegateModelGroup@Base 5.1.0 1
 _ZTI22QQmlEngineDebugService@Base 5.0.2 1
 _ZTI22QQmlExtensionInterface@Base 5.0.2
 _ZTI22QQmlOpenMetaObjectType@Base 5.0.2 1
 _ZTI23QQmlAbstractBoundSignal@Base 5.0.2 1
 _ZTI23QQmlFileSelectorPrivate@Base 5.2.0~beta1 1
 _ZTI23QQmlPropertyValueSource@Base 5.0.2
 _ZTI24QQmlIncubationController@Base 5.0.2
 _ZTI25QQmlBoundSignalExpression@Base 5.0.2 1
 _ZTI26QAbstractDynamicMetaObject@Base 5.0.2
 _ZTI26QParallelAnimationGroupJob@Base 5.0.2 1
 _ZTI26QQmlAbstractUrlInterceptor@Base 5.2.0~beta1
 _ZTI27QAnimationJobChangeListener@Base 5.0.2 1
 _ZTI27QQmlAbstractProfilerAdapter@Base 5.3.0 1
 _ZTI27QQmlFileSelectorInterceptor@Base 5.2.0~rc1 1
 _ZTI27QQmlTypesExtensionInterface@Base 5.0.2
 _ZTI28QContinuingAnimationGroupJob@Base 5.3.0 1
 _ZTI28QQmlApplicationEnginePrivate@Base 5.1.0 1
 _ZTI28QQmlPropertyValueInterceptor@Base 5.0.2 1
 _ZTI28QSequentialAnimationGroupJob@Base 5.0.2 1
 _ZTI31QQmlNetworkAccessManagerFactory@Base 5.0.2
 _ZTI9QJSEngine@Base 5.0.2
 _ZTI9QQmlTimer@Base 5.0.2 1
 _ZTI9QV8Engine@Base 5.0.2 1
 _ZTIN14QQmlTypeLoader4BlobE@Base 5.0.2 1
 _ZTIN15QQmlContextData12ContextGuardE@Base 5.0.2 1
 _ZTIN17QQmlEnginePrivate15PropertyCaptureE@Base 5.0.2 1
 _ZTIN17QQmlEnginePrivate9DeletableE@Base 5.0.2 1
 _ZTIN3QV412CompiledData15CompilationUnitE@Base 5.2.0~beta1
 _ZTIN3QV415EvalISelFactoryE@Base 5.3.0 1
 _ZTIN3QV422PersistentValuePrivateE@Base 5.2.0~beta1
 _ZTIN3QV424EvalInstructionSelectionE@Base 5.3.0 1
 _ZTIN3QV42IR9IRDecoderE@Base 5.3.0 1
 (arch=amd64 armhf i386)_ZTIN3QV43JIT11ISelFactoryE@Base 5.3.0 1
 (arch=amd64 armhf i386)_ZTIN3QV43JIT20InstructionSelectionE@Base 5.3.0 1
 _ZTIN3QV44Moth11ISelFactoryE@Base 5.3.0 1
 _ZTIN3QV44Moth20InstructionSelectionE@Base 5.3.0 1
 _ZTIN3QV49Debugging13DebuggerAgentE@Base 5.2.0~beta1 1
 _ZTIN3QV49Debugging8Debugger3JobE@Base 5.2.0~rc1 1
 _ZTIN3QV49Debugging8Debugger9CollectorE@Base 5.2.0~rc1 1
 _ZTIN3QV49Profiling8ProfilerE@Base 5.3.0 1
 _ZTIN5QmlIR9IRBuilderE@Base 5.3.0
 _ZTIN5QmlIR9JSCodeGenE@Base 5.3.0
 _ZTIN6QQmlJS3AST10CaseClauseE@Base 5.3.0 1
 _ZTIN6QQmlJS3AST10ExpressionE@Base 5.3.0 1
 _ZTIN6QQmlJS3AST11CaseClausesE@Base 5.3.0 1
 _ZTIN6QQmlJS3AST11ElementListE@Base 5.3.0 1
 _ZTIN6QQmlJS3AST11IfStatementE@Base 5.3.0 1
 _ZTIN6QQmlJS3AST11TrueLiteralE@Base 5.3.0 1
 _ZTIN6QQmlJS3AST12ArgumentListE@Base 5.3.0 1
 _ZTIN6QQmlJS3AST12ArrayLiteralE@Base 5.3.0 1
 _ZTIN6QQmlJS3AST12FalseLiteralE@Base 5.3.0 1
 _ZTIN6QQmlJS3AST12ForStatementE@Base 5.3.0 1
 _ZTIN6QQmlJS3AST12FunctionBodyE@Base 5.3.0 1
 _ZTIN6QQmlJS3AST12PropertyNameE@Base 5.3.0 1
 _ZTIN6QQmlJS3AST12TryStatementE@Base 5.3.0 1
 _ZTIN6QQmlJS3AST13DefaultClauseE@Base 5.3.0 1
 _ZTIN6QQmlJS3AST13NewExpressionE@Base 5.3.0 1
 _ZTIN6QQmlJS3AST13NotExpressionE@Base 5.3.0 1
 _ZTIN6QQmlJS3AST13ObjectLiteralE@Base 5.3.0 1
 _ZTIN6QQmlJS3AST13RegExpLiteralE@Base 5.3.0 1
 _ZTIN6QQmlJS3AST13SourceElementE@Base 5.3.0 1
 _ZTIN6QQmlJS3AST13StatementListE@Base 5.3.0 1
 _ZTIN6QQmlJS3AST13StringLiteralE@Base 5.3.0 1
 _ZTIN6QQmlJS3AST13UiQualifiedIdE@Base 5.3.0 1
 _ZTIN6QQmlJS3AST13WithStatementE@Base 5.3.0 1
 _ZTIN6QQmlJS3AST14BreakStatementE@Base 5.3.0 1
 _ZTIN6QQmlJS3AST14CallExpressionE@Base 5.3.0 1
 _ZTIN6QQmlJS3AST14EmptyStatementE@Base 5.3.0 1
 _ZTIN6QQmlJS3AST14ExpressionNodeE@Base 5.3.0 1
 _ZTIN6QQmlJS3AST14NullExpressionE@Base 5.3.0 1
 _ZTIN6QQmlJS3AST14NumericLiteralE@Base 5.3.0 1
 _ZTIN6QQmlJS3AST14SourceElementsE@Base 5.3.0 1
 _ZTIN6QQmlJS3AST14ThisExpressionE@Base 5.3.0 1
 _ZTIN6QQmlJS3AST14ThrowStatementE@Base 5.3.0 1
 _ZTIN6QQmlJS3AST14UiArrayBindingE@Base 5.3.0 1
 _ZTIN6QQmlJS3AST14UiObjectMemberE@Base 5.3.0 1
 _ZTIN6QQmlJS3AST14UiPublicMemberE@Base 5.3.0 1
 _ZTIN6QQmlJS3AST14VoidExpressionE@Base 5.3.0 1
 _ZTIN6QQmlJS3AST14WhileStatementE@Base 5.3.0 1
 _ZTIN6QQmlJS3AST15ReturnStatementE@Base 5.3.0 1
 _ZTIN6QQmlJS3AST15SwitchStatementE@Base 5.3.0 1
 _ZTIN6QQmlJS3AST15TildeExpressionE@Base 5.3.0 1
 _ZTIN6QQmlJS3AST15UiObjectBindingE@Base 5.3.0 1
 _ZTIN6QQmlJS3AST15UiParameterListE@Base 5.3.0 1
 _ZTIN6QQmlJS3AST15UiScriptBindingE@Base 5.3.0 1
 _ZTIN6QQmlJS3AST15UiSourceElementE@Base 5.3.0 1
 _ZTIN6QQmlJS3AST16BinaryExpressionE@Base 5.3.0 1
 _ZTIN6QQmlJS3AST16DeleteExpressionE@Base 5.3.0 1
 _ZTIN6QQmlJS3AST16DoWhileStatementE@Base 5.3.0 1
 _ZTIN6QQmlJS3AST16ForEachStatementE@Base 5.3.0 1
 _ZTIN6QQmlJS3AST16NestedExpressionE@Base 5.3.0 1
 _ZTIN6QQmlJS3AST16TypeOfExpressionE@Base 5.3.0 1
 _ZTIN6QQmlJS3AST16UiHeaderItemListE@Base 5.3.0 1
 _ZTIN6QQmlJS3AST17ContinueStatementE@Base 5.3.0 1
 _ZTIN6QQmlJS3AST17DebuggerStatementE@Base 5.3.0 1
 _ZTIN6QQmlJS3AST17LabelledStatementE@Base 5.3.0 1
 _ZTIN6QQmlJS3AST17LocalForStatementE@Base 5.3.0 1
 _ZTIN6QQmlJS3AST17UiArrayMemberListE@Base 5.3.0 1
 _ZTIN6QQmlJS3AST17VariableStatementE@Base 5.3.0 1
 _ZTIN6QQmlJS3AST18FunctionExpressionE@Base 5.3.0 1
 _ZTIN6QQmlJS3AST18PropertyAssignmentE@Base 5.3.0 1
 _ZTIN6QQmlJS3AST18UiObjectDefinitionE@Base 5.3.0 1
 _ZTIN6QQmlJS3AST18UiObjectMemberListE@Base 5.3.0 1
 _ZTIN6QQmlJS3AST19ExpressionStatementE@Base 5.3.0 1
 _ZTIN6QQmlJS3AST19FormalParameterListE@Base 5.3.0 1
 _ZTIN6QQmlJS3AST19FunctionDeclarationE@Base 5.3.0 1
 _ZTIN6QQmlJS3AST19NewMemberExpressionE@Base 5.3.0 1
 _ZTIN6QQmlJS3AST19UiObjectInitializerE@Base 5.3.0 1
 _ZTIN6QQmlJS3AST19UiQualifiedPragmaIdE@Base 5.3.0 1
 _ZTIN6QQmlJS3AST19UnaryPlusExpressionE@Base 5.3.0 1
 _ZTIN6QQmlJS3AST19VariableDeclarationE@Base 5.3.0 1
 _ZTIN6QQmlJS3AST20IdentifierExpressionE@Base 5.3.0 1
 _ZTIN6QQmlJS3AST20PropertyGetterSetterE@Base 5.3.0 1
 _ZTIN6QQmlJS3AST20PropertyNameAndValueE@Base 5.3.0 1
 _ZTIN6QQmlJS3AST20UnaryMinusExpressionE@Base 5.3.0 1
 _ZTIN6QQmlJS3AST21ArrayMemberExpressionE@Base 5.3.0 1
 _ZTIN6QQmlJS3AST21ConditionalExpressionE@Base 5.3.0 1
 _ZTIN6QQmlJS3AST21FieldMemberExpressionE@Base 5.3.0 1
 _ZTIN6QQmlJS3AST21FunctionSourceElementE@Base 5.3.0 1
 _ZTIN6QQmlJS3AST21LocalForEachStatementE@Base 5.3.0 1
 _ZTIN6QQmlJS3AST22IdentifierPropertyNameE@Base 5.3.0 1
 _ZTIN6QQmlJS3AST22PreDecrementExpressionE@Base 5.3.0 1
 _ZTIN6QQmlJS3AST22PreIncrementExpressionE@Base 5.3.0 1
 _ZTIN6QQmlJS3AST22PropertyAssignmentListE@Base 5.3.0 1
 _ZTIN6QQmlJS3AST22StatementSourceElementE@Base 5.3.0 1
 _ZTIN6QQmlJS3AST23PostDecrementExpressionE@Base 5.3.0 1
 _ZTIN6QQmlJS3AST23PostIncrementExpressionE@Base 5.3.0 1
 _ZTIN6QQmlJS3AST23VariableDeclarationListE@Base 5.3.0 1
 _ZTIN6QQmlJS3AST25StringLiteralPropertyNameE@Base 5.3.0 1
 _ZTIN6QQmlJS3AST26NumericLiteralPropertyNameE@Base 5.3.0 1
 _ZTIN6QQmlJS3AST4NodeE@Base 5.3.0 1
 _ZTIN6QQmlJS3AST5BlockE@Base 5.3.0 1
 _ZTIN6QQmlJS3AST5CatchE@Base 5.3.0 1
 _ZTIN6QQmlJS3AST7ElisionE@Base 5.3.0 1
 _ZTIN6QQmlJS3AST7FinallyE@Base 5.3.0 1
 _ZTIN6QQmlJS3AST7ProgramE@Base 5.3.0 1
 _ZTIN6QQmlJS3AST7VisitorE@Base 5.3.0 1
 _ZTIN6QQmlJS3AST8UiImportE@Base 5.3.0 1
 _ZTIN6QQmlJS3AST8UiPragmaE@Base 5.3.0 1
 _ZTIN6QQmlJS3AST9CaseBlockE@Base 5.3.0 1
 _ZTIN6QQmlJS3AST9StatementE@Base 5.3.0 1
 _ZTIN6QQmlJS3AST9UiProgramE@Base 5.3.0 1
 _ZTIN6QQmlJS7Codegen13ScanFunctionsE@Base 5.2.0~beta1 1
 _ZTIN6QQmlJS7CodegenE@Base 5.2.0~beta1 1
 _ZTIN6QQmlJS7ManagedE@Base 5.3.0 1
 _ZTIN9QV8Engine9DeletableE@Base 5.0.2 1
 _ZTS10QQmlBundle@Base 5.0.2 1
 _ZTS10QQmlEngine@Base 5.0.2
 _ZTS11QMetaObject@Base 5.0.2
 _ZTS11QQmlBinding@Base 5.0.2 1
 _ZTS11QQmlCleanup@Base 5.0.2 1
 _ZTS11QQmlContext@Base 5.0.2
 _ZTS12QQmlDataBlob@Base 5.0.2 1
 _ZTS12QQmlPlatform@Base 5.1.0 1
 _ZTS12QQmlRefCount@Base 5.4.0 1
 _ZTS13QQmlComponent@Base 5.0.2
 _ZTS13QQmlIncubator@Base 5.0.2
 _ZTS13QQmlListModel@Base 5.1.0 1
 _ZTS13QQmlValueType@Base 5.0.2 1
 _ZTS14QQmlExpression@Base 5.0.2
 _ZTS15QJSValuePrivate@Base 5.2.0~beta1 1
 _ZTS15QQmlApplication@Base 5.1.0 1
 _ZTS15QQmlBoundSignal@Base 5.0.2 1
 _ZTS15QQmlDebugServer@Base 5.0.2 1
 _ZTS15QQmlGuiProvider@Base 5.0.2 1
 _ZTS15QQmlObjectModel@Base 5.1.0 1
 _ZTS15QQmlPropertyMap@Base 5.0.2
 _ZTS16QQmlCustomParser@Base 5.0.2 1
 _ZTS16QQmlDebugService@Base 5.0.2 1
 _ZTS16QQmlFileSelector@Base 5.2.0~beta1
 _ZTS16QQmlParserStatus@Base 5.0.2
 _ZTS17QQmlColorProvider@Base 5.0.2 1
 _ZTS17QQmlDelegateModel@Base 5.1.0 1
 _ZTS17QQmlEnginePrivate@Base 5.0.2 1
 _ZTS17QQmlInstanceModel@Base 5.1.0 1
 _ZTS17QQmlPropertyCache@Base 5.0.2 1
 _ZTS17QQmlRectValueType@Base 5.0.2 1
 _ZTS17QQmlSizeValueType@Base 5.0.2 1
 _ZTS17QQmlVMEMetaObject@Base 5.0.2 1
 _ZTS18QAnimationGroupJob@Base 5.0.2 1
 _ZTS18QPauseAnimationJob@Base 5.0.2 1
 _ZTS18QQmlAnimationTimer@Base 5.0.2 1
 _ZTS18QQmlOpenMetaObject@Base 5.0.2 1
 _ZTS18QQmlPointValueType@Base 5.0.2 1
 _ZTS18QQmlRectFValueType@Base 5.0.2 1
 _ZTS18QQmlSizeFValueType@Base 5.0.2 1
 _ZTS19QQmlAbstractBinding@Base 5.0.2 1
 _ZTS19QQmlEasingValueType@Base 5.0.2 1
 _ZTS19QQmlExtensionPlugin@Base 5.0.2
 _ZTS19QQmlPointFValueType@Base 5.0.2 1
 _ZTS19QQmlProfilerService@Base 5.0.2 1
 _ZTS19QQmlPropertyPrivate@Base 5.0.2 1
 _ZTS20QQmlComponentPrivate@Base 5.0.2 1
 _ZTS20QQmlInspectorService@Base 5.0.2 1
 _ZTS21QAbstractAnimationJob@Base 5.0.2 1
 _ZTS21QQmlApplicationEngine@Base 5.1.0
 _ZTS21QQmlComponentAttached@Base 5.1.0 1
 _ZTS21QQmlImageProviderBase@Base 5.0.2
 _ZTS21QQmlValueTypeProvider@Base 5.0.2 1
 _ZTS22QDynamicMetaObjectData@Base 5.0.2
 _ZTS22QQmlAbstractExpression@Base 5.0.2 1
 _ZTS22QQmlDelegateModelGroup@Base 5.1.0 1
 _ZTS22QQmlEngineDebugService@Base 5.0.2 1
 _ZTS22QQmlExtensionInterface@Base 5.0.2
 _ZTS22QQmlOpenMetaObjectType@Base 5.0.2 1
 _ZTS23QQmlAbstractBoundSignal@Base 5.0.2 1
 _ZTS23QQmlFileSelectorPrivate@Base 5.2.0~beta1 1
 _ZTS23QQmlPropertyValueSource@Base 5.0.2
 _ZTS24QQmlIncubationController@Base 5.0.2
 _ZTS25QQmlBoundSignalExpression@Base 5.0.2 1
 _ZTS26QAbstractDynamicMetaObject@Base 5.0.2
 _ZTS26QParallelAnimationGroupJob@Base 5.0.2 1
 _ZTS26QQmlAbstractUrlInterceptor@Base 5.2.0~beta1
 _ZTS27QAnimationJobChangeListener@Base 5.0.2 1
 _ZTS27QQmlAbstractProfilerAdapter@Base 5.3.0 1
 _ZTS27QQmlFileSelectorInterceptor@Base 5.2.0~rc1 1
 _ZTS27QQmlTypesExtensionInterface@Base 5.0.2
 _ZTS28QContinuingAnimationGroupJob@Base 5.3.0 1
 _ZTS28QQmlApplicationEnginePrivate@Base 5.1.0 1
 _ZTS28QQmlPropertyValueInterceptor@Base 5.0.2 1
 _ZTS28QSequentialAnimationGroupJob@Base 5.0.2 1
 _ZTS31QQmlNetworkAccessManagerFactory@Base 5.0.2
 _ZTS9QJSEngine@Base 5.0.2
 _ZTS9QQmlTimer@Base 5.0.2 1
 _ZTS9QV8Engine@Base 5.0.2 1
 _ZTSN14QQmlTypeLoader4BlobE@Base 5.0.2 1
 _ZTSN15QQmlContextData12ContextGuardE@Base 5.0.2 1
 _ZTSN17QQmlEnginePrivate15PropertyCaptureE@Base 5.0.2 1
 _ZTSN17QQmlEnginePrivate9DeletableE@Base 5.0.2 1
 _ZTSN3QV412CompiledData15CompilationUnitE@Base 5.2.0~beta1
 _ZTSN3QV415EvalISelFactoryE@Base 5.3.0 1
 _ZTSN3QV422PersistentValuePrivateE@Base 5.2.0~beta1
 _ZTSN3QV424EvalInstructionSelectionE@Base 5.3.0 1
 _ZTSN3QV42IR9IRDecoderE@Base 5.3.0 1
 (arch=amd64 armhf i386)_ZTSN3QV43JIT11ISelFactoryE@Base 5.3.0 1
 (arch=amd64 armhf i386)_ZTSN3QV43JIT20InstructionSelectionE@Base 5.3.0 1
 _ZTSN3QV44Moth11ISelFactoryE@Base 5.3.0 1
 _ZTSN3QV44Moth20InstructionSelectionE@Base 5.3.0 1
 _ZTSN3QV49Debugging13DebuggerAgentE@Base 5.2.0~beta1 1
 _ZTSN3QV49Debugging8Debugger3JobE@Base 5.2.0~rc1 1
 _ZTSN3QV49Debugging8Debugger9CollectorE@Base 5.2.0~rc1 1
 _ZTSN3QV49Profiling8ProfilerE@Base 5.3.0 1
 _ZTSN5QmlIR9IRBuilderE@Base 5.3.0
 _ZTSN5QmlIR9JSCodeGenE@Base 5.3.0
 _ZTSN6QQmlJS3AST10CaseClauseE@Base 5.3.0 1
 _ZTSN6QQmlJS3AST10ExpressionE@Base 5.3.0 1
 _ZTSN6QQmlJS3AST11CaseClausesE@Base 5.3.0 1
 _ZTSN6QQmlJS3AST11ElementListE@Base 5.3.0 1
 _ZTSN6QQmlJS3AST11IfStatementE@Base 5.3.0 1
 _ZTSN6QQmlJS3AST11TrueLiteralE@Base 5.3.0 1
 _ZTSN6QQmlJS3AST12ArgumentListE@Base 5.3.0 1
 _ZTSN6QQmlJS3AST12ArrayLiteralE@Base 5.3.0 1
 _ZTSN6QQmlJS3AST12FalseLiteralE@Base 5.3.0 1
 _ZTSN6QQmlJS3AST12ForStatementE@Base 5.3.0 1
 _ZTSN6QQmlJS3AST12FunctionBodyE@Base 5.3.0 1
 _ZTSN6QQmlJS3AST12PropertyNameE@Base 5.3.0 1
 _ZTSN6QQmlJS3AST12TryStatementE@Base 5.3.0 1
 _ZTSN6QQmlJS3AST13DefaultClauseE@Base 5.3.0 1
 _ZTSN6QQmlJS3AST13NewExpressionE@Base 5.3.0 1
 _ZTSN6QQmlJS3AST13NotExpressionE@Base 5.3.0 1
 _ZTSN6QQmlJS3AST13ObjectLiteralE@Base 5.3.0 1
 _ZTSN6QQmlJS3AST13RegExpLiteralE@Base 5.3.0 1
 _ZTSN6QQmlJS3AST13SourceElementE@Base 5.3.0 1
 _ZTSN6QQmlJS3AST13StatementListE@Base 5.3.0 1
 _ZTSN6QQmlJS3AST13StringLiteralE@Base 5.3.0 1
 _ZTSN6QQmlJS3AST13UiQualifiedIdE@Base 5.3.0 1
 _ZTSN6QQmlJS3AST13WithStatementE@Base 5.3.0 1
 _ZTSN6QQmlJS3AST14BreakStatementE@Base 5.3.0 1
 _ZTSN6QQmlJS3AST14CallExpressionE@Base 5.3.0 1
 _ZTSN6QQmlJS3AST14EmptyStatementE@Base 5.3.0 1
 _ZTSN6QQmlJS3AST14ExpressionNodeE@Base 5.3.0 1
 _ZTSN6QQmlJS3AST14NullExpressionE@Base 5.3.0 1
 _ZTSN6QQmlJS3AST14NumericLiteralE@Base 5.3.0 1
 _ZTSN6QQmlJS3AST14SourceElementsE@Base 5.3.0 1
 _ZTSN6QQmlJS3AST14ThisExpressionE@Base 5.3.0 1
 _ZTSN6QQmlJS3AST14ThrowStatementE@Base 5.3.0 1
 _ZTSN6QQmlJS3AST14UiArrayBindingE@Base 5.3.0 1
 _ZTSN6QQmlJS3AST14UiObjectMemberE@Base 5.3.0 1
 _ZTSN6QQmlJS3AST14UiPublicMemberE@Base 5.3.0 1
 _ZTSN6QQmlJS3AST14VoidExpressionE@Base 5.3.0 1
 _ZTSN6QQmlJS3AST14WhileStatementE@Base 5.3.0 1
 _ZTSN6QQmlJS3AST15ReturnStatementE@Base 5.3.0 1
 _ZTSN6QQmlJS3AST15SwitchStatementE@Base 5.3.0 1
 _ZTSN6QQmlJS3AST15TildeExpressionE@Base 5.3.0 1
 _ZTSN6QQmlJS3AST15UiObjectBindingE@Base 5.3.0 1
 _ZTSN6QQmlJS3AST15UiParameterListE@Base 5.3.0 1
 _ZTSN6QQmlJS3AST15UiScriptBindingE@Base 5.3.0 1
 _ZTSN6QQmlJS3AST15UiSourceElementE@Base 5.3.0 1
 _ZTSN6QQmlJS3AST16BinaryExpressionE@Base 5.3.0 1
 _ZTSN6QQmlJS3AST16DeleteExpressionE@Base 5.3.0 1
 _ZTSN6QQmlJS3AST16DoWhileStatementE@Base 5.3.0 1
 _ZTSN6QQmlJS3AST16ForEachStatementE@Base 5.3.0 1
 _ZTSN6QQmlJS3AST16NestedExpressionE@Base 5.3.0 1
 _ZTSN6QQmlJS3AST16TypeOfExpressionE@Base 5.3.0 1
 _ZTSN6QQmlJS3AST16UiHeaderItemListE@Base 5.3.0 1
 _ZTSN6QQmlJS3AST17ContinueStatementE@Base 5.3.0 1
 _ZTSN6QQmlJS3AST17DebuggerStatementE@Base 5.3.0 1
 _ZTSN6QQmlJS3AST17LabelledStatementE@Base 5.3.0 1
 _ZTSN6QQmlJS3AST17LocalForStatementE@Base 5.3.0 1
 _ZTSN6QQmlJS3AST17UiArrayMemberListE@Base 5.3.0 1
 _ZTSN6QQmlJS3AST17VariableStatementE@Base 5.3.0 1
 _ZTSN6QQmlJS3AST18FunctionExpressionE@Base 5.3.0 1
 _ZTSN6QQmlJS3AST18PropertyAssignmentE@Base 5.3.0 1
 _ZTSN6QQmlJS3AST18UiObjectDefinitionE@Base 5.3.0 1
 _ZTSN6QQmlJS3AST18UiObjectMemberListE@Base 5.3.0 1
 _ZTSN6QQmlJS3AST19ExpressionStatementE@Base 5.3.0 1
 _ZTSN6QQmlJS3AST19FormalParameterListE@Base 5.3.0 1
 _ZTSN6QQmlJS3AST19FunctionDeclarationE@Base 5.3.0 1
 _ZTSN6QQmlJS3AST19NewMemberExpressionE@Base 5.3.0 1
 _ZTSN6QQmlJS3AST19UiObjectInitializerE@Base 5.3.0 1
 _ZTSN6QQmlJS3AST19UiQualifiedPragmaIdE@Base 5.3.0 1
 _ZTSN6QQmlJS3AST19UnaryPlusExpressionE@Base 5.3.0 1
 _ZTSN6QQmlJS3AST19VariableDeclarationE@Base 5.3.0 1
 _ZTSN6QQmlJS3AST20IdentifierExpressionE@Base 5.3.0 1
 _ZTSN6QQmlJS3AST20PropertyGetterSetterE@Base 5.3.0 1
 _ZTSN6QQmlJS3AST20PropertyNameAndValueE@Base 5.3.0 1
 _ZTSN6QQmlJS3AST20UnaryMinusExpressionE@Base 5.3.0 1
 _ZTSN6QQmlJS3AST21ArrayMemberExpressionE@Base 5.3.0 1
 _ZTSN6QQmlJS3AST21ConditionalExpressionE@Base 5.3.0 1
 _ZTSN6QQmlJS3AST21FieldMemberExpressionE@Base 5.3.0 1
 _ZTSN6QQmlJS3AST21FunctionSourceElementE@Base 5.3.0 1
 _ZTSN6QQmlJS3AST21LocalForEachStatementE@Base 5.3.0 1
 _ZTSN6QQmlJS3AST22IdentifierPropertyNameE@Base 5.3.0 1
 _ZTSN6QQmlJS3AST22PreDecrementExpressionE@Base 5.3.0 1
 _ZTSN6QQmlJS3AST22PreIncrementExpressionE@Base 5.3.0 1
 _ZTSN6QQmlJS3AST22PropertyAssignmentListE@Base 5.3.0 1
 _ZTSN6QQmlJS3AST22StatementSourceElementE@Base 5.3.0 1
 _ZTSN6QQmlJS3AST23PostDecrementExpressionE@Base 5.3.0 1
 _ZTSN6QQmlJS3AST23PostIncrementExpressionE@Base 5.3.0 1
 _ZTSN6QQmlJS3AST23VariableDeclarationListE@Base 5.3.0 1
 _ZTSN6QQmlJS3AST25StringLiteralPropertyNameE@Base 5.3.0 1
 _ZTSN6QQmlJS3AST26NumericLiteralPropertyNameE@Base 5.3.0 1
 _ZTSN6QQmlJS3AST4NodeE@Base 5.3.0 1
 _ZTSN6QQmlJS3AST5BlockE@Base 5.3.0 1
 _ZTSN6QQmlJS3AST5CatchE@Base 5.3.0 1
 _ZTSN6QQmlJS3AST7ElisionE@Base 5.3.0 1
 _ZTSN6QQmlJS3AST7FinallyE@Base 5.3.0 1
 _ZTSN6QQmlJS3AST7ProgramE@Base 5.3.0 1
 _ZTSN6QQmlJS3AST7VisitorE@Base 5.3.0 1
 _ZTSN6QQmlJS3AST8UiImportE@Base 5.3.0 1
 _ZTSN6QQmlJS3AST8UiPragmaE@Base 5.3.0 1
 _ZTSN6QQmlJS3AST9CaseBlockE@Base 5.3.0 1
 _ZTSN6QQmlJS3AST9StatementE@Base 5.3.0 1
 _ZTSN6QQmlJS3AST9UiProgramE@Base 5.3.0 1
 _ZTSN6QQmlJS7Codegen13ScanFunctionsE@Base 5.2.0~beta1 1
 _ZTSN6QQmlJS7CodegenE@Base 5.2.0~beta1 1
 _ZTSN6QQmlJS7ManagedE@Base 5.3.0 1
 _ZTSN9QV8Engine9DeletableE@Base 5.0.2 1
 _ZTV10QQmlEngine@Base 5.0.2
 _ZTV11QQmlBinding@Base 5.0.2 1
 _ZTV11QQmlCleanup@Base 5.0.2 1
 _ZTV11QQmlContext@Base 5.0.2
 _ZTV12QQmlDataBlob@Base 5.0.2 1
 _ZTV12QQmlPlatform@Base 5.1.0 1
 _ZTV12QQmlRefCount@Base 5.4.0 1
 _ZTV13QQmlComponent@Base 5.0.2
 _ZTV13QQmlIncubator@Base 5.0.2
 _ZTV13QQmlListModel@Base 5.1.0 1
 _ZTV13QQmlValueType@Base 5.0.2 1
 _ZTV14QQmlExpression@Base 5.0.2
 _ZTV15QJSValuePrivate@Base 5.2.0~beta1 1
 _ZTV15QQmlApplication@Base 5.1.0 1
 _ZTV15QQmlBoundSignal@Base 5.0.2 1
 _ZTV15QQmlDebugServer@Base 5.0.2 1
 _ZTV15QQmlGuiProvider@Base 5.0.2 1
 _ZTV15QQmlObjectModel@Base 5.1.0 1
 _ZTV15QQmlPropertyMap@Base 5.0.2
 _ZTV16QQmlCustomParser@Base 5.0.2 1
 _ZTV16QQmlDebugService@Base 5.0.2 1
 _ZTV16QQmlFileSelector@Base 5.2.0~beta1
 _ZTV16QQmlParserStatus@Base 5.0.2
 _ZTV17QQmlColorProvider@Base 5.0.2 1
 _ZTV17QQmlDelegateModel@Base 5.1.0 1
 _ZTV17QQmlEnginePrivate@Base 5.0.2 1
 _ZTV17QQmlInstanceModel@Base 5.1.0 1
 _ZTV17QQmlPropertyCache@Base 5.0.2 1
 _ZTV17QQmlRectValueType@Base 5.0.2 1
 _ZTV17QQmlSizeValueType@Base 5.0.2 1
 _ZTV17QQmlVMEMetaObject@Base 5.0.2 1
 _ZTV18QAnimationGroupJob@Base 5.0.2 1
 _ZTV18QPauseAnimationJob@Base 5.0.2 1
 _ZTV18QQmlAnimationTimer@Base 5.0.2 1
 _ZTV18QQmlOpenMetaObject@Base 5.0.2 1
 _ZTV18QQmlPointValueType@Base 5.0.2 1
 _ZTV18QQmlRectFValueType@Base 5.0.2 1
 _ZTV18QQmlSizeFValueType@Base 5.0.2 1
 _ZTV19QQmlEasingValueType@Base 5.0.2 1
 _ZTV19QQmlExtensionPlugin@Base 5.0.2
 _ZTV19QQmlPointFValueType@Base 5.0.2 1
 _ZTV19QQmlProfilerService@Base 5.0.2 1
 _ZTV19QQmlPropertyPrivate@Base 5.0.2 1
 _ZTV20QQmlComponentPrivate@Base 5.0.2 1
 _ZTV20QQmlInspectorService@Base 5.0.2 1
 _ZTV21QAbstractAnimationJob@Base 5.0.2 1
 _ZTV21QQmlApplicationEngine@Base 5.1.0
 _ZTV21QQmlComponentAttached@Base 5.1.0 1
 _ZTV21QQmlImageProviderBase@Base 5.0.2
 _ZTV21QQmlValueTypeProvider@Base 5.0.2 1
 _ZTV22QDynamicMetaObjectData@Base 5.0.2
 _ZTV22QQmlAbstractExpression@Base 5.0.2 1
 _ZTV22QQmlDelegateModelGroup@Base 5.1.0 1
 _ZTV22QQmlEngineDebugService@Base 5.0.2 1
 _ZTV22QQmlExtensionInterface@Base 5.0.2
 _ZTV22QQmlOpenMetaObjectType@Base 5.0.2 1
 _ZTV23QQmlAbstractBoundSignal@Base 5.0.2 1
 _ZTV23QQmlFileSelectorPrivate@Base 5.2.0~beta1 1
 _ZTV23QQmlPropertyValueSource@Base 5.0.2
 _ZTV24QQmlIncubationController@Base 5.0.2
 _ZTV25QQmlBoundSignalExpression@Base 5.0.2 1
 _ZTV26QAbstractDynamicMetaObject@Base 5.0.2
 _ZTV26QParallelAnimationGroupJob@Base 5.0.2 1
 _ZTV26QQmlAbstractUrlInterceptor@Base 5.2.0~beta1
 _ZTV27QAnimationJobChangeListener@Base 5.0.2 1
 _ZTV27QQmlAbstractProfilerAdapter@Base 5.3.0 1
 _ZTV27QQmlFileSelectorInterceptor@Base 5.2.0~rc1 1
 _ZTV27QQmlTypesExtensionInterface@Base 5.0.2
 _ZTV28QContinuingAnimationGroupJob@Base 5.3.0 1
 _ZTV28QQmlApplicationEnginePrivate@Base 5.1.0 1
 _ZTV28QQmlPropertyValueInterceptor@Base 5.0.2 1
 _ZTV28QSequentialAnimationGroupJob@Base 5.0.2 1
 _ZTV31QQmlNetworkAccessManagerFactory@Base 5.0.2
 _ZTV9QJSEngine@Base 5.0.2
 _ZTV9QQmlTimer@Base 5.0.2 1
 _ZTV9QV8Engine@Base 5.0.2 1
 _ZTVN14QQmlTypeLoader4BlobE@Base 5.0.2 1
 _ZTVN15QQmlContextData12ContextGuardE@Base 5.0.2 1
 _ZTVN17QQmlEnginePrivate15PropertyCaptureE@Base 5.0.2 1
 _ZTVN17QQmlEnginePrivate9DeletableE@Base 5.0.2 1
 _ZTVN3QV412CompiledData15CompilationUnitE@Base 5.2.0~beta1
 _ZTVN3QV415EvalISelFactoryE@Base 5.3.0 1
 _ZTVN3QV422PersistentValuePrivateE@Base 5.2.0~beta1
 _ZTVN3QV424EvalInstructionSelectionE@Base 5.3.0 1
 _ZTVN3QV42IR9IRDecoderE@Base 5.3.0 1
 (arch=amd64 armhf i386)_ZTVN3QV43JIT11ISelFactoryE@Base 5.3.0 1
 (arch=amd64 armhf i386)_ZTVN3QV43JIT20InstructionSelectionE@Base 5.3.0 1
 _ZTVN3QV44Moth11ISelFactoryE@Base 5.3.0 1
 _ZTVN3QV44Moth20InstructionSelectionE@Base 5.3.0 1
 _ZTVN3QV49Debugging13DebuggerAgentE@Base 5.2.0~beta1 1
 _ZTVN3QV49Debugging8Debugger3JobE@Base 5.2.0~rc1 1
 _ZTVN3QV49Debugging8Debugger9CollectorE@Base 5.2.0~rc1 1
 _ZTVN3QV49Profiling8ProfilerE@Base 5.3.0 1
 _ZTVN5QmlIR9IRBuilderE@Base 5.3.0
 _ZTVN5QmlIR9JSCodeGenE@Base 5.3.0
 _ZTVN6QQmlJS3AST10CaseClauseE@Base 5.3.0 1
 _ZTVN6QQmlJS3AST10ExpressionE@Base 5.3.0 1
 _ZTVN6QQmlJS3AST11CaseClausesE@Base 5.3.0 1
 _ZTVN6QQmlJS3AST11ElementListE@Base 5.3.0 1
 _ZTVN6QQmlJS3AST11IfStatementE@Base 5.3.0 1
 _ZTVN6QQmlJS3AST11TrueLiteralE@Base 5.3.0 1
 _ZTVN6QQmlJS3AST12ArgumentListE@Base 5.3.0 1
 _ZTVN6QQmlJS3AST12ArrayLiteralE@Base 5.3.0 1
 _ZTVN6QQmlJS3AST12FalseLiteralE@Base 5.3.0 1
 _ZTVN6QQmlJS3AST12ForStatementE@Base 5.3.0 1
 _ZTVN6QQmlJS3AST12FunctionBodyE@Base 5.3.0 1
 _ZTVN6QQmlJS3AST12PropertyNameE@Base 5.3.0 1
 _ZTVN6QQmlJS3AST12TryStatementE@Base 5.3.0 1
 _ZTVN6QQmlJS3AST13DefaultClauseE@Base 5.3.0 1
 _ZTVN6QQmlJS3AST13NewExpressionE@Base 5.3.0 1
 _ZTVN6QQmlJS3AST13NotExpressionE@Base 5.3.0 1
 _ZTVN6QQmlJS3AST13ObjectLiteralE@Base 5.3.0 1
 _ZTVN6QQmlJS3AST13RegExpLiteralE@Base 5.3.0 1
 _ZTVN6QQmlJS3AST13SourceElementE@Base 5.3.0 1
 _ZTVN6QQmlJS3AST13StatementListE@Base 5.3.0 1
 _ZTVN6QQmlJS3AST13StringLiteralE@Base 5.3.0 1
 _ZTVN6QQmlJS3AST13UiQualifiedIdE@Base 5.3.0 1
 _ZTVN6QQmlJS3AST13WithStatementE@Base 5.3.0 1
 _ZTVN6QQmlJS3AST14BreakStatementE@Base 5.3.0 1
 _ZTVN6QQmlJS3AST14CallExpressionE@Base 5.3.0 1
 _ZTVN6QQmlJS3AST14EmptyStatementE@Base 5.3.0 1
 _ZTVN6QQmlJS3AST14ExpressionNodeE@Base 5.3.0 1
 _ZTVN6QQmlJS3AST14NullExpressionE@Base 5.3.0 1
 _ZTVN6QQmlJS3AST14NumericLiteralE@Base 5.3.0 1
 _ZTVN6QQmlJS3AST14SourceElementsE@Base 5.3.0 1
 _ZTVN6QQmlJS3AST14ThisExpressionE@Base 5.3.0 1
 _ZTVN6QQmlJS3AST14ThrowStatementE@Base 5.3.0 1
 _ZTVN6QQmlJS3AST14UiArrayBindingE@Base 5.3.0 1
 _ZTVN6QQmlJS3AST14UiObjectMemberE@Base 5.3.0 1
 _ZTVN6QQmlJS3AST14UiPublicMemberE@Base 5.3.0 1
 _ZTVN6QQmlJS3AST14VoidExpressionE@Base 5.3.0 1
 _ZTVN6QQmlJS3AST14WhileStatementE@Base 5.3.0 1
 _ZTVN6QQmlJS3AST15ReturnStatementE@Base 5.3.0 1
 _ZTVN6QQmlJS3AST15SwitchStatementE@Base 5.3.0 1
 _ZTVN6QQmlJS3AST15TildeExpressionE@Base 5.3.0 1
 _ZTVN6QQmlJS3AST15UiObjectBindingE@Base 5.3.0 1
 _ZTVN6QQmlJS3AST15UiParameterListE@Base 5.3.0 1
 _ZTVN6QQmlJS3AST15UiScriptBindingE@Base 5.3.0 1
 _ZTVN6QQmlJS3AST15UiSourceElementE@Base 5.3.0 1
 _ZTVN6QQmlJS3AST16BinaryExpressionE@Base 5.3.0 1
 _ZTVN6QQmlJS3AST16DeleteExpressionE@Base 5.3.0 1
 _ZTVN6QQmlJS3AST16DoWhileStatementE@Base 5.3.0 1
 _ZTVN6QQmlJS3AST16ForEachStatementE@Base 5.3.0 1
 _ZTVN6QQmlJS3AST16NestedExpressionE@Base 5.3.0 1
 _ZTVN6QQmlJS3AST16TypeOfExpressionE@Base 5.3.0 1
 _ZTVN6QQmlJS3AST16UiHeaderItemListE@Base 5.3.0 1
 _ZTVN6QQmlJS3AST17ContinueStatementE@Base 5.3.0 1
 _ZTVN6QQmlJS3AST17DebuggerStatementE@Base 5.3.0 1
 _ZTVN6QQmlJS3AST17LabelledStatementE@Base 5.3.0 1
 _ZTVN6QQmlJS3AST17LocalForStatementE@Base 5.3.0 1
 _ZTVN6QQmlJS3AST17UiArrayMemberListE@Base 5.3.0 1
 _ZTVN6QQmlJS3AST17VariableStatementE@Base 5.3.0 1
 _ZTVN6QQmlJS3AST18FunctionExpressionE@Base 5.3.0 1
 _ZTVN6QQmlJS3AST18PropertyAssignmentE@Base 5.3.0 1
 _ZTVN6QQmlJS3AST18UiObjectDefinitionE@Base 5.3.0 1
 _ZTVN6QQmlJS3AST18UiObjectMemberListE@Base 5.3.0 1
 _ZTVN6QQmlJS3AST19ExpressionStatementE@Base 5.3.0 1
 _ZTVN6QQmlJS3AST19FormalParameterListE@Base 5.3.0 1
 _ZTVN6QQmlJS3AST19FunctionDeclarationE@Base 5.3.0 1
 _ZTVN6QQmlJS3AST19NewMemberExpressionE@Base 5.3.0 1
 _ZTVN6QQmlJS3AST19UiObjectInitializerE@Base 5.3.0 1
 _ZTVN6QQmlJS3AST19UiQualifiedPragmaIdE@Base 5.3.0 1
 _ZTVN6QQmlJS3AST19UnaryPlusExpressionE@Base 5.3.0 1
 _ZTVN6QQmlJS3AST19VariableDeclarationE@Base 5.3.0 1
 _ZTVN6QQmlJS3AST20IdentifierExpressionE@Base 5.3.0 1
 _ZTVN6QQmlJS3AST20PropertyGetterSetterE@Base 5.3.0 1
 _ZTVN6QQmlJS3AST20PropertyNameAndValueE@Base 5.3.0 1
 _ZTVN6QQmlJS3AST20UnaryMinusExpressionE@Base 5.3.0 1
 _ZTVN6QQmlJS3AST21ArrayMemberExpressionE@Base 5.3.0 1
 _ZTVN6QQmlJS3AST21ConditionalExpressionE@Base 5.3.0 1
 _ZTVN6QQmlJS3AST21FieldMemberExpressionE@Base 5.3.0 1
 _ZTVN6QQmlJS3AST21FunctionSourceElementE@Base 5.3.0 1
 _ZTVN6QQmlJS3AST21LocalForEachStatementE@Base 5.3.0 1
 _ZTVN6QQmlJS3AST22IdentifierPropertyNameE@Base 5.3.0 1
 _ZTVN6QQmlJS3AST22PreDecrementExpressionE@Base 5.3.0 1
 _ZTVN6QQmlJS3AST22PreIncrementExpressionE@Base 5.3.0 1
 _ZTVN6QQmlJS3AST22PropertyAssignmentListE@Base 5.3.0 1
 _ZTVN6QQmlJS3AST22StatementSourceElementE@Base 5.3.0 1
 _ZTVN6QQmlJS3AST23PostDecrementExpressionE@Base 5.3.0 1
 _ZTVN6QQmlJS3AST23PostIncrementExpressionE@Base 5.3.0 1
 _ZTVN6QQmlJS3AST23VariableDeclarationListE@Base 5.3.0 1
 _ZTVN6QQmlJS3AST25StringLiteralPropertyNameE@Base 5.3.0 1
 _ZTVN6QQmlJS3AST26NumericLiteralPropertyNameE@Base 5.3.0 1
 _ZTVN6QQmlJS3AST4NodeE@Base 5.3.0 1
 _ZTVN6QQmlJS3AST5BlockE@Base 5.3.0 1
 _ZTVN6QQmlJS3AST5CatchE@Base 5.3.0 1
 _ZTVN6QQmlJS3AST7ElisionE@Base 5.3.0 1
 _ZTVN6QQmlJS3AST7FinallyE@Base 5.3.0 1
 _ZTVN6QQmlJS3AST7ProgramE@Base 5.3.0 1
 _ZTVN6QQmlJS3AST7VisitorE@Base 5.3.0 1
 _ZTVN6QQmlJS3AST8UiImportE@Base 5.3.0 1
 _ZTVN6QQmlJS3AST8UiPragmaE@Base 5.3.0 1
 _ZTVN6QQmlJS3AST9CaseBlockE@Base 5.3.0 1
 _ZTVN6QQmlJS3AST9StatementE@Base 5.3.0 1
 _ZTVN6QQmlJS3AST9UiProgramE@Base 5.3.0 1
 _ZTVN6QQmlJS7Codegen13ScanFunctionsE@Base 5.2.0~beta1 1
 _ZTVN6QQmlJS7CodegenE@Base 5.2.0~beta1 1
 _ZTVN9QV8Engine9DeletableE@Base 5.0.2 1
 _ZZN8QQmlData4initEvE11initialized@Base 5.0.2 1
 _ZZN9QMetaType17registerConverterI8QJSValue11QStringListPFS2_RKS1_EEEbT1_E1f@Base 5.4.0
 _ZZN9QMetaType17registerConverterI8QJSValue4QMapI7QString8QVariantEPFS5_RKS1_EEEbT1_E1f@Base 5.4.0
 _ZZN9QMetaType17registerConverterI8QJSValue5QListI8QVariantEPFS4_RKS1_EEEbT1_E1f@Base 5.4.0
 _Zls6QDebugRK13QQmlChangeSet@Base 5.1.0 1
 _Zls6QDebugRK9QQmlError@Base 5.0.2
 _Zls6QDebugRKN13QQmlChangeSet6ChangeE@Base 5.1.0 1
 _ZlsR11QDataStreamRKN22QQmlEngineDebugService14QQmlObjectDataE@Base 5.0.2 1
 _ZlsR11QDataStreamRKN22QQmlEngineDebugService18QQmlObjectPropertyE@Base 5.0.2 1
 _ZrsR11QDataStreamRN22QQmlEngineDebugService14QQmlObjectDataE@Base 5.0.2 1
 _ZrsR11QDataStreamRN22QQmlEngineDebugService18QQmlObjectPropertyE@Base 5.0.2 1
 (c++)"non-virtual thunk to QQmlBoundSignalExpression::~QQmlBoundSignalExpression()@Base" 5.0.2
 (c++)"non-virtual thunk to QQmlComponentPrivate::typeDataProgress(QQmlTypeData*, double)@Base" 5.2.0
 (c++)"non-virtual thunk to QQmlComponentPrivate::typeDataReady(QQmlTypeData*)@Base" 5.0.2
 (c++|optional=gccinternal)"non-virtual thunk to QQmlComponentPrivate::~QQmlComponentPrivate()@Base" 5.0.2
 (c++)"non-virtual thunk to QQmlDelegateModel::classBegin()@Base" 5.1.0
 (c++)"non-virtual thunk to QQmlDelegateModel::componentComplete()@Base" 5.1.0
 (c++)"non-virtual thunk to QQmlDelegateModel::~QQmlDelegateModel()@Base" 5.1.0
 (c++)"non-virtual thunk to QQmlExtensionPlugin::initializeEngine(QQmlEngine*, char const*)@Base" 5.0.2
 (c++)"non-virtual thunk to QQmlExtensionPlugin::~QQmlExtensionPlugin()@Base" 5.0.2
 (c++)"non-virtual thunk to QQmlOpenMetaObjectType::clear()@Base" 5.0.2
 (c++)"non-virtual thunk to QQmlOpenMetaObjectType::~QQmlOpenMetaObjectType()@Base" 5.0.2
 (c++)"non-virtual thunk to QQmlPropertyCache::clear()@Base" 5.0.2
 (c++)"non-virtual thunk to QQmlPropertyCache::~QQmlPropertyCache()@Base" 5.0.2
 (c++)"non-virtual thunk to QQmlTimer::classBegin()@Base" 5.0.2
 (c++)"non-virtual thunk to QQmlTimer::componentComplete()@Base" 5.0.2
 (c++|optional=gccinternal)"non-virtual thunk to QQmlTimer::~QQmlTimer()@Base" 5.0.2
 (c++|arch=amd64 armhf i386)"non-virtual thunk to QV4::JIT::InstructionSelection::backendCompileStep()@Base" 5.3.0
 (c++|arch=amd64 armhf i386)"non-virtual thunk to QV4::JIT::InstructionSelection::run(int)@Base" 5.3.0
 (c++|arch=amd64 armhf i386)"non-virtual thunk to QV4::JIT::InstructionSelection::~InstructionSelection()@Base" 5.3.0
 (c++)"non-virtual thunk to QV4::Moth::InstructionSelection::backendCompileStep()@Base" 5.3.0
 (c++)"non-virtual thunk to QV4::Moth::InstructionSelection::run(int)@Base" 5.3.0
 (c++)"non-virtual thunk to QV4::Moth::InstructionSelection::~InstructionSelection()@Base" 5.3.0
 qt_v4StackTrace@Base 5.3.0
