# SymbolsHelper-Confirmed: 5.4.1 amd64
libQt5QuickTest.so.5 libqt5quicktest5 #MINVER#
| libqt5quicktest5 #MINVER#, qtdeclarative-abi-5-4-1
 _Z15quick_test_mainiPPcPKcS2_@Base 5.0.2
 _ZN14QuickTestEvent10keyReleaseEiii@Base 5.0.2 1
 _ZN14QuickTestEvent10mouseClickEP7QObjectddiii@Base 5.2.0 1
 _ZN14QuickTestEvent10mousePressEP7QObjectddiii@Base 5.2.0 1
 _ZN14QuickTestEvent10mouseWheelEP7QObjectddiiiii@Base 5.2.0 1
 _ZN14QuickTestEvent11eventWindowEv@Base 5.0.2 1
 _ZN14QuickTestEvent11qt_metacallEN11QMetaObject4CallEiPPv@Base 5.0.2 1
 _ZN14QuickTestEvent11qt_metacastEPKc@Base 5.0.2 1
 _ZN14QuickTestEvent12keyClickCharERK7QStringii@Base 5.1.0 1
 _ZN14QuickTestEvent12keyPressCharERK7QStringii@Base 5.1.0 1
 _ZN14QuickTestEvent12mouseReleaseEP7QObjectddiii@Base 5.2.0 1
 _ZN14QuickTestEvent14keyReleaseCharERK7QStringii@Base 5.1.0 1
 _ZN14QuickTestEvent16mouseDoubleClickEP7QObjectddiii@Base 5.2.0 1
 _ZN14QuickTestEvent16staticMetaObjectE@Base 5.0.2 1
 _ZN14QuickTestEvent8keyClickEiii@Base 5.0.2 1
 _ZN14QuickTestEvent8keyPressEiii@Base 5.0.2 1
 _ZN14QuickTestEvent9mouseMoveEP7QObjectddii@Base 5.2.0 1
 _ZN14QuickTestEventC1EP7QObject@Base 5.0.2 1
 _ZN14QuickTestEventC2EP7QObject@Base 5.0.2 1
 _ZN14QuickTestEventD0Ev@Base 5.0.2 1
 _ZN14QuickTestEventD1Ev@Base 5.0.2 1
 _ZN14QuickTestEventD2Ev@Base 5.0.2 1
 _ZN15QuickTestResult10endDataRunEv@Base 5.0.2 1
 _ZN15QuickTestResult10expectFailERK7QStringS2_RK4QUrli@Base 5.0.2 1
 _ZN15QuickTestResult10setDataTagERK7QString@Base 5.0.2 1
 _ZN15QuickTestResult10setSkippedEb@Base 5.0.2 1
 _ZN15QuickTestResult11qt_metacallEN11QMetaObject4CallEiPPv@Base 5.0.2 1
 _ZN15QuickTestResult11qt_metacastEPKc@Base 5.0.2 1
 _ZN15QuickTestResult11stopLoggingEv@Base 5.0.2 1
 _ZN15QuickTestResult12beginDataRunEv@Base 5.0.2 1
 _ZN15QuickTestResult12fuzzyCompareERK8QVariantS2_d@Base 5.2.0 1
 _ZN15QuickTestResult12startLoggingEv@Base 5.0.2 1
 _ZN15QuickTestResult13ignoreWarningERK7QString@Base 5.0.2 1
 _ZN15QuickTestResult13initTestTableEv@Base 5.0.2 1
 _ZN15QuickTestResult13nextBenchmarkEv@Base 5.0.2 1
 _ZN15QuickTestResult13stopBenchmarkEv@Base 5.0.2 1
 _ZN15QuickTestResult14clearTestTableEv@Base 5.0.2 1
 _ZN15QuickTestResult14dataTagChangedEv@Base 5.0.2 1
 _ZN15QuickTestResult14finishTestDataEv@Base 5.0.2 1
 _ZN15QuickTestResult14setProgramNameEPKc@Base 5.0.2 1
 _ZN15QuickTestResult14skippedChangedEv@Base 5.0.2 1
 _ZN15QuickTestResult14startBenchmarkENS_7RunModeERK7QString@Base 5.0.2 1
 _ZN15QuickTestResult15setFunctionNameERK7QString@Base 5.0.2 1
 _ZN15QuickTestResult15setTestCaseNameERK7QString@Base 5.0.2 1
 _ZN15QuickTestResult16startMeasurementEv@Base 5.0.2 1
 _ZN15QuickTestResult16staticMetaObjectE@Base 5.0.2 1
 _ZN15QuickTestResult16waitForRenderingEP10QQuickItemi@Base 5.0.2 1
 _ZN15QuickTestResult17setCurrentAppnameEPKc@Base 5.0.2 1
 _ZN15QuickTestResult18expectFailContinueERK7QStringS2_RK4QUrli@Base 5.0.2 1
 _ZN15QuickTestResult18finishTestFunctionEv@Base 5.0.2 1
 _ZN15QuickTestResult18programNameChangedEv@Base 5.0.2 1
 _ZN15QuickTestResult19functionNameChangedEv@Base 5.0.2 1
 _ZN15QuickTestResult19measurementAcceptedEv@Base 5.0.2 1
 _ZN15QuickTestResult19testCaseNameChangedEv@Base 5.0.2 1
 _ZN15QuickTestResult21finishTestDataCleanupEv@Base 5.0.2 1
 _ZN15QuickTestResult21needsMoreMeasurementsEv@Base 5.0.2 1
 _ZN15QuickTestResult4failERK7QStringRK4QUrli@Base 5.0.2 1
 _ZN15QuickTestResult4skipERK7QStringRK4QUrli@Base 5.0.2 1
 _ZN15QuickTestResult4waitEi@Base 5.0.2 1
 _ZN15QuickTestResult4warnERK7QStringRK4QUrli@Base 5.0.2 1
 _ZN15QuickTestResult5resetEv@Base 5.0.2 1
 _ZN15QuickTestResult5sleepEi@Base 5.0.2 1
 _ZN15QuickTestResult6verifyEbRK7QStringRK4QUrli@Base 5.0.2 1
 _ZN15QuickTestResult7compareEbRK7QStringRK8QVariantS5_RK4QUrli@Base 5.0.2 1
 _ZN15QuickTestResult8exitCodeEv@Base 5.0.2 1
 _ZN15QuickTestResult9findChildEP7QObjectRK7QString@Base 5.4.0 1
 _ZN15QuickTestResult9grabImageEP10QQuickItem@Base 5.0.2 1
 _ZN15QuickTestResult9parseArgsEiPPc@Base 5.0.2 1
 _ZN15QuickTestResult9stringifyEP14QQmlV4Function@Base 5.2.0~beta1 1
 _ZN15QuickTestResultC1EP7QObject@Base 5.0.2 1
 _ZN15QuickTestResultC2EP7QObject@Base 5.0.2 1
 _ZN15QuickTestResultD0Ev@Base 5.0.2 1
 _ZN15QuickTestResultD1Ev@Base 5.0.2 1
 _ZN15QuickTestResultD2Ev@Base 5.0.2 1
 _ZN20QuickTestImageObject11qt_metacallEN11QMetaObject4CallEiPPv@Base 5.0.2
 _ZN20QuickTestImageObject11qt_metacastEPKc@Base 5.0.2
 _ZN20QuickTestImageObject16staticMetaObjectE@Base 5.0.2
 _ZNK14QuickTestEvent10metaObjectEv@Base 5.0.2 1
 _ZNK15QuickTestResult10metaObjectEv@Base 5.0.2 1
 _ZNK15QuickTestResult12functionNameEv@Base 5.0.2 1
 _ZNK15QuickTestResult12testCaseNameEv@Base 5.0.2 1
 _ZNK15QuickTestResult14functionsToRunEv@Base 5.0.2 1
 _ZNK15QuickTestResult15isBenchmarkDoneEv@Base 5.0.2 1
 _ZNK15QuickTestResult7dataTagEv@Base 5.0.2 1
 _ZNK15QuickTestResult8isFailedEv@Base 5.0.2 1
 _ZNK15QuickTestResult9failCountEv@Base 5.0.2 1
 _ZNK15QuickTestResult9isSkippedEv@Base 5.0.2 1
 _ZNK15QuickTestResult9passCountEv@Base 5.0.2 1
 _ZNK15QuickTestResult9skipCountEv@Base 5.0.2 1
 _ZNK20QuickTestImageObject10metaObjectEv@Base 5.0.2
 _ZTI14QuickTestEvent@Base 5.0.2 1
 _ZTI15QuickTestResult@Base 5.0.2 1
 _ZTI20QuickTestImageObject@Base 5.0.2
 _ZTS14QuickTestEvent@Base 5.0.2 1
 _ZTS15QuickTestResult@Base 5.0.2 1
 _ZTS20QuickTestImageObject@Base 5.0.2
 _ZTV14QuickTestEvent@Base 5.0.2 1
 _ZTV15QuickTestResult@Base 5.0.2 1
 _ZTV20QuickTestImageObject@Base 5.0.2
