# SymbolsHelper-Confirmed: 5.4.1 amd64
libQt5Quick.so.5 libqt5quick5 #MINVER#
| libqt5quick5 #MINVER#, qtdeclarative-abi-5-4-1
 _Z23qsgnode_set_descriptionP7QSGNodeRK7QString@Base 5.4.0
 (arch=alpha arm64 armel hppa powerpc ppc64 ppc64el s390x sparc sparc64)_ZN10QByteArray7reserveEi@Base 5.3.1
 _ZN10QQuickItem10classBeginEv@Base 5.0.2
 _ZN10QQuickItem10itemChangeENS_10ItemChangeERKNS_14ItemChangeDataE@Base 5.0.2
 _ZN10QQuickItem10resetWidthEv@Base 5.0.2
 _ZN10QQuickItem10setEnabledEb@Base 5.0.2
 _ZN10QQuickItem10setOpacityEd@Base 5.2.0
 _ZN10QQuickItem10setVisibleEb@Base 5.0.2
 _ZN10QQuickItem10stackAfterEPKS_@Base 5.0.2
 _ZN10QQuickItem10touchEventEP11QTouchEvent@Base 5.0.2
 _ZN10QQuickItem10wheelEventEP11QWheelEvent@Base 5.0.2
 _ZN10QQuickItem11clipChangedEb@Base 5.0.2
 _ZN10QQuickItem11grabToImageERK5QSize@Base 5.4.0
 _ZN10QQuickItem11grabToImageERK8QJSValueRK5QSize@Base 5.4.0
 _ZN10QQuickItem11qt_metacallEN11QMetaObject4CallEiPPv@Base 5.0.2
 _ZN10QQuickItem11qt_metacastEPKc@Base 5.0.2
 _ZN10QQuickItem11resetHeightEv@Base 5.0.2
 _ZN10QQuickItem11setPositionERK7QPointF@Base 5.0.2
 _ZN10QQuickItem11setRotationEd@Base 5.2.0
 _ZN10QQuickItem11stackBeforeEPKS_@Base 5.0.2
 _ZN10QQuickItem11ungrabMouseEv@Base 5.0.2
 _ZN10QQuickItem11unsetCursorEv@Base 5.0.2
 _ZN10QQuickItem12childrenRectEv@Base 5.0.2
 _ZN10QQuickItem12focusChangedEb@Base 5.0.2
 _ZN10QQuickItem12focusInEventEP11QFocusEvent@Base 5.0.2
 _ZN10QQuickItem12scaleChangedEv@Base 5.0.2
 _ZN10QQuickItem12stateChangedERK7QString@Base 5.0.2
 _ZN10QQuickItem12updatePolishEv@Base 5.0.2
 _ZN10QQuickItem12widthChangedEv@Base 5.0.2
 _ZN10QQuickItem13dragMoveEventEP14QDragMoveEvent@Base 5.0.2
 _ZN10QQuickItem13focusOutEventEP11QFocusEvent@Base 5.0.2
 _ZN10QQuickItem13heightChangedEv@Base 5.0.2
 _ZN10QQuickItem13keyPressEventEP9QKeyEvent@Base 5.0.2
 _ZN10QQuickItem13parentChangedEPS_@Base 5.0.2
 _ZN10QQuickItem13setParentItemEPS_@Base 5.0.2
 _ZN10QQuickItem13smoothChangedEb@Base 5.0.2
 _ZN10QQuickItem13windowChangedEP12QQuickWindow@Base 5.1.0
 _ZN10QQuickItem14dragEnterEventEP15QDragEnterEvent@Base 5.0.2
 _ZN10QQuickItem14dragLeaveEventEP15QDragLeaveEvent@Base 5.0.2
 _ZN10QQuickItem14enabledChangedEv@Base 5.0.2
 _ZN10QQuickItem14hoverMoveEventEP11QHoverEvent@Base 5.0.2
 _ZN10QQuickItem14mouseMoveEventEP11QMouseEvent@Base 5.0.2
 _ZN10QQuickItem14opacityChangedEv@Base 5.0.2
 _ZN10QQuickItem14visibleChangedEv@Base 5.0.2
 _ZN10QQuickItem15childrenChangedEv@Base 5.0.2
 _ZN10QQuickItem15geometryChangedERK6QRectFS2_@Base 5.0.2
 _ZN10QQuickItem15grabTouchPointsERK7QVectorIiE@Base 5.0.2
 _ZN10QQuickItem15hoverEnterEventEP11QHoverEvent@Base 5.0.2
 _ZN10QQuickItem15hoverLeaveEventEP11QHoverEvent@Base 5.0.2
 _ZN10QQuickItem15keyReleaseEventEP9QKeyEvent@Base 5.0.2
 _ZN10QQuickItem15mousePressEventEP11QMouseEvent@Base 5.0.2
 _ZN10QQuickItem15rotationChangedEv@Base 5.0.2
 _ZN10QQuickItem15setAntialiasingEb@Base 5.0.2
 _ZN10QQuickItem15setImplicitSizeEdd@Base 5.2.0
 _ZN10QQuickItem15updatePaintNodeEP7QSGNodePNS_19UpdatePaintNodeDataE@Base 5.0.2
 _ZN10QQuickItem16forceActiveFocusEN2Qt11FocusReasonE@Base 5.1.0
 _ZN10QQuickItem16forceActiveFocusEv@Base 5.0.2
 _ZN10QQuickItem16inputMethodEventEP17QInputMethodEvent@Base 5.0.2
 _ZN10QQuickItem16mouseUngrabEventEv@Base 5.0.2
 _ZN10QQuickItem16releaseResourcesEv@Base 5.0.2
 _ZN10QQuickItem16setImplicitWidthEd@Base 5.2.0
 _ZN10QQuickItem16setKeepMouseGrabEb@Base 5.0.2
 _ZN10QQuickItem16setKeepTouchGrabEb@Base 5.0.2
 _ZN10QQuickItem16staticMetaObjectE@Base 5.0.2
 _ZN10QQuickItem16touchUngrabEventEv@Base 5.0.2
 _ZN10QQuickItem17componentCompleteEv@Base 5.0.2
 _ZN10QQuickItem17mouseReleaseEventEP11QMouseEvent@Base 5.0.2
 _ZN10QQuickItem17resetAntialiasingEv@Base 5.3.0
 _ZN10QQuickItem17setBaselineOffsetEd@Base 5.2.0
 _ZN10QQuickItem17setImplicitHeightEd@Base 5.2.0
 _ZN10QQuickItem17ungrabTouchPointsEv@Base 5.0.2
 _ZN10QQuickItem17updateInputMethodE6QFlagsIN2Qt16InputMethodQueryEE@Base 5.0.2
 _ZN10QQuickItem18activeFocusChangedEb@Base 5.0.2
 _ZN10QQuickItem18setTransformOriginENS_15TransformOriginE@Base 5.0.2
 _ZN10QQuickItem19UpdatePaintNodeDataC1Ev@Base 5.0.2
 _ZN10QQuickItem19UpdatePaintNodeDataC2Ev@Base 5.0.2
 _ZN10QQuickItem19antialiasingChangedEb@Base 5.0.2
 _ZN10QQuickItem19childrenRectChangedERK6QRectF@Base 5.0.2
 _ZN10QQuickItem19setActiveFocusOnTabEb@Base 5.1.0
 _ZN10QQuickItem20implicitWidthChangedEv@Base 5.0.2
 _ZN10QQuickItem20nextItemInFocusChainEb@Base 5.1.0
 _ZN10QQuickItem20setAcceptHoverEventsEb@Base 5.0.2
 _ZN10QQuickItem21baselineOffsetChangedEd@Base 5.2.0
 _ZN10QQuickItem21childMouseEventFilterEPS_P6QEvent@Base 5.0.2
 _ZN10QQuickItem21implicitHeightChangedEv@Base 5.0.2
 _ZN10QQuickItem21mouseDoubleClickEventEP11QMouseEvent@Base 5.0.2
 _ZN10QQuickItem21windowDeactivateEventEv@Base 5.0.2
 _ZN10QQuickItem22transformOriginChangedENS_15TransformOriginE@Base 5.0.2
 _ZN10QQuickItem22visibleChildrenChangedEv@Base 5.0.2
 _ZN10QQuickItem23activeFocusOnTabChangedEb@Base 5.1.0
 _ZN10QQuickItem23setAcceptedMouseButtonsE6QFlagsIN2Qt11MouseButtonEE@Base 5.0.2
 _ZN10QQuickItem23setTransformOriginPointERK7QPointF@Base 5.0.2
 _ZN10QQuickItem26setFiltersChildMouseEventsEb@Base 5.0.2
 _ZN10QQuickItem4setXEd@Base 5.2.0
 _ZN10QQuickItem4setYEd@Base 5.2.0
 _ZN10QQuickItem4setZEd@Base 5.2.0
 _ZN10QQuickItem5eventEP6QEvent@Base 5.0.2
 _ZN10QQuickItem6polishEv@Base 5.0.2
 _ZN10QQuickItem6updateEv@Base 5.0.2
 _ZN10QQuickItem7setClipEb@Base 5.0.2
 _ZN10QQuickItem7setFlagENS_4FlagEb@Base 5.0.2
 _ZN10QQuickItem7setSizeERK6QSizeF@Base 5.0.2
 _ZN10QQuickItem8setFlagsE6QFlagsINS_4FlagEE@Base 5.0.2
 _ZN10QQuickItem8setFocusEb@Base 5.0.2
 _ZN10QQuickItem8setFocusEbN2Qt11FocusReasonE@Base 5.1.0
 _ZN10QQuickItem8setScaleEd@Base 5.2.0
 _ZN10QQuickItem8setStateERK7QString@Base 5.0.2
 _ZN10QQuickItem8setWidthEd@Base 5.2.0
 _ZN10QQuickItem8xChangedEv@Base 5.0.2
 _ZN10QQuickItem8yChangedEv@Base 5.0.2
 _ZN10QQuickItem8zChangedEv@Base 5.0.2
 _ZN10QQuickItem9dropEventEP10QDropEvent@Base 5.0.2
 _ZN10QQuickItem9grabMouseEv@Base 5.0.2
 _ZN10QQuickItem9setCursorERK7QCursor@Base 5.0.2
 _ZN10QQuickItem9setHeightEd@Base 5.2.0
 _ZN10QQuickItem9setSmoothEb@Base 5.0.2
 _ZN10QQuickItem9transformEv@Base 5.0.2
 _ZN10QQuickItemC1EPS_@Base 5.0.2
 _ZN10QQuickItemC1ER17QQuickItemPrivatePS_@Base 5.0.2 1
 _ZN10QQuickItemC2EPS_@Base 5.0.2
 _ZN10QQuickItemC2ER17QQuickItemPrivatePS_@Base 5.0.2 1
 _ZN10QQuickItemD0Ev@Base 5.0.2
 _ZN10QQuickItemD1Ev@Base 5.0.2
 _ZN10QQuickItemD2Ev@Base 5.0.2
 _ZN10QQuickText10itemChangeEN10QQuickItem10ItemChangeERKNS0_14ItemChangeDataE@Base 5.3.0 1
 _ZN10QQuickText10setBaseUrlERK4QUrl@Base 5.0.2 1
 _ZN10QQuickText11fontChangedERK5QFont@Base 5.0.2 1
 _ZN10QQuickText11lineLaidOutEP14QQuickTextLine@Base 5.0.2 1
 _ZN10QQuickText11linkHoveredERK7QString@Base 5.2.0~beta1 1
 _ZN10QQuickText11qt_metacallEN11QMetaObject4CallEiPPv@Base 5.0.2 1
 _ZN10QQuickText11qt_metacastEPKc@Base 5.0.2 1
 _ZN10QQuickText11resetHAlignEv@Base 5.0.2 1
 _ZN10QQuickText11setWrapModeENS_8WrapModeE@Base 5.0.2 1
 _ZN10QQuickText11textChangedERK7QString@Base 5.0.2 1
 _ZN10QQuickText12colorChangedEv@Base 5.0.2 1
 _ZN10QQuickText12resetBaseUrlEv@Base 5.0.2 1
 _ZN10QQuickText12setElideModeENS_13TextElideModeE@Base 5.0.2 1
 _ZN10QQuickText12setLinkColorERK6QColor@Base 5.0.2 1
 _ZN10QQuickText12styleChangedENS_9TextStyleE@Base 5.0.2 1
 _ZN10QQuickText12updatePolishEv@Base 5.0.2 1
 _ZN10QQuickText13linkActivatedERK7QString@Base 5.0.2 1
 _ZN10QQuickText13setLineHeightEd@Base 5.2.0 1
 _ZN10QQuickText13setRenderTypeENS_10RenderTypeE@Base 5.0.2 1
 _ZN10QQuickText13setStyleColorERK6QColor@Base 5.0.2 1
 _ZN10QQuickText13setTextFormatENS_10TextFormatE@Base 5.0.2 1
 _ZN10QQuickText14baseUrlChangedEv@Base 5.0.2 1
 _ZN10QQuickText14hoverMoveEventEP11QHoverEvent@Base 5.2.0~beta1 1
 _ZN10QQuickText14q_imagesLoadedEv@Base 5.0.2 1
 _ZN10QQuickText15geometryChangedERK6QRectFS2_@Base 5.0.2 1
 _ZN10QQuickText15hoverEnterEventEP11QHoverEvent@Base 5.2.0~beta1 1
 _ZN10QQuickText15hoverLeaveEventEP11QHoverEvent@Base 5.2.0~beta1 1
 _ZN10QQuickText15mousePressEventEP11QMouseEvent@Base 5.0.2 1
 _ZN10QQuickText15setFontSizeModeENS_12FontSizeModeE@Base 5.0.2 1
 _ZN10QQuickText15updatePaintNodeEP7QSGNodePN10QQuickItem19UpdatePaintNodeDataE@Base 5.0.2 1
 _ZN10QQuickText15wrapModeChangedEv@Base 5.0.2 1
 _ZN10QQuickText16elideModeChangedENS_13TextElideModeE@Base 5.0.2 1
 _ZN10QQuickText16lineCountChangedEv@Base 5.0.2 1
 _ZN10QQuickText16linkColorChangedEv@Base 5.0.2 1
 _ZN10QQuickText16staticMetaObjectE@Base 5.0.2 1
 _ZN10QQuickText16truncatedChangedEv@Base 5.0.2 1
 _ZN10QQuickText17componentCompleteEv@Base 5.0.2 1
 _ZN10QQuickText17lineHeightChangedEd@Base 5.2.0 1
 _ZN10QQuickText17mouseReleaseEventEP11QMouseEvent@Base 5.0.2 1
 _ZN10QQuickText17renderTypeChangedEv@Base 5.0.2 1
 _ZN10QQuickText17setLineHeightModeENS_14LineHeightModeE@Base 5.0.2 1
 _ZN10QQuickText17styleColorChangedEv@Base 5.0.2 1
 _ZN10QQuickText17textFormatChangedENS_10TextFormatE@Base 5.0.2 1
 _ZN10QQuickText17triggerPreprocessEv@Base 5.0.2 1
 _ZN10QQuickText18contentSizeChangedEv@Base 5.0.2 1
 _ZN10QQuickText19fontSizeModeChangedEv@Base 5.0.2 1
 _ZN10QQuickText19setMaximumLineCountEi@Base 5.0.2 1
 _ZN10QQuickText19setMinimumPixelSizeEi@Base 5.0.2 1
 _ZN10QQuickText19setMinimumPointSizeEi@Base 5.0.2 1
 _ZN10QQuickText20invalidateFontCachesEv@Base 5.4.0 1
 _ZN10QQuickText21imageDownloadFinishedEv@Base 5.0.2 1
 _ZN10QQuickText21lineHeightModeChangedENS_14LineHeightModeE@Base 5.0.2 1
 _ZN10QQuickText21resetMaximumLineCountEv@Base 5.0.2 1
 _ZN10QQuickText23maximumLineCountChangedEv@Base 5.0.2 1
 _ZN10QQuickText23minimumPixelSizeChangedEv@Base 5.0.2 1
 _ZN10QQuickText23minimumPointSizeChangedEv@Base 5.0.2 1
 _ZN10QQuickText24verticalAlignmentChangedENS_10VAlignmentE@Base 5.0.2 1
 _ZN10QQuickText26horizontalAlignmentChangedENS_10HAlignmentE@Base 5.0.2 1
 _ZN10QQuickText35effectiveHorizontalAlignmentChangedEv@Base 5.0.2 1
 _ZN10QQuickText7setFontERK5QFont@Base 5.0.2 1
 _ZN10QQuickText7setTextERK7QString@Base 5.0.2 1
 _ZN10QQuickText8doLayoutEv@Base 5.0.2 1
 _ZN10QQuickText8setColorERK6QColor@Base 5.0.2 1
 _ZN10QQuickText8setStyleENS_9TextStyleE@Base 5.0.2 1
 _ZN10QQuickText9setHAlignENS_10HAlignmentE@Base 5.0.2 1
 _ZN10QQuickText9setVAlignENS_10VAlignmentE@Base 5.0.2 1
 _ZN10QQuickTextC1EP10QQuickItem@Base 5.0.2 1
 _ZN10QQuickTextC2EP10QQuickItem@Base 5.0.2 1
 _ZN10QQuickTextD0Ev@Base 5.0.2 1
 _ZN10QQuickTextD1Ev@Base 5.0.2 1
 _ZN10QQuickTextD2Ev@Base 5.0.2 1
 _ZN10QQuickView10setContentERK4QUrlP13QQmlComponentP7QObject@Base 5.0.2
 _ZN10QQuickView10timerEventEP11QTimerEvent@Base 5.0.2
 _ZN10QQuickView11qt_metacallEN11QMetaObject4CallEiPPv@Base 5.0.2
 _ZN10QQuickView11qt_metacastEPKc@Base 5.0.2
 _ZN10QQuickView11resizeEventEP12QResizeEvent@Base 5.0.2
 _ZN10QQuickView13keyPressEventEP9QKeyEvent@Base 5.0.2
 _ZN10QQuickView13setResizeModeENS_10ResizeModeE@Base 5.0.2
 _ZN10QQuickView13statusChangedENS_6StatusE@Base 5.0.2
 _ZN10QQuickView14mouseMoveEventEP11QMouseEvent@Base 5.0.2
 _ZN10QQuickView15continueExecuteEv@Base 5.0.2
 _ZN10QQuickView15keyReleaseEventEP9QKeyEvent@Base 5.0.2
 _ZN10QQuickView15mousePressEventEP11QMouseEvent@Base 5.0.2
 _ZN10QQuickView16staticMetaObjectE@Base 5.0.2
 _ZN10QQuickView17mouseReleaseEventEP11QMouseEvent@Base 5.0.2
 _ZN10QQuickView9setSourceERK4QUrl@Base 5.0.2
 _ZN10QQuickViewC1EP10QQmlEngineP7QWindow@Base 5.0.2
 _ZN10QQuickViewC1EP7QWindow@Base 5.0.2
 _ZN10QQuickViewC1ERK4QUrlP7QWindow@Base 5.0.2
 _ZN10QQuickViewC2EP10QQmlEngineP7QWindow@Base 5.0.2
 _ZN10QQuickViewC2EP7QWindow@Base 5.0.2
 _ZN10QQuickViewC2ERK4QUrlP7QWindow@Base 5.0.2
 _ZN10QQuickViewD0Ev@Base 5.0.2
 _ZN10QQuickViewD1Ev@Base 5.0.2
 _ZN10QQuickViewD2Ev@Base 5.0.2
 _ZN10QSGContext11createLayerEP16QSGRenderContext@Base 5.4.0 1
 _ZN10QSGContext11qt_metacallEN11QMetaObject4CallEiPPv@Base 5.0.2 1
 _ZN10QSGContext11qt_metacastEPKc@Base 5.0.2 1
 _ZN10QSGContext15createGlyphNodeEP16QSGRenderContextb@Base 5.3.0 1
 _ZN10QSGContext15createImageNodeEv@Base 5.0.2 1
 _ZN10QSGContext16staticMetaObjectE@Base 5.0.2 1
 _ZN10QSGContext17createPainterNodeEP17QQuickPaintedItem@Base 5.4.0 1
 _ZN10QSGContext19createNinePatchNodeEv@Base 5.4.0 1
 _ZN10QSGContext19createRectangleNodeERK6QRectFRK6QColor@Base 5.4.0 1
 _ZN10QSGContext19createRectangleNodeEv@Base 5.0.2 1
 _ZN10QSGContext19createRenderContextEv@Base 5.3.0 1
 _ZN10QSGContext19createWindowManagerEv@Base 5.0.2 1
 _ZN10QSGContext20createDefaultContextEv@Base 5.0.2 1
 _ZN10QSGContext21createAnimationDriverEP7QObject@Base 5.0.2 1
 _ZN10QSGContext23setDistanceFieldEnabledEb@Base 5.0.2 1
 _ZN10QSGContext24renderContextInitializedEP16QSGRenderContext@Base 5.2.0~rc1 1
 _ZN10QSGContext24renderContextInvalidatedEP16QSGRenderContext@Base 5.2.0~rc1 1
 _ZN10QSGContext29createTextureFactoryFromImageERK6QImage@Base 5.0.2 1
 _ZN10QSGContextC1EP7QObject@Base 5.0.2 1
 _ZN10QSGContextC2EP7QObject@Base 5.0.2 1
 _ZN10QSGContextD0Ev@Base 5.0.2 1
 _ZN10QSGContextD1Ev@Base 5.0.2 1
 _ZN10QSGContextD2Ev@Base 5.0.2 1
 _ZN10QSGTexture11qt_metacallEN11QMetaObject4CallEiPPv@Base 5.0.2
 _ZN10QSGTexture11qt_metacastEPKc@Base 5.0.2
 _ZN10QSGTexture12setFilteringENS_9FilteringE@Base 5.0.2
 _ZN10QSGTexture16staticMetaObjectE@Base 5.0.2
 _ZN10QSGTexture17updateBindOptionsEb@Base 5.0.2
 _ZN10QSGTexture18setMipmapFilteringENS_9FilteringE@Base 5.0.2
 _ZN10QSGTexture19setVerticalWrapModeENS_8WrapModeE@Base 5.0.2
 _ZN10QSGTexture21setHorizontalWrapModeENS_8WrapModeE@Base 5.0.2
 _ZN10QSGTextureC1Ev@Base 5.0.2
 _ZN10QSGTextureC2Ev@Base 5.0.2
 _ZN10QSGTextureD0Ev@Base 5.0.2
 _ZN10QSGTextureD1Ev@Base 5.0.2
 _ZN10QSGTextureD2Ev@Base 5.0.2
 _ZN11QQuickState10setExtendsERK7QString@Base 5.0.2 1
 _ZN11QQuickState11qt_metacallEN11QMetaObject4CallEiPPv@Base 5.0.2 1
 _ZN11QQuickState11qt_metacastEPKc@Base 5.0.2 1
 _ZN11QQuickState13setStateGroupEP16QQuickStateGroup@Base 5.0.2 1
 _ZN11QQuickState16staticMetaObjectE@Base 5.0.2 1
 _ZN11QQuickState20addEntryToRevertListERK17QQuickStateAction@Base 5.2.0~beta1 1
 _ZN11QQuickState22addEntriesToRevertListERK5QListI17QQuickStateActionE@Base 5.2.0~beta1 1
 _ZN11QQuickState23changeValueInRevertListEP7QObjectRK7QStringRK8QVariant@Base 5.0.2 1
 _ZN11QQuickState25changeBindingInRevertListEP7QObjectRK7QStringP19QQmlAbstractBinding@Base 5.0.2 1
 _ZN11QQuickState25removeEntryFromRevertListEP7QObjectRK7QString@Base 5.0.2 1
 _ZN11QQuickState30removeAllEntriesFromRevertListEP7QObject@Base 5.0.2 1
 _ZN11QQuickState5applyEP16QQuickTransitionPS_@Base 5.0.2 1
 _ZN11QQuickState6cancelEv@Base 5.0.2 1
 _ZN11QQuickState7changesEv@Base 5.0.2 1
 _ZN11QQuickState7setNameERK7QString@Base 5.0.2 1
 _ZN11QQuickState7setWhenEP11QQmlBinding@Base 5.0.2 1
 _ZN11QQuickState9completedEv@Base 5.0.2 1
 _ZN11QQuickStateC1EP7QObject@Base 5.0.2 1
 _ZN11QQuickStateC2EP7QObject@Base 5.0.2 1
 _ZN11QQuickStateD0Ev@Base 5.0.2 1
 _ZN11QQuickStateD1Ev@Base 5.0.2 1
 _ZN11QQuickStateD2Ev@Base 5.0.2 1
 _ZN11QQuickStatelsEP20QQuickStateOperation@Base 5.0.2 1
 _ZN11QSGClipNode11setClipRectERK6QRectF@Base 5.0.2
 _ZN11QSGClipNode16setIsRectangularEb@Base 5.0.2
 _ZN11QSGClipNodeC1Ev@Base 5.0.2
 _ZN11QSGClipNodeC2Ev@Base 5.0.2
 _ZN11QSGClipNodeD0Ev@Base 5.0.2
 _ZN11QSGClipNodeD1Ev@Base 5.0.2
 _ZN11QSGClipNodeD2Ev@Base 5.0.2
 _ZN11QSGGeometry12setLineWidthEf@Base 5.0.2
 _ZN11QSGGeometry14setDrawingModeEj@Base 5.0.2
 _ZN11QSGGeometry18markIndexDataDirtyEv@Base 5.0.2
 _ZN11QSGGeometry18updateRectGeometryEPS_RK6QRectF@Base 5.0.2
 _ZN11QSGGeometry19markVertexDataDirtyEv@Base 5.0.2
 _ZN11QSGGeometry19setIndexDataPatternENS_11DataPatternE@Base 5.0.2
 _ZN11QSGGeometry20setVertexDataPatternENS_11DataPatternE@Base 5.0.2
 _ZN11QSGGeometry25defaultAttributes_Point2DEv@Base 5.0.2
 _ZN11QSGGeometry26updateTexturedRectGeometryEPS_RK6QRectFS3_@Base 5.0.2
 _ZN11QSGGeometry32defaultAttributes_ColoredPoint2DEv@Base 5.0.2
 _ZN11QSGGeometry33defaultAttributes_TexturedPoint2DEv@Base 5.0.2
 _ZN11QSGGeometry8allocateEii@Base 5.0.2
 _ZN11QSGGeometry9Attribute6createEiiib@Base 5.0.2
 _ZN11QSGGeometry9indexDataEv@Base 5.0.2
 _ZN11QSGGeometryC1ERKNS_12AttributeSetEiii@Base 5.0.2
 _ZN11QSGGeometryC2ERKNS_12AttributeSetEiii@Base 5.0.2
 _ZN11QSGGeometryD0Ev@Base 5.0.2
 _ZN11QSGGeometryD1Ev@Base 5.0.2
 _ZN11QSGGeometryD2Ev@Base 5.0.2
 _ZN11QSGMaterial7setFlagE6QFlagsINS_4FlagEEb@Base 5.0.2
 _ZN11QSGMaterialC1Ev@Base 5.0.2
 _ZN11QSGMaterialC2Ev@Base 5.0.2
 _ZN11QSGMaterialD0Ev@Base 5.0.2
 _ZN11QSGMaterialD1Ev@Base 5.0.2
 _ZN11QSGMaterialD2Ev@Base 5.0.2
 _ZN11QSGRenderer10preprocessEv@Base 5.0.2 1
 _ZN11QSGRenderer11nodeChangedEP7QSGNode6QFlagsINS0_13DirtyStateBitEE@Base 5.0.2 1
 _ZN11QSGRenderer11renderSceneERK11QSGBindable@Base 5.0.2 1
 _ZN11QSGRenderer11renderSceneEj@Base 5.4.0 1
 _ZN11QSGRenderer14setNodeUpdaterEP14QSGNodeUpdater@Base 5.0.2 1
 _ZN11QSGRenderer20addNodesToPreprocessEP7QSGNode@Base 5.0.2 1
 _ZN11QSGRenderer23removeNodesToPreprocessEP7QSGNode@Base 5.0.2 1
 _ZN11QSGRendererC1EP16QSGRenderContext@Base 5.2.0~rc1 1
 _ZN11QSGRendererC2EP16QSGRenderContext@Base 5.2.0~rc1 1
 _ZN11QSGRendererD0Ev@Base 5.0.2 1
 _ZN11QSGRendererD1Ev@Base 5.0.2 1
 _ZN11QSGRendererD2Ev@Base 5.0.2 1
 _ZN11QSGRootNode16notifyNodeChangeEP7QSGNode6QFlagsINS0_13DirtyStateBitEE@Base 5.0.2
 _ZN11QSGRootNodeC1Ev@Base 5.0.2
 _ZN11QSGRootNodeC2Ev@Base 5.0.2
 _ZN11QSGRootNodeD0Ev@Base 5.0.2
 _ZN11QSGRootNodeD1Ev@Base 5.0.2
 _ZN11QSGRootNodeD2Ev@Base 5.0.2
 _ZN12QQuickPixmap10purgeCacheEv@Base 5.0.2 1
 _ZN12QQuickPixmap15connectFinishedEP7QObjectPKc@Base 5.0.2 1
 _ZN12QQuickPixmap15connectFinishedEP7QObjecti@Base 5.0.2 1
 _ZN12QQuickPixmap23connectDownloadProgressEP7QObjectPKc@Base 5.0.2 1
 _ZN12QQuickPixmap23connectDownloadProgressEP7QObjecti@Base 5.0.2 1
 _ZN12QQuickPixmap4loadEP10QQmlEngineRK4QUrl6QFlagsINS_6OptionEE@Base 5.0.2 1
 _ZN12QQuickPixmap4loadEP10QQmlEngineRK4QUrl@Base 5.0.2 1
 _ZN12QQuickPixmap4loadEP10QQmlEngineRK4QUrlRK5QSize6QFlagsINS_6OptionEE@Base 5.0.2 1
 _ZN12QQuickPixmap4loadEP10QQmlEngineRK4QUrlRK5QSize@Base 5.0.2 1
 _ZN12QQuickPixmap5clearEP7QObject@Base 5.0.2 1
 _ZN12QQuickPixmap5clearEv@Base 5.0.2 1
 _ZN12QQuickPixmap8isCachedERK4QUrlRK5QSize@Base 5.4.0 1
 _ZN12QQuickPixmap8setImageERK6QImage@Base 5.0.2 1
 _ZN12QQuickPixmap9setPixmapERKS_@Base 5.4.0 1
 _ZN12QQuickPixmapC1EP10QQmlEngineRK4QUrl@Base 5.0.2 1
 _ZN12QQuickPixmapC1EP10QQmlEngineRK4QUrlRK5QSize@Base 5.0.2 1
 _ZN12QQuickPixmapC1ERK4QUrlRK6QImage@Base 5.4.0 1
 _ZN12QQuickPixmapC1Ev@Base 5.0.2 1
 _ZN12QQuickPixmapC2EP10QQmlEngineRK4QUrl@Base 5.0.2 1
 _ZN12QQuickPixmapC2EP10QQmlEngineRK4QUrlRK5QSize@Base 5.0.2 1
 _ZN12QQuickPixmapC2ERK4QUrlRK6QImage@Base 5.4.0 1
 _ZN12QQuickPixmapC2Ev@Base 5.0.2 1
 _ZN12QQuickPixmapD1Ev@Base 5.0.2 1
 _ZN12QQuickPixmapD2Ev@Base 5.0.2 1
 _ZN12QQuickWindow10grabWindowEv@Base 5.0.2
 _ZN12QQuickWindow10wheelEventEP11QWheelEvent@Base 5.0.2
 _ZN12QQuickWindow11exposeEventEP12QExposeEvent@Base 5.0.2
 _ZN12QQuickWindow11forcePolishEv@Base 5.2.0~beta1
 _ZN12QQuickWindow11maybeUpdateEv@Base 5.0.2
 _ZN12QQuickWindow11qt_metacallEN11QMetaObject4CallEiPPv@Base 5.0.2
 _ZN12QQuickWindow11qt_metacastEPKc@Base 5.0.2
 _ZN12QQuickWindow11resizeEventEP12QResizeEvent@Base 5.0.2
 _ZN12QQuickWindow12colorChangedERK6QColor@Base 5.0.2
 _ZN12QQuickWindow12focusInEventEP11QFocusEvent@Base 5.0.2
 _ZN12QQuickWindow12frameSwappedEv@Base 5.0.2
 _ZN12QQuickWindow13focusOutEventEP11QFocusEvent@Base 5.0.2
 _ZN12QQuickWindow13keyPressEventEP9QKeyEvent@Base 5.0.2
 _ZN12QQuickWindow14afterAnimatingEv@Base 5.3.0
 _ZN12QQuickWindow14afterRenderingEv@Base 5.0.2
 _ZN12QQuickWindow14mouseMoveEventEP11QMouseEvent@Base 5.0.2
 _ZN12QQuickWindow15beforeRenderingEv@Base 5.0.2
 _ZN12QQuickWindow15keyReleaseEventEP9QKeyEvent@Base 5.0.2
 _ZN12QQuickWindow15mousePressEventEP11QMouseEvent@Base 5.0.2
 _ZN12QQuickWindow15sceneGraphErrorENS_15SceneGraphErrorERK7QString@Base 5.3.0
 _ZN12QQuickWindow15setRenderTargetEP24QOpenGLFramebufferObject@Base 5.0.2
 _ZN12QQuickWindow15setRenderTargetEjRK5QSize@Base 5.0.2
 _ZN12QQuickWindow16releaseResourcesEv@Base 5.0.2
 _ZN12QQuickWindow16resetOpenGLStateEv@Base 5.2.0~beta1
 _ZN12QQuickWindow16runJobsAfterSwapEv@Base 5.4.0
 _ZN12QQuickWindow16staticMetaObjectE@Base 5.0.2
 _ZN12QQuickWindow17cleanupSceneGraphEv@Base 5.0.2
 _ZN12QQuickWindow17mouseReleaseEventEP11QMouseEvent@Base 5.0.2
 _ZN12QQuickWindow17scheduleRenderJobEP9QRunnableNS_11RenderStageE@Base 5.4.0
 _ZN12QQuickWindow18afterSynchronizingEv@Base 5.3.0
 _ZN12QQuickWindow19beforeSynchronizingEv@Base 5.0.2
 _ZN12QQuickWindow20openglContextCreatedEP14QOpenGLContext@Base 5.3.0
 _ZN12QQuickWindow21hasDefaultAlphaBufferEv@Base 5.1.0
 _ZN12QQuickWindow21mouseDoubleClickEventEP11QMouseEvent@Base 5.0.2
 _ZN12QQuickWindow21sceneGraphAboutToStopEv@Base 5.3.0
 _ZN12QQuickWindow21sceneGraphInitializedEv@Base 5.0.2
 _ZN12QQuickWindow21sceneGraphInvalidatedEv@Base 5.0.2
 _ZN12QQuickWindow21setDefaultAlphaBufferEb@Base 5.1.0
 _ZN12QQuickWindow22activeFocusItemChangedEv@Base 5.1.0
 _ZN12QQuickWindow23setClearBeforeRenderingEb@Base 5.0.2
 _ZN12QQuickWindow23setPersistentSceneGraphEb@Base 5.0.2
 _ZN12QQuickWindow25setTransientParent_helperEPS_@Base 5.1.0
 _ZN12QQuickWindow26setPersistentOpenGLContextEb@Base 5.0.2
 _ZN12QQuickWindow5eventEP6QEvent@Base 5.0.2
 _ZN12QQuickWindow6updateEv@Base 5.0.2
 _ZN12QQuickWindow7closingEP16QQuickCloseEvent@Base 5.1.0 1
 _ZN12QQuickWindow8setColorERK6QColor@Base 5.0.2
 _ZN12QQuickWindow9hideEventEP10QHideEvent@Base 5.0.2
 _ZN12QQuickWindow9sendEventEP10QQuickItemP6QEvent@Base 5.0.2
 _ZN12QQuickWindow9showEventEP10QShowEvent@Base 5.0.2
 _ZN12QQuickWindowC1EP19QQuickRenderControl@Base 5.3.0
 _ZN12QQuickWindowC1EP7QWindow@Base 5.0.2
 _ZN12QQuickWindowC1ER19QQuickWindowPrivateP7QWindow@Base 5.0.2 1
 _ZN12QQuickWindowC2EP19QQuickRenderControl@Base 5.3.0
 _ZN12QQuickWindowC2EP7QWindow@Base 5.0.2
 _ZN12QQuickWindowC2ER19QQuickWindowPrivateP7QWindow@Base 5.0.2 1
 _ZN12QQuickWindowD0Ev@Base 5.0.2
 _ZN12QQuickWindowD1Ev@Base 5.0.2
 _ZN12QQuickWindowD2Ev@Base 5.0.2
 _ZN13QQuickAnchors10classBeginEv@Base 5.0.2 1
 _ZN13QQuickAnchors10resetRightEv@Base 5.0.2 1
 _ZN13QQuickAnchors10setMarginsEd@Base 5.2.0 1
 _ZN13QQuickAnchors10topChangedEv@Base 5.0.2 1
 _ZN13QQuickAnchors11fillChangedEv@Base 5.0.2 1
 _ZN13QQuickAnchors11leftChangedEv@Base 5.0.2 1
 _ZN13QQuickAnchors11qt_metacallEN11QMetaObject4CallEiPPv@Base 5.0.2 1
 _ZN13QQuickAnchors11qt_metacastEPKc@Base 5.0.2 1
 _ZN13QQuickAnchors11resetBottomEv@Base 5.0.2 1
 _ZN13QQuickAnchors11setBaselineERK16QQuickAnchorLine@Base 5.0.2 1
 _ZN13QQuickAnchors11setCenterInEP10QQuickItem@Base 5.0.2 1
 _ZN13QQuickAnchors12rightChangedEv@Base 5.0.2 1
 _ZN13QQuickAnchors12setTopMarginEd@Base 5.2.0 1
 _ZN13QQuickAnchors13bottomChangedEv@Base 5.0.2 1
 _ZN13QQuickAnchors13resetBaselineEv@Base 5.0.2 1
 _ZN13QQuickAnchors13resetCenterInEv@Base 5.0.2 1
 _ZN13QQuickAnchors13setLeftMarginEd@Base 5.2.0 1
 _ZN13QQuickAnchors14marginsChangedEv@Base 5.0.2 1
 _ZN13QQuickAnchors14resetTopMarginEv@Base 5.0.2 1
 _ZN13QQuickAnchors14setRightMarginEd@Base 5.2.0 1
 _ZN13QQuickAnchors15baselineChangedEv@Base 5.0.2 1
 _ZN13QQuickAnchors15centerInChangedEv@Base 5.0.2 1
 _ZN13QQuickAnchors15resetLeftMarginEv@Base 5.0.2 1
 _ZN13QQuickAnchors15setBottomMarginEd@Base 5.2.0 1
 _ZN13QQuickAnchors16resetRightMarginEv@Base 5.0.2 1
 _ZN13QQuickAnchors16staticMetaObjectE@Base 5.0.2 1
 _ZN13QQuickAnchors16topMarginChangedEv@Base 5.0.2 1
 _ZN13QQuickAnchors17componentCompleteEv@Base 5.0.2 1
 _ZN13QQuickAnchors17leftMarginChangedEv@Base 5.0.2 1
 _ZN13QQuickAnchors17resetBottomMarginEv@Base 5.0.2 1
 _ZN13QQuickAnchors17setBaselineOffsetEd@Base 5.2.0 1
 _ZN13QQuickAnchors17setVerticalCenterERK16QQuickAnchorLine@Base 5.0.2 1
 _ZN13QQuickAnchors18rightMarginChangedEv@Base 5.0.2 1
 _ZN13QQuickAnchors19bottomMarginChangedEv@Base 5.0.2 1
 _ZN13QQuickAnchors19resetVerticalCenterEv@Base 5.0.2 1
 _ZN13QQuickAnchors19setHorizontalCenterERK16QQuickAnchorLine@Base 5.0.2 1
 _ZN13QQuickAnchors20centerAlignedChangedEv@Base 5.0.2 1
 _ZN13QQuickAnchors20setAlignWhenCenteredEb@Base 5.0.2 1
 _ZN13QQuickAnchors21baselineOffsetChangedEv@Base 5.0.2 1
 _ZN13QQuickAnchors21resetHorizontalCenterEv@Base 5.0.2 1
 _ZN13QQuickAnchors21verticalCenterChangedEv@Base 5.0.2 1
 _ZN13QQuickAnchors23horizontalCenterChangedEv@Base 5.0.2 1
 _ZN13QQuickAnchors23setVerticalCenterOffsetEd@Base 5.2.0 1
 _ZN13QQuickAnchors25setHorizontalCenterOffsetEd@Base 5.2.0 1
 _ZN13QQuickAnchors27verticalCenterOffsetChangedEv@Base 5.0.2 1
 _ZN13QQuickAnchors29horizontalCenterOffsetChangedEv@Base 5.0.2 1
 _ZN13QQuickAnchors6setTopERK16QQuickAnchorLine@Base 5.0.2 1
 _ZN13QQuickAnchors7setFillEP10QQuickItem@Base 5.0.2 1
 _ZN13QQuickAnchors7setLeftERK16QQuickAnchorLine@Base 5.0.2 1
 _ZN13QQuickAnchors8mirroredEv@Base 5.0.2 1
 _ZN13QQuickAnchors8resetTopEv@Base 5.0.2 1
 _ZN13QQuickAnchors8setRightERK16QQuickAnchorLine@Base 5.0.2 1
 _ZN13QQuickAnchors9resetFillEv@Base 5.0.2 1
 _ZN13QQuickAnchors9resetLeftEv@Base 5.0.2 1
 _ZN13QQuickAnchors9setBottomERK16QQuickAnchorLine@Base 5.0.2 1
 _ZN13QQuickAnchorsC1EP10QQuickItemP7QObject@Base 5.0.2 1
 _ZN13QQuickAnchorsC2EP10QQuickItemP7QObject@Base 5.0.2 1
 _ZN13QQuickAnchorsD0Ev@Base 5.0.2 1
 _ZN13QQuickAnchorsD1Ev@Base 5.0.2 1
 _ZN13QQuickAnchorsD2Ev@Base 5.0.2 1
 _ZN13QSGNodeDumper13visitChildrenEP7QSGNode@Base 5.0.2 1
 _ZN13QSGNodeDumper4dumpEP7QSGNode@Base 5.0.2 1
 _ZN13QSGNodeDumper9visitNodeEP7QSGNode@Base 5.0.2 1
 (optional=gccinternal)_ZN13QSGNodeDumperD0Ev@Base 5.0.2 1
 (optional=gccinternal)_ZN13QSGNodeDumperD1Ev@Base 5.0.2 1
 (optional=gccinternal)_ZN13QSGNodeDumperD2Ev@Base 5.0.2 1
 _ZN13QSGRenderLoop10s_instanceE@Base 5.1.0 1
 _ZN13QSGRenderLoop11qt_metacallEN11QMetaObject4CallEiPPv@Base 5.1.0 1
 _ZN13QSGRenderLoop11qt_metacastEPKc@Base 5.1.0 1
 _ZN13QSGRenderLoop11setInstanceEPS_@Base 5.1.0 1
 _ZN13QSGRenderLoop14timeToIncubateEv@Base 5.1.0 1
 _ZN13QSGRenderLoop16staticMetaObjectE@Base 5.1.0 1
 _ZN13QSGRenderLoop28handleContextCreationFailureEP12QQuickWindowb@Base 5.3.0 1
 _ZN13QSGRenderLoop7cleanupEv@Base 5.3.0 1
 _ZN13QSGRenderLoop8instanceEv@Base 5.1.0 1
 _ZN13QSGRenderLoopD0Ev@Base 5.1.0 1
 _ZN13QSGRenderLoopD1Ev@Base 5.1.0 1
 _ZN13QSGRenderLoopD2Ev@Base 5.1.0 1
 _ZN13QSGRenderNode19setInheritedOpacityEd@Base 5.2.0 1
 _ZN13QSGRenderNodeC1Ev@Base 5.0.2 1
 _ZN13QSGRenderNodeC2Ev@Base 5.0.2 1
 _ZN14QQuickAnimator10transitionER5QListI17QQuickStateActionERS0_I12QQmlPropertyEN23QQuickAbstractAnimation19TransitionDirectionEP7QObject@Base 5.2.0~beta1 1
 _ZN14QQuickAnimator11fromChangedEd@Base 5.2.0~beta1 1
 _ZN14QQuickAnimator11qt_metacallEN11QMetaObject4CallEiPPv@Base 5.2.0~beta1 1
 _ZN14QQuickAnimator11qt_metacastEPKc@Base 5.2.0~beta1 1
 _ZN14QQuickAnimator11setDurationEi@Base 5.2.0~beta1 1
 _ZN14QQuickAnimator13easingChangedERK12QEasingCurve@Base 5.2.0~beta1 1
 _ZN14QQuickAnimator13setTargetItemEP10QQuickItem@Base 5.2.0~beta1 1
 _ZN14QQuickAnimator15durationChangedEi@Base 5.2.0~beta1 1
 _ZN14QQuickAnimator16staticMetaObjectE@Base 5.2.0~beta1 1
 _ZN14QQuickAnimator17targetItemChangedEP10QQuickItem@Base 5.2.0~beta1 1
 _ZN14QQuickAnimator5setToEd@Base 5.2.0~beta1 1
 _ZN14QQuickAnimator7setFromEd@Base 5.2.0~beta1 1
 _ZN14QQuickAnimator9setEasingERK12QEasingCurve@Base 5.2.0~beta1 1
 _ZN14QQuickAnimator9toChangedEd@Base 5.2.0~beta1 1
 _ZN14QQuickAnimatorC1EP7QObject@Base 5.2.0~beta1 1
 _ZN14QQuickAnimatorC1ER21QQuickAnimatorPrivateP7QObject@Base 5.2.0~beta1 1
 _ZN14QQuickAnimatorC2EP7QObject@Base 5.2.0~beta1 1
 _ZN14QQuickAnimatorC2ER21QQuickAnimatorPrivateP7QObject@Base 5.2.0~beta1 1
 _ZN14QQuickBehavior10setEnabledEb@Base 5.0.2 1
 _ZN14QQuickBehavior11qt_metacallEN11QMetaObject4CallEiPPv@Base 5.0.2 1
 _ZN14QQuickBehavior11qt_metacastEPKc@Base 5.0.2 1
 _ZN14QQuickBehavior12setAnimationEP23QQuickAbstractAnimation@Base 5.0.2 1
 _ZN14QQuickBehavior14enabledChangedEv@Base 5.0.2 1
 _ZN14QQuickBehavior16staticMetaObjectE@Base 5.0.2 1
 _ZN14QQuickBehavior18componentFinalizedEv@Base 5.0.2 1
 _ZN14QQuickBehavior5writeERK8QVariant@Base 5.0.2 1
 _ZN14QQuickBehavior9animationEv@Base 5.0.2 1
 _ZN14QQuickBehavior9setTargetERK12QQmlProperty@Base 5.0.2 1
 _ZN14QQuickBehaviorC1EP7QObject@Base 5.0.2 1
 _ZN14QQuickBehaviorC2EP7QObject@Base 5.0.2 1
 _ZN14QQuickBehaviorD0Ev@Base 5.0.2 1
 _ZN14QQuickBehaviorD1Ev@Base 5.0.2 1
 _ZN14QQuickBehaviorD2Ev@Base 5.0.2 1
 _ZN14QQuickGradient11qt_metacallEN11QMetaObject4CallEiPPv@Base 5.3.0 1
 _ZN14QQuickGradient11qt_metacastEPKc@Base 5.3.0 1
 _ZN14QQuickGradient16staticMetaObjectE@Base 5.3.0 1
 _ZN14QQuickGradient5stopsEv@Base 5.3.0 1
 _ZN14QQuickGradient7updatedEv@Base 5.3.0 1
 _ZN14QQuickGradient8doUpdateEv@Base 5.3.0 1
 _ZN14QQuickGradientC1EP7QObject@Base 5.3.0 1
 _ZN14QQuickGradientC2EP7QObject@Base 5.3.0 1
 _ZN14QQuickGradientD0Ev@Base 5.3.0 1
 _ZN14QQuickGradientD1Ev@Base 5.3.0 1
 _ZN14QQuickGradientD2Ev@Base 5.3.0 1
 _ZN14QQuickProfiler10initializeEv@Base 5.3.0 1
 _ZN14QQuickProfiler10s_instanceE@Base 5.3.0 1
 _ZN14QQuickProfiler11qt_metacallEN11QMetaObject4CallEiPPv@Base 5.3.0 1
 _ZN14QQuickProfiler11qt_metacastEPKc@Base 5.3.0 1
 _ZN14QQuickProfiler12sendMessagesExR5QListI10QByteArrayE@Base 5.3.0 1
 _ZN14QQuickProfiler14reportDataImplEv@Base 5.3.0 1
 _ZN14QQuickProfiler15featuresEnabledE@Base 5.4.0 1
 (arch=amd64 hppa kfreebsd-amd64 ppc64 ppc64el s390x)_ZN14QQuickProfiler15sceneGraphFrameILN23QQmlProfilerDefinitions19SceneGraphFrameTypeE2EEEvxxxxx@Base 5.4.0 1
 _ZN14QQuickProfiler16staticMetaObjectE@Base 5.3.0 1
 _ZN14QQuickProfiler17stopProfilingImplEv@Base 5.3.0 1
 _ZN14QQuickProfiler18startProfilingImplEy@Base 5.4.0 1
 _ZN14QQuickProfiler25registerAnimationCallbackEv@Base 5.3.0 1
 _ZN14QQuickProfiler8setTimerERK13QElapsedTimer@Base 5.3.0 1
 _ZN14QQuickProfilerC1EP19QQmlProfilerService@Base 5.3.0 1
 _ZN14QQuickProfilerC2EP19QQmlProfilerService@Base 5.3.0 1
 _ZN14QQuickProfilerD0Ev@Base 5.3.0 1
 _ZN14QQuickProfilerD1Ev@Base 5.3.0 1
 _ZN14QQuickProfilerD2Ev@Base 5.3.0 1
 _ZN14QQuickTextEdit10selectWordEv@Base 5.0.2 1
 _ZN14QQuickTextEdit10setBaseUrlERK4QUrl@Base 5.0.2 1
 _ZN14QQuickTextEdit10updateSizeEv@Base 5.0.2 1
 _ZN14QQuickTextEdit11fontChangedERK5QFont@Base 5.0.2 1
 _ZN14QQuickTextEdit11linkHoveredERK7QString@Base 5.2.0~beta1 1
 _ZN14QQuickTextEdit11qt_metacallEN11QMetaObject4CallEiPPv@Base 5.0.2 1
 _ZN14QQuickTextEdit11qt_metacastEPKc@Base 5.0.2 1
 _ZN14QQuickTextEdit11resetHAlignEv@Base 5.0.2 1
 _ZN14QQuickTextEdit11setReadOnlyEb@Base 5.0.2 1
 _ZN14QQuickTextEdit11setWrapModeENS_8WrapModeE@Base 5.0.2 1
 _ZN14QQuickTextEdit11textChangedEv@Base 5.0.2 1
 _ZN14QQuickTextEdit12colorChangedERK6QColor@Base 5.0.2 1
 _ZN14QQuickTextEdit12createCursorEv@Base 5.0.2 1
 _ZN14QQuickTextEdit12focusInEventEP11QFocusEvent@Base 5.0.2 1
 _ZN14QQuickTextEdit12resetBaseUrlEv@Base 5.0.2 1
 _ZN14QQuickTextEdit12textDocumentEv@Base 5.1.0 1
 _ZN14QQuickTextEdit12updateCursorEv@Base 5.0.2 1
 _ZN14QQuickTextEdit12updatePolishEv@Base 5.4.0 1
 _ZN14QQuickTextEdit13focusOutEventEP11QFocusEvent@Base 5.1.0 1
 _ZN14QQuickTextEdit13isRightToLeftEii@Base 5.0.2 1
 _ZN14QQuickTextEdit13keyPressEventEP9QKeyEvent@Base 5.0.2 1
 _ZN14QQuickTextEdit13linkActivatedERK7QString@Base 5.0.2 1
 _ZN14QQuickTextEdit13q_textChangedEv@Base 5.0.2 1
 _ZN14QQuickTextEdit13setRenderTypeENS_10RenderTypeE@Base 5.0.2 1
 _ZN14QQuickTextEdit13setTextFormatENS_10TextFormatE@Base 5.0.2 1
 _ZN14QQuickTextEdit13setTextMarginEd@Base 5.2.0 1
 _ZN14QQuickTextEdit14baseUrlChangedEv@Base 5.0.2 1
 _ZN14QQuickTextEdit14canRedoChangedEv@Base 5.0.2 1
 _ZN14QQuickTextEdit14canUndoChangedEv@Base 5.0.2 1
 _ZN14QQuickTextEdit14hoverMoveEventEP11QHoverEvent@Base 5.2.0~beta1 1
 _ZN14QQuickTextEdit14mouseMoveEventEP11QMouseEvent@Base 5.0.2 1
 _ZN14QQuickTextEdit15canPasteChangedEv@Base 5.0.2 1
 _ZN14QQuickTextEdit15geometryChangedERK6QRectFS2_@Base 5.0.2 1
 _ZN14QQuickTextEdit15hoverEnterEventEP11QHoverEvent@Base 5.2.0~beta1 1
 _ZN14QQuickTextEdit15hoverLeaveEventEP11QHoverEvent@Base 5.2.0~beta1 1
 _ZN14QQuickTextEdit15invalidateBlockERK10QTextBlock@Base 5.3.1 1
 _ZN14QQuickTextEdit15keyReleaseEventEP9QKeyEvent@Base 5.0.2 1
 _ZN14QQuickTextEdit15mousePressEventEP11QMouseEvent@Base 5.0.2 1
 _ZN14QQuickTextEdit15readOnlyChangedEb@Base 5.0.2 1
 _ZN14QQuickTextEdit15setFocusOnPressEb@Base 5.0.2 1
 _ZN14QQuickTextEdit15updatePaintNodeEP7QSGNodePN10QQuickItem19UpdatePaintNodeDataE@Base 5.0.2 1
 _ZN14QQuickTextEdit15updateSelectionEv@Base 5.1.0 1
 _ZN14QQuickTextEdit15wrapModeChangedEv@Base 5.0.2 1
 _ZN14QQuickTextEdit16inputMethodEventEP17QInputMethodEvent@Base 5.0.2 1
 _ZN14QQuickTextEdit16lineCountChangedEv@Base 5.0.2 1
 _ZN14QQuickTextEdit16q_contentsChangeEiii@Base 5.1.0 1
 _ZN14QQuickTextEdit16setCursorVisibleEb@Base 5.0.2 1
 _ZN14QQuickTextEdit16setSelectByMouseEb@Base 5.0.2 1
 _ZN14QQuickTextEdit16staticMetaObjectE@Base 5.0.2 1
 _ZN14QQuickTextEdit16updateTotalLinesEv@Base 5.0.2 1
 _ZN14QQuickTextEdit17componentCompleteEv@Base 5.0.2 1
 _ZN14QQuickTextEdit17mouseReleaseEventEP11QMouseEvent@Base 5.0.2 1
 _ZN14QQuickTextEdit17q_canPasteChangedEv@Base 5.0.2 1
 _ZN14QQuickTextEdit17q_updateAlignmentEv@Base 5.0.2 1
 _ZN14QQuickTextEdit17renderTypeChangedEv@Base 5.0.2 1
 _ZN14QQuickTextEdit17setCursorDelegateEP13QQmlComponent@Base 5.0.2 1
 _ZN14QQuickTextEdit17setCursorPositionEi@Base 5.0.2 1
 _ZN14QQuickTextEdit17setSelectionColorERK6QColor@Base 5.0.2 1
 _ZN14QQuickTextEdit17textFormatChangedENS_10TextFormatE@Base 5.0.2 1
 _ZN14QQuickTextEdit17textMarginChangedEd@Base 5.2.0 1
 _ZN14QQuickTextEdit17triggerPreprocessEv@Base 5.0.2 1
 _ZN14QQuickTextEdit18contentSizeChangedEv@Base 5.0.2 1
 _ZN14QQuickTextEdit18moveCursorDelegateEv@Base 5.0.2 1
 _ZN14QQuickTextEdit19moveCursorSelectionEi@Base 5.0.2 1
 _ZN14QQuickTextEdit19moveCursorSelectionEiNS_13SelectionModeE@Base 5.0.2 1
 _ZN14QQuickTextEdit19selectedTextChangedEv@Base 5.0.2 1
 _ZN14QQuickTextEdit19selectionEndChangedEv@Base 5.0.2 1
 _ZN14QQuickTextEdit19setInputMethodHintsE6QFlagsIN2Qt15InputMethodHintEE@Base 5.0.2 1
 _ZN14QQuickTextEdit19setSelectByKeyboardEb@Base 5.1.0 1
 _ZN14QQuickTextEdit19updateWholeDocumentEv@Base 5.1.0 1
 _ZN14QQuickTextEdit20cursorVisibleChangedEb@Base 5.0.2 1
 _ZN14QQuickTextEdit20invalidateFontCachesEv@Base 5.4.0 1
 _ZN14QQuickTextEdit20selectByMouseChangedEb@Base 5.0.2 1
 _ZN14QQuickTextEdit20setSelectedTextColorERK6QColor@Base 5.0.2 1
 _ZN14QQuickTextEdit21cursorDelegateChangedEv@Base 5.0.2 1
 _ZN14QQuickTextEdit21cursorPositionChangedEv@Base 5.0.2 1
 _ZN14QQuickTextEdit21mouseDoubleClickEventEP11QMouseEvent@Base 5.0.2 1
 _ZN14QQuickTextEdit21selectionColorChangedERK6QColor@Base 5.0.2 1
 _ZN14QQuickTextEdit21selectionStartChangedEv@Base 5.0.2 1
 _ZN14QQuickTextEdit21setMouseSelectionModeENS_13SelectionModeE@Base 5.0.2 1
 _ZN14QQuickTextEdit22cursorRectangleChangedEv@Base 5.0.2 1
 _ZN14QQuickTextEdit22markDirtyNodesForRangeEiii@Base 5.1.0 1
 _ZN14QQuickTextEdit22setPersistentSelectionEb@Base 5.0.2 1
 _ZN14QQuickTextEdit23inputMethodHintsChangedEv@Base 5.0.2 1
 _ZN14QQuickTextEdit23selectByKeyboardChangedEb@Base 5.1.0 1
 _ZN14QQuickTextEdit24selectedTextColorChangedERK6QColor@Base 5.0.2 1
 _ZN14QQuickTextEdit24verticalAlignmentChangedENS_10VAlignmentE@Base 5.0.2 1
 _ZN14QQuickTextEdit25activeFocusOnPressChangedEb@Base 5.0.2 1
 _ZN14QQuickTextEdit25mouseSelectionModeChangedENS_13SelectionModeE@Base 5.0.2 1
 _ZN14QQuickTextEdit26horizontalAlignmentChangedENS_10HAlignmentE@Base 5.0.2 1
 _ZN14QQuickTextEdit26persistentSelectionChangedEb@Base 5.0.2 1
 _ZN14QQuickTextEdit27inputMethodComposingChangedEv@Base 5.0.2 1
 _ZN14QQuickTextEdit35effectiveHorizontalAlignmentChangedEv@Base 5.0.2 1
 _ZN14QQuickTextEdit3cutEv@Base 5.0.2 1
 _ZN14QQuickTextEdit4copyEv@Base 5.0.2 1
 _ZN14QQuickTextEdit4redoEv@Base 5.0.2 1
 _ZN14QQuickTextEdit4undoEv@Base 5.0.2 1
 _ZN14QQuickTextEdit5eventEP6QEvent@Base 5.0.2 1
 _ZN14QQuickTextEdit5pasteEv@Base 5.0.2 1
 _ZN14QQuickTextEdit6appendERK7QString@Base 5.2.0~beta1 1
 _ZN14QQuickTextEdit6insertEiRK7QString@Base 5.0.2 1
 _ZN14QQuickTextEdit6removeEii@Base 5.0.2 1
 _ZN14QQuickTextEdit6selectEii@Base 5.0.2 1
 _ZN14QQuickTextEdit7setFontERK5QFont@Base 5.0.2 1
 _ZN14QQuickTextEdit7setTextERK7QString@Base 5.0.2 1
 _ZN14QQuickTextEdit8deselectEv@Base 5.0.2 1
 _ZN14QQuickTextEdit8setColorERK6QColor@Base 5.0.2 1
 _ZN14QQuickTextEdit9selectAllEv@Base 5.0.2 1
 _ZN14QQuickTextEdit9setHAlignENS_10HAlignmentE@Base 5.0.2 1
 _ZN14QQuickTextEdit9setVAlignENS_10VAlignmentE@Base 5.0.2 1
 _ZN14QQuickTextEditC1EP10QQuickItem@Base 5.0.2 1
 _ZN14QQuickTextEditC2EP10QQuickItem@Base 5.0.2 1
 (optional=gccinternal)_ZN14QQuickTextEditD0Ev@Base 5.0.2 1
 (optional=gccinternal)_ZN14QQuickTextEditD1Ev@Base 5.0.2 1
 (optional=gccinternal)_ZN14QQuickTextEditD2Ev@Base 5.0.2 1
 _ZN14QSGNodeUpdater12updateStatesEP7QSGNode@Base 5.0.2 1
 _ZN14QSGNodeUpdater13enterClipNodeEP11QSGClipNode@Base 5.0.2 1
 _ZN14QSGNodeUpdater13leaveClipNodeEP11QSGClipNode@Base 5.0.2 1
 _ZN14QSGNodeUpdater13visitChildrenEP7QSGNode@Base 5.0.2 1
 _ZN14QSGNodeUpdater15enterRenderNodeEP13QSGRenderNode@Base 5.0.2 1
 _ZN14QSGNodeUpdater15leaveRenderNodeEP13QSGRenderNode@Base 5.0.2 1
 _ZN14QSGNodeUpdater16enterOpacityNodeEP14QSGOpacityNode@Base 5.0.2 1
 _ZN14QSGNodeUpdater16leaveOpacityNodeEP14QSGOpacityNode@Base 5.0.2 1
 _ZN14QSGNodeUpdater17enterGeometryNodeEP15QSGGeometryNode@Base 5.0.2 1
 _ZN14QSGNodeUpdater17leaveGeometryNodeEP15QSGGeometryNode@Base 5.0.2 1
 _ZN14QSGNodeUpdater18enterTransformNodeEP16QSGTransformNode@Base 5.0.2 1
 _ZN14QSGNodeUpdater18leaveTransformNodeEP16QSGTransformNode@Base 5.0.2 1
 _ZN14QSGNodeUpdater9visitNodeEP7QSGNode@Base 5.0.2 1
 _ZN14QSGNodeUpdaterC1Ev@Base 5.0.2 1
 _ZN14QSGNodeUpdaterC2Ev@Base 5.0.2 1
 _ZN14QSGNodeUpdaterD0Ev@Base 5.0.2 1
 _ZN14QSGNodeUpdaterD1Ev@Base 5.0.2 1
 _ZN14QSGNodeUpdaterD2Ev@Base 5.0.2 1
 _ZN14QSGNodeVisitor13visitChildrenEP7QSGNode@Base 5.0.2
 _ZN14QSGNodeVisitor9visitNodeEP7QSGNode@Base 5.0.2
 _ZN14QSGNodeVisitorD0Ev@Base 5.0.2
 _ZN14QSGNodeVisitorD1Ev@Base 5.0.2
 _ZN14QSGNodeVisitorD2Ev@Base 5.0.2
 _ZN14QSGOpacityNode10setOpacityEd@Base 5.2.0
 _ZN14QSGOpacityNode18setCombinedOpacityEd@Base 5.2.0
 _ZN14QSGOpacityNodeC1Ev@Base 5.0.2
 _ZN14QSGOpacityNodeC2Ev@Base 5.0.2
 _ZN14QSGOpacityNodeD0Ev@Base 5.0.2
 _ZN14QSGOpacityNodeD1Ev@Base 5.0.2
 _ZN14QSGOpacityNodeD2Ev@Base 5.0.2
 _ZN15DesignerSupport10resetDirtyEP10QQuickItem@Base 5.0.2
 _ZN15DesignerSupport11borderWidthEP10QQuickItem@Base 5.0.2
 _ZN15DesignerSupport11polishItemsEP12QQuickWindow@Base 5.0.2
 _ZN15DesignerSupport11resetAnchorEP10QQuickItemRK7QString@Base 5.0.2
 _ZN15DesignerSupport11setRootItemEP10QQuickViewP10QQuickItem@Base 5.0.2
 _ZN15DesignerSupport12isAnchoredToEP10QQuickItemS1_@Base 5.0.2
 _ZN15DesignerSupport12isValidWidthEP10QQuickItem@Base 5.0.2
 _ZN15DesignerSupport13isValidHeightEP10QQuickItem@Base 5.0.2
 _ZN15DesignerSupport13statesForItemEP10QQuickItem@Base 5.0.2
 _ZN15DesignerSupport15parentTransformEP10QQuickItem@Base 5.0.2
 _ZN15DesignerSupport15updateDirtyNodeEP10QQuickItem@Base 5.0.2
 _ZN15DesignerSupport15windowTransformEP10QQuickItem@Base 5.0.2
 _ZN15DesignerSupport16anchorLineTargetEP10QQuickItemRK7QStringP11QQmlContext@Base 5.0.2
 _ZN15DesignerSupport17refFromEffectItemEP10QQuickItemb@Base 5.0.2
 _ZN15DesignerSupport18refreshExpressionsEP11QQmlContext@Base 5.0.2
 _ZN15DesignerSupport18renderImageForItemEP10QQuickItemRK6QRectFRK5QSize@Base 5.0.2
 _ZN15DesignerSupport19createOpenGLContextEP12QQuickWindow@Base 5.0.2
 _ZN15DesignerSupport19derefFromEffectItemEP10QQuickItemb@Base 5.0.2
 _ZN15DesignerSupport19isComponentCompleteEP10QQuickItem@Base 5.0.2
 _ZN15DesignerSupport20activateDesignerModeEv@Base 5.0.2
 _ZN15DesignerSupport20anchorFillTargetItemEP10QQuickItem@Base 5.0.2
 _ZN15DesignerSupport21areChildrenAnchoredToEP10QQuickItemS1_@Base 5.0.2
 _ZN15DesignerSupport23enableComponentCompleteEv@Base 5.1.0
 _ZN15DesignerSupport24anchorCenterInTargetItemEP10QQuickItem@Base 5.0.2
 _ZN15DesignerSupport24disableComponentCompleteEv@Base 5.1.0
 _ZN15DesignerSupport29activateDesignerWindowManagerEv@Base 5.0.2
 _ZN15DesignerSupport46emitComponentCompleteSignalForAttachedPropertyEP10QQuickItem@Base 5.1.0
 _ZN15DesignerSupport7isDirtyEP10QQuickItemNS_9DirtyTypeE@Base 5.0.2
 _ZN15DesignerSupport8addDirtyEP10QQuickItemNS_9DirtyTypeE@Base 5.0.2
 _ZN15DesignerSupport9hasAnchorEP10QQuickItemRK7QString@Base 5.0.2
 _ZN15DesignerSupportC1Ev@Base 5.0.2
 _ZN15DesignerSupportC2Ev@Base 5.0.2
 _ZN15DesignerSupportD1Ev@Base 5.0.2
 _ZN15DesignerSupportD2Ev@Base 5.0.2
 _ZN15QQuickFlickable10flickEndedEv@Base 5.0.2 1
 _ZN15QQuickFlickable10setReboundEP16QQuickTransition@Base 5.0.2 1
 _ZN15QQuickFlickable10timerEventEP11QTimerEvent@Base 5.0.2 1
 _ZN15QQuickFlickable10wheelEventEP11QWheelEvent@Base 5.0.2 1
 _ZN15QQuickFlickable11cancelFlickEv@Base 5.0.2 1
 _ZN15QQuickFlickable11contentItemEv@Base 5.0.2 1
 _ZN15QQuickFlickable11dragStartedEv@Base 5.0.2 1
 _ZN15QQuickFlickable11qt_metacallEN11QMetaObject4CallEiPPv@Base 5.0.2 1
 _ZN15QQuickFlickable11qt_metacastEPKc@Base 5.0.2 1
 _ZN15QQuickFlickable11setContentXEd@Base 5.2.0 1
 _ZN15QQuickFlickable11setContentYEd@Base 5.2.0 1
 _ZN15QQuickFlickable11visibleAreaEv@Base 5.0.2 1
 _ZN15QQuickFlickable12flickStartedEv@Base 5.0.2 1
 _ZN15QQuickFlickable12setTopMarginEd@Base 5.2.0 1
 _ZN15QQuickFlickable13flickableDataEv@Base 5.0.2 1
 _ZN15QQuickFlickable13movementEndedEv@Base 5.0.2 1
 _ZN15QQuickFlickable13movingChangedEv@Base 5.0.2 1
 _ZN15QQuickFlickable13resizeContentEdd7QPointF@Base 5.2.0 1
 _ZN15QQuickFlickable13setLeftMarginEd@Base 5.2.0 1
 _ZN15QQuickFlickable13setPressDelayEi@Base 5.0.2 1
 _ZN15QQuickFlickable13viewportMovedE6QFlagsIN2Qt11OrientationEE@Base 5.0.2 1
 _ZN15QQuickFlickable14mouseMoveEventEP11QMouseEvent@Base 5.0.2 1
 _ZN15QQuickFlickable14movementEndingEbb@Base 5.0.2 1
 _ZN15QQuickFlickable14movementEndingEv@Base 5.0.2 1
 _ZN15QQuickFlickable14originXChangedEv@Base 5.0.2 1
 _ZN15QQuickFlickable14originYChangedEv@Base 5.0.2 1
 _ZN15QQuickFlickable14reboundChangedEv@Base 5.0.2 1
 _ZN15QQuickFlickable14returnToBoundsEv@Base 5.0.2 1
 _ZN15QQuickFlickable14sendMouseEventEP10QQuickItemP11QMouseEvent@Base 5.0.2 1
 _ZN15QQuickFlickable14setInteractiveEb@Base 5.0.2 1
 _ZN15QQuickFlickable14setRightMarginEd@Base 5.2.0 1
 _ZN15QQuickFlickable15contentXChangedEv@Base 5.0.2 1
 _ZN15QQuickFlickable15contentYChangedEv@Base 5.0.2 1
 _ZN15QQuickFlickable15draggingChangedEv@Base 5.0.2 1
 _ZN15QQuickFlickable15flickingChangedEv@Base 5.0.2 1
 _ZN15QQuickFlickable15geometryChangedERK6QRectFS2_@Base 5.0.2 1
 _ZN15QQuickFlickable15mousePressEventEP11QMouseEvent@Base 5.0.2 1
 _ZN15QQuickFlickable15movementStartedEv@Base 5.0.2 1
 _ZN15QQuickFlickable15setBottomMarginEd@Base 5.2.0 1
 _ZN15QQuickFlickable15setContentWidthEd@Base 5.2.0 1
 _ZN15QQuickFlickable15setPixelAlignedEb@Base 5.0.2 1
 _ZN15QQuickFlickable16mouseUngrabEventEv@Base 5.0.2 1
 _ZN15QQuickFlickable16movementStartingEv@Base 5.0.2 1
 _ZN15QQuickFlickable16setContentHeightEd@Base 5.2.0 1
 _ZN15QQuickFlickable16staticMetaObjectE@Base 5.0.2 1
 _ZN15QQuickFlickable16topMarginChangedEv@Base 5.0.2 1
 _ZN15QQuickFlickable17componentCompleteEv@Base 5.0.2 1
 _ZN15QQuickFlickable17flickableChildrenEv@Base 5.0.2 1
 _ZN15QQuickFlickable17leftMarginChangedEv@Base 5.0.2 1
 _ZN15QQuickFlickable17mouseReleaseEventEP11QMouseEvent@Base 5.0.2 1
 _ZN15QQuickFlickable17pressDelayChangedEv@Base 5.0.2 1
 _ZN15QQuickFlickable17setBoundsBehaviorENS_14BoundsBehaviorE@Base 5.0.2 1
 _ZN15QQuickFlickable17timelineCompletedEv@Base 5.0.2 1
 _ZN15QQuickFlickable18interactiveChangedEv@Base 5.0.2 1
 _ZN15QQuickFlickable18rightMarginChangedEv@Base 5.0.2 1
 _ZN15QQuickFlickable19bottomMarginChangedEv@Base 5.0.2 1
 _ZN15QQuickFlickable19contentWidthChangedEv@Base 5.0.2 1
 _ZN15QQuickFlickable19isAtBoundaryChangedEv@Base 5.0.2 1
 _ZN15QQuickFlickable19pixelAlignedChangedEv@Base 5.0.2 1
 _ZN15QQuickFlickable20contentHeightChangedEv@Base 5.0.2 1
 _ZN15QQuickFlickable20setFlickDecelerationEd@Base 5.2.0 1
 _ZN15QQuickFlickable21boundsBehaviorChangedEv@Base 5.0.2 1
 _ZN15QQuickFlickable21childMouseEventFilterEP10QQuickItemP6QEvent@Base 5.0.2 1
 _ZN15QQuickFlickable21setFlickableDirectionENS_18FlickableDirectionE@Base 5.0.2 1
 _ZN15QQuickFlickable23movingVerticallyChangedEv@Base 5.0.2 1
 _ZN15QQuickFlickable23setMaximumFlickVelocityEd@Base 5.2.0 1
 _ZN15QQuickFlickable23verticalVelocityChangedEv@Base 5.0.2 1
 _ZN15QQuickFlickable24flickDecelerationChangedEv@Base 5.0.2 1
 _ZN15QQuickFlickable25draggingVerticallyChangedEv@Base 5.0.2 1
 _ZN15QQuickFlickable25flickableDirectionChangedEv@Base 5.0.2 1
 _ZN15QQuickFlickable25flickingVerticallyChangedEv@Base 5.0.2 1
 _ZN15QQuickFlickable25horizontalVelocityChangedEv@Base 5.0.2 1
 _ZN15QQuickFlickable25movingHorizontallyChangedEv@Base 5.0.2 1
 _ZN15QQuickFlickable27draggingHorizontallyChangedEv@Base 5.0.2 1
 _ZN15QQuickFlickable27flickingHorizontallyChangedEv@Base 5.0.2 1
 _ZN15QQuickFlickable27maximumFlickVelocityChangedEv@Base 5.0.2 1
 _ZN15QQuickFlickable5flickEdd@Base 5.2.0 1
 _ZN15QQuickFlickable9dragEndedEv@Base 5.0.2 1
 _ZN15QQuickFlickableC1EP10QQuickItem@Base 5.0.2 1
 _ZN15QQuickFlickableC1ER22QQuickFlickablePrivateP10QQuickItem@Base 5.0.2 1
 _ZN15QQuickFlickableC2EP10QQuickItem@Base 5.0.2 1
 _ZN15QQuickFlickableC2ER22QQuickFlickablePrivateP10QQuickItem@Base 5.0.2 1
 _ZN15QQuickFlickableD0Ev@Base 5.0.2 1
 _ZN15QQuickFlickableD1Ev@Base 5.0.2 1
 _ZN15QQuickFlickableD2Ev@Base 5.0.2 1
 _ZN15QQuickImageBase10itemChangeEN10QQuickItem10ItemChangeERKNS0_14ItemChangeDataE@Base 5.4.1 1
 _ZN15QQuickImageBase11qt_metacallEN11QMetaObject4CallEiPPv@Base 5.0.2 1
 _ZN15QQuickImageBase11qt_metacastEPKc@Base 5.0.2 1
 _ZN15QQuickImageBase12cacheChangedEv@Base 5.0.2 1
 _ZN15QQuickImageBase12pixmapChangeEv@Base 5.0.2 1
 _ZN15QQuickImageBase13mirrorChangedEv@Base 5.0.2 1
 _ZN15QQuickImageBase13setSourceSizeERK5QSize@Base 5.0.2 1
 _ZN15QQuickImageBase13sourceChangedERK4QUrl@Base 5.0.2 1
 _ZN15QQuickImageBase13statusChangedENS_6StatusE@Base 5.0.2 1
 _ZN15QQuickImageBase15progressChangedEd@Base 5.2.0 1
 _ZN15QQuickImageBase15requestFinishedEv@Base 5.0.2 1
 _ZN15QQuickImageBase15requestProgressExx@Base 5.0.2 1
 _ZN15QQuickImageBase15resetSourceSizeEv@Base 5.0.2 1
 _ZN15QQuickImageBase15setAsynchronousEb@Base 5.0.2 1
 _ZN15QQuickImageBase16staticMetaObjectE@Base 5.0.2 1
 _ZN15QQuickImageBase17componentCompleteEv@Base 5.0.2 1
 _ZN15QQuickImageBase17sourceSizeChangedEv@Base 5.0.2 1
 _ZN15QQuickImageBase18resolve2xLocalFileERK4QUrldPS0_Pd@Base 5.3.0 1
 _ZN15QQuickImageBase19asynchronousChangedEv@Base 5.0.2 1
 _ZN15QQuickImageBase19handleScreenChangedEP7QScreen@Base 5.3.0 1
 _ZN15QQuickImageBase4loadEv@Base 5.0.2 1
 _ZN15QQuickImageBase8setCacheEb@Base 5.0.2 1
 _ZN15QQuickImageBase9setMirrorEb@Base 5.0.2 1
 _ZN15QQuickImageBase9setSourceERK4QUrl@Base 5.0.2 1
 _ZN15QQuickImageBaseC1EP10QQuickItem@Base 5.0.2 1
 _ZN15QQuickImageBaseC1ER22QQuickImageBasePrivateP10QQuickItem@Base 5.0.2 1
 _ZN15QQuickImageBaseC2EP10QQuickItem@Base 5.0.2 1
 _ZN15QQuickImageBaseC2ER22QQuickImageBasePrivateP10QQuickItem@Base 5.0.2 1
 _ZN15QQuickImageBaseD0Ev@Base 5.0.2 1
 _ZN15QQuickImageBaseD1Ev@Base 5.0.2 1
 _ZN15QQuickImageBaseD2Ev@Base 5.0.2 1
 _ZN15QQuickMouseArea10itemChangeEN10QQuickItem10ItemChangeERKNS0_14ItemChangeDataE@Base 5.0.2 1
 _ZN15QQuickMouseArea10setEnabledEb@Base 5.0.2 1
 _ZN15QQuickMouseArea10setHoveredEb@Base 5.0.2 1
 _ZN15QQuickMouseArea10setPressedEN2Qt11MouseButtonEb@Base 5.0.2 1
 _ZN15QQuickMouseArea10timerEventEP11QTimerEvent@Base 5.0.2 1
 _ZN15QQuickMouseArea10wheelEventEP11QWheelEvent@Base 5.0.2 1
 _ZN15QQuickMouseArea11qt_metacallEN11QMetaObject4CallEiPPv@Base 5.0.2 1
 _ZN15QQuickMouseArea11qt_metacastEPKc@Base 5.0.2 1
 _ZN15QQuickMouseArea11ungrabMouseEv@Base 5.0.2 1
 _ZN15QQuickMouseArea12pressAndHoldEP16QQuickMouseEvent@Base 5.0.2 1
 _ZN15QQuickMouseArea13doubleClickedEP16QQuickMouseEvent@Base 5.0.2 1
 _ZN15QQuickMouseArea13mouseXChangedEP16QQuickMouseEvent@Base 5.0.2 1
 _ZN15QQuickMouseArea13mouseYChangedEP16QQuickMouseEvent@Base 5.0.2 1
 _ZN15QQuickMouseArea14enabledChangedEv@Base 5.0.2 1
 _ZN15QQuickMouseArea14hoverMoveEventEP11QHoverEvent@Base 5.0.2 1
 _ZN15QQuickMouseArea14hoveredChangedEv@Base 5.0.2 1
 _ZN15QQuickMouseArea14mouseMoveEventEP11QMouseEvent@Base 5.0.2 1
 _ZN15QQuickMouseArea14pressedChangedEv@Base 5.0.2 1
 _ZN15QQuickMouseArea14sendMouseEventEP11QMouseEvent@Base 5.0.2 1
 _ZN15QQuickMouseArea14setCursorShapeEN2Qt11CursorShapeE@Base 5.0.2 1
 _ZN15QQuickMouseArea15geometryChangedERK6QRectFS2_@Base 5.0.2 1
 _ZN15QQuickMouseArea15hoverEnterEventEP11QHoverEvent@Base 5.0.2 1
 _ZN15QQuickMouseArea15hoverLeaveEventEP11QHoverEvent@Base 5.0.2 1
 _ZN15QQuickMouseArea15mousePressEventEP11QMouseEvent@Base 5.0.2 1
 _ZN15QQuickMouseArea15positionChangedEP16QQuickMouseEvent@Base 5.0.2 1
 _ZN15QQuickMouseArea15setHoverEnabledEb@Base 5.0.2 1
 _ZN15QQuickMouseArea15updatePaintNodeEP7QSGNodePN10QQuickItem19UpdatePaintNodeDataE@Base 5.0.2 1
 _ZN15QQuickMouseArea16mouseUngrabEventEv@Base 5.0.2 1
 _ZN15QQuickMouseArea16staticMetaObjectE@Base 5.0.2 1
 _ZN15QQuickMouseArea17mouseReleaseEventEP11QMouseEvent@Base 5.0.2 1
 _ZN15QQuickMouseArea18cursorShapeChangedEv@Base 5.0.2 1
 _ZN15QQuickMouseArea18setAcceptedButtonsE6QFlagsIN2Qt11MouseButtonEE@Base 5.0.2 1
 _ZN15QQuickMouseArea18setPreventStealingEb@Base 5.0.2 1
 _ZN15QQuickMouseArea19hoverEnabledChangedEv@Base 5.0.2 1
 _ZN15QQuickMouseArea20containsPressChangedEv@Base 5.4.0 1
 _ZN15QQuickMouseArea21childMouseEventFilterEP10QQuickItemP6QEvent@Base 5.0.2 1
 _ZN15QQuickMouseArea21mouseDoubleClickEventEP11QMouseEvent@Base 5.0.2 1
 _ZN15QQuickMouseArea21pressedButtonsChangedEv@Base 5.0.2 1
 _ZN15QQuickMouseArea21windowDeactivateEventEv@Base 5.0.2 1
 _ZN15QQuickMouseArea22acceptedButtonsChangedEv@Base 5.0.2 1
 _ZN15QQuickMouseArea22preventStealingChangedEv@Base 5.0.2 1
 _ZN15QQuickMouseArea26setPropagateComposedEventsEb@Base 5.0.2 1
 _ZN15QQuickMouseArea30propagateComposedEventsChangedEv@Base 5.0.2 1
 _ZN15QQuickMouseArea4dragEv@Base 5.0.2 1
 _ZN15QQuickMouseArea5wheelEP16QQuickWheelEvent@Base 5.0.2 1
 _ZN15QQuickMouseArea6exitedEv@Base 5.0.2 1
 _ZN15QQuickMouseArea7clickedEP16QQuickMouseEvent@Base 5.0.2 1
 _ZN15QQuickMouseArea7enteredEv@Base 5.0.2 1
 _ZN15QQuickMouseArea7pressedEP16QQuickMouseEvent@Base 5.0.2 1
 _ZN15QQuickMouseArea8canceledEv@Base 5.0.2 1
 _ZN15QQuickMouseArea8releasedEP16QQuickMouseEvent@Base 5.0.2 1
 _ZN15QQuickMouseAreaC1EP10QQuickItem@Base 5.0.2 1
 _ZN15QQuickMouseAreaC2EP10QQuickItem@Base 5.0.2 1
 _ZN15QQuickMouseAreaD0Ev@Base 5.0.2 1
 _ZN15QQuickMouseAreaD1Ev@Base 5.0.2 1
 _ZN15QQuickMouseAreaD2Ev@Base 5.0.2 1
 _ZN15QQuickTextInput10selectWordEv@Base 5.0.2 1
 _ZN15QQuickTextInput10timerEventEP11QTimerEvent@Base 5.0.2 1
 _ZN15QQuickTextInput11fontChangedERK5QFont@Base 5.0.2 1
 _ZN15QQuickTextInput11qt_metacallEN11QMetaObject4CallEiPPv@Base 5.0.2 1
 _ZN15QQuickTextInput11qt_metacastEPKc@Base 5.0.2 1
 _ZN15QQuickTextInput11resetHAlignEv@Base 5.0.2 1
 _ZN15QQuickTextInput11setEchoModeENS_8EchoModeE@Base 5.0.2 1
 _ZN15QQuickTextInput11setReadOnlyEb@Base 5.0.2 1
 _ZN15QQuickTextInput11setWrapModeENS_8WrapModeE@Base 5.0.2 1
 _ZN15QQuickTextInput11textChangedEv@Base 5.0.2 1
 _ZN15QQuickTextInput12colorChangedEv@Base 5.0.2 1
 _ZN15QQuickTextInput12createCursorEv@Base 5.0.2 1
 _ZN15QQuickTextInput12focusInEventEP11QFocusEvent@Base 5.0.2 1
 _ZN15QQuickTextInput12setInputMaskERK7QString@Base 5.0.2 1
 _ZN15QQuickTextInput12setMaxLengthEi@Base 5.0.2 1
 _ZN15QQuickTextInput12setValidatorEP10QValidator@Base 5.0.2 1
 _ZN15QQuickTextInput12updatePolishEv@Base 5.4.0 1
 _ZN15QQuickTextInput13ensureVisibleEi@Base 5.4.0 1
 _ZN15QQuickTextInput13focusOutEventEP11QFocusEvent@Base 5.1.0 1
 _ZN15QQuickTextInput13isRightToLeftEii@Base 5.0.2 1
 _ZN15QQuickTextInput13keyPressEventEP9QKeyEvent@Base 5.0.2 1
 _ZN15QQuickTextInput13setAutoScrollEb@Base 5.0.2 1
 _ZN15QQuickTextInput13setRenderTypeENS_10RenderTypeE@Base 5.0.2 1
 _ZN15QQuickTextInput14canRedoChangedEv@Base 5.0.2 1
 _ZN15QQuickTextInput14canUndoChangedEv@Base 5.0.2 1
 _ZN15QQuickTextInput14mouseMoveEventEP11QMouseEvent@Base 5.0.2 1
 _ZN15QQuickTextInput15canPasteChangedEv@Base 5.0.2 1
 _ZN15QQuickTextInput15echoModeChangedENS_8EchoModeE@Base 5.0.2 1
 _ZN15QQuickTextInput15editingFinishedEv@Base 5.2.0~rc1 1
 _ZN15QQuickTextInput15geometryChangedERK6QRectFS2_@Base 5.0.2 1
 _ZN15QQuickTextInput15mousePressEventEP11QMouseEvent@Base 5.0.2 1
 _ZN15QQuickTextInput15readOnlyChangedEb@Base 5.0.2 1
 _ZN15QQuickTextInput15setFocusOnPressEb@Base 5.0.2 1
 _ZN15QQuickTextInput15updatePaintNodeEP7QSGNodePN10QQuickItem19UpdatePaintNodeDataE@Base 5.0.2 1
 _ZN15QQuickTextInput15wrapModeChangedEv@Base 5.0.2 1
 _ZN15QQuickTextInput16inputMaskChangedERK7QString@Base 5.0.2 1
 _ZN15QQuickTextInput16inputMethodEventEP17QInputMethodEvent@Base 5.0.2 1
 _ZN15QQuickTextInput16mouseUngrabEventEv@Base 5.0.2 1
 _ZN15QQuickTextInput16selectionChangedEv@Base 5.0.2 1
 _ZN15QQuickTextInput16setCursorVisibleEb@Base 5.0.2 1
 _ZN15QQuickTextInput16setSelectByMouseEb@Base 5.0.2 1
 _ZN15QQuickTextInput16staticMetaObjectE@Base 5.0.2 1
 _ZN15QQuickTextInput16validatorChangedEv@Base 5.0.2 1
 _ZN15QQuickTextInput17autoScrollChangedEb@Base 5.0.2 1
 _ZN15QQuickTextInput17componentCompleteEv@Base 5.0.2 1
 _ZN15QQuickTextInput17mouseReleaseEventEP11QMouseEvent@Base 5.0.2 1
 _ZN15QQuickTextInput17q_canPasteChangedEv@Base 5.0.2 1
 _ZN15QQuickTextInput17q_updateAlignmentEv@Base 5.0.2 1
 _ZN15QQuickTextInput17renderTypeChangedEv@Base 5.0.2 1
 _ZN15QQuickTextInput17setCursorDelegateEP13QQmlComponent@Base 5.0.2 1
 _ZN15QQuickTextInput17setCursorPositionEi@Base 5.0.2 1
 _ZN15QQuickTextInput17setSelectionColorERK6QColor@Base 5.0.2 1
 _ZN15QQuickTextInput17triggerPreprocessEv@Base 5.0.2 1
 _ZN15QQuickTextInput18contentSizeChangedEv@Base 5.0.2 1
 _ZN15QQuickTextInput18displayTextChangedEv@Base 5.0.2 1
 _ZN15QQuickTextInput18q_validatorChangedEv@Base 5.0.2 1
 _ZN15QQuickTextInput19moveCursorSelectionEi@Base 5.0.2 1
 _ZN15QQuickTextInput19moveCursorSelectionEiNS_13SelectionModeE@Base 5.0.2 1
 _ZN15QQuickTextInput19selectedTextChangedEv@Base 5.0.2 1
 _ZN15QQuickTextInput19selectionEndChangedEv@Base 5.0.2 1
 _ZN15QQuickTextInput19setInputMethodHintsE6QFlagsIN2Qt15InputMethodHintEE@Base 5.0.2 1
 _ZN15QQuickTextInput20cursorVisibleChangedEb@Base 5.0.2 1
 _ZN15QQuickTextInput20invalidateFontCachesEv@Base 5.4.0 1
 _ZN15QQuickTextInput20maximumLengthChangedEi@Base 5.0.2 1
 _ZN15QQuickTextInput20selectByMouseChangedEb@Base 5.0.2 1
 _ZN15QQuickTextInput20setPasswordCharacterERK7QString@Base 5.0.2 1
 _ZN15QQuickTextInput20setPasswordMaskDelayEi@Base 5.4.0 1
 _ZN15QQuickTextInput20setSelectedTextColorERK6QColor@Base 5.0.2 1
 _ZN15QQuickTextInput21cursorDelegateChangedEv@Base 5.0.2 1
 _ZN15QQuickTextInput21cursorPositionChangedEv@Base 5.0.2 1
 _ZN15QQuickTextInput21mouseDoubleClickEventEP11QMouseEvent@Base 5.0.2 1
 _ZN15QQuickTextInput21selectionColorChangedEv@Base 5.0.2 1
 _ZN15QQuickTextInput21selectionStartChangedEv@Base 5.0.2 1
 _ZN15QQuickTextInput21setMouseSelectionModeENS_13SelectionModeE@Base 5.0.2 1
 _ZN15QQuickTextInput21updateCursorRectangleEb@Base 5.4.0 1
 _ZN15QQuickTextInput22acceptableInputChangedEv@Base 5.0.2 1
 _ZN15QQuickTextInput22cursorRectangleChangedEv@Base 5.0.2 1
 _ZN15QQuickTextInput22resetPasswordMaskDelayEv@Base 5.4.0 1
 _ZN15QQuickTextInput22setPersistentSelectionEb@Base 5.0.2 1
 _ZN15QQuickTextInput23inputMethodHintsChangedEv@Base 5.0.2 1
 _ZN15QQuickTextInput24passwordCharacterChangedEv@Base 5.0.2 1
 _ZN15QQuickTextInput24passwordMaskDelayChangedEi@Base 5.4.0 1
 _ZN15QQuickTextInput24selectedTextColorChangedEv@Base 5.0.2 1
 _ZN15QQuickTextInput24verticalAlignmentChangedENS_10VAlignmentE@Base 5.0.2 1
 _ZN15QQuickTextInput25activeFocusOnPressChangedEb@Base 5.0.2 1
 _ZN15QQuickTextInput25mouseSelectionModeChangedENS_13SelectionModeE@Base 5.0.2 1
 _ZN15QQuickTextInput26horizontalAlignmentChangedENS_10HAlignmentE@Base 5.0.2 1
 _ZN15QQuickTextInput26persistentSelectionChangedEv@Base 5.0.2 1
 _ZN15QQuickTextInput27inputMethodComposingChangedEv@Base 5.0.2 1
 _ZN15QQuickTextInput35effectiveHorizontalAlignmentChangedEv@Base 5.0.2 1
 _ZN15QQuickTextInput3cutEv@Base 5.0.2 1
 _ZN15QQuickTextInput4copyEv@Base 5.0.2 1
 _ZN15QQuickTextInput4redoEv@Base 5.0.2 1
 _ZN15QQuickTextInput4undoEv@Base 5.0.2 1
 _ZN15QQuickTextInput5eventEP6QEvent@Base 5.0.2 1
 _ZN15QQuickTextInput5pasteEv@Base 5.0.2 1
 _ZN15QQuickTextInput6insertEiRK7QString@Base 5.0.2 1
 _ZN15QQuickTextInput6removeEii@Base 5.0.2 1
 _ZN15QQuickTextInput6selectEii@Base 5.0.2 1
 _ZN15QQuickTextInput7setFontERK5QFont@Base 5.0.2 1
 _ZN15QQuickTextInput7setTextERK7QString@Base 5.0.2 1
 _ZN15QQuickTextInput8acceptedEv@Base 5.0.2 1
 _ZN15QQuickTextInput8deselectEv@Base 5.0.2 1
 _ZN15QQuickTextInput8setColorERK6QColor@Base 5.0.2 1
 _ZN15QQuickTextInput9selectAllEv@Base 5.0.2 1
 _ZN15QQuickTextInput9setHAlignENS_10HAlignmentE@Base 5.0.2 1
 _ZN15QQuickTextInput9setVAlignENS_10VAlignmentE@Base 5.0.2 1
 _ZN15QQuickTextInputC1EP10QQuickItem@Base 5.0.2 1
 _ZN15QQuickTextInputC2EP10QQuickItem@Base 5.0.2 1
 _ZN15QQuickTextInputD0Ev@Base 5.0.2 1
 _ZN15QQuickTextInputD1Ev@Base 5.0.2 1
 _ZN15QQuickTextInputD2Ev@Base 5.0.2 1
 _ZN15QQuickTransform11qt_metacallEN11QMetaObject4CallEiPPv@Base 5.3.0
 _ZN15QQuickTransform11qt_metacastEPKc@Base 5.3.0
 _ZN15QQuickTransform12appendToItemEP10QQuickItem@Base 5.3.0
 _ZN15QQuickTransform13prependToItemEP10QQuickItem@Base 5.3.0
 _ZN15QQuickTransform16staticMetaObjectE@Base 5.3.0
 _ZN15QQuickTransform6updateEv@Base 5.3.0
 _ZN15QQuickTransformC1EP7QObject@Base 5.3.0
 _ZN15QQuickTransformC1ER22QQuickTransformPrivateP7QObject@Base 5.3.0
 _ZN15QQuickTransformC2EP7QObject@Base 5.3.0
 _ZN15QQuickTransformC2ER22QQuickTransformPrivateP7QObject@Base 5.3.0
 _ZN15QQuickTransformD0Ev@Base 5.3.0
 _ZN15QQuickTransformD1Ev@Base 5.3.0
 _ZN15QQuickTransformD2Ev@Base 5.3.0
 _ZN15QQuickXAnimator11qt_metacallEN11QMetaObject4CallEiPPv@Base 5.2.0~beta1 1
 _ZN15QQuickXAnimator11qt_metacastEPKc@Base 5.2.0~beta1 1
 _ZN15QQuickXAnimator16staticMetaObjectE@Base 5.2.0~beta1 1
 _ZN15QQuickXAnimatorC1EP7QObject@Base 5.2.0~beta1 1
 _ZN15QQuickXAnimatorC2EP7QObject@Base 5.2.0~beta1 1
 (optional=gccinternal)_ZN15QQuickXAnimatorD0Ev@Base 5.2.0~beta1 1
 (optional=gccinternal)_ZN15QQuickXAnimatorD1Ev@Base 5.2.0~beta1 1
 (optional=gccinternal)_ZN15QQuickXAnimatorD2Ev@Base 5.2.0~beta1 1
 _ZN15QQuickYAnimator11qt_metacallEN11QMetaObject4CallEiPPv@Base 5.2.0~beta1 1
 _ZN15QQuickYAnimator11qt_metacastEPKc@Base 5.2.0~beta1 1
 _ZN15QQuickYAnimator16staticMetaObjectE@Base 5.2.0~beta1 1
 _ZN15QQuickYAnimatorC1EP7QObject@Base 5.2.0~beta1 1
 _ZN15QQuickYAnimatorC2EP7QObject@Base 5.2.0~beta1 1
 (optional=gccinternal)_ZN15QQuickYAnimatorD0Ev@Base 5.2.0~beta1 1
 (optional=gccinternal)_ZN15QQuickYAnimatorD1Ev@Base 5.2.0~beta1 1
 (optional=gccinternal)_ZN15QQuickYAnimatorD2Ev@Base 5.2.0~beta1 1
 _ZN15QSGDefaultLayer11invalidatedEv@Base 5.4.0 1
 _ZN15QSGDefaultLayer11qt_metacallEN11QMetaObject4CallEiPPv@Base 5.4.0 1
 _ZN15QSGDefaultLayer11qt_metacastEPKc@Base 5.4.0 1
 _ZN15QSGDefaultLayer12setRecursiveEb@Base 5.4.0 1
 _ZN15QSGDefaultLayer13setHasMipmapsEb@Base 5.4.0 1
 _ZN15QSGDefaultLayer13updateTextureEv@Base 5.4.0 1
 _ZN15QSGDefaultLayer14scheduleUpdateEv@Base 5.4.0 1
 _ZN15QSGDefaultLayer16markDirtyTextureEv@Base 5.4.0 1
 _ZN15QSGDefaultLayer16staticMetaObjectE@Base 5.4.0 1
 _ZN15QSGDefaultLayer4bindEv@Base 5.4.0 1
 _ZN15QSGDefaultLayer4grabEv@Base 5.4.0 1
 _ZN15QSGDefaultLayer7setItemEP7QSGNode@Base 5.4.0 1
 _ZN15QSGDefaultLayer7setLiveEb@Base 5.4.0 1
 _ZN15QSGDefaultLayer7setRectERK6QRectF@Base 5.4.0 1
 _ZN15QSGDefaultLayer7setSizeERK5QSize@Base 5.4.0 1
 _ZN15QSGDefaultLayer9setFormatEj@Base 5.4.0 1
 _ZN15QSGDefaultLayerC1EP16QSGRenderContext@Base 5.4.0 1
 _ZN15QSGDefaultLayerC2EP16QSGRenderContext@Base 5.4.0 1
 _ZN15QSGDefaultLayerD0Ev@Base 5.4.0 1
 _ZN15QSGDefaultLayerD1Ev@Base 5.4.0 1
 _ZN15QSGDefaultLayerD2Ev@Base 5.4.0 1
 _ZN15QSGGeometryNode11setMaterialEP11QSGMaterial@Base 5.0.2
 _ZN15QSGGeometryNode14setRenderOrderEi@Base 5.0.2
 _ZN15QSGGeometryNode17setOpaqueMaterialEP11QSGMaterial@Base 5.0.2
 _ZN15QSGGeometryNode19setInheritedOpacityEd@Base 5.2.0
 _ZN15QSGGeometryNodeC1ER22QSGGeometryNodePrivate@Base 5.2.0~beta1
 _ZN15QSGGeometryNodeC1Ev@Base 5.0.2
 _ZN15QSGGeometryNodeC2ER22QSGGeometryNodePrivate@Base 5.2.0~beta1
 _ZN15QSGGeometryNodeC2Ev@Base 5.0.2
 _ZN15QSGGeometryNodeD0Ev@Base 5.0.2
 _ZN15QSGGeometryNodeD1Ev@Base 5.0.2
 _ZN15QSGGeometryNodeD2Ev@Base 5.0.2
 _ZN15QSGPlainTexture11qt_metacallEN11QMetaObject4CallEiPPv@Base 5.0.2 1
 _ZN15QSGPlainTexture11qt_metacastEPKc@Base 5.0.2 1
 _ZN15QSGPlainTexture12setTextureIdEi@Base 5.0.2 1
 _ZN15QSGPlainTexture16staticMetaObjectE@Base 5.0.2 1
 _ZN15QSGPlainTexture4bindEv@Base 5.0.2 1
 _ZN15QSGPlainTexture8setImageERK6QImage@Base 5.0.2 1
 _ZN15QSGPlainTextureC1Ev@Base 5.0.2 1
 _ZN15QSGPlainTextureC2Ev@Base 5.0.2 1
 _ZN15QSGPlainTextureD0Ev@Base 5.0.2 1
 _ZN15QSGPlainTextureD1Ev@Base 5.0.2 1
 _ZN15QSGPlainTextureD2Ev@Base 5.0.2 1
 (optional=internal|arch=arm64 armel hppa powerpc ppc64 ppc64el s390x sparc64)_ZN16QCoreApplication9sendEventEP7QObjectP6QEvent@Base 5.3.2
 _ZN16QQuickCloseEvent11qt_metacallEN11QMetaObject4CallEiPPv@Base 5.1.0 1
 _ZN16QQuickCloseEvent11qt_metacastEPKc@Base 5.1.0 1
 _ZN16QQuickCloseEvent16staticMetaObjectE@Base 5.1.0 1
 (optional=gccinternal)_ZN16QQuickCloseEventD0Ev@Base 5.1.0 1
 (optional=gccinternal)_ZN16QQuickCloseEventD1Ev@Base 5.1.0 1
 (optional=gccinternal)_ZN16QQuickCloseEventD2Ev@Base 5.1.0 1
 _ZN16QQuickMouseEvent11qt_metacallEN11QMetaObject4CallEiPPv@Base 5.0.2 1
 _ZN16QQuickMouseEvent11qt_metacastEPKc@Base 5.0.2 1
 _ZN16QQuickMouseEvent16staticMetaObjectE@Base 5.0.2 1
 (optional=gccinternal)_ZN16QQuickMouseEventD0Ev@Base 5.0.2 1
 (optional=gccinternal)_ZN16QQuickMouseEventD1Ev@Base 5.0.2 1
 (optional=gccinternal)_ZN16QQuickMouseEventD2Ev@Base 5.0.2 1
 _ZN16QQuickStateGroup10classBeginEv@Base 5.0.2 1
 _ZN16QQuickStateGroup11qt_metacallEN11QMetaObject4CallEiPPv@Base 5.0.2 1
 _ZN16QQuickStateGroup11qt_metacastEPKc@Base 5.0.2 1
 _ZN16QQuickStateGroup11removeStateEP11QQuickState@Base 5.0.2 1
 _ZN16QQuickStateGroup12stateChangedERK7QString@Base 5.0.2 1
 _ZN16QQuickStateGroup14statesPropertyEv@Base 5.0.2 1
 _ZN16QQuickStateGroup15updateAutoStateEv@Base 5.0.2 1
 _ZN16QQuickStateGroup16staticMetaObjectE@Base 5.0.2 1
 _ZN16QQuickStateGroup17componentCompleteEv@Base 5.0.2 1
 _ZN16QQuickStateGroup19transitionsPropertyEv@Base 5.0.2 1
 _ZN16QQuickStateGroup20stateAboutToCompleteEv@Base 5.0.2 1
 _ZN16QQuickStateGroup8setStateERK7QString@Base 5.0.2 1
 _ZN16QQuickStateGroupC1EP7QObject@Base 5.0.2 1
 _ZN16QQuickStateGroupC2EP7QObject@Base 5.0.2 1
 _ZN16QQuickStateGroupD0Ev@Base 5.0.2 1
 _ZN16QQuickStateGroupD1Ev@Base 5.0.2 1
 _ZN16QQuickStateGroupD2Ev@Base 5.0.2 1
 _ZN16QQuickTransition10animationsEv@Base 5.0.2 1
 _ZN16QQuickTransition10setEnabledEb@Base 5.0.2 1
 _ZN16QQuickTransition10setToStateERK7QString@Base 5.0.2 1
 _ZN16QQuickTransition11fromChangedEv@Base 5.0.2 1
 _ZN16QQuickTransition11qt_metacallEN11QMetaObject4CallEiPPv@Base 5.0.2 1
 _ZN16QQuickTransition11qt_metacastEPKc@Base 5.0.2 1
 _ZN16QQuickTransition11setReversedEb@Base 5.0.2 1
 _ZN16QQuickTransition12setFromStateERK7QString@Base 5.0.2 1
 _ZN16QQuickTransition13setReversibleEb@Base 5.0.2 1
 _ZN16QQuickTransition14enabledChangedEv@Base 5.0.2 1
 _ZN16QQuickTransition14runningChangedEv@Base 5.0.2 1
 _ZN16QQuickTransition16staticMetaObjectE@Base 5.0.2 1
 _ZN16QQuickTransition17reversibleChangedEv@Base 5.0.2 1
 _ZN16QQuickTransition7prepareER5QListI17QQuickStateActionERS0_I12QQmlPropertyEP23QQuickTransitionManagerP7QObject@Base 5.2.0~beta1 1
 _ZN16QQuickTransition9toChangedEv@Base 5.0.2 1
 _ZN16QQuickTransitionC1EP7QObject@Base 5.0.2 1
 _ZN16QQuickTransitionC2EP7QObject@Base 5.0.2 1
 _ZN16QQuickTransitionD0Ev@Base 5.0.2 1
 _ZN16QQuickTransitionD1Ev@Base 5.0.2 1
 _ZN16QQuickTransitionD2Ev@Base 5.0.2 1
 _ZN16QSGAreaAllocator10deallocateERK5QRect@Base 5.0.2 1
 _ZN16QSGAreaAllocator14allocateInNodeERK5QSizeR6QPointRK5QRectP20QSGAreaAllocatorNode@Base 5.0.2 1
 _ZN16QSGAreaAllocator16deallocateInNodeERK6QPointP20QSGAreaAllocatorNode@Base 5.0.2 1
 _ZN16QSGAreaAllocator22mergeNodeWithNeighborsEP20QSGAreaAllocatorNode@Base 5.0.2 1
 _ZN16QSGAreaAllocator8allocateERK5QSize@Base 5.0.2 1
 _ZN16QSGAreaAllocatorC1ERK5QSize@Base 5.0.2 1
 _ZN16QSGAreaAllocatorC2ERK5QSize@Base 5.0.2 1
 _ZN16QSGAreaAllocatorD1Ev@Base 5.0.2 1
 _ZN16QSGAreaAllocatorD2Ev@Base 5.0.2 1
 _ZN16QSGBatchRenderer8Renderer10preprocessEv@Base 5.2.0~rc1 1
 _ZN16QSGBatchRenderer8Renderer10updateClipEPK11QSGClipNodePKNS_5BatchE@Base 5.2.0~beta1 1
 _ZN16QSGBatchRenderer8Renderer11nodeChangedEP7QSGNode6QFlagsINS1_13DirtyStateBitEE@Base 5.2.0~beta1 1
 _ZN16QSGBatchRenderer8Renderer11tagSubRootsEPNS_4NodeE@Base 5.2.0~beta1 1
 _ZN16QSGBatchRenderer8Renderer11uploadBatchEPNS_5BatchE@Base 5.2.0~beta1 1
 _ZN16QSGBatchRenderer8Renderer12checkOverlapEiiRKNS_4RectE@Base 5.2.0~beta1 1
 _ZN16QSGBatchRenderer8Renderer12nodeWasAddedEP7QSGNodePNS_4NodeE@Base 5.2.0~beta1 1
 _ZN16QSGBatchRenderer8Renderer13batchRootInfoEPNS_4NodeE@Base 5.2.0~beta1 1
 _ZN16QSGBatchRenderer8Renderer13renderBatchesEv@Base 5.2.0~beta1 1
 _ZN16QSGBatchRenderer8Renderer14cleanupBatchesEP11QDataBufferIPNS_5BatchEE@Base 5.2.0~beta1 1
 _ZN16QSGBatchRenderer8Renderer14nodeWasRemovedEPNS_4NodeE@Base 5.2.0~beta1 1
 _ZN16QSGBatchRenderer8Renderer14visualizeBatchEPNS_5BatchE@Base 5.3.0 1
 _ZN16QSGBatchRenderer8Renderer15changeBatchRootEPNS_4NodeES2_@Base 5.2.0~beta1 1
 _ZN16QSGBatchRenderer8Renderer15setActiveShaderEP17QSGMaterialShaderPNS_13ShaderManager6ShaderE@Base 5.2.0~beta1 1
 _ZN16QSGBatchRenderer8Renderer16buildRenderListsEP7QSGNode@Base 5.2.0~beta1 1
 _ZN16QSGBatchRenderer8Renderer16renderRenderNodeEPNS_5BatchE@Base 5.2.0~beta1 1
 _ZN16QSGBatchRenderer8Renderer16visualizeChangesEPNS_4NodeE@Base 5.3.0 1
 _ZN16QSGBatchRenderer8Renderer17registerBatchRootEPNS_4NodeES2_@Base 5.2.0~beta1 1
 _ZN16QSGBatchRenderer8Renderer17renderMergedBatchEPKNS_5BatchE@Base 5.2.0~beta1 1
 _ZN16QSGBatchRenderer8Renderer17updateStencilClipEPK11QSGClipNode@Base 5.4.0 1
 _ZN16QSGBatchRenderer8Renderer17visualizeClippingEP7QSGNode@Base 5.3.0 1
 _ZN16QSGBatchRenderer8Renderer17visualizeOverdrawEv@Base 5.3.0 1
 _ZN16QSGBatchRenderer8Renderer18nodeWasTransformedEPNS_4NodeEPi@Base 5.2.0~beta1 1
 _ZN16QSGBatchRenderer8Renderer19prepareAlphaBatchesEv@Base 5.2.0~beta1 1
 _ZN16QSGBatchRenderer8Renderer19renderUnmergedBatchEPKNS_5BatchE@Base 5.2.0~beta1 1
 _ZN16QSGBatchRenderer8Renderer19setCustomRenderModeERK10QByteArray@Base 5.3.0 1
 _ZN16QSGBatchRenderer8Renderer19uploadMergedElementEPNS_7ElementEiPPcS4_S4_PtPi@Base 5.2.0~beta1 1
 _ZN16QSGBatchRenderer8Renderer20nodeChangedBatchRootEPNS_4NodeES2_@Base 5.2.0~beta1 1
 _ZN16QSGBatchRenderer8Renderer20prepareOpaqueBatchesEv@Base 5.2.0~beta1 1
 _ZN16QSGBatchRenderer8Renderer21deleteRemovedElementsEv@Base 5.2.0~beta1 1
 _ZN16QSGBatchRenderer8Renderer21turnNodeIntoBatchRootEPNS_4NodeE@Base 5.2.0~beta1 1
 _ZN16QSGBatchRenderer8Renderer21visualizeDrawGeometryEPK11QSGGeometry@Base 5.3.0 1
 _ZN16QSGBatchRenderer8Renderer23visualizeChangesPrepareEPNS_4NodeEj@Base 5.3.0 1
 _ZN16QSGBatchRenderer8Renderer24visualizeOverdraw_helperEPNS_4NodeE@Base 5.3.0 1
 _ZN16QSGBatchRenderer8Renderer25invalidateAndRecycleBatchEPNS_5BatchE@Base 5.2.0~beta1 1
 _ZN16QSGBatchRenderer8Renderer25removeBatchRootFromParentEPNS_4NodeE@Base 5.2.0~beta1 1
 _ZN16QSGBatchRenderer8Renderer27buildRenderListsFromScratchEv@Base 5.2.0~beta1 1
 _ZN16QSGBatchRenderer8Renderer30buildRenderListsForTaggedRootsEv@Base 5.2.0~beta1 1
 _ZN16QSGBatchRenderer8Renderer3mapEPNS_6BufferEi@Base 5.2.0~beta1 1
 _ZN16QSGBatchRenderer8Renderer41invalidateBatchAndOverlappingRenderOrdersEPNS_5BatchE@Base 5.3.0 1
 _ZN16QSGBatchRenderer8Renderer5unmapEPNS_6BufferEb@Base 5.3.0 1
 _ZN16QSGBatchRenderer8Renderer6renderEv@Base 5.2.0~beta1 1
 _ZN16QSGBatchRenderer8Renderer9visualizeEv@Base 5.3.0 1
 _ZN16QSGBatchRenderer8RendererC1EP16QSGRenderContext@Base 5.2.0~rc1 1
 _ZN16QSGBatchRenderer8RendererC2EP16QSGRenderContext@Base 5.2.0~rc1 1
 _ZN16QSGBatchRenderer8RendererD0Ev@Base 5.2.0~beta1 1
 _ZN16QSGBatchRenderer8RendererD1Ev@Base 5.2.0~beta1 1
 _ZN16QSGBatchRenderer8RendererD2Ev@Base 5.2.0~beta1 1
 _ZN16QSGContextPlugin11qt_metacallEN11QMetaObject4CallEiPPv@Base 5.0.2 1
 _ZN16QSGContextPlugin11qt_metacastEPKc@Base 5.0.2 1
 _ZN16QSGContextPlugin16staticMetaObjectE@Base 5.0.2 1
 _ZN16QSGContextPluginC1EP7QObject@Base 5.0.2 1
 _ZN16QSGContextPluginC2EP7QObject@Base 5.0.2 1
 _ZN16QSGContextPluginD0Ev@Base 5.0.2 1
 _ZN16QSGContextPluginD1Ev@Base 5.0.2 1
 _ZN16QSGContextPluginD2Ev@Base 5.0.2 1
 _ZN16QSGNodeVisitorEx13visitChildrenEP7QSGNode@Base 5.4.0 1
 _ZN16QSGRenderContext10initializeEP14QOpenGLContext@Base 5.2.0~rc1 1
 _ZN16QSGRenderContext10initializeEP17QSGMaterialShader@Base 5.3.0 1
 _ZN16QSGRenderContext10invalidateEv@Base 5.2.0~rc1 1
 _ZN16QSGRenderContext11initializedEv@Base 5.2.0~rc1 1
 _ZN16QSGRenderContext11invalidatedEv@Base 5.2.0~rc1 1
 _ZN16QSGRenderContext11qt_metacallEN11QMetaObject4CallEiPPv@Base 5.2.0~rc1 1
 _ZN16QSGRenderContext11qt_metacastEPKc@Base 5.2.0~rc1 1
 _ZN16QSGRenderContext14createRendererEv@Base 5.2.0~rc1 1
 _ZN16QSGRenderContext15renderNextFrameEP11QSGRendererj@Base 5.2.0~rc1 1
 _ZN16QSGRenderContext16staticMetaObjectE@Base 5.2.0~rc1 1
 _ZN16QSGRenderContext17textureForFactoryEP20QQuickTextureFactoryP12QQuickWindow@Base 5.2.0~rc1 1
 _ZN16QSGRenderContext20setAttachToGLContextEb@Base 5.4.0 1
 _ZN16QSGRenderContext23distanceFieldGlyphCacheERK8QRawFont@Base 5.2.0~rc1 1
 _ZN16QSGRenderContext23textureFactoryDestroyedEP7QObject@Base 5.2.0~rc1 1
 _ZN16QSGRenderContext24depthStencilBufferForFboEP24QOpenGLFramebufferObject@Base 5.2.0~rc1 1
 _ZN16QSGRenderContext25depthStencilBufferManagerEv@Base 5.2.0~rc1 1
 _ZN16QSGRenderContext28registerFontengineForCleanupEP11QFontEngine@Base 5.2.0~rc1 1
 _ZN16QSGRenderContext4fromEP14QOpenGLContext@Base 5.2.0~rc1 1
 _ZN16QSGRenderContext7compileEP17QSGMaterialShaderP11QSGMaterialPKcS5_@Base 5.3.0 1
 _ZN16QSGRenderContext7endSyncEv@Base 5.3.0 1
 _ZN16QSGRenderContextC1EP10QSGContext@Base 5.2.0~rc1 1
 _ZN16QSGRenderContextC2EP10QSGContext@Base 5.2.0~rc1 1
 _ZN16QSGRenderContextD0Ev@Base 5.2.0~rc1 1
 _ZN16QSGRenderContextD1Ev@Base 5.2.0~rc1 1
 _ZN16QSGRenderContextD2Ev@Base 5.2.0~rc1 1
 _ZN16QSGTransformNode17setCombinedMatrixERK10QMatrix4x4@Base 5.0.2
 _ZN16QSGTransformNode9setMatrixERK10QMatrix4x4@Base 5.0.2
 _ZN16QSGTransformNodeC1Ev@Base 5.0.2
 _ZN16QSGTransformNodeC2Ev@Base 5.0.2
 _ZN16QSGTransformNodeD0Ev@Base 5.0.2
 _ZN16QSGTransformNodeD1Ev@Base 5.0.2
 _ZN16QSGTransformNodeD2Ev@Base 5.0.2
 (optional=gccinternal)_ZN17QInputMethodEventD0Ev@Base 5.0.2
 (optional=gccinternal)_ZN17QInputMethodEventD1Ev@Base 5.0.2
 (optional=gccinternal)_ZN17QInputMethodEventD2Ev@Base 5.0.2
 _ZN17QQuickAnimatorJob10initializeEP24QQuickAnimatorController@Base 5.2.0~beta1 1
 _ZN17QQuickAnimatorJob16targetWasDeletedEv@Base 5.2.0~beta1 1
 _ZN17QQuickAnimatorJob9setTargetEP10QQuickItem@Base 5.2.0~beta1 1
 _ZN17QQuickAnimatorJobC1Ev@Base 5.2.0~beta1 1
 _ZN17QQuickAnimatorJobC2Ev@Base 5.2.0~beta1 1
 _ZN17QQuickItemPrivate10data_clearEP16QQmlListPropertyI7QObjectE@Base 5.0.2 1
 _ZN17QQuickItemPrivate10data_countEP16QQmlListPropertyI7QObjectE@Base 5.0.2 1
 _ZN17QQuickItemPrivate10itemChangeEN10QQuickItem10ItemChangeERKNS0_14ItemChangeDataE@Base 5.0.2 1
 _ZN17QQuickItemPrivate11children_atEP16QQmlListPropertyI10QQuickItemEi@Base 5.0.2 1
 _ZN17QQuickItemPrivate11data_appendEP16QQmlListPropertyI7QObjectEPS1_@Base 5.0.2 1
 _ZN17QQuickItemPrivate11derefWindowEv@Base 5.0.2 1
 _ZN17QQuickItemPrivate11markObjectsEPN3QV415ExecutionEngineE@Base 5.3.0 1
 _ZN17QQuickItemPrivate11removeChildEP10QQuickItem@Base 5.0.2 1
 _ZN17QQuickItemPrivate11transitionsEv@Base 5.0.2 1
 _ZN17QQuickItemPrivate12resources_atEP16QQmlListPropertyI7QObjectEi@Base 5.0.2 1
 _ZN17QQuickItemPrivate12transform_atEP16QQmlListPropertyI15QQuickTransformEi@Base 5.0.2 1
 _ZN17QQuickItemPrivate13focusNextPrevEP10QQuickItemb@Base 5.1.0 1
 _ZN17QQuickItemPrivate13setAccessibleEv@Base 5.4.0 1
 _ZN17QQuickItemPrivate14addToDirtyListEv@Base 5.0.2 1
 _ZN17QQuickItemPrivate14children_clearEP16QQmlListPropertyI10QQuickItemE@Base 5.0.2 1
 _ZN17QQuickItemPrivate14children_countEP16QQmlListPropertyI10QQuickItemE@Base 5.0.2 1
 _ZN17QQuickItemPrivate15children_appendEP16QQmlListPropertyI10QQuickItemEPS1_@Base 5.0.2 1
 _ZN17QQuickItemPrivate15deliverKeyEventEP9QKeyEvent@Base 5.0.2 1
 _ZN17QQuickItemPrivate15resources_clearEP16QQmlListPropertyI7QObjectE@Base 5.0.2 1
 _ZN17QQuickItemPrivate15resources_countEP16QQmlListPropertyI7QObjectE@Base 5.0.2 1
 _ZN17QQuickItemPrivate15setLayoutMirrorEb@Base 5.0.2 1
 _ZN17QQuickItemPrivate15transform_clearEP16QQmlListPropertyI15QQuickTransformE@Base 5.0.2 1
 _ZN17QQuickItemPrivate15transform_countEP16QQmlListPropertyI15QQuickTransformE@Base 5.0.2 1
 _ZN17QQuickItemPrivate15visibleChildrenEv@Base 5.0.2 1
 _ZN17QQuickItemPrivate16resources_appendEP16QQmlListPropertyI7QObjectEPS1_@Base 5.0.2 1
 _ZN17QQuickItemPrivate16transformChangedEv@Base 5.0.2 1
 _ZN17QQuickItemPrivate16transform_appendEP16QQmlListPropertyI15QQuickTransformEPS1_@Base 5.0.2 1
 _ZN17QQuickItemPrivate17canAcceptTabFocusEP10QQuickItem@Base 5.1.0 1
 _ZN17QQuickItemPrivate17refFromEffectItemEb@Base 5.0.2 1
 _ZN17QQuickItemPrivate18qt_tab_all_widgetsEv@Base 5.1.0 1
 _ZN17QQuickItemPrivate18updateSubFocusItemEP10QQuickItemb@Base 5.0.2 1
 _ZN17QQuickItemPrivate18visibleChildren_atEP16QQmlListPropertyI10QQuickItemEi@Base 5.0.2 1
 _ZN17QQuickItemPrivate19createTransformNodeEv@Base 5.0.2 1
 _ZN17QQuickItemPrivate19derefFromEffectItemEb@Base 5.0.2 1
 _ZN17QQuickItemPrivate19removeFromDirtyListEv@Base 5.0.2 1
 _ZN17QQuickItemPrivate19resolveLayoutMirrorEv@Base 5.0.2 1
 _ZN17QQuickItemPrivate19siblingOrderChangedEv@Base 5.0.2 1
 _ZN17QQuickItemPrivate20implicitWidthChangedEv@Base 5.0.2 1
 _ZN17QQuickItemPrivate20incrementCursorCountEi@Base 5.0.2 1
 _ZN17QQuickItemPrivate21addItemChangeListenerEP24QQuickItemChangeListener6QFlagsINS_10ChangeTypeEE@Base 5.0.2 1
 _ZN17QQuickItemPrivate21implicitHeightChangedEv@Base 5.0.2 1
 _ZN17QQuickItemPrivate21visibleChildren_countEP16QQmlListPropertyI10QQuickItemE@Base 5.0.2 1
 _ZN17QQuickItemPrivate23deliverInputMethodEventEP17QInputMethodEvent@Base 5.0.2 1
 _ZN17QQuickItemPrivate23setEffectiveEnableRecurEP10QQuickItemb@Base 5.0.2 1
 _ZN17QQuickItemPrivate23setImplicitAntialiasingEb@Base 5.3.0 1
 _ZN17QQuickItemPrivate23setImplicitLayoutMirrorEbb@Base 5.0.2 1
 _ZN17QQuickItemPrivate24_q_resourceObjectDeletedEP7QObject@Base 5.1.0 1
 _ZN17QQuickItemPrivate24removeItemChangeListenerEP24QQuickItemChangeListener6QFlagsINS_10ChangeTypeEE@Base 5.0.2 1
 _ZN17QQuickItemPrivate24setEffectiveVisibleRecurEb@Base 5.0.2 1
 _ZN17QQuickItemPrivate26registerAccessorPropertiesEv@Base 5.0.2 1
 _ZN17QQuickItemPrivate27nextPrevItemInTabFocusChainEP10QQuickItemb@Base 5.1.0 1
 _ZN17QQuickItemPrivate27setTransparentForPositionerEb@Base 5.4.0 1
 _ZN17QQuickItemPrivate33updateOrAddGeometryChangeListenerEP24QQuickItemChangeListener6QFlagsINS_18GeometryChangeTypeEE@Base 5.0.2 1
 _ZN17QQuickItemPrivate36updateOrRemoveGeometryChangeListenerEP24QQuickItemChangeListener6QFlagsINS_18GeometryChangeTypeEE@Base 5.0.2 1
 _ZN17QQuickItemPrivate4dataEv@Base 5.0.2 1
 _ZN17QQuickItemPrivate4initEP10QQuickItem@Base 5.0.2 1
 _ZN17QQuickItemPrivate5dirtyENS_9DirtyTypeE@Base 5.0.2 1
 _ZN17QQuickItemPrivate6statesEv@Base 5.0.2 1
 _ZN17QQuickItemPrivate7_statesEv@Base 5.0.2 1
 _ZN17QQuickItemPrivate7data_atEP16QQmlListPropertyI7QObjectEi@Base 5.0.2 1
 _ZN17QQuickItemPrivate8addChildEP10QQuickItem@Base 5.0.2 1
 _ZN17QQuickItemPrivate8childrenEv@Base 5.0.2 1
 _ZN17QQuickItemPrivate8setStateERK7QString@Base 5.0.2 1
 _ZN17QQuickItemPrivate9ExtraDataC1Ev@Base 5.0.2 1
 _ZN17QQuickItemPrivate9ExtraDataC2Ev@Base 5.0.2 1
 _ZN17QQuickItemPrivate9refWindowEP12QQuickWindow@Base 5.0.2 1
 _ZN17QQuickItemPrivate9resourcesEv@Base 5.0.2 1
 _ZN17QQuickItemPrivate9setCulledEb@Base 5.0.2 1
 _ZN17QQuickItemPrivateC1Ev@Base 5.0.2 1
 _ZN17QQuickItemPrivateC2Ev@Base 5.0.2 1
 _ZN17QQuickItemPrivateD0Ev@Base 5.0.2 1
 _ZN17QQuickItemPrivateD1Ev@Base 5.0.2 1
 _ZN17QQuickItemPrivateD2Ev@Base 5.0.2 1
 _ZN17QQuickPaintedItem11qt_metacallEN11QMetaObject4CallEiPPv@Base 5.0.2
 _ZN17QQuickPaintedItem11qt_metacastEPKc@Base 5.0.2
 _ZN17QQuickPaintedItem12setFillColorERK6QColor@Base 5.0.2
 _ZN17QQuickPaintedItem15setAntialiasingEb@Base 5.0.2
 _ZN17QQuickPaintedItem15setContentsSizeERK5QSize@Base 5.0.2
 _ZN17QQuickPaintedItem15setRenderTargetENS_12RenderTargetE@Base 5.0.2
 _ZN17QQuickPaintedItem15updatePaintNodeEP7QSGNodePN10QQuickItem19UpdatePaintNodeDataE@Base 5.0.2
 _ZN17QQuickPaintedItem16fillColorChangedEv@Base 5.0.2
 _ZN17QQuickPaintedItem16releaseResourcesEv@Base 5.4.0
 _ZN17QQuickPaintedItem16setContentsScaleEd@Base 5.2.0
 _ZN17QQuickPaintedItem16staticMetaObjectE@Base 5.0.2
 _ZN17QQuickPaintedItem17resetContentsSizeEv@Base 5.0.2
 _ZN17QQuickPaintedItem17setOpaquePaintingEb@Base 5.0.2
 _ZN17QQuickPaintedItem18setPerformanceHintENS_15PerformanceHintEb@Base 5.0.2
 _ZN17QQuickPaintedItem19contentsSizeChangedEv@Base 5.0.2
 _ZN17QQuickPaintedItem19renderTargetChangedEv@Base 5.0.2
 _ZN17QQuickPaintedItem19setPerformanceHintsE6QFlagsINS_15PerformanceHintEE@Base 5.0.2
 _ZN17QQuickPaintedItem20contentsScaleChangedEv@Base 5.0.2
 _ZN17QQuickPaintedItem20invalidateSceneGraphEv@Base 5.4.0
 _ZN17QQuickPaintedItem6updateERK5QRect@Base 5.0.2
 _ZN17QQuickPaintedItem9setMipmapEb@Base 5.0.2
 _ZN17QQuickPaintedItemC1EP10QQuickItem@Base 5.0.2
 _ZN17QQuickPaintedItemC1ER24QQuickPaintedItemPrivateP10QQuickItem@Base 5.0.2
 _ZN17QQuickPaintedItemC2EP10QQuickItem@Base 5.0.2
 _ZN17QQuickPaintedItemC2ER24QQuickPaintedItemPrivateP10QQuickItem@Base 5.0.2
 _ZN17QQuickPaintedItemD0Ev@Base 5.0.2
 _ZN17QQuickPaintedItemD1Ev@Base 5.0.2
 _ZN17QQuickPaintedItemD2Ev@Base 5.0.2
 _ZN17QSGDynamicTexture11qt_metacallEN11QMetaObject4CallEiPPv@Base 5.0.2
 _ZN17QSGDynamicTexture11qt_metacastEPKc@Base 5.0.2
 _ZN17QSGDynamicTexture16staticMetaObjectE@Base 5.0.2
 _ZN17QSGMaterialShader10deactivateEv@Base 5.0.2
 _ZN17QSGMaterialShader11updateStateERKNS_11RenderStateEP11QSGMaterialS4_@Base 5.0.2
 _ZN17QSGMaterialShader19setShaderSourceFileE6QFlagsIN13QOpenGLShader13ShaderTypeBitEERK7QString@Base 5.2.0~rc1
 _ZN17QSGMaterialShader20setShaderSourceFilesE6QFlagsIN13QOpenGLShader13ShaderTypeBitEERK11QStringList@Base 5.2.0~rc1
 _ZN17QSGMaterialShader7compileEv@Base 5.0.2
 _ZN17QSGMaterialShader8activateEv@Base 5.0.2
 _ZN17QSGMaterialShaderC1ER24QSGMaterialShaderPrivate@Base 5.2.0~rc1 1
 _ZN17QSGMaterialShaderC1Ev@Base 5.0.2
 _ZN17QSGMaterialShaderC2ER24QSGMaterialShaderPrivate@Base 5.2.0~rc1 1
 _ZN17QSGMaterialShaderC2Ev@Base 5.0.2
 _ZN17QSGMaterialShaderD0Ev@Base 5.2.0~rc1
 _ZN17QSGMaterialShaderD1Ev@Base 5.2.0~rc1
 _ZN17QSGMaterialShaderD2Ev@Base 5.2.0~rc1
 _ZN17QSGPainterTexture4bindEv@Base 5.0.2 1
 _ZN17QSGPainterTextureC1Ev@Base 5.0.2 1
 _ZN17QSGPainterTextureC2Ev@Base 5.0.2 1
 (optional=gccinternal)_ZN17QSGPainterTextureD0Ev@Base 5.0.2 1
 (optional=gccinternal)_ZN17QSGPainterTextureD1Ev@Base 5.0.2 1
 (optional=gccinternal)_ZN17QSGPainterTextureD2Ev@Base 5.0.2 1
 _ZN17QSGSimpleRectNode7setRectERK6QRectF@Base 5.0.2
 _ZN17QSGSimpleRectNode8setColorERK6QColor@Base 5.0.2
 _ZN17QSGSimpleRectNodeC1ERK6QRectFRK6QColor@Base 5.0.2
 _ZN17QSGSimpleRectNodeC1Ev@Base 5.0.2
 _ZN17QSGSimpleRectNodeC2ERK6QRectFRK6QColor@Base 5.0.2
 _ZN17QSGSimpleRectNodeC2Ev@Base 5.0.2
 (optional=gccinternal)_ZN17QSGSimpleRectNodeD0Ev@Base 5.0.2
 (optional=gccinternal)_ZN17QSGSimpleRectNodeD1Ev@Base 5.0.2
 (optional=gccinternal)_ZN17QSGSimpleRectNodeD2Ev@Base 5.0.2
 _ZN18QQmlQtQuick2Module12defineModuleEv@Base 5.0.2 1
 _ZN18QQmlQtQuick2Module14undefineModuleEv@Base 5.4.1 1
 _ZN18QQuickGradientStop11qt_metacallEN11QMetaObject4CallEiPPv@Base 5.3.0 1
 _ZN18QQuickGradientStop11qt_metacastEPKc@Base 5.3.0 1
 _ZN18QQuickGradientStop11setPositionEd@Base 5.3.0 1
 _ZN18QQuickGradientStop14updateGradientEv@Base 5.3.0 1
 _ZN18QQuickGradientStop16staticMetaObjectE@Base 5.3.0 1
 _ZN18QQuickGradientStop8setColorERK6QColor@Base 5.3.0 1
 _ZN18QQuickGradientStopC1EP7QObject@Base 5.3.0 1
 _ZN18QQuickGradientStopC2EP7QObject@Base 5.3.0 1
 (optional=gccinternal)_ZN18QQuickGradientStopD0Ev@Base 5.3.0 1
 (optional=gccinternal)_ZN18QQuickGradientStopD1Ev@Base 5.3.0 1
 (optional=gccinternal)_ZN18QQuickGradientStopD2Ev@Base 5.3.0 1
 _ZN18QQuickShaderEffect10itemChangeEN10QQuickItem10ItemChangeERKNS0_14ItemChangeDataE@Base 5.0.2 1
 _ZN18QQuickShaderEffect10logChangedEv@Base 5.0.2 1
 _ZN18QQuickShaderEffect11meshChangedEv@Base 5.0.2 1
 _ZN18QQuickShaderEffect11qt_metacallEN11QMetaObject4CallEiPPv@Base 5.0.2 1
 _ZN18QQuickShaderEffect11qt_metacastEPKc@Base 5.0.2 1
 _ZN18QQuickShaderEffect11setBlendingEb@Base 5.0.2 1
 _ZN18QQuickShaderEffect11setCullModeENS_8CullModeE@Base 5.0.2 1
 _ZN18QQuickShaderEffect13statusChangedEv@Base 5.0.2 1
 _ZN18QQuickShaderEffect14updateGeometryEv@Base 5.0.2 1
 _ZN18QQuickShaderEffect15blendingChangedEv@Base 5.0.2 1
 _ZN18QQuickShaderEffect15cullModeChangedEv@Base 5.0.2 1
 _ZN18QQuickShaderEffect15geometryChangedERK6QRectFS2_@Base 5.0.2 1
 _ZN18QQuickShaderEffect15propertyChangedEi@Base 5.0.2 1
 _ZN18QQuickShaderEffect15setVertexShaderERK10QByteArray@Base 5.0.2 1
 _ZN18QQuickShaderEffect15sourceDestroyedEP7QObject@Base 5.0.2 1
 _ZN18QQuickShaderEffect15updatePaintNodeEP7QSGNodePN10QQuickItem19UpdatePaintNodeDataE@Base 5.0.2 1
 _ZN18QQuickShaderEffect16staticMetaObjectE@Base 5.0.2 1
 _ZN18QQuickShaderEffect17componentCompleteEv@Base 5.0.2 1
 _ZN18QQuickShaderEffect17setFragmentShaderERK10QByteArray@Base 5.0.2 1
 _ZN18QQuickShaderEffect18updateLogAndStatusERK7QStringi@Base 5.0.2 1
 _ZN18QQuickShaderEffect19vertexShaderChangedEv@Base 5.0.2 1
 _ZN18QQuickShaderEffect21fragmentShaderChangedEv@Base 5.0.2 1
 _ZN18QQuickShaderEffect24setSupportsAtlasTexturesEb@Base 5.4.0 1
 _ZN18QQuickShaderEffect28supportsAtlasTexturesChangedEv@Base 5.4.0 1
 _ZN18QQuickShaderEffect5eventEP6QEvent@Base 5.0.2 1
 _ZN18QQuickShaderEffect7setMeshERK8QVariant@Base 5.0.2 1
 _ZN18QQuickShaderEffect8parseLogEv@Base 5.0.2 1
 _ZN18QQuickShaderEffectC1EP10QQuickItem@Base 5.0.2 1
 _ZN18QQuickShaderEffectC2EP10QQuickItem@Base 5.0.2 1
 _ZN18QQuickShaderEffectD0Ev@Base 5.0.2 1
 _ZN18QQuickShaderEffectD1Ev@Base 5.0.2 1
 _ZN18QQuickShaderEffectD2Ev@Base 5.0.2 1
 _ZN18QQuickSpriteEngine11qt_metacallEN11QMetaObject4CallEiPPv@Base 5.0.2 1
 _ZN18QQuickSpriteEngine11qt_metacastEPKc@Base 5.0.2 1
 _ZN18QQuickSpriteEngine11spriteCountEv@Base 5.0.2 1
 _ZN18QQuickSpriteEngine11spriteStartEi@Base 5.0.2 1
 _ZN18QQuickSpriteEngine11spriteStateEi@Base 5.0.2 1
 _ZN18QQuickSpriteEngine11spriteWidthEi@Base 5.0.2 1
 _ZN18QQuickSpriteEngine12spriteFramesEi@Base 5.0.2 1
 _ZN18QQuickSpriteEngine12spriteHeightEi@Base 5.0.2 1
 _ZN18QQuickSpriteEngine14assembledImageEv@Base 5.0.2 1
 _ZN18QQuickSpriteEngine14spriteDurationEi@Base 5.0.2 1
 _ZN18QQuickSpriteEngine16staticMetaObjectE@Base 5.0.2 1
 _ZN18QQuickSpriteEngine20pseudospriteProgressEiiPi@Base 5.0.2 1
 _ZN18QQuickSpriteEngine20startAssemblingImageEv@Base 5.0.2 1
 _ZN18QQuickSpriteEngine6spriteEi@Base 5.0.2 1
 _ZN18QQuickSpriteEngine6statusEv@Base 5.0.2 1
 _ZN18QQuickSpriteEngine7advanceEi@Base 5.0.2 1
 _ZN18QQuickSpriteEngine7restartEi@Base 5.0.2 1
 _ZN18QQuickSpriteEngine7spriteXEi@Base 5.0.2 1
 _ZN18QQuickSpriteEngine7spriteYEi@Base 5.0.2 1
 _ZN18QQuickSpriteEngine9maxFramesEv@Base 5.0.2 1
 _ZN18QQuickSpriteEngineC1E5QListIP12QQuickSpriteEP7QObject@Base 5.0.2 1
 _ZN18QQuickSpriteEngineC1EP7QObject@Base 5.0.2 1
 _ZN18QQuickSpriteEngineC2E5QListIP12QQuickSpriteEP7QObject@Base 5.0.2 1
 _ZN18QQuickSpriteEngineC2EP7QObject@Base 5.0.2 1
 _ZN18QQuickSpriteEngineD0Ev@Base 5.0.2 1
 _ZN18QQuickSpriteEngineD1Ev@Base 5.0.2 1
 _ZN18QQuickSpriteEngineD2Ev@Base 5.0.2 1
 _ZN18QQuickTextDocument11qt_metacallEN11QMetaObject4CallEiPPv@Base 5.1.0
 _ZN18QQuickTextDocument11qt_metacastEPKc@Base 5.1.0
 _ZN18QQuickTextDocument16staticMetaObjectE@Base 5.1.0
 _ZN18QQuickTextDocumentC1EP10QQuickItem@Base 5.1.0
 _ZN18QQuickTextDocumentC2EP10QQuickItem@Base 5.1.0
 (optional=gccinternal)_ZN18QQuickTextDocumentD0Ev@Base 5.1.0
 (optional=gccinternal)_ZN18QQuickTextDocumentD1Ev@Base 5.1.0
 (optional=gccinternal)_ZN18QQuickTextDocumentD2Ev@Base 5.1.0
 _ZN18QQuickWindowModule12defineModuleEv@Base 5.0.2 1
 _ZN18QQuickXAnimatorJob17updateCurrentTimeEi@Base 5.2.0~beta1 1
 _ZN18QQuickXAnimatorJob9writeBackEv@Base 5.2.0~beta1 1
 (optional=gccinternal)_ZN18QQuickXAnimatorJobD0Ev@Base 5.2.0~beta1 1
 (optional=gccinternal)_ZN18QQuickXAnimatorJobD1Ev@Base 5.2.0~beta1 1
 (optional=gccinternal)_ZN18QQuickXAnimatorJobD2Ev@Base 5.2.0~beta1 1
 _ZN18QQuickYAnimatorJob17updateCurrentTimeEi@Base 5.2.0~beta1 1
 _ZN18QQuickYAnimatorJob9writeBackEv@Base 5.2.0~beta1 1
 (optional=gccinternal)_ZN18QQuickYAnimatorJobD0Ev@Base 5.2.0~beta1 1
 (optional=gccinternal)_ZN18QQuickYAnimatorJobD1Ev@Base 5.2.0~beta1 1
 (optional=gccinternal)_ZN18QQuickYAnimatorJobD2Ev@Base 5.2.0~beta1 1
 (optional=gccinternal)_ZN18QSGTextureMaterialD0Ev@Base 5.0.2
 (optional=gccinternal)_ZN18QSGTextureMaterialD1Ev@Base 5.0.2
 (optional=gccinternal)_ZN18QSGTextureMaterialD2Ev@Base 5.0.2
 _ZN18QSGTextureProvider11qt_metacallEN11QMetaObject4CallEiPPv@Base 5.0.2
 _ZN18QSGTextureProvider11qt_metacastEPKc@Base 5.0.2
 _ZN18QSGTextureProvider14textureChangedEv@Base 5.0.2
 _ZN18QSGTextureProvider16staticMetaObjectE@Base 5.0.2
 _ZN19QQuickImageProvider12requestImageERK7QStringP5QSizeRKS3_@Base 5.0.2
 _ZN19QQuickImageProvider13requestPixmapERK7QStringP5QSizeRKS3_@Base 5.0.2
 _ZN19QQuickImageProvider14requestTextureERK7QStringP5QSizeRKS3_@Base 5.0.2
 _ZN19QQuickImageProviderC1EN21QQmlImageProviderBase9ImageTypeE6QFlagsINS0_4FlagEE@Base 5.0.2
 _ZN19QQuickImageProviderC2EN21QQmlImageProviderBase9ImageTypeE6QFlagsINS0_4FlagEE@Base 5.0.2
 _ZN19QQuickImageProviderD0Ev@Base 5.0.2
 _ZN19QQuickImageProviderD1Ev@Base 5.0.2
 _ZN19QQuickImageProviderD2Ev@Base 5.0.2
 _ZN19QQuickRenderControl10initializeEP14QOpenGLContext@Base 5.3.0
 _ZN19QQuickRenderControl10invalidateEv@Base 5.3.0
 _ZN19QQuickRenderControl11polishItemsEv@Base 5.3.0
 _ZN19QQuickRenderControl11qt_metacallEN11QMetaObject4CallEiPPv@Base 5.3.0
 _ZN19QQuickRenderControl11qt_metacastEPKc@Base 5.3.0
 _ZN19QQuickRenderControl12sceneChangedEv@Base 5.3.0
 _ZN19QQuickRenderControl15renderRequestedEv@Base 5.3.0
 _ZN19QQuickRenderControl15renderWindowForEP12QQuickWindowP6QPoint@Base 5.3.0
 _ZN19QQuickRenderControl16staticMetaObjectE@Base 5.3.0
 _ZN19QQuickRenderControl4grabEv@Base 5.3.0
 _ZN19QQuickRenderControl4syncEv@Base 5.3.0
 _ZN19QQuickRenderControl6renderEv@Base 5.3.0
 _ZN19QQuickRenderControlC1EP7QObject@Base 5.4.0
 _ZN19QQuickRenderControlC2EP7QObject@Base 5.4.0
 _ZN19QQuickRenderControlD0Ev@Base 5.3.0
 _ZN19QQuickRenderControlD1Ev@Base 5.3.0
 _ZN19QQuickRenderControlD2Ev@Base 5.3.0
 _ZN19QQuickScaleAnimator11qt_metacallEN11QMetaObject4CallEiPPv@Base 5.2.0~beta1 1
 _ZN19QQuickScaleAnimator11qt_metacastEPKc@Base 5.2.0~beta1 1
 _ZN19QQuickScaleAnimator16staticMetaObjectE@Base 5.2.0~beta1 1
 _ZN19QQuickScaleAnimatorC1EP7QObject@Base 5.2.0~beta1 1
 _ZN19QQuickScaleAnimatorC2EP7QObject@Base 5.2.0~beta1 1
 (optional=gccinternal)_ZN19QQuickScaleAnimatorD0Ev@Base 5.2.0~beta1 1
 (optional=gccinternal)_ZN19QQuickScaleAnimatorD1Ev@Base 5.2.0~beta1 1
 (optional=gccinternal)_ZN19QQuickScaleAnimatorD2Ev@Base 5.2.0~beta1 1
 _ZN19QQuickWindowPrivate10clearHoverEv@Base 5.0.2 1
 _ZN19QQuickWindowPrivate10data_clearEP16QQmlListPropertyI7QObjectE@Base 5.1.0 1
 _ZN19QQuickWindowPrivate10data_countEP16QQmlListPropertyI7QObjectE@Base 5.1.0 1
 _ZN19QQuickWindowPrivate11data_appendEP16QQmlListPropertyI7QObjectEPS1_@Base 5.1.0 1
 _ZN19QQuickWindowPrivate11polishItemsEv@Base 5.0.2 1
 _ZN19QQuickWindowPrivate12cleanupNodesEv@Base 5.0.2 1
 _ZN19QQuickWindowPrivate12updateCursorERK7QPointF@Base 5.0.2 1
 _ZN19QQuickWindowPrivate14findCursorItemEP10QQuickItemRK7QPointF@Base 5.0.2 1
 _ZN19QQuickWindowPrivate14sendHoverEventEN6QEvent4TypeEP10QQuickItemRK7QPointFS6_6QFlagsIN2Qt16KeyboardModifierEEb@Base 5.0.2 1
 _ZN19QQuickWindowPrivate14syncSceneGraphEv@Base 5.0.2 1
 _ZN19QQuickWindowPrivate15cloneMouseEventEP11QMouseEventP7QPointF@Base 5.0.2 1
 _ZN19QQuickWindowPrivate15deliverKeyEventEP9QKeyEvent@Base 5.3.0 1
 _ZN19QQuickWindowPrivate15runAndClearJobsEP5QListIP9QRunnableE@Base 5.4.0 1
 _ZN19QQuickWindowPrivate15setFocusInScopeEP10QQuickItemS1_N2Qt11FocusReasonE6QFlagsINS_11FocusOptionEE@Base 5.1.0 1
 _ZN19QQuickWindowPrivate15setMouseGrabberEP10QQuickItem@Base 5.2.1 1
 _ZN19QQuickWindowPrivate15updateDirtyNodeEP10QQuickItem@Base 5.0.2 1
 _ZN19QQuickWindowPrivate16clearFocusObjectEv@Base 5.2.0~rc1 1
 _ZN19QQuickWindowPrivate16deliverDragEventEP17QQuickDragGrabberP10QQuickItemP14QDragMoveEvent@Base 5.0.2 1
 _ZN19QQuickWindowPrivate16deliverDragEventEP17QQuickDragGrabberP6QEvent@Base 5.0.2 1
 _ZN19QQuickWindowPrivate16renderSceneGraphERK5QSize@Base 5.0.2 1
 _ZN19QQuickWindowPrivate16updateDirtyNodesEv@Base 5.0.2 1
 _ZN19QQuickWindowPrivate17clearFocusInScopeEP10QQuickItemS1_N2Qt11FocusReasonE6QFlagsINS_11FocusOptionEE@Base 5.1.0 1
 _ZN19QQuickWindowPrivate17deliverHoverEventEP10QQuickItemRK7QPointFS4_6QFlagsIN2Qt16KeyboardModifierEERb@Base 5.0.2 1
 _ZN19QQuickWindowPrivate17deliverMouseEventEP11QMouseEvent@Base 5.0.2 1
 _ZN19QQuickWindowPrivate17deliverTouchEventEP11QTouchEvent@Base 5.0.2 1
 _ZN19QQuickWindowPrivate17deliverWheelEventEP10QQuickItemP11QWheelEvent@Base 5.0.2 1
 _ZN19QQuickWindowPrivate17dragOverThresholdEdN2Qt4AxisEP11QMouseEventi@Base 5.2.0~beta1 1
 _ZN19QQuickWindowPrivate18defaultAlphaBufferE@Base 5.1.0 1
 _ZN19QQuickWindowPrivate18deliverTouchPointsEP10QQuickItemP11QTouchEventRK5QListINS2_10TouchPointEEP4QSetIiEP5QHashIS1_S6_EPS9_IS1_E@Base 5.4.0 1
 _ZN19QQuickWindowPrivate19translateTouchEventEP11QTouchEvent@Base 5.0.2 1
 _ZN19QQuickWindowPrivate20checkIfDoubleClickedEm@Base 5.0.2 1
 _ZN19QQuickWindowPrivate20touchEventWithPointsERK11QTouchEventRK5QListINS0_10TouchPointEE@Base 5.0.2 1
 _ZN19QQuickWindowPrivate20transformTouchPointsER5QListIN11QTouchEvent10TouchPointEERK10QTransform@Base 5.0.2 1
 _ZN19QQuickWindowPrivate21translateTouchToMouseEP10QQuickItemP11QTouchEvent@Base 5.0.2 1
 _ZN19QQuickWindowPrivate22cleanupNodesOnShutdownEP10QQuickItem@Base 5.0.2 1
 _ZN19QQuickWindowPrivate22cleanupNodesOnShutdownEv@Base 5.0.2 1
 _ZN19QQuickWindowPrivate22flushDelayedTouchEventEv@Base 5.4.0 1
 _ZN19QQuickWindowPrivate22sendFilteredMouseEventEP10QQuickItemS1_P6QEventP4QSetIS1_E@Base 5.4.0 1
 _ZN19QQuickWindowPrivate22sendFilteredTouchEventEP10QQuickItemS1_P11QTouchEventP4QSetIS1_E@Base 5.4.0 1
 _ZN19QQuickWindowPrivate23deliverTouchCancelEventEP11QTouchEvent@Base 5.0.2 1
 _ZN19QQuickWindowPrivate23notifyFocusChangesRecurEPP10QQuickItemi@Base 5.0.2 1
 _ZN19QQuickWindowPrivate23reallyDeliverTouchEventEP11QTouchEvent@Base 5.4.0 1
 _ZN19QQuickWindowPrivate23touchEventForItemBoundsEP10QQuickItemRK11QTouchEvent@Base 5.0.2 1
 _ZN19QQuickWindowPrivate24updateFocusItemTransformEv@Base 5.0.2 1
 _ZN19QQuickWindowPrivate27deliverMatchingPointsToItemEP10QQuickItemP11QTouchEventP4QSetIiERKS5_RK5QListINS2_10TouchPointEEPS4_IS1_E@Base 5.4.0 1
 _ZN19QQuickWindowPrivate29contextCreationFailureMessageERK14QSurfaceFormatP7QStringS4_b@Base 5.3.0 1
 _ZN19QQuickWindowPrivate29deliverInitialMousePressEventEP10QQuickItemP11QMouseEvent@Base 5.0.2 1
 _ZN19QQuickWindowPrivate4dataEv@Base 5.0.2 1
 _ZN19QQuickWindowPrivate4initEP12QQuickWindowP19QQuickRenderControl@Base 5.3.0 1
 _ZN19QQuickWindowPrivate7cleanupEP7QSGNode@Base 5.0.2 1
 _ZN19QQuickWindowPrivate7data_atEP16QQmlListPropertyI7QObjectEi@Base 5.1.0 1
 _ZN19QQuickWindowPrivate9dirtyItemEP10QQuickItem@Base 5.0.2 1
 _ZN19QQuickWindowPrivate9emitErrorEN12QQuickWindow15SceneGraphErrorERK7QString@Base 5.3.0 1
 _ZN19QQuickWindowPrivateC1Ev@Base 5.0.2 1
 _ZN19QQuickWindowPrivateC2Ev@Base 5.0.2 1
 _ZN19QQuickWindowPrivateD0Ev@Base 5.0.2 1
 _ZN19QQuickWindowPrivateD1Ev@Base 5.0.2 1
 _ZN19QQuickWindowPrivateD2Ev@Base 5.0.2 1
 _ZN19QSGAbstractRenderer11qt_metacallEN11QMetaObject4CallEiPPv@Base 5.4.0
 _ZN19QSGAbstractRenderer11qt_metacastEPKc@Base 5.4.0
 _ZN19QSGAbstractRenderer11setRootNodeEP11QSGRootNode@Base 5.4.0
 _ZN19QSGAbstractRenderer12setClearModeE6QFlagsINS_12ClearModeBitEE@Base 5.4.0
 _ZN19QSGAbstractRenderer13setClearColorERK6QColor@Base 5.4.0
 _ZN19QSGAbstractRenderer13setDeviceRectERK5QRect@Base 5.4.0
 _ZN19QSGAbstractRenderer15setViewportRectERK5QRect@Base 5.4.0
 _ZN19QSGAbstractRenderer16staticMetaObjectE@Base 5.4.0
 _ZN19QSGAbstractRenderer17sceneGraphChangedEv@Base 5.4.0
 _ZN19QSGAbstractRenderer19setProjectionMatrixERK10QMatrix4x4@Base 5.4.0
 _ZN19QSGAbstractRenderer25setProjectionMatrixToRectERK6QRectF@Base 5.4.0
 _ZN19QSGAbstractRendererC1EP7QObject@Base 5.4.0
 _ZN19QSGAbstractRendererC2EP7QObject@Base 5.4.0
 _ZN19QSGAbstractRendererD0Ev@Base 5.4.0
 _ZN19QSGAbstractRendererD1Ev@Base 5.4.0
 _ZN19QSGAbstractRendererD2Ev@Base 5.4.0
 _ZN19QSGDefaultImageNode10preprocessEv@Base 5.1.0 1
 _ZN19QSGDefaultImageNode10setTextureEP10QSGTexture@Base 5.1.0 1
 _ZN19QSGDefaultImageNode12setFilteringEN10QSGTexture9FilteringE@Base 5.1.0 1
 _ZN19QSGDefaultImageNode13setTargetRectERK6QRectF@Base 5.1.0 1
 _ZN19QSGDefaultImageNode14updateGeometryEv@Base 5.1.0 1
 _ZN19QSGDefaultImageNode15setAntialiasingEb@Base 5.1.0 1
 _ZN19QSGDefaultImageNode16setSubSourceRectERK6QRectF@Base 5.1.0 1
 _ZN19QSGDefaultImageNode18setInnerSourceRectERK6QRectF@Base 5.1.0 1
 _ZN19QSGDefaultImageNode18setInnerTargetRectERK6QRectF@Base 5.1.0 1
 _ZN19QSGDefaultImageNode18setMipmapFilteringEN10QSGTexture9FilteringE@Base 5.1.0 1
 _ZN19QSGDefaultImageNode19setVerticalWrapModeEN10QSGTexture8WrapModeE@Base 5.1.0 1
 _ZN19QSGDefaultImageNode21setHorizontalWrapModeEN10QSGTexture8WrapModeE@Base 5.1.0 1
 _ZN19QSGDefaultImageNode6updateEv@Base 5.1.0 1
 _ZN19QSGDefaultImageNode9setMirrorEb@Base 5.1.0 1
 _ZN19QSGDefaultImageNodeC1Ev@Base 5.1.0 1
 _ZN19QSGDefaultImageNodeC2Ev@Base 5.1.0 1
 (optional=gccinternal)_ZN19QSGDefaultImageNodeD0Ev@Base 5.1.0 1
 (optional=gccinternal)_ZN19QSGDefaultImageNodeD1Ev@Base 5.1.0 1
 (optional=gccinternal)_ZN19QSGDefaultImageNodeD2Ev@Base 5.1.0 1
 _ZN20QQuickAnimationGroup10animationsEv@Base 5.0.2 1
 _ZN20QQuickAnimationGroup11qt_metacallEN11QMetaObject4CallEiPPv@Base 5.0.2 1
 _ZN20QQuickAnimationGroup11qt_metacastEPKc@Base 5.0.2 1
 _ZN20QQuickAnimationGroup16staticMetaObjectE@Base 5.0.2 1
 _ZN20QQuickAnimationGroupC1EP7QObject@Base 5.0.2 1
 _ZN20QQuickAnimationGroupC1ER27QQuickAnimationGroupPrivateP7QObject@Base 5.0.2 1
 _ZN20QQuickAnimationGroupC2EP7QObject@Base 5.0.2 1
 _ZN20QQuickAnimationGroupC2ER27QQuickAnimationGroupPrivateP7QObject@Base 5.0.2 1
 _ZN20QQuickAnimationGroupD0Ev@Base 5.0.2 1
 _ZN20QQuickAnimationGroupD1Ev@Base 5.0.2 1
 _ZN20QQuickAnimationGroupD2Ev@Base 5.0.2 1
 _ZN20QQuickBasePositioner10addChangedEv@Base 5.0.2 1
 _ZN20QQuickBasePositioner10itemChangeEN10QQuickItem10ItemChangeERKNS0_14ItemChangeDataE@Base 5.0.2 1
 _ZN20QQuickBasePositioner10setSpacingEd@Base 5.2.0 1
 _ZN20QQuickBasePositioner11moveChangedEv@Base 5.0.2 1
 _ZN20QQuickBasePositioner11qt_metacallEN11QMetaObject4CallEiPPv@Base 5.0.2 1
 _ZN20QQuickBasePositioner11qt_metacastEPKc@Base 5.0.2 1
 _ZN20QQuickBasePositioner11setPopulateEP16QQuickTransition@Base 5.0.2 1
 _ZN20QQuickBasePositioner12positionItemEddPNS_14PositionedItemE@Base 5.2.0 1
 _ZN20QQuickBasePositioner12updatePolishEv@Base 5.0.2 1
 _ZN20QQuickBasePositioner13positionItemXEdPNS_14PositionedItemE@Base 5.2.0 1
 _ZN20QQuickBasePositioner13positionItemYEdPNS_14PositionedItemE@Base 5.2.0 1
 _ZN20QQuickBasePositioner14PositionedItem15startTransitionEP26QQuickItemViewTransitioner@Base 5.0.2 1
 _ZN20QQuickBasePositioner14PositionedItem17prepareTransitionEP26QQuickItemViewTransitionerRK6QRectF@Base 5.0.2 1
 _ZN20QQuickBasePositioner14PositionedItem24transitionNextRepositionEP26QQuickItemViewTransitionerNS1_14TransitionTypeEb@Base 5.0.2 1
 _ZN20QQuickBasePositioner14PositionedItem6moveToERK7QPointF@Base 5.0.2 1
 _ZN20QQuickBasePositioner14PositionedItemC1EP10QQuickItem@Base 5.0.2 1
 _ZN20QQuickBasePositioner14PositionedItemC2EP10QQuickItem@Base 5.0.2 1
 _ZN20QQuickBasePositioner14PositionedItemD1Ev@Base 5.0.2 1
 _ZN20QQuickBasePositioner14PositionedItemD2Ev@Base 5.0.2 1
 _ZN20QQuickBasePositioner14prePositioningEv@Base 5.0.2 1
 _ZN20QQuickBasePositioner14spacingChangedEv@Base 5.0.2 1
 _ZN20QQuickBasePositioner15populateChangedEv@Base 5.0.2 1
 _ZN20QQuickBasePositioner16staticMetaObjectE@Base 5.0.2 1
 _ZN20QQuickBasePositioner17componentCompleteEv@Base 5.0.2 1
 _ZN20QQuickBasePositioner20clearPositionedItemsEP10QPODVectorINS_14PositionedItemELi8EE@Base 5.0.2 1
 _ZN20QQuickBasePositioner20removePositionedItemEP10QPODVectorINS_14PositionedItemELi8EEi@Base 5.0.2 1
 _ZN20QQuickBasePositioner21qmlAttachedPropertiesEP7QObject@Base 5.0.2 1
 _ZN20QQuickBasePositioner6setAddEP16QQuickTransition@Base 5.0.2 1
 _ZN20QQuickBasePositioner7setMoveEP16QQuickTransition@Base 5.0.2 1
 _ZN20QQuickBasePositionerC1ENS_14PositionerTypeEP10QQuickItem@Base 5.0.2 1
 _ZN20QQuickBasePositionerC1ER27QQuickBasePositionerPrivateNS_14PositionerTypeEP10QQuickItem@Base 5.0.2 1
 _ZN20QQuickBasePositionerC2ENS_14PositionerTypeEP10QQuickItem@Base 5.0.2 1
 _ZN20QQuickBasePositionerC2ER27QQuickBasePositionerPrivateNS_14PositionerTypeEP10QQuickItem@Base 5.0.2 1
 _ZN20QQuickBasePositionerD0Ev@Base 5.0.2 1
 _ZN20QQuickBasePositionerD1Ev@Base 5.0.2 1
 _ZN20QQuickBasePositionerD2Ev@Base 5.0.2 1
 _ZN20QQuickColorAnimation11qt_metacallEN11QMetaObject4CallEiPPv@Base 5.0.2 1
 _ZN20QQuickColorAnimation11qt_metacastEPKc@Base 5.0.2 1
 _ZN20QQuickColorAnimation16staticMetaObjectE@Base 5.0.2 1
 _ZN20QQuickColorAnimation5setToERK6QColor@Base 5.0.2 1
 _ZN20QQuickColorAnimation7setFromERK6QColor@Base 5.0.2 1
 _ZN20QQuickColorAnimationC1EP7QObject@Base 5.0.2 1
 _ZN20QQuickColorAnimationC2EP7QObject@Base 5.0.2 1
 _ZN20QQuickColorAnimationD0Ev@Base 5.0.2 1
 _ZN20QQuickColorAnimationD1Ev@Base 5.0.2 1
 _ZN20QQuickColorAnimationD2Ev@Base 5.0.2 1
 _ZN20QQuickItemGrabResult10saveToFileERK7QString@Base 5.4.0
 _ZN20QQuickItemGrabResult11qt_metacallEN11QMetaObject4CallEiPPv@Base 5.4.0
 _ZN20QQuickItemGrabResult11qt_metacastEPKc@Base 5.4.0
 _ZN20QQuickItemGrabResult16staticMetaObjectE@Base 5.4.0
 _ZN20QQuickItemGrabResult5eventEP6QEvent@Base 5.4.0
 _ZN20QQuickItemGrabResult5readyEv@Base 5.4.0
 _ZN20QQuickItemGrabResult5setupEv@Base 5.4.0
 _ZN20QQuickItemGrabResult6renderEv@Base 5.4.0
 _ZN20QQuickItemGrabResultC1EP7QObject@Base 5.4.0
 _ZN20QQuickItemGrabResultC2EP7QObject@Base 5.4.0
 (optional=gccinternal)_ZN20QQuickItemGrabResultD0Ev@Base 5.4.0
 (optional=gccinternal)_ZN20QQuickItemGrabResultD1Ev@Base 5.4.0
 (optional=gccinternal)_ZN20QQuickItemGrabResultD2Ev@Base 5.4.0
 _ZN20QQuickPauseAnimation10transitionER5QListI17QQuickStateActionERS0_I12QQmlPropertyEN23QQuickAbstractAnimation19TransitionDirectionEP7QObject@Base 5.2.0~beta1 1
 _ZN20QQuickPauseAnimation11qt_metacallEN11QMetaObject4CallEiPPv@Base 5.0.2 1
 _ZN20QQuickPauseAnimation11qt_metacastEPKc@Base 5.0.2 1
 _ZN20QQuickPauseAnimation11setDurationEi@Base 5.0.2 1
 _ZN20QQuickPauseAnimation15durationChangedEi@Base 5.0.2 1
 _ZN20QQuickPauseAnimation16staticMetaObjectE@Base 5.0.2 1
 _ZN20QQuickPauseAnimationC1EP7QObject@Base 5.0.2 1
 _ZN20QQuickPauseAnimationC2EP7QObject@Base 5.0.2 1
 _ZN20QQuickPauseAnimationD0Ev@Base 5.0.2 1
 _ZN20QQuickPauseAnimationD1Ev@Base 5.0.2 1
 _ZN20QQuickPauseAnimationD2Ev@Base 5.0.2 1
 _ZN20QQuickStateOperation11qt_metacallEN11QMetaObject4CallEiPPv@Base 5.0.2 1
 _ZN20QQuickStateOperation11qt_metacastEPKc@Base 5.0.2 1
 _ZN20QQuickStateOperation16staticMetaObjectE@Base 5.0.2 1
 _ZN20QQuickStateOperation7actionsEv@Base 5.0.2 1
 _ZN20QQuickStateOperation8setStateEP11QQuickState@Base 5.0.2 1
 _ZN20QQuickStateOperationC1ER14QObjectPrivateP7QObject@Base 5.0.2 1
 _ZN20QQuickStateOperationC2ER14QObjectPrivateP7QObject@Base 5.0.2 1
 (optional=gccinternal)_ZN20QQuickStateOperationD0Ev@Base 5.0.2 1
 (optional=gccinternal)_ZN20QQuickStateOperationD1Ev@Base 5.0.2 1
 (optional=gccinternal)_ZN20QQuickStateOperationD2Ev@Base 5.0.2 1
 _ZN20QQuickTextureFactoryC1Ev@Base 5.0.2
 _ZN20QQuickTextureFactoryC2Ev@Base 5.0.2
 _ZN20QQuickTextureFactoryD0Ev@Base 5.0.2
 _ZN20QQuickTextureFactoryD1Ev@Base 5.0.2
 _ZN20QQuickTextureFactoryD2Ev@Base 5.0.2
 _ZN20QSGBasicGeometryNode11setGeometryEP11QSGGeometry@Base 5.0.2
 _ZN20QSGBasicGeometryNodeC1EN7QSGNode8NodeTypeE@Base 5.0.2
 _ZN20QSGBasicGeometryNodeC1ER27QSGBasicGeometryNodePrivateN7QSGNode8NodeTypeE@Base 5.2.0~beta1
 _ZN20QSGBasicGeometryNodeC2EN7QSGNode8NodeTypeE@Base 5.0.2
 _ZN20QSGBasicGeometryNodeC2ER27QSGBasicGeometryNodePrivateN7QSGNode8NodeTypeE@Base 5.2.0~beta1
 _ZN20QSGBasicGeometryNodeD0Ev@Base 5.0.2
 _ZN20QSGBasicGeometryNodeD1Ev@Base 5.0.2
 _ZN20QSGBasicGeometryNodeD2Ev@Base 5.0.2
 _ZN20QSGFlatColorMaterial8setColorERK6QColor@Base 5.0.2
 _ZN20QSGFlatColorMaterialC1Ev@Base 5.0.2
 _ZN20QSGFlatColorMaterialC2Ev@Base 5.0.2
 (optional=gccinternal)_ZN20QSGFlatColorMaterialD0Ev@Base 5.0.2
 (optional=gccinternal)_ZN20QSGFlatColorMaterialD1Ev@Base 5.0.2
 (optional=gccinternal)_ZN20QSGFlatColorMaterialD2Ev@Base 5.0.2
 _ZN20QSGSimpleTextureNode10setTextureEP10QSGTexture@Base 5.0.2
 _ZN20QSGSimpleTextureNode12setFilteringEN10QSGTexture9FilteringE@Base 5.0.2
 _ZN20QSGSimpleTextureNode14setOwnsTextureEb@Base 5.4.0
 _ZN20QSGSimpleTextureNode30setTextureCoordinatesTransformE6QFlagsINS_31TextureCoordinatesTransformFlagEE@Base 5.2.0~beta1
 _ZN20QSGSimpleTextureNode7setRectERK6QRectF@Base 5.0.2
 _ZN20QSGSimpleTextureNodeC1Ev@Base 5.0.2
 _ZN20QSGSimpleTextureNodeC2Ev@Base 5.0.2
 _ZN20QSGSimpleTextureNodeD0Ev@Base 5.0.2
 _ZN20QSGSimpleTextureNodeD1Ev@Base 5.0.2
 _ZN20QSGSimpleTextureNodeD2Ev@Base 5.0.2
 _ZN21QQuickDefaultClipNode14updateGeometryEv@Base 5.2.0~beta1 1
 _ZN21QQuickDefaultClipNode6updateEv@Base 5.2.0~beta1 1
 _ZN21QQuickDefaultClipNode7setRectERK6QRectF@Base 5.2.0~beta1 1
 _ZN21QQuickDefaultClipNode9setRadiusEd@Base 5.2.0~beta1 1
 _ZN21QQuickDefaultClipNodeC1ERK6QRectF@Base 5.2.0~beta1 1
 _ZN21QQuickDefaultClipNodeC2ERK6QRectF@Base 5.2.0~beta1 1
 (optional=gccinternal)_ZN21QQuickDefaultClipNodeD0Ev@Base 5.2.0~beta1 1
 (optional=gccinternal)_ZN21QQuickDefaultClipNodeD1Ev@Base 5.2.0~beta1 1
 (optional=gccinternal)_ZN21QQuickDefaultClipNodeD2Ev@Base 5.2.0~beta1 1
 _ZN21QQuickNumberAnimation11qt_metacallEN11QMetaObject4CallEiPPv@Base 5.0.2 1
 _ZN21QQuickNumberAnimation11qt_metacastEPKc@Base 5.0.2 1
 _ZN21QQuickNumberAnimation16staticMetaObjectE@Base 5.0.2 1
 _ZN21QQuickNumberAnimation4initEv@Base 5.0.2 1
 _ZN21QQuickNumberAnimation5setToEd@Base 5.2.0 1
 _ZN21QQuickNumberAnimation7setFromEd@Base 5.2.0 1
 _ZN21QQuickNumberAnimationC1EP7QObject@Base 5.0.2 1
 _ZN21QQuickNumberAnimationC1ER30QQuickPropertyAnimationPrivateP7QObject@Base 5.0.2 1
 _ZN21QQuickNumberAnimationC2EP7QObject@Base 5.0.2 1
 _ZN21QQuickNumberAnimationC2ER30QQuickPropertyAnimationPrivateP7QObject@Base 5.0.2 1
 _ZN21QQuickNumberAnimationD0Ev@Base 5.0.2 1
 _ZN21QQuickNumberAnimationD1Ev@Base 5.0.2 1
 _ZN21QQuickNumberAnimationD2Ev@Base 5.0.2 1
 _ZN21QQuickOpacityAnimator11qt_metacallEN11QMetaObject4CallEiPPv@Base 5.2.0~beta1 1
 _ZN21QQuickOpacityAnimator11qt_metacastEPKc@Base 5.2.0~beta1 1
 _ZN21QQuickOpacityAnimator16staticMetaObjectE@Base 5.2.0~beta1 1
 _ZN21QQuickOpacityAnimatorC1EP7QObject@Base 5.2.0~beta1 1
 _ZN21QQuickOpacityAnimatorC2EP7QObject@Base 5.2.0~beta1 1
 (optional=gccinternal)_ZN21QQuickOpacityAnimatorD0Ev@Base 5.2.0~beta1 1
 (optional=gccinternal)_ZN21QQuickOpacityAnimatorD1Ev@Base 5.2.0~beta1 1
 (optional=gccinternal)_ZN21QQuickOpacityAnimatorD2Ev@Base 5.2.0~beta1 1
 _ZN21QQuickPropertyChanges11changeValueERK7QStringRK8QVariant@Base 5.0.2 1
 _ZN21QQuickPropertyChanges11qt_metacallEN11QMetaObject4CallEiPPv@Base 5.0.2 1
 _ZN21QQuickPropertyChanges11qt_metacastEPKc@Base 5.0.2 1
 _ZN21QQuickPropertyChanges13attachToStateEv@Base 5.0.2 1
 _ZN21QQuickPropertyChanges13setIsExplicitEb@Base 5.0.2 1
 _ZN21QQuickPropertyChanges14removePropertyERK7QString@Base 5.0.2 1
 _ZN21QQuickPropertyChanges15detachFromStateEv@Base 5.0.2 1
 _ZN21QQuickPropertyChanges16changeExpressionERK7QStringS2_@Base 5.0.2 1
 _ZN21QQuickPropertyChanges16staticMetaObjectE@Base 5.0.2 1
 _ZN21QQuickPropertyChanges21setRestoreEntryValuesEb@Base 5.0.2 1
 _ZN21QQuickPropertyChanges7actionsEv@Base 5.0.2 1
 _ZN21QQuickPropertyChanges9setObjectEP7QObject@Base 5.0.2 1
 _ZN21QQuickPropertyChangesC1Ev@Base 5.0.2 1
 _ZN21QQuickPropertyChangesC2Ev@Base 5.0.2 1
 _ZN21QQuickPropertyChangesD0Ev@Base 5.0.2 1
 _ZN21QQuickPropertyChangesD1Ev@Base 5.0.2 1
 _ZN21QQuickPropertyChangesD2Ev@Base 5.0.2 1
 _ZN21QQuickStochasticState11nameChangedERK7QString@Base 5.4.0 1
 _ZN21QQuickStochasticState11qt_metacallEN11QMetaObject4CallEiPPv@Base 5.0.2 1
 _ZN21QQuickStochasticState11qt_metacastEPKc@Base 5.0.2 1
 _ZN21QQuickStochasticState15durationChangedEi@Base 5.0.2 1
 _ZN21QQuickStochasticState16staticMetaObjectE@Base 5.0.2 1
 _ZN21QQuickStochasticState18randomStartChangedEb@Base 5.0.2 1
 _ZN21QQuickStochasticState24durationVariationChangedEi@Base 5.0.2 1
 _ZN21QQuickStochasticState7enteredEv@Base 5.0.2 1
 _ZN21QQuickStochasticState9toChangedERK4QMapI7QString8QVariantE@Base 5.4.0 1
 (optional=gccinternal)_ZN21QQuickStochasticStateD0Ev@Base 5.0.2 1
 (optional=gccinternal)_ZN21QQuickStochasticStateD1Ev@Base 5.0.2 1
 (optional=gccinternal)_ZN21QQuickStochasticStateD2Ev@Base 5.0.2 1
 _ZN21QQuickUniformAnimator10setUniformERK7QString@Base 5.2.0~beta1 1
 _ZN21QQuickUniformAnimator11qt_metacallEN11QMetaObject4CallEiPPv@Base 5.2.0~beta1 1
 _ZN21QQuickUniformAnimator11qt_metacastEPKc@Base 5.2.0~beta1 1
 _ZN21QQuickUniformAnimator14uniformChangedERK7QString@Base 5.2.0~beta1 1
 _ZN21QQuickUniformAnimator16staticMetaObjectE@Base 5.2.0~beta1 1
 _ZN21QQuickUniformAnimatorC1EP7QObject@Base 5.2.0~beta1 1
 _ZN21QQuickUniformAnimatorC2EP7QObject@Base 5.2.0~beta1 1
 (optional=gccinternal)_ZN21QQuickUniformAnimatorD0Ev@Base 5.2.0~beta1 1
 (optional=gccinternal)_ZN21QQuickUniformAnimatorD1Ev@Base 5.2.0~beta1 1
 (optional=gccinternal)_ZN21QQuickUniformAnimatorD2Ev@Base 5.2.0~beta1 1
 _ZN21QSGDefaultPainterNode12setFillColorERK6QColor@Base 5.4.0 1
 _ZN21QSGDefaultPainterNode13setMipmappingEb@Base 5.4.0 1
 _ZN21QSGDefaultPainterNode13updateFBOSizeEv@Base 5.4.0 1
 _ZN21QSGDefaultPainterNode13updateTextureEv@Base 5.4.0 1
 _ZN21QSGDefaultPainterNode14updateGeometryEv@Base 5.4.0 1
 _ZN21QSGDefaultPainterNode16setContentsScaleEd@Base 5.4.0 1
 _ZN21QSGDefaultPainterNode17setOpaquePaintingEb@Base 5.4.0 1
 _ZN21QSGDefaultPainterNode17setSmoothPaintingEb@Base 5.4.0 1
 _ZN21QSGDefaultPainterNode18setFastFBOResizingEb@Base 5.4.0 1
 _ZN21QSGDefaultPainterNode18setLinearFilteringEb@Base 5.4.0 1
 _ZN21QSGDefaultPainterNode18updateRenderTargetEv@Base 5.4.0 1
 _ZN21QSGDefaultPainterNode24setPreferredRenderTargetEN17QQuickPaintedItem12RenderTargetE@Base 5.4.0 1
 _ZN21QSGDefaultPainterNode5paintEv@Base 5.4.0 1
 _ZN21QSGDefaultPainterNode6updateEv@Base 5.4.0 1
 _ZN21QSGDefaultPainterNode7setSizeERK5QSize@Base 5.4.0 1
 _ZN21QSGDefaultPainterNode8setDirtyERK5QRect@Base 5.4.0 1
 _ZN21QSGDefaultPainterNodeC1EP17QQuickPaintedItem@Base 5.4.0 1
 _ZN21QSGDefaultPainterNodeC2EP17QQuickPaintedItem@Base 5.4.0 1
 _ZN21QSGDefaultPainterNodeD0Ev@Base 5.4.0 1
 _ZN21QSGDefaultPainterNodeD1Ev@Base 5.4.0 1
 _ZN21QSGDefaultPainterNodeD2Ev@Base 5.4.0 1
 _ZN22QQuickAnimatorProxyJob11qt_metacallEN11QMetaObject4CallEiPPv@Base 5.2.0~beta1 1
 _ZN22QQuickAnimatorProxyJob11qt_metacastEPKc@Base 5.2.0~beta1 1
 _ZN22QQuickAnimatorProxyJob11updateStateEN21QAbstractAnimationJob5StateES1_@Base 5.2.0~beta1 1
 _ZN22QQuickAnimatorProxyJob13windowChangedEP12QQuickWindow@Base 5.2.0~beta1 1
 _ZN22QQuickAnimatorProxyJob14readyToAnimateEv@Base 5.2.0~beta1 1
 _ZN22QQuickAnimatorProxyJob16staticMetaObjectE@Base 5.2.0~beta1 1
 _ZN22QQuickAnimatorProxyJob17updateCurrentTimeEi@Base 5.2.0~beta1 1
 _ZN22QQuickAnimatorProxyJob19startedByControllerEv@Base 5.2.0~rc1 1
 _ZN22QQuickAnimatorProxyJob20controllerWasDeletedEv@Base 5.2.0~rc1 1
 _ZN22QQuickAnimatorProxyJob20findAnimationContextEP23QQuickAbstractAnimation@Base 5.2.0~beta1 1
 _ZN22QQuickAnimatorProxyJob21sceneGraphInitializedEv@Base 5.2.0~beta1 1
 _ZN22QQuickAnimatorProxyJob21syncBackCurrentValuesEv@Base 5.2.0~beta1 1
 _ZN22QQuickAnimatorProxyJob9deleteJobEv@Base 5.2.0~beta1 1
 _ZN22QQuickAnimatorProxyJob9setWindowEP12QQuickWindow@Base 5.2.0~beta1 1
 _ZN22QQuickAnimatorProxyJobC1EP21QAbstractAnimationJobP7QObject@Base 5.2.0~beta1 1
 _ZN22QQuickAnimatorProxyJobC2EP21QAbstractAnimationJobP7QObject@Base 5.2.0~beta1 1
 _ZN22QQuickAnimatorProxyJobD0Ev@Base 5.2.0~beta1 1
 _ZN22QQuickAnimatorProxyJobD1Ev@Base 5.2.0~beta1 1
 _ZN22QQuickAnimatorProxyJobD2Ev@Base 5.2.0~beta1 1
 _ZN22QQuickImplicitSizeItem11qt_metacallEN11QMetaObject4CallEiPPv@Base 5.0.2 1
 _ZN22QQuickImplicitSizeItem11qt_metacastEPKc@Base 5.0.2 1
 _ZN22QQuickImplicitSizeItem16staticMetaObjectE@Base 5.0.2 1
 _ZN22QQuickImplicitSizeItem21implicitWidthChanged2Ev@Base 5.1.0 1
 _ZN22QQuickImplicitSizeItem22implicitHeightChanged2Ev@Base 5.1.0 1
 _ZN22QQuickImplicitSizeItemC1ER29QQuickImplicitSizeItemPrivateP10QQuickItem@Base 5.0.2 1
 _ZN22QQuickImplicitSizeItemC2ER29QQuickImplicitSizeItemPrivateP10QQuickItem@Base 5.0.2 1
 (optional=gccinternal)_ZN22QQuickImplicitSizeItemD0Ev@Base 5.0.2 1
 (optional=gccinternal)_ZN22QQuickImplicitSizeItemD1Ev@Base 5.0.2 1
 (optional=gccinternal)_ZN22QQuickImplicitSizeItemD2Ev@Base 5.0.2 1
 _ZN22QQuickRotationAnimator11qt_metacallEN11QMetaObject4CallEiPPv@Base 5.2.0~beta1 1
 _ZN22QQuickRotationAnimator11qt_metacastEPKc@Base 5.2.0~beta1 1
 _ZN22QQuickRotationAnimator12setDirectionENS_17RotationDirectionE@Base 5.2.0~beta1 1
 _ZN22QQuickRotationAnimator16directionChangedENS_17RotationDirectionE@Base 5.2.0~beta1 1
 _ZN22QQuickRotationAnimator16staticMetaObjectE@Base 5.2.0~beta1 1
 _ZN22QQuickRotationAnimatorC1EP7QObject@Base 5.2.0~beta1 1
 _ZN22QQuickRotationAnimatorC2EP7QObject@Base 5.2.0~beta1 1
 (optional=gccinternal)_ZN22QQuickRotationAnimatorD0Ev@Base 5.2.0~beta1 1
 (optional=gccinternal)_ZN22QQuickRotationAnimatorD1Ev@Base 5.2.0~beta1 1
 (optional=gccinternal)_ZN22QQuickRotationAnimatorD2Ev@Base 5.2.0~beta1 1
 _ZN22QQuickScaleAnimatorJob17updateCurrentTimeEi@Base 5.2.0~beta1 1
 _ZN22QQuickScaleAnimatorJob9writeBackEv@Base 5.2.0~beta1 1
 (optional=gccinternal)_ZN22QQuickScaleAnimatorJobD0Ev@Base 5.2.0~beta1 1
 (optional=gccinternal)_ZN22QQuickScaleAnimatorJobD1Ev@Base 5.2.0~beta1 1
 (optional=gccinternal)_ZN22QQuickScaleAnimatorJobD2Ev@Base 5.2.0~beta1 1
 _ZN22QQuickShaderEffectNode10preprocessEv@Base 5.0.2 1
 _ZN22QQuickShaderEffectNode11qt_metacallEN11QMetaObject4CallEiPPv@Base 5.0.2 1
 _ZN22QQuickShaderEffectNode11qt_metacastEPKc@Base 5.0.2 1
 _ZN22QQuickShaderEffectNode16markDirtyTextureEv@Base 5.0.2 1
 _ZN22QQuickShaderEffectNode16staticMetaObjectE@Base 5.0.2 1
 _ZN22QQuickShaderEffectNode19logAndStatusChangedERK7QStringi@Base 5.0.2 1
 _ZN22QQuickShaderEffectNode24textureProviderDestroyedEP7QObject@Base 5.0.2 1
 _ZN22QQuickShaderEffectNodeC1Ev@Base 5.0.2 1
 _ZN22QQuickShaderEffectNodeC2Ev@Base 5.0.2 1
 _ZN22QQuickShaderEffectNodeD0Ev@Base 5.0.2 1
 _ZN22QQuickShaderEffectNodeD1Ev@Base 5.0.2 1
 _ZN22QQuickShaderEffectNodeD2Ev@Base 5.0.2 1
 _ZN22QQuickStochasticEngine11qt_metacallEN11QMetaObject4CallEiPPv@Base 5.0.2 1
 _ZN22QQuickStochasticEngine11qt_metacastEPKc@Base 5.0.2 1
 _ZN22QQuickStochasticEngine12stateChangedEi@Base 5.0.2 1
 _ZN22QQuickStochasticEngine13updateSpritesEj@Base 5.0.2 1
 _ZN22QQuickStochasticEngine15addToUpdateListEji@Base 5.0.2 1
 _ZN22QQuickStochasticEngine16staticMetaObjectE@Base 5.0.2 1
 _ZN22QQuickStochasticEngine17globalGoalChangedERK7QString@Base 5.4.0 1
 _ZN22QQuickStochasticEngine4stopEi@Base 5.0.2 1
 _ZN22QQuickStochasticEngine5startEii@Base 5.0.2 1
 _ZN22QQuickStochasticEngine7advanceEi@Base 5.0.2 1
 _ZN22QQuickStochasticEngine7restartEi@Base 5.0.2 1
 _ZN22QQuickStochasticEngine7setGoalEiib@Base 5.0.2 1
 _ZN22QQuickStochasticEngine8goalSeekEiii@Base 5.0.2 1
 _ZN22QQuickStochasticEngine8setCountEi@Base 5.0.2 1
 _ZN22QQuickStochasticEngine9nextStateEii@Base 5.0.2 1
 _ZN22QQuickStochasticEngineC1E5QListIP21QQuickStochasticStateEP7QObject@Base 5.0.2 1
 _ZN22QQuickStochasticEngineC1EP7QObject@Base 5.0.2 1
 _ZN22QQuickStochasticEngineC2E5QListIP21QQuickStochasticStateEP7QObject@Base 5.0.2 1
 _ZN22QQuickStochasticEngineC2EP7QObject@Base 5.0.2 1
 _ZN22QQuickStochasticEngineD0Ev@Base 5.0.2 1
 _ZN22QQuickStochasticEngineD1Ev@Base 5.0.2 1
 _ZN22QQuickStochasticEngineD2Ev@Base 5.0.2 1
 _ZN22QSGShaderSourceBuilder12appendSourceERK10QByteArray@Base 5.2.0~rc1 1
 _ZN22QSGShaderSourceBuilder13addDefinitionERK10QByteArray@Base 5.2.0~rc1 1
 _ZN22QSGShaderSourceBuilder13removeVersionEv@Base 5.2.0~rc1 1
 _ZN22QSGShaderSourceBuilder16appendSourceFileERK7QString@Base 5.2.0~rc1 1
 _ZN22QSGShaderSourceBuilder26initializeProgramFromFilesEP20QOpenGLShaderProgramRK7QStringS4_@Base 5.2.0~rc1 1
 _ZN22QSGShaderSourceBuilder5clearEv@Base 5.2.0~rc1 1
 _ZN22QSGShaderSourceBuilderC1Ev@Base 5.2.0~rc1 1
 _ZN22QSGShaderSourceBuilderC2Ev@Base 5.2.0~rc1 1
 _ZN22QSGSmoothColorMaterialC1Ev@Base 5.1.1 1
 _ZN22QSGSmoothColorMaterialC2Ev@Base 5.1.1 1
 (optional=gccinternal)_ZN22QSGSmoothColorMaterialD0Ev@Base 5.1.1 1
 (optional=gccinternal)_ZN22QSGSmoothColorMaterialD1Ev@Base 5.1.1 1
 (optional=gccinternal)_ZN22QSGSmoothColorMaterialD2Ev@Base 5.1.1 1
 _ZN22QSGVertexColorMaterialC1Ev@Base 5.0.2
 _ZN22QSGVertexColorMaterialC2Ev@Base 5.0.2
 (optional=gccinternal)_ZN22QSGVertexColorMaterialD0Ev@Base 5.0.2
 (optional=gccinternal)_ZN22QSGVertexColorMaterialD1Ev@Base 5.0.2
 (optional=gccinternal)_ZN22QSGVertexColorMaterialD2Ev@Base 5.0.2
 _ZN23QQuickAbstractAnimation10classBeginEv@Base 5.0.2 1
 _ZN23QQuickAbstractAnimation10setRunningEb@Base 5.0.2 1
 _ZN23QQuickAbstractAnimation10transitionER5QListI17QQuickStateActionERS0_I12QQmlPropertyENS_19TransitionDirectionEP7QObject@Base 5.2.0~beta1 1
 _ZN23QQuickAbstractAnimation11currentTimeEv@Base 5.0.2 1
 _ZN23QQuickAbstractAnimation11qtAnimationEv@Base 5.0.2 1
 _ZN23QQuickAbstractAnimation11qt_metacallEN11QMetaObject4CallEiPPv@Base 5.0.2 1
 _ZN23QQuickAbstractAnimation11qt_metacastEPKc@Base 5.0.2 1
 _ZN23QQuickAbstractAnimation12initInstanceEP21QAbstractAnimationJob@Base 5.0.2 1
 _ZN23QQuickAbstractAnimation13pausedChangedEb@Base 5.0.2 1
 _ZN23QQuickAbstractAnimation14runningChangedEb@Base 5.0.2 1
 _ZN23QQuickAbstractAnimation14setCurrentTimeEi@Base 5.0.2 1
 _ZN23QQuickAbstractAnimation16loopCountChangedEi@Base 5.0.2 1
 _ZN23QQuickAbstractAnimation16setDefaultTargetERK12QQmlProperty@Base 5.0.2 1
 _ZN23QQuickAbstractAnimation16staticMetaObjectE@Base 5.0.2 1
 _ZN23QQuickAbstractAnimation17componentCompleteEv@Base 5.0.2 1
 _ZN23QQuickAbstractAnimation17setAlwaysRunToEndEb@Base 5.0.2 1
 _ZN23QQuickAbstractAnimation18componentFinalizedEv@Base 5.0.2 1
 _ZN23QQuickAbstractAnimation20notifyRunningChangedEb@Base 5.0.2 1
 _ZN23QQuickAbstractAnimation20setEnableUserControlEv@Base 5.0.2 1
 _ZN23QQuickAbstractAnimation21alwaysRunToEndChangedEb@Base 5.0.2 1
 _ZN23QQuickAbstractAnimation21setDisableUserControlEv@Base 5.0.2 1
 _ZN23QQuickAbstractAnimation4stopEv@Base 5.0.2 1
 _ZN23QQuickAbstractAnimation5pauseEv@Base 5.0.2 1
 _ZN23QQuickAbstractAnimation5startEv@Base 5.0.2 1
 _ZN23QQuickAbstractAnimation6resumeEv@Base 5.0.2 1
 _ZN23QQuickAbstractAnimation7restartEv@Base 5.0.2 1
 _ZN23QQuickAbstractAnimation7startedEv@Base 5.0.2 1
 _ZN23QQuickAbstractAnimation7stoppedEv@Base 5.0.2 1
 _ZN23QQuickAbstractAnimation8completeEv@Base 5.0.2 1
 _ZN23QQuickAbstractAnimation8setGroupEP20QQuickAnimationGroup@Base 5.0.2 1
 _ZN23QQuickAbstractAnimation8setLoopsEi@Base 5.0.2 1
 _ZN23QQuickAbstractAnimation9setPausedEb@Base 5.0.2 1
 _ZN23QQuickAbstractAnimation9setTargetERK12QQmlProperty@Base 5.0.2 1
 _ZN23QQuickAbstractAnimationC1EP7QObject@Base 5.0.2 1
 _ZN23QQuickAbstractAnimationC1ER30QQuickAbstractAnimationPrivateP7QObject@Base 5.0.2 1
 _ZN23QQuickAbstractAnimationC2EP7QObject@Base 5.0.2 1
 _ZN23QQuickAbstractAnimationC2ER30QQuickAbstractAnimationPrivateP7QObject@Base 5.0.2 1
 _ZN23QQuickAbstractAnimationD0Ev@Base 5.0.2 1
 _ZN23QQuickAbstractAnimationD1Ev@Base 5.0.2 1
 _ZN23QQuickAbstractAnimationD2Ev@Base 5.0.2 1
 _ZN23QQuickFramebufferObject11qt_metacallEN11QMetaObject4CallEiPPv@Base 5.2.0~beta1
 _ZN23QQuickFramebufferObject11qt_metacastEPKc@Base 5.2.0~beta1
 _ZN23QQuickFramebufferObject15geometryChangedERK6QRectFS2_@Base 5.2.0~beta1
 _ZN23QQuickFramebufferObject15updatePaintNodeEP7QSGNodePN10QQuickItem19UpdatePaintNodeDataE@Base 5.2.0~beta1
 _ZN23QQuickFramebufferObject16releaseResourcesEv@Base 5.4.0
 _ZN23QQuickFramebufferObject16staticMetaObjectE@Base 5.2.0~beta1
 _ZN23QQuickFramebufferObject20invalidateSceneGraphEv@Base 5.4.0
 _ZN23QQuickFramebufferObject25setTextureFollowsItemSizeEb@Base 5.2.0~beta1
 _ZN23QQuickFramebufferObject29textureFollowsItemSizeChangedEb@Base 5.2.0~beta1
 _ZN23QQuickFramebufferObject8Renderer11synchronizeEPS_@Base 5.2.0~beta1 1
 _ZN23QQuickFramebufferObject8Renderer23createFramebufferObjectERK5QSize@Base 5.2.0~beta1 1
 _ZN23QQuickFramebufferObject8Renderer27invalidateFramebufferObjectEv@Base 5.2.0~beta1 1
 _ZN23QQuickFramebufferObject8Renderer6updateEv@Base 5.2.0~beta1 1
 _ZN23QQuickFramebufferObject8RendererC1Ev@Base 5.2.0~beta1 1
 _ZN23QQuickFramebufferObject8RendererC2Ev@Base 5.2.0~beta1 1
 _ZN23QQuickFramebufferObject8RendererD0Ev@Base 5.2.0~beta1 1
 _ZN23QQuickFramebufferObject8RendererD1Ev@Base 5.2.0~beta1 1
 _ZN23QQuickFramebufferObject8RendererD2Ev@Base 5.2.0~beta1 1
 _ZN23QQuickFramebufferObjectC1EP10QQuickItem@Base 5.2.0~beta1
 _ZN23QQuickFramebufferObjectC2EP10QQuickItem@Base 5.2.0~beta1
 _ZN23QQuickParallelAnimation10transitionER5QListI17QQuickStateActionERS0_I12QQmlPropertyEN23QQuickAbstractAnimation19TransitionDirectionEP7QObject@Base 5.2.0~beta1 1
 _ZN23QQuickParallelAnimation11qt_metacallEN11QMetaObject4CallEiPPv@Base 5.0.2 1
 _ZN23QQuickParallelAnimation11qt_metacastEPKc@Base 5.0.2 1
 _ZN23QQuickParallelAnimation16staticMetaObjectE@Base 5.0.2 1
 _ZN23QQuickParallelAnimationC1EP7QObject@Base 5.0.2 1
 _ZN23QQuickParallelAnimationC2EP7QObject@Base 5.0.2 1
 _ZN23QQuickParallelAnimationD0Ev@Base 5.0.2 1
 _ZN23QQuickParallelAnimationD1Ev@Base 5.0.2 1
 _ZN23QQuickParallelAnimationD2Ev@Base 5.0.2 1
 _ZN23QQuickPropertyAnimation10transitionER5QListI17QQuickStateActionERS0_I12QQmlPropertyEN23QQuickAbstractAnimation19TransitionDirectionEP7QObject@Base 5.2.0~beta1 1
 _ZN23QQuickPropertyAnimation11fromChangedERK8QVariant@Base 5.4.0 1
 _ZN23QQuickPropertyAnimation11qt_metacallEN11QMetaObject4CallEiPPv@Base 5.0.2 1
 _ZN23QQuickPropertyAnimation11qt_metacastEPKc@Base 5.0.2 1
 _ZN23QQuickPropertyAnimation11setDurationEi@Base 5.0.2 1
 _ZN23QQuickPropertyAnimation11setPropertyERK7QString@Base 5.0.2 1
 _ZN23QQuickPropertyAnimation13easingChangedERK12QEasingCurve@Base 5.0.2 1
 _ZN23QQuickPropertyAnimation13setPropertiesERK7QString@Base 5.0.2 1
 _ZN23QQuickPropertyAnimation13targetChangedEv@Base 5.0.2 1
 _ZN23QQuickPropertyAnimation15durationChangedEi@Base 5.0.2 1
 _ZN23QQuickPropertyAnimation15propertyChangedEv@Base 5.0.2 1
 _ZN23QQuickPropertyAnimation15setTargetObjectEP7QObject@Base 5.0.2 1
 _ZN23QQuickPropertyAnimation16staticMetaObjectE@Base 5.0.2 1
 _ZN23QQuickPropertyAnimation17propertiesChangedERK7QString@Base 5.0.2 1
 _ZN23QQuickPropertyAnimation23createTransitionActionsER5QListI17QQuickStateActionERS0_I12QQmlPropertyEP7QObject@Base 5.2.0~beta1 1
 _ZN23QQuickPropertyAnimation5setToERK8QVariant@Base 5.0.2 1
 _ZN23QQuickPropertyAnimation7excludeEv@Base 5.0.2 1
 _ZN23QQuickPropertyAnimation7setFromERK8QVariant@Base 5.0.2 1
 _ZN23QQuickPropertyAnimation7targetsEv@Base 5.0.2 1
 _ZN23QQuickPropertyAnimation9setEasingERK12QEasingCurve@Base 5.0.2 1
 _ZN23QQuickPropertyAnimation9toChangedERK8QVariant@Base 5.4.0 1
 _ZN23QQuickPropertyAnimationC1EP7QObject@Base 5.0.2 1
 _ZN23QQuickPropertyAnimationC1ER30QQuickPropertyAnimationPrivateP7QObject@Base 5.0.2 1
 _ZN23QQuickPropertyAnimationC2EP7QObject@Base 5.0.2 1
 _ZN23QQuickPropertyAnimationC2ER30QQuickPropertyAnimationPrivateP7QObject@Base 5.0.2 1
 _ZN23QQuickPropertyAnimationD0Ev@Base 5.0.2 1
 _ZN23QQuickPropertyAnimationD1Ev@Base 5.0.2 1
 _ZN23QQuickPropertyAnimationD2Ev@Base 5.0.2 1
 _ZN23QQuickRotationAnimation11qt_metacallEN11QMetaObject4CallEiPPv@Base 5.0.2 1
 _ZN23QQuickRotationAnimation11qt_metacastEPKc@Base 5.0.2 1
 _ZN23QQuickRotationAnimation12setDirectionENS_17RotationDirectionE@Base 5.0.2 1
 _ZN23QQuickRotationAnimation16directionChangedEv@Base 5.0.2 1
 _ZN23QQuickRotationAnimation16staticMetaObjectE@Base 5.0.2 1
 _ZN23QQuickRotationAnimation5setToEd@Base 5.2.0 1
 _ZN23QQuickRotationAnimation7setFromEd@Base 5.2.0 1
 _ZN23QQuickRotationAnimationC1EP7QObject@Base 5.0.2 1
 _ZN23QQuickRotationAnimationC2EP7QObject@Base 5.0.2 1
 _ZN23QQuickRotationAnimationD0Ev@Base 5.0.2 1
 _ZN23QQuickRotationAnimationD1Ev@Base 5.0.2 1
 _ZN23QQuickRotationAnimationD2Ev@Base 5.0.2 1
 _ZN23QQuickVector3dAnimation11qt_metacallEN11QMetaObject4CallEiPPv@Base 5.0.2 1
 _ZN23QQuickVector3dAnimation11qt_metacastEPKc@Base 5.0.2 1
 _ZN23QQuickVector3dAnimation16staticMetaObjectE@Base 5.0.2 1
 _ZN23QQuickVector3dAnimation5setToE9QVector3D@Base 5.0.2 1
 _ZN23QQuickVector3dAnimation7setFromE9QVector3D@Base 5.0.2 1
 _ZN23QQuickVector3dAnimationC1EP7QObject@Base 5.0.2 1
 _ZN23QQuickVector3dAnimationC2EP7QObject@Base 5.0.2 1
 _ZN23QQuickVector3dAnimationD0Ev@Base 5.0.2 1
 _ZN23QQuickVector3dAnimationD1Ev@Base 5.0.2 1
 _ZN23QQuickVector3dAnimationD2Ev@Base 5.0.2 1
 _ZN23QSGDefaultRectangleNode10setAlignedEb@Base 5.1.0 1
 _ZN23QSGDefaultRectangleNode11setPenColorERK6QColor@Base 5.1.0 1
 _ZN23QSGDefaultRectangleNode11setPenWidthEd@Base 5.2.0 1
 _ZN23QSGDefaultRectangleNode14updateGeometryEv@Base 5.1.0 1
 _ZN23QSGDefaultRectangleNode15setAntialiasingEb@Base 5.1.0 1
 _ZN23QSGDefaultRectangleNode16setGradientStopsERK7QVectorI5QPairId6QColorEE@Base 5.2.0 1
 _ZN23QSGDefaultRectangleNode6updateEv@Base 5.1.0 1
 _ZN23QSGDefaultRectangleNode7setRectERK6QRectF@Base 5.1.0 1
 _ZN23QSGDefaultRectangleNode8setColorERK6QColor@Base 5.1.0 1
 _ZN23QSGDefaultRectangleNode9setRadiusEd@Base 5.2.0 1
 _ZN23QSGDefaultRectangleNodeC1Ev@Base 5.1.0 1
 _ZN23QSGDefaultRectangleNodeC2Ev@Base 5.1.0 1
 (optional=gccinternal)_ZN23QSGDefaultRectangleNodeD0Ev@Base 5.1.0 1
 (optional=gccinternal)_ZN23QSGDefaultRectangleNodeD1Ev@Base 5.1.0 1
 (optional=gccinternal)_ZN23QSGDefaultRectangleNodeD2Ev@Base 5.1.0 1
 _ZN24QQuickAccessibleAttached10setIgnoredEb@Base 5.4.0 1
 _ZN24QQuickAccessibleAttached11nameChangedEv@Base 5.0.2 1
 _ZN24QQuickAccessibleAttached11pressActionEv@Base 5.4.0 1
 _ZN24QQuickAccessibleAttached11qt_metacallEN11QMetaObject4CallEiPPv@Base 5.0.2 1
 _ZN24QQuickAccessibleAttached11qt_metacastEPKc@Base 5.0.2 1
 _ZN24QQuickAccessibleAttached11roleChangedEv@Base 5.0.2 1
 _ZN24QQuickAccessibleAttached11sigDecreaseE@Base 5.4.0 1
 _ZN24QQuickAccessibleAttached11sigIncreaseE@Base 5.4.0 1
 _ZN24QQuickAccessibleAttached12toggleActionEv@Base 5.4.0 1
 _ZN24QQuickAccessibleAttached14checkedChangedEb@Base 5.3.0 1
 _ZN24QQuickAccessibleAttached14decreaseActionEv@Base 5.4.0 1
 _ZN24QQuickAccessibleAttached14focusedChangedEb@Base 5.3.0 1
 _ZN24QQuickAccessibleAttached14ignoredChangedEv@Base 5.4.0 1
 _ZN24QQuickAccessibleAttached14increaseActionEv@Base 5.4.0 1
 _ZN24QQuickAccessibleAttached14pressedChangedEb@Base 5.3.0 1
 _ZN24QQuickAccessibleAttached15editableChangedEb@Base 5.3.0 1
 _ZN24QQuickAccessibleAttached15readOnlyChangedEb@Base 5.3.0 1
 _ZN24QQuickAccessibleAttached15selectedChangedEb@Base 5.3.0 1
 _ZN24QQuickAccessibleAttached16checkableChangedEb@Base 5.3.0 1
 _ZN24QQuickAccessibleAttached16focusableChangedEb@Base 5.3.0 1
 _ZN24QQuickAccessibleAttached16multiLineChangedEb@Base 5.3.0 1
 _ZN24QQuickAccessibleAttached16staticMetaObjectE@Base 5.0.2 1
 _ZN24QQuickAccessibleAttached17searchEditChangedEb@Base 5.4.0 1
 _ZN24QQuickAccessibleAttached17selectableChangedEb@Base 5.3.0 1
 _ZN24QQuickAccessibleAttached18descriptionChangedEv@Base 5.0.2 1
 _ZN24QQuickAccessibleAttached19passwordEditChangedEb@Base 5.3.0 1
 _ZN24QQuickAccessibleAttached20defaultButtonChangedEb@Base 5.3.0 1
 _ZN24QQuickAccessibleAttached21qmlAttachedPropertiesEP7QObject@Base 5.0.2 1
 _ZN24QQuickAccessibleAttached21selectableTextChangedEb@Base 5.3.0 1
 _ZN24QQuickAccessibleAttached22checkStateMixedChangedEb@Base 5.3.0 1
 _ZN24QQuickAccessibleAttached8doActionERK7QString@Base 5.4.0 1
 _ZN24QQuickAccessibleAttached8sigPressE@Base 5.4.0 1
 _ZN24QQuickAccessibleAttached9sigToggleE@Base 5.4.0 1
 _ZN24QQuickAccessibleAttachedC1EP7QObject@Base 5.0.2 1
 _ZN24QQuickAccessibleAttachedC2EP7QObject@Base 5.0.2 1
 _ZN24QQuickAccessibleAttachedD0Ev@Base 5.0.2 1
 _ZN24QQuickAccessibleAttachedD1Ev@Base 5.0.2 1
 _ZN24QQuickAccessibleAttachedD2Ev@Base 5.0.2 1
 _ZN24QQuickOpacityAnimatorJob10initializeEP24QQuickAnimatorController@Base 5.2.0~beta1 1
 _ZN24QQuickOpacityAnimatorJob16nodeWasDestroyedEv@Base 5.3.1 1
 _ZN24QQuickOpacityAnimatorJob17updateCurrentTimeEi@Base 5.2.0~beta1 1
 _ZN24QQuickOpacityAnimatorJob9writeBackEv@Base 5.2.0~beta1 1
 _ZN24QQuickOpacityAnimatorJobC1Ev@Base 5.2.0~beta1 1
 _ZN24QQuickOpacityAnimatorJobC2Ev@Base 5.2.0~beta1 1
 (optional=gccinternal)_ZN24QQuickOpacityAnimatorJobD0Ev@Base 5.2.0~beta1 1
 (optional=gccinternal)_ZN24QQuickOpacityAnimatorJobD1Ev@Base 5.2.0~beta1 1
 (optional=gccinternal)_ZN24QQuickOpacityAnimatorJobD2Ev@Base 5.2.0~beta1 1
 _ZN24QQuickShaderEffectCommon12updateShaderEP10QQuickItemN29QQuickShaderEffectMaterialKey10ShaderTypeE@Base 5.0.2
 _ZN24QQuickShaderEffectCommon12updateWindowEP12QQuickWindow@Base 5.0.2
 _ZN24QQuickShaderEffectCommon14updateMaterialEP22QQuickShaderEffectNodeP26QQuickShaderEffectMaterialbbb@Base 5.0.2 1
 _ZN24QQuickShaderEffectCommon14updateParseLogEb@Base 5.0.2
 _ZN24QQuickShaderEffectCommon15propertyChangedEP10QQuickItemiPb@Base 5.0.2
 _ZN24QQuickShaderEffectCommon15sourceDestroyedEP7QObject@Base 5.0.2
 _ZN24QQuickShaderEffectCommon21lookThroughShaderCodeEP10QQuickItemN29QQuickShaderEffectMaterialKey10ShaderTypeERK10QByteArray@Base 5.0.2
 _ZN24QQuickShaderEffectCommon22connectPropertySignalsEP10QQuickItemN29QQuickShaderEffectMaterialKey10ShaderTypeE@Base 5.0.2
 _ZN24QQuickShaderEffectCommon25disconnectPropertySignalsEP10QQuickItemN29QQuickShaderEffectMaterialKey10ShaderTypeE@Base 5.0.2
 _ZN24QQuickShaderEffectCommonD1Ev@Base 5.0.2
 _ZN24QQuickShaderEffectCommonD2Ev@Base 5.0.2
 _ZN24QQuickShaderEffectSource10itemChangeEN10QQuickItem10ItemChangeERKNS0_14ItemChangeDataE@Base 5.0.2 1
 _ZN24QQuickShaderEffectSource11liveChangedEv@Base 5.0.2 1
 _ZN24QQuickShaderEffectSource11qt_metacallEN11QMetaObject4CallEiPPv@Base 5.0.2 1
 _ZN24QQuickShaderEffectSource11qt_metacastEPKc@Base 5.0.2 1
 _ZN24QQuickShaderEffectSource11setWrapModeENS_8WrapModeE@Base 5.0.2 1
 _ZN24QQuickShaderEffectSource12setRecursiveEb@Base 5.0.2 1
 _ZN24QQuickShaderEffectSource13ensureTextureEv@Base 5.0.2 1
 _ZN24QQuickShaderEffectSource13formatChangedEv@Base 5.0.2 1
 _ZN24QQuickShaderEffectSource13mipmapChangedEv@Base 5.0.2 1
 _ZN24QQuickShaderEffectSource13setHideSourceEb@Base 5.0.2 1
 _ZN24QQuickShaderEffectSource13setSourceItemEP10QQuickItem@Base 5.0.2 1
 _ZN24QQuickShaderEffectSource13setSourceRectERK6QRectF@Base 5.0.2 1
 _ZN24QQuickShaderEffectSource14scheduleUpdateEv@Base 5.0.2 1
 _ZN24QQuickShaderEffectSource14setTextureSizeERK5QSize@Base 5.0.2 1
 _ZN24QQuickShaderEffectSource15updatePaintNodeEP7QSGNodePN10QQuickItem19UpdatePaintNodeDataE@Base 5.0.2 1
 _ZN24QQuickShaderEffectSource15wrapModeChangedEv@Base 5.0.2 1
 _ZN24QQuickShaderEffectSource16recursiveChangedEv@Base 5.0.2 1
 _ZN24QQuickShaderEffectSource16releaseResourcesEv@Base 5.0.2 1
 _ZN24QQuickShaderEffectSource16staticMetaObjectE@Base 5.0.2 1
 _ZN24QQuickShaderEffectSource17hideSourceChangedEv@Base 5.0.2 1
 _ZN24QQuickShaderEffectSource17sourceItemChangedEv@Base 5.0.2 1
 _ZN24QQuickShaderEffectSource17sourceRectChangedEv@Base 5.0.2 1
 _ZN24QQuickShaderEffectSource18textureSizeChangedEv@Base 5.0.2 1
 _ZN24QQuickShaderEffectSource19itemGeometryChangedEP10QQuickItemRK6QRectFS4_@Base 5.0.2 1
 _ZN24QQuickShaderEffectSource19sourceItemDestroyedEP7QObject@Base 5.0.2 1
 _ZN24QQuickShaderEffectSource20invalidateSceneGraphEv@Base 5.4.0 1
 _ZN24QQuickShaderEffectSource24scheduledUpdateCompletedEv@Base 5.0.2 1
 _ZN24QQuickShaderEffectSource7setLiveEb@Base 5.0.2 1
 _ZN24QQuickShaderEffectSource9setFormatENS_6FormatE@Base 5.0.2 1
 _ZN24QQuickShaderEffectSource9setMipmapEb@Base 5.0.2 1
 _ZN24QQuickShaderEffectSourceC1EP10QQuickItem@Base 5.0.2 1
 _ZN24QQuickShaderEffectSourceC2EP10QQuickItem@Base 5.0.2 1
 _ZN24QQuickShaderEffectSourceD0Ev@Base 5.0.2 1
 _ZN24QQuickShaderEffectSourceD1Ev@Base 5.0.2 1
 _ZN24QQuickShaderEffectSourceD2Ev@Base 5.0.2 1
 _ZN24QQuickUniformAnimatorJob13afterNodeSyncEv@Base 5.2.0~beta1 1
 _ZN24QQuickUniformAnimatorJob16nodeWasDestroyedEv@Base 5.3.1 1
 _ZN24QQuickUniformAnimatorJob17updateCurrentTimeEi@Base 5.2.0~beta1 1
 _ZN24QQuickUniformAnimatorJob9setTargetEP10QQuickItem@Base 5.2.0~beta1 1
 _ZN24QQuickUniformAnimatorJob9writeBackEv@Base 5.2.0~beta1 1
 _ZN24QQuickUniformAnimatorJobC1Ev@Base 5.2.0~beta1 1
 _ZN24QQuickUniformAnimatorJobC2Ev@Base 5.2.0~beta1 1
 (optional=gccinternal)_ZN24QQuickUniformAnimatorJobD0Ev@Base 5.2.0~beta1 1
 (optional=gccinternal)_ZN24QQuickUniformAnimatorJobD1Ev@Base 5.2.0~beta1 1
 (optional=gccinternal)_ZN24QQuickUniformAnimatorJobD2Ev@Base 5.2.0~beta1 1
 _ZN24QSGOpaqueTextureMaterial10setTextureEP10QSGTexture@Base 5.0.2
 _ZN24QSGOpaqueTextureMaterialC1Ev@Base 5.0.2
 _ZN24QSGOpaqueTextureMaterialC2Ev@Base 5.0.2
 (optional=gccinternal)_ZN24QSGOpaqueTextureMaterialD0Ev@Base 5.0.2
 (optional=gccinternal)_ZN24QSGOpaqueTextureMaterialD1Ev@Base 5.0.2
 (optional=gccinternal)_ZN24QSGOpaqueTextureMaterialD2Ev@Base 5.0.2
 _ZN24QSGSmoothTextureMaterial10setTextureEP10QSGTexture@Base 5.1.1 1
 _ZN24QSGSmoothTextureMaterialC1Ev@Base 5.1.1 1
 _ZN24QSGSmoothTextureMaterialC2Ev@Base 5.1.1 1
 (optional=gccinternal)_ZN24QSGSmoothTextureMaterialD0Ev@Base 5.1.1 1
 (optional=gccinternal)_ZN24QSGSmoothTextureMaterialD1Ev@Base 5.1.1 1
 (optional=gccinternal)_ZN24QSGSmoothTextureMaterialD2Ev@Base 5.1.1 1
 _ZN25QQuickRotationAnimatorJob17updateCurrentTimeEi@Base 5.2.0~beta1 1
 _ZN25QQuickRotationAnimatorJob9writeBackEv@Base 5.2.0~beta1 1
 _ZN25QQuickRotationAnimatorJobC1Ev@Base 5.2.0~beta1 1
 _ZN25QQuickRotationAnimatorJobC2Ev@Base 5.2.0~beta1 1
 (optional=gccinternal)_ZN25QQuickRotationAnimatorJobD0Ev@Base 5.2.0~beta1 1
 (optional=gccinternal)_ZN25QQuickRotationAnimatorJobD1Ev@Base 5.2.0~beta1 1
 (optional=gccinternal)_ZN25QQuickRotationAnimatorJobD2Ev@Base 5.2.0~beta1 1
 (optional=gccinternal)_ZN26QAccessibleTextCursorEventD0Ev@Base 5.0.2
 (optional=gccinternal)_ZN26QAccessibleTextCursorEventD1Ev@Base 5.0.2
 (optional=gccinternal)_ZN26QAccessibleTextCursorEventD2Ev@Base 5.0.2
 (optional=gccinternal)_ZN26QAccessibleTextUpdateEventD0Ev@Base 5.0.2
 (optional=gccinternal)_ZN26QAccessibleTextUpdateEventD1Ev@Base 5.0.2
 (optional=gccinternal)_ZN26QAccessibleTextUpdateEventD2Ev@Base 5.0.2
 _ZN26QQuickShaderEffectMaterial11materialMapE@Base 5.0.2 1
 _ZN26QQuickShaderEffectMaterial16setProgramSourceERK29QQuickShaderEffectMaterialKey@Base 5.0.2 1
 _ZN26QQuickShaderEffectMaterial25invalidateTextureProviderEP18QSGTextureProvider@Base 5.0.2 1
 _ZN26QQuickShaderEffectMaterialC1EP22QQuickShaderEffectNode@Base 5.0.2 1
 _ZN26QQuickShaderEffectMaterialC2EP22QQuickShaderEffectNode@Base 5.0.2 1
 (optional=gccinternal)_ZN26QQuickShaderEffectMaterialD0Ev@Base 5.0.2 1
 (optional=gccinternal)_ZN26QQuickShaderEffectMaterialD1Ev@Base 5.0.2 1
 (optional=gccinternal)_ZN26QQuickShaderEffectMaterialD2Ev@Base 5.0.2 1
 _ZN26QSGAbstractRendererPrivateC1Ev@Base 5.4.0 1
 _ZN26QSGAbstractRendererPrivateC2Ev@Base 5.4.0 1
 (optional=gccinternal)_ZN26QSGAbstractRendererPrivateD0Ev@Base 5.4.0 1
 (optional=gccinternal)_ZN26QSGAbstractRendererPrivateD1Ev@Base 5.4.0 1
 (optional=gccinternal)_ZN26QSGAbstractRendererPrivateD2Ev@Base 5.4.0 1
 _ZN26QSGDistanceFieldGlyphCache12glyphMetricsEjd@Base 5.2.0 1
 _ZN26QSGDistanceFieldGlyphCache13updateTextureEjjRK5QSize@Base 5.0.2 1
 _ZN26QSGDistanceFieldGlyphCache14s_emptyTextureE@Base 5.0.2 1
 _ZN26QSGDistanceFieldGlyphCache16setGlyphsTextureERK7QVectorIjERKNS_7TextureE@Base 5.0.2 1
 _ZN26QSGDistanceFieldGlyphCache17setGlyphsPositionERK5QListINS_13GlyphPositionEE@Base 5.0.2 1
 _ZN26QSGDistanceFieldGlyphCache18markGlyphsToRenderERK7QVectorIjE@Base 5.0.2 1
 _ZN26QSGDistanceFieldGlyphCache20processPendingGlyphsEv@Base 5.0.2 1
 _ZN26QSGDistanceFieldGlyphCache20registerOwnerElementEP10QQuickItem@Base 5.0.2 1
 _ZN26QSGDistanceFieldGlyphCache22unregisterOwnerElementEP10QQuickItem@Base 5.0.2 1
 _ZN26QSGDistanceFieldGlyphCache6updateEv@Base 5.0.2 1
 _ZN26QSGDistanceFieldGlyphCache7releaseERK7QVectorIjE@Base 5.0.2 1
 _ZN26QSGDistanceFieldGlyphCache8populateERK7QVectorIjE@Base 5.0.2 1
 _ZN26QSGDistanceFieldGlyphCache9glyphDataEj@Base 5.0.2 1
 _ZN26QSGDistanceFieldGlyphCacheC1EP33QSGDistanceFieldGlyphCacheManagerP14QOpenGLContextRK8QRawFont@Base 5.0.2 1
 _ZN26QSGDistanceFieldGlyphCacheC2EP33QSGDistanceFieldGlyphCacheManagerP14QOpenGLContextRK8QRawFont@Base 5.0.2 1
 _ZN26QSGDistanceFieldGlyphCacheD0Ev@Base 5.0.2 1
 _ZN26QSGDistanceFieldGlyphCacheD1Ev@Base 5.0.2 1
 _ZN26QSGDistanceFieldGlyphCacheD2Ev@Base 5.0.2 1
 (optional=gccinternal)_ZN27QAccessibleStateChangeEventD0Ev@Base 5.3.0
 (optional=gccinternal)_ZN27QAccessibleStateChangeEventD1Ev@Base 5.3.0
 (optional=gccinternal)_ZN27QAccessibleStateChangeEventD2Ev@Base 5.3.0
 (optional=gccinternal)_ZN27QAccessibleValueChangeEventD0Ev@Base 5.0.2
 (optional=gccinternal)_ZN27QAccessibleValueChangeEventD1Ev@Base 5.0.2
 (optional=gccinternal)_ZN27QAccessibleValueChangeEventD2Ev@Base 5.0.2
 _ZN27QQuickKeyNavigationAttached10keyPressedEP9QKeyEventb@Base 5.4.0 1
 _ZN27QQuickKeyNavigationAttached10setBacktabEP10QQuickItem@Base 5.4.0 1
 _ZN27QQuickKeyNavigationAttached10tabChangedEv@Base 5.4.0 1
 _ZN27QQuickKeyNavigationAttached11downChangedEv@Base 5.4.0 1
 _ZN27QQuickKeyNavigationAttached11keyReleasedEP9QKeyEventb@Base 5.4.0 1
 _ZN27QQuickKeyNavigationAttached11leftChangedEv@Base 5.4.0 1
 _ZN27QQuickKeyNavigationAttached11qt_metacallEN11QMetaObject4CallEiPPv@Base 5.4.0 1
 _ZN27QQuickKeyNavigationAttached11qt_metacastEPKc@Base 5.4.0 1
 _ZN27QQuickKeyNavigationAttached11setPriorityENS_8PriorityE@Base 5.4.0 1
 _ZN27QQuickKeyNavigationAttached12rightChangedEv@Base 5.4.0 1
 _ZN27QQuickKeyNavigationAttached14backtabChangedEv@Base 5.4.0 1
 _ZN27QQuickKeyNavigationAttached15priorityChangedEv@Base 5.4.0 1
 _ZN27QQuickKeyNavigationAttached16staticMetaObjectE@Base 5.4.0 1
 _ZN27QQuickKeyNavigationAttached18setFocusNavigationEP10QQuickItemPKcN2Qt11FocusReasonE@Base 5.4.0 1
 _ZN27QQuickKeyNavigationAttached21qmlAttachedPropertiesEP7QObject@Base 5.4.0 1
 _ZN27QQuickKeyNavigationAttached5setUpEP10QQuickItem@Base 5.4.0 1
 _ZN27QQuickKeyNavigationAttached6setTabEP10QQuickItem@Base 5.4.0 1
 _ZN27QQuickKeyNavigationAttached7setDownEP10QQuickItem@Base 5.4.0 1
 _ZN27QQuickKeyNavigationAttached7setLeftEP10QQuickItem@Base 5.4.0 1
 _ZN27QQuickKeyNavigationAttached8setRightEP10QQuickItem@Base 5.4.0 1
 _ZN27QQuickKeyNavigationAttached9upChangedEv@Base 5.4.0 1
 _ZN27QQuickKeyNavigationAttachedC1EP7QObject@Base 5.4.0 1
 _ZN27QQuickKeyNavigationAttachedC2EP7QObject@Base 5.4.0 1
 (optional=gccinternal)_ZN27QQuickKeyNavigationAttachedD0Ev@Base 5.4.0 1
 (optional=gccinternal)_ZN27QQuickKeyNavigationAttachedD1Ev@Base 5.4.0 1
 (optional=gccinternal)_ZN27QQuickKeyNavigationAttachedD2Ev@Base 5.4.0 1
 _ZN28QSGDistanceFieldTextMaterial17updateTextureSizeEv@Base 5.0.2 1
 _ZN28QSGDistanceFieldTextMaterial8setColorERK6QColor@Base 5.1.0 1
 _ZN28QSGDistanceFieldTextMaterialC1Ev@Base 5.0.2 1
 _ZN28QSGDistanceFieldTextMaterialC2Ev@Base 5.0.2 1
 _ZN28QSGDistanceFieldTextMaterialD0Ev@Base 5.0.2 1
 _ZN28QSGDistanceFieldTextMaterialD1Ev@Base 5.0.2 1
 _ZN28QSGDistanceFieldTextMaterialD2Ev@Base 5.0.2 1
 _ZN30QSGOpaqueTextureMaterialShader10initializeEv@Base 5.0.2 1
 _ZN30QSGOpaqueTextureMaterialShader11updateStateERKN17QSGMaterialShader11RenderStateEP11QSGMaterialS5_@Base 5.0.2 1
 _ZN30QSGOpaqueTextureMaterialShader4typeE@Base 5.0.2 1
 _ZN30QSGOpaqueTextureMaterialShaderC1Ev@Base 5.2.0~rc1 1
 _ZN30QSGOpaqueTextureMaterialShaderC2Ev@Base 5.2.0~rc1 1
 (optional=gccinternal)_ZN30QSGOpaqueTextureMaterialShaderD0Ev@Base 5.0.2 1
 (optional=gccinternal)_ZN30QSGOpaqueTextureMaterialShaderD1Ev@Base 5.0.2 1
 (optional=gccinternal)_ZN30QSGOpaqueTextureMaterialShaderD2Ev@Base 5.0.2 1
 _ZN33QSGDefaultDistanceFieldGlyphCache11storeGlyphsERK5QListI14QDistanceFieldE@Base 5.2.0~beta1 1
 _ZN33QSGDefaultDistanceFieldGlyphCache13createTextureEPNS_11TextureInfoEii@Base 5.0.2 1
 _ZN33QSGDefaultDistanceFieldGlyphCache13releaseGlyphsERK4QSetIjE@Base 5.0.2 1
 _ZN33QSGDefaultDistanceFieldGlyphCache13requestGlyphsERK4QSetIjE@Base 5.0.2 1
 _ZN33QSGDefaultDistanceFieldGlyphCache13resizeTextureEPNS_11TextureInfoEii@Base 5.0.2 1
 _ZN33QSGDefaultDistanceFieldGlyphCache15referenceGlyphsERK4QSetIjE@Base 5.0.2 1
 _ZN33QSGDefaultDistanceFieldGlyphCacheC1EP33QSGDistanceFieldGlyphCacheManagerP14QOpenGLContextRK8QRawFont@Base 5.0.2 1
 _ZN33QSGDefaultDistanceFieldGlyphCacheC2EP33QSGDistanceFieldGlyphCacheManagerP14QOpenGLContextRK8QRawFont@Base 5.0.2 1
 _ZN33QSGDefaultDistanceFieldGlyphCacheD0Ev@Base 5.0.2 1
 _ZN33QSGDefaultDistanceFieldGlyphCacheD1Ev@Base 5.0.2 1
 _ZN33QSGDefaultDistanceFieldGlyphCacheD2Ev@Base 5.0.2 1
 _ZN33QSGDistanceFieldGlyphCacheManager11insertCacheERK8QRawFontP26QSGDistanceFieldGlyphCache@Base 5.0.2 1
 _ZN33QSGDistanceFieldGlyphCacheManager5cacheERK8QRawFont@Base 5.0.2 1
 _ZN33QSGDistanceFieldGlyphCacheManager7fontKeyERK8QRawFont@Base 5.0.2 1
 _ZN33QSGDistanceFieldGlyphCacheManagerC1Ev@Base 5.0.2 1
 _ZN33QSGDistanceFieldGlyphCacheManagerC2Ev@Base 5.0.2 1
 _ZN33QSGDistanceFieldGlyphCacheManagerD1Ev@Base 5.0.2 1
 _ZN33QSGDistanceFieldGlyphCacheManagerD2Ev@Base 5.0.2 1
 _ZN34QSGDistanceFieldStyledTextMaterial13setStyleColorERK6QColor@Base 5.1.0 1
 _ZN34QSGDistanceFieldStyledTextMaterialC1Ev@Base 5.0.2 1
 _ZN34QSGDistanceFieldStyledTextMaterialC2Ev@Base 5.0.2 1
 _ZN34QSGDistanceFieldStyledTextMaterialD0Ev@Base 5.0.2 1
 _ZN34QSGDistanceFieldStyledTextMaterialD1Ev@Base 5.0.2 1
 _ZN34QSGDistanceFieldStyledTextMaterialD2Ev@Base 5.0.2 1
 _ZN35QSGDistanceFieldOutlineTextMaterialC1Ev@Base 5.0.2 1
 _ZN35QSGDistanceFieldOutlineTextMaterialC2Ev@Base 5.0.2 1
 _ZN35QSGDistanceFieldOutlineTextMaterialD0Ev@Base 5.0.2 1
 _ZN35QSGDistanceFieldOutlineTextMaterialD1Ev@Base 5.0.2 1
 _ZN35QSGDistanceFieldOutlineTextMaterialD2Ev@Base 5.0.2 1
 (optional=gccinternal)_ZN39QSGHiQSubPixelDistanceFieldTextMaterialD0Ev@Base 5.0.2 1
 (optional=gccinternal)_ZN39QSGHiQSubPixelDistanceFieldTextMaterialD1Ev@Base 5.0.2 1
 (optional=gccinternal)_ZN39QSGHiQSubPixelDistanceFieldTextMaterialD2Ev@Base 5.0.2 1
 (optional=gccinternal)_ZN39QSGLoQSubPixelDistanceFieldTextMaterialD0Ev@Base 5.0.2 1
 (optional=gccinternal)_ZN39QSGLoQSubPixelDistanceFieldTextMaterialD1Ev@Base 5.0.2 1
 (optional=gccinternal)_ZN39QSGLoQSubPixelDistanceFieldTextMaterialD2Ev@Base 5.0.2 1
 _ZN40QSGDistanceFieldShiftedStyleTextMaterialC1Ev@Base 5.0.2 1
 _ZN40QSGDistanceFieldShiftedStyleTextMaterialC2Ev@Base 5.0.2 1
 _ZN40QSGDistanceFieldShiftedStyleTextMaterialD0Ev@Base 5.0.2 1
 _ZN40QSGDistanceFieldShiftedStyleTextMaterialD1Ev@Base 5.0.2 1
 _ZN40QSGDistanceFieldShiftedStyleTextMaterialD2Ev@Base 5.0.2 1
 _ZN7QSGNode15appendChildNodeEPS_@Base 5.0.2
 _ZN7QSGNode15removeChildNodeEPS_@Base 5.0.2
 _ZN7QSGNode16prependChildNodeEPS_@Base 5.0.2
 _ZN7QSGNode19removeAllChildNodesEv@Base 5.0.2
 _ZN7QSGNode20insertChildNodeAfterEPS_S0_@Base 5.0.2
 _ZN7QSGNode21insertChildNodeBeforeEPS_S0_@Base 5.0.2
 _ZN7QSGNode4initEv@Base 5.0.2
 _ZN7QSGNode7destroyEv@Base 5.0.2
 _ZN7QSGNode7setFlagENS_4FlagEb@Base 5.0.2
 _ZN7QSGNode8setFlagsE6QFlagsINS_4FlagEEb@Base 5.0.2
 _ZN7QSGNode9markDirtyE6QFlagsINS_13DirtyStateBitEE@Base 5.0.2
 _ZN7QSGNodeC1ENS_8NodeTypeE@Base 5.0.2
 _ZN7QSGNodeC1ER14QSGNodePrivateNS_8NodeTypeE@Base 5.2.0~beta1
 _ZN7QSGNodeC1Ev@Base 5.0.2
 _ZN7QSGNodeC2ENS_8NodeTypeE@Base 5.0.2
 _ZN7QSGNodeC2ER14QSGNodePrivateNS_8NodeTypeE@Base 5.2.0~beta1
 _ZN7QSGNodeC2Ev@Base 5.0.2
 _ZN7QSGNodeD0Ev@Base 5.0.2
 _ZN7QSGNodeD1Ev@Base 5.0.2
 _ZN7QSGNodeD2Ev@Base 5.0.2
 _ZN8QSGLayer11qt_metacallEN11QMetaObject4CallEiPPv@Base 5.4.0 1
 _ZN8QSGLayer11qt_metacastEPKc@Base 5.4.0 1
 _ZN8QSGLayer15updateRequestedEv@Base 5.4.0 1
 _ZN8QSGLayer16staticMetaObjectE@Base 5.4.0 1
 _ZN8QSGLayer24scheduledUpdateCompletedEv@Base 5.4.0 1
 _ZN9QSGEngine10initializeEP14QOpenGLContext@Base 5.4.0
 _ZN9QSGEngine10invalidateEv@Base 5.4.0
 _ZN9QSGEngine11qt_metacallEN11QMetaObject4CallEiPPv@Base 5.4.0
 _ZN9QSGEngine11qt_metacastEPKc@Base 5.4.0
 _ZN9QSGEngine16staticMetaObjectE@Base 5.4.0
 _ZN9QSGEngineC1EP7QObject@Base 5.4.0
 _ZN9QSGEngineC2EP7QObject@Base 5.4.0
 _ZN9QSGEngineD0Ev@Base 5.4.0
 _ZN9QSGEngineD1Ev@Base 5.4.0
 _ZN9QSGEngineD2Ev@Base 5.4.0
 _ZNK10QQuickItem10childItemsEv@Base 5.0.2
 _ZNK10QQuickItem10mapToSceneERK7QPointF@Base 5.0.2
 _ZNK10QQuickItem10metaObjectEv@Base 5.0.2
 _ZNK10QQuickItem10parentItemEv@Base 5.0.2
 _ZNK10QQuickItem10widthValidEv@Base 5.0.2
 _ZNK10QQuickItem11heightValidEv@Base 5.0.2
 _ZNK10QQuickItem11mapFromItemEP14QQmlV4Function@Base 5.2.0~beta1
 _ZNK10QQuickItem11mapFromItemEPKS_RK7QPointF@Base 5.0.2
 _ZNK10QQuickItem12antialiasingEv@Base 5.0.2
 _ZNK10QQuickItem12boundingRectEv@Base 5.0.2
 _ZNK10QQuickItem12isFocusScopeEv@Base 5.0.2
 _ZNK10QQuickItem12isUnderMouseEv@Base 5.0.2
 _ZNK10QQuickItem12mapFromSceneERK7QPointF@Base 5.0.2
 _ZNK10QQuickItem13implicitWidthEv@Base 5.0.2
 _ZNK10QQuickItem13itemTransformEPS_Pb@Base 5.0.2
 _ZNK10QQuickItem13keepMouseGrabEv@Base 5.0.2
 _ZNK10QQuickItem13keepTouchGrabEv@Base 5.0.2
 _ZNK10QQuickItem13mapRectToItemEPKS_RK6QRectF@Base 5.0.2
 _ZNK10QQuickItem14baselineOffsetEv@Base 5.0.2
 _ZNK10QQuickItem14hasActiveFocusEv@Base 5.0.2
 _ZNK10QQuickItem14implicitHeightEv@Base 5.0.2
 _ZNK10QQuickItem14mapRectToSceneERK6QRectF@Base 5.0.2
 _ZNK10QQuickItem15mapRectFromItemEPKS_RK6QRectF@Base 5.0.2
 _ZNK10QQuickItem15scopedFocusItemEv@Base 5.0.2
 _ZNK10QQuickItem15textureProviderEv@Base 5.0.2
 _ZNK10QQuickItem15transformOriginEv@Base 5.0.2
 _ZNK10QQuickItem16activeFocusOnTabEv@Base 5.1.0
 _ZNK10QQuickItem16inputMethodQueryEN2Qt16InputMethodQueryE@Base 5.0.2
 _ZNK10QQuickItem16mapRectFromSceneERK6QRectF@Base 5.0.2
 _ZNK10QQuickItem17acceptHoverEventsEv@Base 5.0.2
 _ZNK10QQuickItem17isTextureProviderEv@Base 5.0.2
 _ZNK10QQuickItem19isComponentCompleteEv@Base 5.0.2
 _ZNK10QQuickItem1xEv@Base 5.0.2
 _ZNK10QQuickItem1yEv@Base 5.0.2
 _ZNK10QQuickItem1zEv@Base 5.0.2
 _ZNK10QQuickItem20acceptedMouseButtonsEv@Base 5.0.2
 _ZNK10QQuickItem20transformOriginPointEv@Base 5.0.2
 _ZNK10QQuickItem23filtersChildMouseEventsEv@Base 5.0.2
 _ZNK10QQuickItem4clipEv@Base 5.0.2
 _ZNK10QQuickItem5flagsEv@Base 5.0.2
 _ZNK10QQuickItem5scaleEv@Base 5.0.2
 _ZNK10QQuickItem5stateEv@Base 5.0.2
 _ZNK10QQuickItem5widthEv@Base 5.0.2
 _ZNK10QQuickItem6cursorEv@Base 5.0.2
 _ZNK10QQuickItem6heightEv@Base 5.0.2
 _ZNK10QQuickItem6smoothEv@Base 5.0.2
 _ZNK10QQuickItem6windowEv@Base 5.0.2
 _ZNK10QQuickItem7childAtEdd@Base 5.2.0
 _ZNK10QQuickItem7opacityEv@Base 5.0.2
 _ZNK10QQuickItem8clipRectEv@Base 5.0.2
 _ZNK10QQuickItem8containsERK7QPointF@Base 5.0.2
 _ZNK10QQuickItem8hasFocusEv@Base 5.0.2
 _ZNK10QQuickItem8positionEv@Base 5.0.2
 _ZNK10QQuickItem8rotationEv@Base 5.0.2
 _ZNK10QQuickItem9isEnabledEv@Base 5.0.2
 _ZNK10QQuickItem9isVisibleEv@Base 5.0.2
 _ZNK10QQuickItem9mapToItemEP14QQmlV4Function@Base 5.2.0~beta1
 _ZNK10QQuickItem9mapToItemEPKS_RK7QPointF@Base 5.0.2
 _ZNK10QQuickText10lineHeightEv@Base 5.0.2 1
 _ZNK10QQuickText10metaObjectEv@Base 5.0.2 1
 _ZNK10QQuickText10renderTypeEv@Base 5.0.2 1
 _ZNK10QQuickText10styleColorEv@Base 5.0.2 1
 _ZNK10QQuickText10textFormatEv@Base 5.0.2 1
 _ZNK10QQuickText11hoveredLinkEv@Base 5.2.0~beta1 1
 _ZNK10QQuickText12boundingRectEv@Base 5.0.2 1
 _ZNK10QQuickText12contentWidthEv@Base 5.0.2 1
 _ZNK10QQuickText12fontSizeModeEv@Base 5.0.2 1
 _ZNK10QQuickText13contentHeightEv@Base 5.0.2 1
 _ZNK10QQuickText14lineHeightModeEv@Base 5.0.2 1
 _ZNK10QQuickText15effectiveHAlignEv@Base 5.0.2 1
 _ZNK10QQuickText16maximumLineCountEv@Base 5.0.2 1
 _ZNK10QQuickText16minimumPixelSizeEv@Base 5.0.2 1
 _ZNK10QQuickText16minimumPointSizeEv@Base 5.0.2 1
 _ZNK10QQuickText16resourcesLoadingEv@Base 5.0.2 1
 _ZNK10QQuickText4fontEv@Base 5.0.2 1
 _ZNK10QQuickText4textEv@Base 5.0.2 1
 _ZNK10QQuickText5colorEv@Base 5.0.2 1
 _ZNK10QQuickText5styleEv@Base 5.0.2 1
 _ZNK10QQuickText6hAlignEv@Base 5.0.2 1
 _ZNK10QQuickText6linkAtEdd@Base 5.3.0 1
 _ZNK10QQuickText6vAlignEv@Base 5.0.2 1
 _ZNK10QQuickText7baseUrlEv@Base 5.0.2 1
 _ZNK10QQuickText8clipRectEv@Base 5.0.2 1
 _ZNK10QQuickText8wrapModeEv@Base 5.0.2 1
 _ZNK10QQuickText9elideModeEv@Base 5.0.2 1
 _ZNK10QQuickText9lineCountEv@Base 5.0.2 1
 _ZNK10QQuickText9linkColorEv@Base 5.0.2 1
 _ZNK10QQuickText9truncatedEv@Base 5.0.2 1
 _ZNK10QQuickView10metaObjectEv@Base 5.0.2
 _ZNK10QQuickView10resizeModeEv@Base 5.0.2
 _ZNK10QQuickView10rootObjectEv@Base 5.0.2
 _ZNK10QQuickView11initialSizeEv@Base 5.0.2
 _ZNK10QQuickView11rootContextEv@Base 5.0.2
 _ZNK10QQuickView6engineEv@Base 5.0.2
 _ZNK10QQuickView6errorsEv@Base 5.0.2
 _ZNK10QQuickView6sourceEv@Base 5.0.2
 _ZNK10QQuickView6statusEv@Base 5.0.2
 _ZNK10QQuickView8sizeHintEv@Base 5.0.2
 _ZNK10QSGContext10metaObjectEv@Base 5.0.2 1
 _ZNK10QSGContext14minimumFBOSizeEv@Base 5.0.2 1
 _ZNK10QSGContext20defaultSurfaceFormatEv@Base 5.0.2 1
 _ZNK10QSGContext22isDistanceFieldEnabledEv@Base 5.0.2 1
 _ZNK10QSGTexture10metaObjectEv@Base 5.0.2
 _ZNK10QSGTexture14isAtlasTextureEv@Base 5.0.2
 _ZNK10QSGTexture15mipmapFilteringEv@Base 5.0.2
 _ZNK10QSGTexture16removedFromAtlasEv@Base 5.0.2
 _ZNK10QSGTexture16verticalWrapModeEv@Base 5.0.2
 _ZNK10QSGTexture18horizontalWrapModeEv@Base 5.0.2
 _ZNK10QSGTexture24normalizedTextureSubRectEv@Base 5.0.2
 _ZNK10QSGTexture9filteringEv@Base 5.0.2
 _ZNK11QQuickState10metaObjectEv@Base 5.0.2 1
 _ZNK11QQuickState10stateGroupEv@Base 5.0.2 1
 _ZNK11QQuickState11isWhenKnownEv@Base 5.0.2 1
 _ZNK11QQuickState11operationAtEi@Base 5.0.2 1
 _ZNK11QQuickState13isStateActiveEv@Base 5.0.2 1
 _ZNK11QQuickState14operationCountEv@Base 5.0.2 1
 _ZNK11QQuickState17valueInRevertListEP7QObjectRK7QString@Base 5.0.2 1
 _ZNK11QQuickState19bindingInRevertListEP7QObjectRK7QString@Base 5.0.2 1
 _ZNK11QQuickState28containsPropertyInRevertListEP7QObjectRK7QString@Base 5.0.2 1
 _ZNK11QQuickState4nameEv@Base 5.0.2 1
 _ZNK11QQuickState4whenEv@Base 5.0.2 1
 _ZNK11QQuickState7extendsEv@Base 5.0.2 1
 _ZNK11QQuickState7isNamedEv@Base 5.0.2 1
 _ZNK11QSGBindable10reactivateEv@Base 5.0.2 1
 _ZNK11QSGBindable5clearE6QFlagsIN19QSGAbstractRenderer12ClearModeBitEE@Base 5.4.0 1
 _ZNK11QSGGeometry9indexDataEv@Base 5.0.2
 _ZNK11QSGGeometry9lineWidthEv@Base 5.0.2
 _ZNK11QSGMaterial7compareEPKS_@Base 5.0.2
 _ZNK11QSGRenderer10isMirroredEv@Base 5.4.0 1
 _ZNK11QSGRenderer11nodeUpdaterEv@Base 5.0.2 1
 _ZNK12QQuickPixmap11requestSizeEv@Base 5.0.2 1
 _ZNK12QQuickPixmap12implicitSizeEv@Base 5.0.2 1
 _ZNK12QQuickPixmap14textureFactoryEv@Base 5.0.2 1
 _ZNK12QQuickPixmap3urlEv@Base 5.0.2 1
 _ZNK12QQuickPixmap4rectEv@Base 5.0.2 1
 _ZNK12QQuickPixmap5errorEv@Base 5.0.2 1
 _ZNK12QQuickPixmap5imageEv@Base 5.0.2 1
 _ZNK12QQuickPixmap5widthEv@Base 5.0.2 1
 _ZNK12QQuickPixmap6heightEv@Base 5.0.2 1
 _ZNK12QQuickPixmap6isNullEv@Base 5.0.2 1
 _ZNK12QQuickPixmap6statusEv@Base 5.0.2 1
 _ZNK12QQuickPixmap7isErrorEv@Base 5.0.2 1
 _ZNK12QQuickPixmap7isReadyEv@Base 5.0.2 1
 _ZNK12QQuickPixmap9isLoadingEv@Base 5.0.2 1
 _ZNK12QQuickWindow10metaObjectEv@Base 5.0.2
 _ZNK12QQuickWindow11contentItemEv@Base 5.0.2
 _ZNK12QQuickWindow11focusObjectEv@Base 5.0.2
 _ZNK12QQuickWindow12renderTargetEv@Base 5.0.2
 _ZNK12QQuickWindow13openglContextEv@Base 5.0.2
 _ZNK12QQuickWindow14accessibleRootEv@Base 5.0.2
 _ZNK12QQuickWindow14renderTargetIdEv@Base 5.0.2
 _ZNK12QQuickWindow15activeFocusItemEv@Base 5.0.2
 _ZNK12QQuickWindow16mouseGrabberItemEv@Base 5.0.2
 _ZNK12QQuickWindow16renderTargetSizeEv@Base 5.0.2
 _ZNK12QQuickWindow19createTextureFromIdEjRK5QSize6QFlagsINS_19CreateTextureOptionEE@Base 5.0.2
 _ZNK12QQuickWindow20clearBeforeRenderingEv@Base 5.0.2
 _ZNK12QQuickWindow20incubationControllerEv@Base 5.0.2
 _ZNK12QQuickWindow22createTextureFromImageERK6QImage6QFlagsINS_19CreateTextureOptionEE@Base 5.2.0~beta1
 _ZNK12QQuickWindow22createTextureFromImageERK6QImage@Base 5.0.2
 _ZNK12QQuickWindow22isPersistentSceneGraphEv@Base 5.0.2
 _ZNK12QQuickWindow25effectiveDevicePixelRatioEv@Base 5.4.0
 _ZNK12QQuickWindow25isPersistentOpenGLContextEv@Base 5.0.2
 _ZNK12QQuickWindow5colorEv@Base 5.0.2
 _ZNK13QQuickAnchors10leftMarginEv@Base 5.0.2 1
 _ZNK13QQuickAnchors10metaObjectEv@Base 5.0.2 1
 _ZNK13QQuickAnchors11rightMarginEv@Base 5.0.2 1
 _ZNK13QQuickAnchors11usedAnchorsEv@Base 5.0.2 1
 _ZNK13QQuickAnchors12bottomMarginEv@Base 5.0.2 1
 _ZNK13QQuickAnchors14baselineOffsetEv@Base 5.0.2 1
 _ZNK13QQuickAnchors14verticalCenterEv@Base 5.0.2 1
 _ZNK13QQuickAnchors16horizontalCenterEv@Base 5.0.2 1
 _ZNK13QQuickAnchors17alignWhenCenteredEv@Base 5.0.2 1
 _ZNK13QQuickAnchors20verticalCenterOffsetEv@Base 5.0.2 1
 _ZNK13QQuickAnchors22horizontalCenterOffsetEv@Base 5.0.2 1
 _ZNK13QQuickAnchors3topEv@Base 5.0.2 1
 _ZNK13QQuickAnchors4fillEv@Base 5.0.2 1
 _ZNK13QQuickAnchors4leftEv@Base 5.0.2 1
 _ZNK13QQuickAnchors5rightEv@Base 5.0.2 1
 _ZNK13QQuickAnchors6bottomEv@Base 5.0.2 1
 _ZNK13QQuickAnchors7marginsEv@Base 5.0.2 1
 _ZNK13QQuickAnchors8baselineEv@Base 5.0.2 1
 _ZNK13QQuickAnchors8centerInEv@Base 5.0.2 1
 _ZNK13QQuickAnchors9topMarginEv@Base 5.0.2 1
 _ZNK13QSGRenderLoop10metaObjectEv@Base 5.1.0 1
 _ZNK13QSGRenderLoop17windowSurfaceTypeEv@Base 5.4.0 1
 _ZNK14QQuickAnimator10metaObjectEv@Base 5.2.0~beta1 1
 _ZNK14QQuickAnimator10targetItemEv@Base 5.2.0~beta1 1
 _ZNK14QQuickAnimator2toEv@Base 5.2.0~beta1 1
 _ZNK14QQuickAnimator4fromEv@Base 5.2.0~beta1 1
 _ZNK14QQuickAnimator6easingEv@Base 5.2.0~beta1 1
 _ZNK14QQuickAnimator8durationEv@Base 5.2.0~beta1 1
 _ZNK14QQuickBehavior10metaObjectEv@Base 5.0.2 1
 _ZNK14QQuickBehavior7enabledEv@Base 5.0.2 1
 _ZNK14QQuickGradient10metaObjectEv@Base 5.3.0 1
 _ZNK14QQuickGradient13gradientStopsEv@Base 5.3.0 1
 _ZNK14QQuickProfiler10metaObjectEv@Base 5.3.0 1
 _ZNK14QQuickTextEdit10isReadOnlyEv@Base 5.0.2 1
 _ZNK14QQuickTextEdit10metaObjectEv@Base 5.0.2 1
 _ZNK14QQuickTextEdit10positionAtEdd@Base 5.2.0 1
 _ZNK14QQuickTextEdit10renderTypeEv@Base 5.0.2 1
 _ZNK14QQuickTextEdit10textFormatEv@Base 5.0.2 1
 _ZNK14QQuickTextEdit10textMarginEv@Base 5.0.2 1
 _ZNK14QQuickTextEdit11hoveredLinkEv@Base 5.2.0~beta1 1
 _ZNK14QQuickTextEdit12boundingRectEv@Base 5.0.2 1
 _ZNK14QQuickTextEdit12contentWidthEv@Base 5.0.2 1
 _ZNK14QQuickTextEdit12focusOnPressEv@Base 5.0.2 1
 _ZNK14QQuickTextEdit12selectedTextEv@Base 5.0.2 1
 _ZNK14QQuickTextEdit12selectionEndEv@Base 5.0.2 1
 _ZNK14QQuickTextEdit13contentHeightEv@Base 5.0.2 1
 _ZNK14QQuickTextEdit13selectByMouseEv@Base 5.0.2 1
 _ZNK14QQuickTextEdit14cursorDelegateEv@Base 5.0.2 1
 _ZNK14QQuickTextEdit14cursorPositionEv@Base 5.0.2 1
 _ZNK14QQuickTextEdit14selectionColorEv@Base 5.0.2 1
 _ZNK14QQuickTextEdit14selectionStartEv@Base 5.0.2 1
 _ZNK14QQuickTextEdit15cursorRectangleEv@Base 5.0.2 1
 _ZNK14QQuickTextEdit15effectiveHAlignEv@Base 5.0.2 1
 _ZNK14QQuickTextEdit15isCursorVisibleEv@Base 5.0.2 1
 _ZNK14QQuickTextEdit16getFormattedTextEii@Base 5.0.2 1
 _ZNK14QQuickTextEdit16inputMethodHintsEv@Base 5.0.2 1
 _ZNK14QQuickTextEdit16inputMethodQueryEN2Qt16InputMethodQueryE8QVariant@Base 5.3.1 1
 _ZNK14QQuickTextEdit16inputMethodQueryEN2Qt16InputMethodQueryE@Base 5.0.2 1
 _ZNK14QQuickTextEdit16selectByKeyboardEv@Base 5.1.0 1
 _ZNK14QQuickTextEdit17selectedTextColorEv@Base 5.0.2 1
 _ZNK14QQuickTextEdit18mouseSelectionModeEv@Base 5.0.2 1
 _ZNK14QQuickTextEdit19persistentSelectionEv@Base 5.0.2 1
 _ZNK14QQuickTextEdit19positionToRectangleEi@Base 5.0.2 1
 _ZNK14QQuickTextEdit22isInputMethodComposingEv@Base 5.0.2 1
 _ZNK14QQuickTextEdit4fontEv@Base 5.0.2 1
 _ZNK14QQuickTextEdit4textEv@Base 5.0.2 1
 _ZNK14QQuickTextEdit5colorEv@Base 5.0.2 1
 _ZNK14QQuickTextEdit6hAlignEv@Base 5.0.2 1
 _ZNK14QQuickTextEdit6lengthEv@Base 5.0.2 1
 _ZNK14QQuickTextEdit6linkAtEdd@Base 5.3.0 1
 _ZNK14QQuickTextEdit6vAlignEv@Base 5.0.2 1
 _ZNK14QQuickTextEdit7baseUrlEv@Base 5.0.2 1
 _ZNK14QQuickTextEdit7canRedoEv@Base 5.0.2 1
 _ZNK14QQuickTextEdit7canUndoEv@Base 5.0.2 1
 _ZNK14QQuickTextEdit7getTextEii@Base 5.0.2 1
 _ZNK14QQuickTextEdit8canPasteEv@Base 5.0.2 1
 _ZNK14QQuickTextEdit8clipRectEv@Base 5.0.2 1
 _ZNK14QQuickTextEdit8wrapModeEv@Base 5.0.2 1
 _ZNK14QQuickTextEdit9lineCountEv@Base 5.0.2 1
 _ZNK14QSGNodeUpdater13isNodeBlockedEP7QSGNodeS1_@Base 5.0.2 1
 _ZNK14QSGOpacityNode16isSubtreeBlockedEv@Base 5.0.2
 _ZNK15QQuickFlickable10isDraggingEv@Base 5.0.2 1
 _ZNK15QQuickFlickable10isFlickingEv@Base 5.0.2 1
 _ZNK15QQuickFlickable10leftMarginEv@Base 5.0.2 1
 _ZNK15QQuickFlickable10maxXExtentEv@Base 5.0.2 1
 _ZNK15QQuickFlickable10maxYExtentEv@Base 5.0.2 1
 _ZNK15QQuickFlickable10metaObjectEv@Base 5.0.2 1
 _ZNK15QQuickFlickable10minXExtentEv@Base 5.0.2 1
 _ZNK15QQuickFlickable10minYExtentEv@Base 5.0.2 1
 _ZNK15QQuickFlickable10pressDelayEv@Base 5.0.2 1
 _ZNK15QQuickFlickable11rightMarginEv@Base 5.0.2 1
 _ZNK15QQuickFlickable12bottomMarginEv@Base 5.0.2 1
 _ZNK15QQuickFlickable12contentWidthEv@Base 5.0.2 1
 _ZNK15QQuickFlickable12pixelAlignedEv@Base 5.0.2 1
 _ZNK15QQuickFlickable13contentHeightEv@Base 5.0.2 1
 _ZNK15QQuickFlickable13isInteractiveEv@Base 5.0.2 1
 _ZNK15QQuickFlickable14boundsBehaviorEv@Base 5.0.2 1
 _ZNK15QQuickFlickable14isAtXBeginningEv@Base 5.0.2 1
 _ZNK15QQuickFlickable14isAtYBeginningEv@Base 5.0.2 1
 _ZNK15QQuickFlickable16verticalVelocityEv@Base 5.0.2 1
 _ZNK15QQuickFlickable17flickDecelerationEv@Base 5.0.2 1
 _ZNK15QQuickFlickable18flickableDirectionEv@Base 5.0.2 1
 _ZNK15QQuickFlickable18horizontalVelocityEv@Base 5.0.2 1
 _ZNK15QQuickFlickable18isMovingVerticallyEv@Base 5.0.2 1
 _ZNK15QQuickFlickable20isDraggingVerticallyEv@Base 5.0.2 1
 _ZNK15QQuickFlickable20isFlickingVerticallyEv@Base 5.0.2 1
 _ZNK15QQuickFlickable20isMovingHorizontallyEv@Base 5.0.2 1
 _ZNK15QQuickFlickable20maximumFlickVelocityEv@Base 5.0.2 1
 _ZNK15QQuickFlickable22isDraggingHorizontallyEv@Base 5.0.2 1
 _ZNK15QQuickFlickable22isFlickingHorizontallyEv@Base 5.0.2 1
 _ZNK15QQuickFlickable6vWidthEv@Base 5.0.2 1
 _ZNK15QQuickFlickable6xflickEv@Base 5.0.2 1
 _ZNK15QQuickFlickable6yflickEv@Base 5.0.2 1
 _ZNK15QQuickFlickable7originXEv@Base 5.0.2 1
 _ZNK15QQuickFlickable7originYEv@Base 5.0.2 1
 _ZNK15QQuickFlickable7reboundEv@Base 5.0.2 1
 _ZNK15QQuickFlickable7vHeightEv@Base 5.0.2 1
 _ZNK15QQuickFlickable8contentXEv@Base 5.0.2 1
 _ZNK15QQuickFlickable8contentYEv@Base 5.0.2 1
 _ZNK15QQuickFlickable8isAtXEndEv@Base 5.0.2 1
 _ZNK15QQuickFlickable8isAtYEndEv@Base 5.0.2 1
 _ZNK15QQuickFlickable8isMovingEv@Base 5.0.2 1
 _ZNK15QQuickFlickable9topMarginEv@Base 5.0.2 1
 _ZNK15QQuickImageBase10metaObjectEv@Base 5.0.2 1
 _ZNK15QQuickImageBase10sourceSizeEv@Base 5.0.2 1
 _ZNK15QQuickImageBase12asynchronousEv@Base 5.0.2 1
 _ZNK15QQuickImageBase5cacheEv@Base 5.0.2 1
 _ZNK15QQuickImageBase5imageEv@Base 5.0.2 1
 _ZNK15QQuickImageBase6mirrorEv@Base 5.0.2 1
 _ZNK15QQuickImageBase6sourceEv@Base 5.0.2 1
 _ZNK15QQuickImageBase6statusEv@Base 5.0.2 1
 _ZNK15QQuickImageBase8progressEv@Base 5.0.2 1
 _ZNK15QQuickMouseArea10metaObjectEv@Base 5.0.2 1
 _ZNK15QQuickMouseArea11cursorShapeEv@Base 5.0.2 1
 _ZNK15QQuickMouseArea12hoverEnabledEv@Base 5.0.2 1
 _ZNK15QQuickMouseArea13containsPressEv@Base 5.4.0 1
 _ZNK15QQuickMouseArea14pressedButtonsEv@Base 5.0.2 1
 _ZNK15QQuickMouseArea15acceptedButtonsEv@Base 5.0.2 1
 _ZNK15QQuickMouseArea15preventStealingEv@Base 5.0.2 1
 _ZNK15QQuickMouseArea23propagateComposedEventsEv@Base 5.0.2 1
 _ZNK15QQuickMouseArea6mouseXEv@Base 5.0.2 1
 _ZNK15QQuickMouseArea6mouseYEv@Base 5.0.2 1
 _ZNK15QQuickMouseArea7hoveredEv@Base 5.0.2 1
 _ZNK15QQuickMouseArea7pressedEv@Base 5.0.2 1
 _ZNK15QQuickMouseArea9isEnabledEv@Base 5.0.2 1
 _ZNK15QQuickTextInput10autoScrollEv@Base 5.0.2 1
 _ZNK15QQuickTextInput10isReadOnlyEv@Base 5.0.2 1
 _ZNK15QQuickTextInput10metaObjectEv@Base 5.0.2 1
 _ZNK15QQuickTextInput10positionAtEP14QQmlV4Function@Base 5.2.0~beta1 1
 _ZNK15QQuickTextInput10renderTypeEv@Base 5.0.2 1
 _ZNK15QQuickTextInput11displayTextEv@Base 5.0.2 1
 _ZNK15QQuickTextInput12boundingRectEv@Base 5.0.2 1
 _ZNK15QQuickTextInput12contentWidthEv@Base 5.0.2 1
 _ZNK15QQuickTextInput12focusOnPressEv@Base 5.0.2 1
 _ZNK15QQuickTextInput12selectedTextEv@Base 5.0.2 1
 _ZNK15QQuickTextInput12selectionEndEv@Base 5.0.2 1
 _ZNK15QQuickTextInput13contentHeightEv@Base 5.0.2 1
 _ZNK15QQuickTextInput13selectByMouseEv@Base 5.0.2 1
 _ZNK15QQuickTextInput14cursorDelegateEv@Base 5.0.2 1
 _ZNK15QQuickTextInput14cursorPositionEv@Base 5.0.2 1
 _ZNK15QQuickTextInput14selectionColorEv@Base 5.0.2 1
 _ZNK15QQuickTextInput14selectionStartEv@Base 5.0.2 1
 _ZNK15QQuickTextInput15cursorRectangleEv@Base 5.0.2 1
 _ZNK15QQuickTextInput15effectiveHAlignEv@Base 5.0.2 1
 _ZNK15QQuickTextInput15isCursorVisibleEv@Base 5.0.2 1
 _ZNK15QQuickTextInput16inputMethodHintsEv@Base 5.0.2 1
 _ZNK15QQuickTextInput16inputMethodQueryEN2Qt16InputMethodQueryE8QVariant@Base 5.4.0 1
 _ZNK15QQuickTextInput16inputMethodQueryEN2Qt16InputMethodQueryE@Base 5.0.2 1
 _ZNK15QQuickTextInput17passwordCharacterEv@Base 5.0.2 1
 _ZNK15QQuickTextInput17passwordMaskDelayEv@Base 5.4.0 1
 _ZNK15QQuickTextInput17selectedTextColorEv@Base 5.0.2 1
 _ZNK15QQuickTextInput18hasAcceptableInputEv@Base 5.0.2 1
 _ZNK15QQuickTextInput18mouseSelectionModeEv@Base 5.0.2 1
 _ZNK15QQuickTextInput19persistentSelectionEv@Base 5.0.2 1
 _ZNK15QQuickTextInput19positionToRectangleEi@Base 5.0.2 1
 _ZNK15QQuickTextInput22isInputMethodComposingEv@Base 5.0.2 1
 _ZNK15QQuickTextInput4fontEv@Base 5.0.2 1
 _ZNK15QQuickTextInput4textEv@Base 5.0.2 1
 _ZNK15QQuickTextInput5colorEv@Base 5.0.2 1
 _ZNK15QQuickTextInput6hAlignEv@Base 5.0.2 1
 _ZNK15QQuickTextInput6lengthEv@Base 5.0.2 1
 _ZNK15QQuickTextInput6vAlignEv@Base 5.0.2 1
 _ZNK15QQuickTextInput7canRedoEv@Base 5.0.2 1
 _ZNK15QQuickTextInput7canUndoEv@Base 5.0.2 1
 _ZNK15QQuickTextInput7getTextEii@Base 5.0.2 1
 _ZNK15QQuickTextInput8canPasteEv@Base 5.0.2 1
 _ZNK15QQuickTextInput8clipRectEv@Base 5.0.2 1
 _ZNK15QQuickTextInput8echoModeEv@Base 5.0.2 1
 _ZNK15QQuickTextInput8wrapModeEv@Base 5.0.2 1
 _ZNK15QQuickTextInput9inputMaskEv@Base 5.0.2 1
 _ZNK15QQuickTextInput9maxLengthEv@Base 5.0.2 1
 _ZNK15QQuickTextInput9validatorEv@Base 5.0.2 1
 _ZNK15QQuickTransform10metaObjectEv@Base 5.3.0
 _ZNK15QQuickXAnimator10metaObjectEv@Base 5.2.0~beta1 1
 _ZNK15QQuickXAnimator9createJobEv@Base 5.2.0~beta1 1
 _ZNK15QQuickYAnimator10metaObjectEv@Base 5.2.0~beta1 1
 _ZNK15QQuickYAnimator9createJobEv@Base 5.2.0~beta1 1
 _ZNK15QSGDefaultLayer10hasMipmapsEv@Base 5.4.0 1
 _ZNK15QSGDefaultLayer10metaObjectEv@Base 5.4.0 1
 _ZNK15QSGDefaultLayer15hasAlphaChannelEv@Base 5.4.0 1
 _ZNK15QSGDefaultLayer7toImageEv@Base 5.4.0 1
 _ZNK15QSGDefaultLayer9textureIdEv@Base 5.4.0 1
 _ZNK15QSGGeometryNode14activeMaterialEv@Base 5.0.2
 _ZNK15QSGPlainTexture10metaObjectEv@Base 5.0.2 1
 _ZNK15QSGPlainTexture9textureIdEv@Base 5.0.2 1
 _ZNK16QQuickCloseEvent10metaObjectEv@Base 5.1.0 1
 _ZNK16QQuickMouseEvent10metaObjectEv@Base 5.0.2 1
 _ZNK16QQuickStateGroup10metaObjectEv@Base 5.0.2 1
 _ZNK16QQuickStateGroup5stateEv@Base 5.0.2 1
 _ZNK16QQuickStateGroup6statesEv@Base 5.0.2 1
 _ZNK16QQuickStateGroup9findStateERK7QString@Base 5.0.2 1
 _ZNK16QQuickTransition10metaObjectEv@Base 5.0.2 1
 _ZNK16QQuickTransition10reversibleEv@Base 5.0.2 1
 _ZNK16QQuickTransition7enabledEv@Base 5.0.2 1
 _ZNK16QQuickTransition7runningEv@Base 5.0.2 1
 _ZNK16QQuickTransition7toStateEv@Base 5.0.2 1
 _ZNK16QQuickTransition9fromStateEv@Base 5.0.2 1
 _ZNK16QSGContextPlugin10metaObjectEv@Base 5.0.2 1
 _ZNK16QSGRenderContext10metaObjectEv@Base 5.2.0~rc1 1
 _ZNK16QSGRenderContext13createTextureERK6QImage@Base 5.2.0~rc1 1
 _ZNK16QSGRenderContext20createTextureNoAtlasERK6QImage@Base 5.2.0~rc1 1
 _ZNK17QQuickAnimatorJob5valueEv@Base 5.2.0~beta1 1
 _ZNK17QQuickItemPrivate13dirtyToStringEv@Base 5.0.2 1
 _ZNK17QQuickItemPrivate14verticalCenterEv@Base 5.0.2 1
 _ZNK17QQuickItemPrivate16getImplicitWidthEv@Base 5.0.2 1
 _ZNK17QQuickItemPrivate16horizontalCenterEv@Base 5.0.2 1
 _ZNK17QQuickItemPrivate17getImplicitHeightEv@Base 5.0.2 1
 _ZNK17QQuickItemPrivate19calcEffectiveEnableEv@Base 5.0.2 1
 _ZNK17QQuickItemPrivate20calcEffectiveVisibleEv@Base 5.0.2 1
 _ZNK17QQuickItemPrivate20paintOrderChildItemsEv@Base 5.0.2 1
 _ZNK17QQuickItemPrivate21itemToParentTransformER10QTransform@Base 5.0.2 1
 _ZNK17QQuickItemPrivate21itemToWindowTransformEv@Base 5.0.2 1
 _ZNK17QQuickItemPrivate21windowToItemTransformEv@Base 5.0.2 1
 _ZNK17QQuickItemPrivate22computeTransformOriginEv@Base 5.0.2 1
 _ZNK17QQuickItemPrivate26isTransparentForPositionerEv@Base 5.4.0 1
 _ZNK17QQuickItemPrivate3topEv@Base 5.0.2 1
 _ZNK17QQuickItemPrivate4leftEv@Base 5.0.2 1
 _ZNK17QQuickItemPrivate5layerEv@Base 5.0.2 1
 _ZNK17QQuickItemPrivate5rightEv@Base 5.0.2 1
 _ZNK17QQuickItemPrivate5stateEv@Base 5.0.2 1
 _ZNK17QQuickItemPrivate6bottomEv@Base 5.0.2 1
 _ZNK17QQuickItemPrivate7anchorsEv@Base 5.0.2 1
 _ZNK17QQuickItemPrivate8baselineEv@Base 5.0.2 1
 _ZNK17QQuickPaintedItem10metaObjectEv@Base 5.0.2
 _ZNK17QQuickPaintedItem12antialiasingEv@Base 5.0.2
 _ZNK17QQuickPaintedItem12contentsSizeEv@Base 5.0.2
 _ZNK17QQuickPaintedItem12renderTargetEv@Base 5.0.2
 _ZNK17QQuickPaintedItem13contentsScaleEv@Base 5.0.2
 _ZNK17QQuickPaintedItem14opaquePaintingEv@Base 5.0.2
 _ZNK17QQuickPaintedItem15textureProviderEv@Base 5.4.0
 _ZNK17QQuickPaintedItem16performanceHintsEv@Base 5.0.2
 _ZNK17QQuickPaintedItem17isTextureProviderEv@Base 5.4.0
 _ZNK17QQuickPaintedItem20contentsBoundingRectEv@Base 5.0.2
 _ZNK17QQuickPaintedItem6mipmapEv@Base 5.0.2
 _ZNK17QQuickPaintedItem9fillColorEv@Base 5.0.2
 _ZNK17QSGDynamicTexture10metaObjectEv@Base 5.0.2
 _ZNK17QSGMaterialShader11RenderState10deviceRectEv@Base 5.0.2
 _ZNK17QSGMaterialShader11RenderState11determinantEv@Base 5.0.2
 _ZNK17QSGMaterialShader11RenderState12viewportRectEv@Base 5.0.2
 _ZNK17QSGMaterialShader11RenderState14combinedMatrixEv@Base 5.0.2
 _ZNK17QSGMaterialShader11RenderState15modelViewMatrixEv@Base 5.0.2
 _ZNK17QSGMaterialShader11RenderState16devicePixelRatioEv@Base 5.1.0
 _ZNK17QSGMaterialShader11RenderState16projectionMatrixEv@Base 5.1.0
 _ZNK17QSGMaterialShader11RenderState7contextEv@Base 5.0.2
 _ZNK17QSGMaterialShader11RenderState7opacityEv@Base 5.0.2
 _ZNK17QSGMaterialShader12vertexShaderEv@Base 5.2.0~rc1
 _ZNK17QSGMaterialShader14fragmentShaderEv@Base 5.2.0~rc1
 _ZNK17QSGSimpleRectNode4rectEv@Base 5.0.2
 _ZNK17QSGSimpleRectNode5colorEv@Base 5.0.2
 _ZNK18QQuickGradientStop10metaObjectEv@Base 5.3.0 1
 _ZNK18QQuickGradientStop5colorEv@Base 5.3.0 1
 _ZNK18QQuickGradientStop8positionEv@Base 5.3.0 1
 _ZNK18QQuickShaderEffect10metaObjectEv@Base 5.0.2 1
 _ZNK18QQuickShaderEffect4meshEv@Base 5.0.2 1
 _ZNK18QQuickSpriteEngine10metaObjectEv@Base 5.0.2 1
 _ZNK18QQuickTextDocument10metaObjectEv@Base 5.1.0
 _ZNK18QQuickTextDocument12textDocumentEv@Base 5.1.0
 _ZNK18QSGTextureMaterial12createShaderEv@Base 5.0.2
 _ZNK18QSGTextureMaterial4typeEv@Base 5.0.2
 _ZNK18QSGTextureProvider10metaObjectEv@Base 5.0.2
 _ZNK19QQuickImageProvider5flagsEv@Base 5.0.2
 _ZNK19QQuickImageProvider9imageTypeEv@Base 5.0.2
 _ZNK19QQuickRenderControl10metaObjectEv@Base 5.3.0
 _ZNK19QQuickScaleAnimator10metaObjectEv@Base 5.2.0~beta1 1
 _ZNK19QQuickScaleAnimator9createJobEv@Base 5.2.0~beta1 1
 _ZNK19QQuickWindowPrivate12isRenderableEv@Base 5.0.2 1
 _ZNK19QSGAbstractRenderer10clearColorEv@Base 5.4.0
 _ZNK19QSGAbstractRenderer10deviceRectEv@Base 5.4.0
 _ZNK19QSGAbstractRenderer10metaObjectEv@Base 5.4.0
 _ZNK19QSGAbstractRenderer12viewportRectEv@Base 5.4.0
 _ZNK19QSGAbstractRenderer16projectionMatrixEv@Base 5.4.0
 _ZNK19QSGAbstractRenderer8rootNodeEv@Base 5.4.0
 _ZNK19QSGAbstractRenderer9clearModeEv@Base 5.4.0
 _ZNK20QQuickAnimationGroup10metaObjectEv@Base 5.0.2 1
 _ZNK20QQuickBasePositioner10metaObjectEv@Base 5.0.2 1
 _ZNK20QQuickBasePositioner14PositionedItem5itemXEv@Base 5.0.2 1
 _ZNK20QQuickBasePositioner14PositionedItem5itemYEv@Base 5.0.2 1
 _ZNK20QQuickBasePositioner24updateAttachedPropertiesEP24QQuickPositionerAttachedP10QQuickItem@Base 5.0.2 1
 _ZNK20QQuickBasePositioner3addEv@Base 5.0.2 1
 _ZNK20QQuickBasePositioner4moveEv@Base 5.0.2 1
 _ZNK20QQuickBasePositioner7spacingEv@Base 5.0.2 1
 _ZNK20QQuickBasePositioner8populateEv@Base 5.0.2 1
 _ZNK20QQuickColorAnimation10metaObjectEv@Base 5.0.2 1
 _ZNK20QQuickColorAnimation2toEv@Base 5.0.2 1
 _ZNK20QQuickColorAnimation4fromEv@Base 5.0.2 1
 _ZNK20QQuickItemGrabResult10metaObjectEv@Base 5.4.0
 _ZNK20QQuickItemGrabResult3urlEv@Base 5.4.0
 _ZNK20QQuickItemGrabResult5imageEv@Base 5.4.0
 _ZNK20QQuickPauseAnimation10metaObjectEv@Base 5.0.2 1
 _ZNK20QQuickPauseAnimation8durationEv@Base 5.0.2 1
 _ZNK20QQuickStateOperation10metaObjectEv@Base 5.0.2 1
 _ZNK20QQuickStateOperation5stateEv@Base 5.0.2 1
 _ZNK20QQuickTextureFactory5imageEv@Base 5.0.2
 _ZNK20QSGFlatColorMaterial12createShaderEv@Base 5.0.2
 _ZNK20QSGFlatColorMaterial4typeEv@Base 5.0.2
 _ZNK20QSGFlatColorMaterial7compareEPK11QSGMaterial@Base 5.0.2
 _ZNK20QSGSimpleTextureNode11ownsTextureEv@Base 5.4.0
 _ZNK20QSGSimpleTextureNode27textureCoordinatesTransformEv@Base 5.2.0~beta1
 _ZNK20QSGSimpleTextureNode4rectEv@Base 5.0.2
 _ZNK20QSGSimpleTextureNode7textureEv@Base 5.0.2
 _ZNK20QSGSimpleTextureNode9filteringEv@Base 5.0.2
 _ZNK21QQuickNumberAnimation10metaObjectEv@Base 5.0.2 1
 _ZNK21QQuickNumberAnimation2toEv@Base 5.0.2 1
 _ZNK21QQuickNumberAnimation4fromEv@Base 5.0.2 1
 _ZNK21QQuickOpacityAnimator10metaObjectEv@Base 5.2.0~beta1 1
 _ZNK21QQuickOpacityAnimator9createJobEv@Base 5.2.0~beta1 1
 _ZNK21QQuickPropertyChanges10expressionERK7QString@Base 5.0.2 1
 _ZNK21QQuickPropertyChanges10isExplicitEv@Base 5.0.2 1
 _ZNK21QQuickPropertyChanges10metaObjectEv@Base 5.0.2 1
 _ZNK21QQuickPropertyChanges13containsValueERK7QString@Base 5.0.2 1
 _ZNK21QQuickPropertyChanges16containsPropertyERK7QString@Base 5.0.2 1
 _ZNK21QQuickPropertyChanges18containsExpressionERK7QString@Base 5.0.2 1
 _ZNK21QQuickPropertyChanges18restoreEntryValuesEv@Base 5.0.2 1
 _ZNK21QQuickPropertyChanges5valueERK7QString@Base 5.0.2 1
 _ZNK21QQuickPropertyChanges6objectEv@Base 5.0.2 1
 _ZNK21QQuickPropertyChanges8propertyERK7QString@Base 5.0.2 1
 _ZNK21QQuickStochasticState10metaObjectEv@Base 5.0.2 1
 _ZNK21QQuickUniformAnimator10metaObjectEv@Base 5.2.0~beta1 1
 _ZNK21QQuickUniformAnimator12propertyNameEv@Base 5.2.0~beta1 1
 _ZNK21QQuickUniformAnimator7uniformEv@Base 5.2.0~beta1 1
 _ZNK21QQuickUniformAnimator9createJobEv@Base 5.2.0~beta1 1
 _ZNK21QSGDefaultPainterNode7toImageEv@Base 5.4.0 1
 _ZNK22QQuickAnimatorProxyJob10metaObjectEv@Base 5.2.0~beta1 1
 _ZNK22QQuickImplicitSizeItem10metaObjectEv@Base 5.0.2 1
 _ZNK22QQuickRotationAnimator10metaObjectEv@Base 5.2.0~beta1 1
 _ZNK22QQuickRotationAnimator9createJobEv@Base 5.2.0~beta1 1
 _ZNK22QQuickRotationAnimator9directionEv@Base 5.2.0~beta1 1
 _ZNK22QQuickShaderEffectNode10metaObjectEv@Base 5.0.2 1
 _ZNK22QQuickStochasticEngine10metaObjectEv@Base 5.0.2 1
 _ZNK22QSGShaderSourceBuilder14contextProfileEv@Base 5.2.0~rc1 1
 _ZNK22QSGShaderSourceBuilder17resolveShaderPathERK7QString@Base 5.2.0~rc1 1
 _ZNK22QSGShaderSourceBuilder6sourceEv@Base 5.2.0~rc1 1
 _ZNK22QSGSmoothColorMaterial12createShaderEv@Base 5.1.1 1
 _ZNK22QSGSmoothColorMaterial4typeEv@Base 5.1.1 1
 _ZNK22QSGSmoothColorMaterial7compareEPK11QSGMaterial@Base 5.1.1 1
 _ZNK22QSGVertexColorMaterial12createShaderEv@Base 5.0.2
 _ZNK22QSGVertexColorMaterial4typeEv@Base 5.0.2
 _ZNK22QSGVertexColorMaterial7compareEPK11QSGMaterial@Base 5.0.2
 _ZNK23QQuickAbstractAnimation10metaObjectEv@Base 5.0.2 1
 _ZNK23QQuickAbstractAnimation14alwaysRunToEndEv@Base 5.0.2 1
 _ZNK23QQuickAbstractAnimation14threadingModelEv@Base 5.2.0~beta1 1
 _ZNK23QQuickAbstractAnimation19userControlDisabledEv@Base 5.0.2 1
 _ZNK23QQuickAbstractAnimation5groupEv@Base 5.0.2 1
 _ZNK23QQuickAbstractAnimation5loopsEv@Base 5.0.2 1
 _ZNK23QQuickAbstractAnimation8durationEv@Base 5.0.2 1
 _ZNK23QQuickAbstractAnimation8isPausedEv@Base 5.0.2 1
 _ZNK23QQuickAbstractAnimation9isRunningEv@Base 5.0.2 1
 _ZNK23QQuickFramebufferObject10metaObjectEv@Base 5.2.0~beta1
 _ZNK23QQuickFramebufferObject15textureProviderEv@Base 5.4.0
 _ZNK23QQuickFramebufferObject17isTextureProviderEv@Base 5.4.0
 _ZNK23QQuickFramebufferObject22textureFollowsItemSizeEv@Base 5.2.0~beta1
 _ZNK23QQuickFramebufferObject8Renderer17framebufferObjectEv@Base 5.2.0~beta1 1
 _ZNK23QQuickParallelAnimation10metaObjectEv@Base 5.0.2 1
 _ZNK23QQuickParallelAnimation14threadingModelEv@Base 5.2.0~beta1 1
 _ZNK23QQuickPropertyAnimation10metaObjectEv@Base 5.0.2 1
 _ZNK23QQuickPropertyAnimation10propertiesEv@Base 5.0.2 1
 _ZNK23QQuickPropertyAnimation2toEv@Base 5.0.2 1
 _ZNK23QQuickPropertyAnimation4fromEv@Base 5.0.2 1
 _ZNK23QQuickPropertyAnimation6easingEv@Base 5.0.2 1
 _ZNK23QQuickPropertyAnimation6targetEv@Base 5.0.2 1
 _ZNK23QQuickPropertyAnimation8durationEv@Base 5.0.2 1
 _ZNK23QQuickPropertyAnimation8propertyEv@Base 5.0.2 1
 _ZNK23QQuickRotationAnimation10metaObjectEv@Base 5.0.2 1
 _ZNK23QQuickRotationAnimation2toEv@Base 5.0.2 1
 _ZNK23QQuickRotationAnimation4fromEv@Base 5.0.2 1
 _ZNK23QQuickRotationAnimation9directionEv@Base 5.0.2 1
 _ZNK23QQuickVector3dAnimation10metaObjectEv@Base 5.0.2 1
 _ZNK23QQuickVector3dAnimation2toEv@Base 5.0.2 1
 _ZNK23QQuickVector3dAnimation4fromEv@Base 5.0.2 1
 _ZNK24QQuickAccessibleAttached10metaObjectEv@Base 5.0.2 1
 _ZNK24QQuickAccessibleAttached16availableActionsEP11QStringList@Base 5.4.0 1
 _ZNK24QQuickAccessibleAttached7ignoredEv@Base 5.4.0 1
 _ZNK24QQuickShaderEffectSource10hideSourceEv@Base 5.0.2 1
 _ZNK24QQuickShaderEffectSource10metaObjectEv@Base 5.0.2 1
 _ZNK24QQuickShaderEffectSource10sourceItemEv@Base 5.0.2 1
 _ZNK24QQuickShaderEffectSource10sourceRectEv@Base 5.0.2 1
 _ZNK24QQuickShaderEffectSource11textureSizeEv@Base 5.0.2 1
 _ZNK24QQuickShaderEffectSource15textureProviderEv@Base 5.0.2 1
 _ZNK24QQuickShaderEffectSource4liveEv@Base 5.0.2 1
 _ZNK24QQuickShaderEffectSource6formatEv@Base 5.0.2 1
 _ZNK24QQuickShaderEffectSource6mipmapEv@Base 5.0.2 1
 _ZNK24QQuickShaderEffectSource8wrapModeEv@Base 5.0.2 1
 _ZNK24QQuickShaderEffectSource9recursiveEv@Base 5.0.2 1
 _ZNK24QSGMaterialShaderPrivate16loadShaderSourceE6QFlagsIN13QOpenGLShader13ShaderTypeBitEE@Base 5.2.0~rc1 1
 _ZNK24QSGOpaqueTextureMaterial12createShaderEv@Base 5.0.2
 _ZNK24QSGOpaqueTextureMaterial4typeEv@Base 5.0.2
 _ZNK24QSGOpaqueTextureMaterial7compareEPK11QSGMaterial@Base 5.0.2
 _ZNK24QSGSmoothTextureMaterial12createShaderEv@Base 5.1.1 1
 _ZNK24QSGSmoothTextureMaterial4typeEv@Base 5.1.1 1
 _ZNK26QQuickShaderEffectMaterial11UniformDataeqERKS0_@Base 5.4.0 1
 _ZNK26QQuickShaderEffectMaterial12createShaderEv@Base 5.0.2 1
 _ZNK26QQuickShaderEffectMaterial14updateTexturesEv@Base 5.0.2 1
 _ZNK26QQuickShaderEffectMaterial4typeEv@Base 5.0.2 1
 _ZNK26QQuickShaderEffectMaterial7compareEPK11QSGMaterial@Base 5.0.2 1
 _ZNK27QQuickKeyNavigationAttached10metaObjectEv@Base 5.4.0 1
 _ZNK27QQuickKeyNavigationAttached2upEv@Base 5.4.0 1
 _ZNK27QQuickKeyNavigationAttached3tabEv@Base 5.4.0 1
 _ZNK27QQuickKeyNavigationAttached4downEv@Base 5.4.0 1
 _ZNK27QQuickKeyNavigationAttached4leftEv@Base 5.4.0 1
 _ZNK27QQuickKeyNavigationAttached5rightEv@Base 5.4.0 1
 _ZNK27QQuickKeyNavigationAttached7backtabEv@Base 5.4.0 1
 _ZNK27QQuickKeyNavigationAttached8priorityEv@Base 5.4.0 1
 _ZNK28QSGDistanceFieldTextMaterial12createShaderEv@Base 5.0.2 1
 _ZNK28QSGDistanceFieldTextMaterial4typeEv@Base 5.0.2 1
 _ZNK28QSGDistanceFieldTextMaterial7compareEPK11QSGMaterial@Base 5.0.2 1
 _ZNK30QSGOpaqueTextureMaterialShader14attributeNamesEv@Base 5.0.2 1
 _ZNK33QSGDefaultDistanceFieldGlyphCache14maxTextureSizeEv@Base 5.0.2 1
 _ZNK33QSGDefaultDistanceFieldGlyphCache26useTextureResizeWorkaroundEv@Base 5.2.0~rc1 1
 _ZNK33QSGDefaultDistanceFieldGlyphCache26useTextureUploadWorkaroundEv@Base 5.2.0~rc1 1
 _ZNK34QSGDistanceFieldStyledTextMaterial7compareEPK11QSGMaterial@Base 5.0.2 1
 _ZNK35QSGDistanceFieldOutlineTextMaterial12createShaderEv@Base 5.0.2 1
 _ZNK35QSGDistanceFieldOutlineTextMaterial4typeEv@Base 5.0.2 1
 _ZNK39QSGHiQSubPixelDistanceFieldTextMaterial12createShaderEv@Base 5.0.2 1
 _ZNK39QSGHiQSubPixelDistanceFieldTextMaterial4typeEv@Base 5.0.2 1
 _ZNK39QSGLoQSubPixelDistanceFieldTextMaterial12createShaderEv@Base 5.0.2 1
 _ZNK39QSGLoQSubPixelDistanceFieldTextMaterial4typeEv@Base 5.0.2 1
 _ZNK40QSGDistanceFieldShiftedStyleTextMaterial12createShaderEv@Base 5.0.2 1
 _ZNK40QSGDistanceFieldShiftedStyleTextMaterial4typeEv@Base 5.0.2 1
 _ZNK40QSGDistanceFieldShiftedStyleTextMaterial7compareEPK11QSGMaterial@Base 5.2.0~rc1 1
 _ZNK7QSGNode10childCountEv@Base 5.0.2
 _ZNK7QSGNode12childAtIndexEi@Base 5.0.2
 _ZNK7QSGNode16isSubtreeBlockedEv@Base 5.0.2
 _ZNK8QSGLayer10metaObjectEv@Base 5.4.0 1
 _ZNK9QSGEngine10metaObjectEv@Base 5.4.0
 _ZNK9QSGEngine14createRendererEv@Base 5.4.0
 _ZNK9QSGEngine19createTextureFromIdEjRK5QSize6QFlagsINS_19CreateTextureOptionEE@Base 5.4.0
 _ZNK9QSGEngine22createTextureFromImageERK6QImage6QFlagsINS_19CreateTextureOptionEE@Base 5.4.0
 _ZTI10QQuickItem@Base 5.0.2
 _ZTI10QQuickText@Base 5.0.2 1
 _ZTI10QQuickView@Base 5.0.2
 _ZTI10QSGContext@Base 5.0.2 1
 _ZTI10QSGTexture@Base 5.0.2
 _ZTI11QQuickState@Base 5.0.2 1
 _ZTI11QSGBindable@Base 5.0.2 1
 _ZTI11QSGClipNode@Base 5.0.2
 _ZTI11QSGGeometry@Base 5.0.2
 _ZTI11QSGMaterial@Base 5.0.2
 _ZTI11QSGRenderer@Base 5.0.2 1
 _ZTI11QSGRootNode@Base 5.0.2
 _ZTI12QQmlRefCount@Base 5.4.0 1
 _ZTI12QQuickWindow@Base 5.0.2
 _ZTI12QSGGlyphNode@Base 5.0.2 1
 _ZTI12QSGImageNode@Base 5.0.2 1
 _ZTI13QQuickAnchors@Base 5.0.2 1
 _ZTI13QSGNodeDumper@Base 5.0.2 1
 _ZTI13QSGRenderLoop@Base 5.1.0 1
 _ZTI13QSGRenderNode@Base 5.0.2 1
 _ZTI14QQuickAnimator@Base 5.2.0~beta1 1
 _ZTI14QQuickBehavior@Base 5.0.2 1
 _ZTI14QQuickGradient@Base 5.3.0 1
 _ZTI14QQuickProfiler@Base 5.3.0 1
 _ZTI14QQuickTextEdit@Base 5.0.2 1
 _ZTI14QSGNodeUpdater@Base 5.0.2 1
 _ZTI14QSGNodeVisitor@Base 5.0.2
 _ZTI14QSGOpacityNode@Base 5.0.2
 _ZTI14QSGPainterNode@Base 5.0.2 1
 _ZTI15QQuickFlickable@Base 5.0.2 1
 _ZTI15QQuickImageBase@Base 5.0.2 1
 _ZTI15QQuickMouseArea@Base 5.0.2 1
 _ZTI15QQuickTextInput@Base 5.0.2 1
 _ZTI15QQuickTransform@Base 5.3.0
 _ZTI15QQuickXAnimator@Base 5.2.0~beta1 1
 _ZTI15QQuickYAnimator@Base 5.2.0~beta1 1
 _ZTI15QSGDefaultLayer@Base 5.4.0 1
 _ZTI15QSGGeometryNode@Base 5.0.2
 _ZTI15QSGPlainTexture@Base 5.0.2 1
 _ZTI16QOpenGLFunctions@Base 5.0.2
 _ZTI16QQmlCustomParser@Base 5.0.2 1
 _ZTI16QQuickCloseEvent@Base 5.1.0 1
 _ZTI16QQuickMouseEvent@Base 5.0.2 1
 _ZTI16QQuickStateGroup@Base 5.0.2 1
 _ZTI16QQuickTransition@Base 5.0.2 1
 _ZTI16QSGContextPlugin@Base 5.0.2 1
 _ZTI16QSGRectangleNode@Base 5.0.2 1
 _ZTI16QSGRenderContext@Base 5.2.0~rc1 1
 _ZTI16QSGTransformNode@Base 5.0.2
 _ZTI16QSGVisitableNode@Base 5.4.0 1
 _ZTI17QFactoryInterface@Base 5.0.2
 _ZTI17QInputMethodEvent@Base 5.0.2
 _ZTI17QQuickAnimatorJob@Base 5.2.0~beta1 1
 _ZTI17QQuickItemPrivate@Base 5.0.2 1
 _ZTI17QQuickPaintedItem@Base 5.0.2
 _ZTI17QSGDynamicTexture@Base 5.0.2
 _ZTI17QSGMaterialShader@Base 5.0.2
 _ZTI17QSGPainterTexture@Base 5.0.2 1
 _ZTI17QSGSimpleRectNode@Base 5.0.2
 _ZTI18QQuickGradientStop@Base 5.3.0 1
 _ZTI18QQuickShaderEffect@Base 5.0.2 1
 _ZTI18QQuickSpriteEngine@Base 5.0.2 1
 _ZTI18QQuickTextDocument@Base 5.1.0
 _ZTI18QQuickXAnimatorJob@Base 5.2.0~beta1 1
 _ZTI18QQuickYAnimatorJob@Base 5.2.0~beta1 1
 _ZTI18QSGTextureMaterial@Base 5.0.2
 _ZTI18QSGTextureProvider@Base 5.0.2
 _ZTI19QQuickImageProvider@Base 5.0.2
 _ZTI19QQuickRenderControl@Base 5.3.0
 _ZTI19QQuickScaleAnimator@Base 5.2.0~beta1 1
 _ZTI19QQuickWindowPrivate@Base 5.0.2 1
 _ZTI19QSGAbstractRenderer@Base 5.4.0
 _ZTI19QSGDefaultImageNode@Base 5.1.0 1
 _ZTI20QQuickAnimationGroup@Base 5.0.2 1
 _ZTI20QQuickBasePositioner@Base 5.0.2 1
 _ZTI20QQuickColorAnimation@Base 5.0.2 1
 _ZTI20QQuickItemGrabResult@Base 5.4.0
 _ZTI20QQuickPauseAnimation@Base 5.0.2 1
 _ZTI20QQuickStateOperation@Base 5.0.2 1
 _ZTI20QQuickTextureFactory@Base 5.0.2
 _ZTI20QSGBasicGeometryNode@Base 5.0.2
 _ZTI20QSGFlatColorMaterial@Base 5.0.2
 _ZTI20QSGSimpleTextureNode@Base 5.0.2
 _ZTI20QTextObjectInterface@Base 5.0.2
 _ZTI21QQuickDefaultClipNode@Base 5.2.0~beta1 1
 _ZTI21QQuickNumberAnimation@Base 5.0.2 1
 _ZTI21QQuickOpacityAnimator@Base 5.2.0~beta1 1
 _ZTI21QQuickPropertyChanges@Base 5.0.2 1
 _ZTI21QQuickStochasticState@Base 5.0.2 1
 _ZTI21QQuickUniformAnimator@Base 5.2.0~beta1 1
 _ZTI21QSGDefaultPainterNode@Base 5.4.0 1
 _ZTI22QQuickAnimatorProxyJob@Base 5.2.0~beta1 1
 _ZTI22QQuickImplicitSizeItem@Base 5.0.2 1
 _ZTI22QQuickRotationAnimator@Base 5.2.0~beta1 1
 _ZTI22QQuickScaleAnimatorJob@Base 5.2.0~beta1 1
 _ZTI22QQuickShaderEffectNode@Base 5.0.2 1
 _ZTI22QQuickStochasticEngine@Base 5.0.2 1
 _ZTI22QSGShaderSourceBuilder@Base 5.2.0~rc1 1
 _ZTI22QSGSmoothColorMaterial@Base 5.1.1 1
 _ZTI22QSGVertexColorMaterial@Base 5.0.2
 _ZTI23QQuickAbstractAnimation@Base 5.0.2 1
 _ZTI23QQuickFramebufferObject@Base 5.2.0~beta1
 _ZTI23QQuickParallelAnimation@Base 5.0.2 1
 _ZTI23QQuickPropertyAnimation@Base 5.0.2 1
 _ZTI23QQuickRotationAnimation@Base 5.0.2 1
 _ZTI23QQuickVector3dAnimation@Base 5.0.2 1
 _ZTI23QSGDefaultRectangleNode@Base 5.1.0 1
 _ZTI24QQuickAccessibleAttached@Base 5.0.2 1
 _ZTI24QQuickOpacityAnimatorJob@Base 5.2.0~beta1 1
 _ZTI24QQuickShaderEffectSource@Base 5.0.2 1
 _ZTI24QQuickUniformAnimatorJob@Base 5.2.0~beta1 1
 _ZTI24QSGOpaqueTextureMaterial@Base 5.0.2
 _ZTI24QSGSmoothTextureMaterial@Base 5.1.1 1
 _ZTI25QAccessibleValueInterface@Base 5.4.0
 _ZTI25QQuickRotationAnimatorJob@Base 5.2.0~beta1 1
 _ZTI26QAccessibleTextCursorEvent@Base 5.0.2
 _ZTI26QAccessibleTextUpdateEvent@Base 5.0.2
 _ZTI26QQuickShaderEffectMaterial@Base 5.0.2 1
 _ZTI26QSGAbstractRendererPrivate@Base 5.4.0 1
 _ZTI26QSGContextFactoryInterface@Base 5.0.2
 _ZTI26QSGDistanceFieldGlyphCache@Base 5.0.2 1
 _ZTI27QAccessibleStateChangeEvent@Base 5.3.0
 _ZTI27QAccessibleValueChangeEvent@Base 5.0.2
 _ZTI27QQuickKeyNavigationAttached@Base 5.4.0 1
 _ZTI28QSGDistanceFieldTextMaterial@Base 5.0.2 1
 _ZTI29QSGDistanceFieldGlyphConsumer@Base 5.0.2 1
 _ZTI30QSGOpaqueTextureMaterialShader@Base 5.0.2 1
 _ZTI33QSGDefaultDistanceFieldGlyphCache@Base 5.0.2 1
 _ZTI34QSGDistanceFieldStyledTextMaterial@Base 5.0.2 1
 _ZTI35QSGDistanceFieldOutlineTextMaterial@Base 5.0.2 1
 _ZTI39QSGHiQSubPixelDistanceFieldTextMaterial@Base 5.0.2 1
 _ZTI39QSGLoQSubPixelDistanceFieldTextMaterial@Base 5.0.2 1
 _ZTI40QSGDistanceFieldShiftedStyleTextMaterial@Base 5.0.2 1
 _ZTI7QSGNode@Base 5.0.2
 _ZTI8QSGLayer@Base 5.4.0 1
 _ZTI9QSGEngine@Base 5.4.0
 _ZTIN16QSGBatchRenderer8RendererE@Base 5.2.0~beta1 1
 _ZTIN23QQuickFramebufferObject8RendererE@Base 5.2.0~beta1 1
 _ZTIN9QV8Engine9DeletableE@Base 5.0.2 1
 _ZTS10QQuickItem@Base 5.0.2
 _ZTS10QQuickText@Base 5.0.2 1
 _ZTS10QQuickView@Base 5.0.2
 _ZTS10QSGContext@Base 5.0.2 1
 _ZTS10QSGTexture@Base 5.0.2
 _ZTS11QQuickState@Base 5.0.2 1
 _ZTS11QSGBindable@Base 5.0.2 1
 _ZTS11QSGClipNode@Base 5.0.2
 _ZTS11QSGGeometry@Base 5.0.2
 _ZTS11QSGMaterial@Base 5.0.2
 _ZTS11QSGRenderer@Base 5.0.2 1
 _ZTS11QSGRootNode@Base 5.0.2
 _ZTS12QQmlRefCount@Base 5.4.0 1
 _ZTS12QQuickWindow@Base 5.0.2
 _ZTS12QSGGlyphNode@Base 5.0.2 1
 _ZTS12QSGImageNode@Base 5.0.2 1
 _ZTS13QQuickAnchors@Base 5.0.2 1
 _ZTS13QSGNodeDumper@Base 5.0.2 1
 _ZTS13QSGRenderLoop@Base 5.1.0 1
 _ZTS13QSGRenderNode@Base 5.0.2 1
 _ZTS14QQuickAnimator@Base 5.2.0~beta1 1
 _ZTS14QQuickBehavior@Base 5.0.2 1
 _ZTS14QQuickGradient@Base 5.3.0 1
 _ZTS14QQuickProfiler@Base 5.3.0 1
 _ZTS14QQuickTextEdit@Base 5.0.2 1
 _ZTS14QSGNodeUpdater@Base 5.0.2 1
 _ZTS14QSGNodeVisitor@Base 5.0.2
 _ZTS14QSGOpacityNode@Base 5.0.2
 _ZTS14QSGPainterNode@Base 5.0.2 1
 _ZTS15QQuickFlickable@Base 5.0.2 1
 _ZTS15QQuickImageBase@Base 5.0.2 1
 _ZTS15QQuickMouseArea@Base 5.0.2 1
 _ZTS15QQuickTextInput@Base 5.0.2 1
 _ZTS15QQuickTransform@Base 5.3.0
 _ZTS15QQuickXAnimator@Base 5.2.0~beta1 1
 _ZTS15QQuickYAnimator@Base 5.2.0~beta1 1
 _ZTS15QSGDefaultLayer@Base 5.4.0 1
 _ZTS15QSGGeometryNode@Base 5.0.2
 _ZTS15QSGPlainTexture@Base 5.0.2 1
 _ZTS16QOpenGLFunctions@Base 5.0.2
 _ZTS16QQmlCustomParser@Base 5.0.2 1
 _ZTS16QQuickCloseEvent@Base 5.1.0 1
 _ZTS16QQuickMouseEvent@Base 5.0.2 1
 _ZTS16QQuickStateGroup@Base 5.0.2 1
 _ZTS16QQuickTransition@Base 5.0.2 1
 _ZTS16QSGContextPlugin@Base 5.0.2 1
 _ZTS16QSGRectangleNode@Base 5.0.2 1
 _ZTS16QSGRenderContext@Base 5.2.0~rc1 1
 _ZTS16QSGTransformNode@Base 5.0.2
 _ZTS16QSGVisitableNode@Base 5.4.0 1
 _ZTS17QFactoryInterface@Base 5.0.2
 _ZTS17QInputMethodEvent@Base 5.0.2
 _ZTS17QQuickAnimatorJob@Base 5.2.0~beta1 1
 _ZTS17QQuickItemPrivate@Base 5.0.2 1
 _ZTS17QQuickPaintedItem@Base 5.0.2
 _ZTS17QSGDynamicTexture@Base 5.0.2
 _ZTS17QSGMaterialShader@Base 5.0.2
 _ZTS17QSGPainterTexture@Base 5.0.2 1
 _ZTS17QSGSimpleRectNode@Base 5.0.2
 _ZTS18QQuickGradientStop@Base 5.3.0 1
 _ZTS18QQuickShaderEffect@Base 5.0.2 1
 _ZTS18QQuickSpriteEngine@Base 5.0.2 1
 _ZTS18QQuickTextDocument@Base 5.1.0
 _ZTS18QQuickXAnimatorJob@Base 5.2.0~beta1 1
 _ZTS18QQuickYAnimatorJob@Base 5.2.0~beta1 1
 _ZTS18QSGTextureMaterial@Base 5.0.2
 _ZTS18QSGTextureProvider@Base 5.0.2
 _ZTS19QQuickImageProvider@Base 5.0.2
 _ZTS19QQuickRenderControl@Base 5.3.0
 _ZTS19QQuickScaleAnimator@Base 5.2.0~beta1 1
 _ZTS19QQuickWindowPrivate@Base 5.0.2 1
 _ZTS19QSGAbstractRenderer@Base 5.4.0
 _ZTS19QSGDefaultImageNode@Base 5.1.0 1
 _ZTS20QQuickAnimationGroup@Base 5.0.2 1
 _ZTS20QQuickBasePositioner@Base 5.0.2 1
 _ZTS20QQuickColorAnimation@Base 5.0.2 1
 _ZTS20QQuickItemGrabResult@Base 5.4.0
 _ZTS20QQuickPauseAnimation@Base 5.0.2 1
 _ZTS20QQuickStateOperation@Base 5.0.2 1
 _ZTS20QQuickTextureFactory@Base 5.0.2
 _ZTS20QSGBasicGeometryNode@Base 5.0.2
 _ZTS20QSGFlatColorMaterial@Base 5.0.2
 _ZTS20QSGSimpleTextureNode@Base 5.0.2
 _ZTS20QTextObjectInterface@Base 5.0.2
 _ZTS21QQuickDefaultClipNode@Base 5.2.0~beta1 1
 _ZTS21QQuickNumberAnimation@Base 5.0.2 1
 _ZTS21QQuickOpacityAnimator@Base 5.2.0~beta1 1
 _ZTS21QQuickPropertyChanges@Base 5.0.2 1
 _ZTS21QQuickStochasticState@Base 5.0.2 1
 _ZTS21QQuickUniformAnimator@Base 5.2.0~beta1 1
 _ZTS21QSGDefaultPainterNode@Base 5.4.0 1
 _ZTS22QQuickAnimatorProxyJob@Base 5.2.0~beta1 1
 _ZTS22QQuickImplicitSizeItem@Base 5.0.2 1
 _ZTS22QQuickRotationAnimator@Base 5.2.0~beta1 1
 _ZTS22QQuickScaleAnimatorJob@Base 5.2.0~beta1 1
 _ZTS22QQuickShaderEffectNode@Base 5.0.2 1
 _ZTS22QQuickStochasticEngine@Base 5.0.2 1
 _ZTS22QSGShaderSourceBuilder@Base 5.2.0~rc1 1
 _ZTS22QSGSmoothColorMaterial@Base 5.1.1 1
 _ZTS22QSGVertexColorMaterial@Base 5.0.2
 _ZTS23QQuickAbstractAnimation@Base 5.0.2 1
 _ZTS23QQuickFramebufferObject@Base 5.2.0~beta1
 _ZTS23QQuickParallelAnimation@Base 5.0.2 1
 _ZTS23QQuickPropertyAnimation@Base 5.0.2 1
 _ZTS23QQuickRotationAnimation@Base 5.0.2 1
 _ZTS23QQuickVector3dAnimation@Base 5.0.2 1
 _ZTS23QSGDefaultRectangleNode@Base 5.1.0 1
 _ZTS24QQuickAccessibleAttached@Base 5.0.2 1
 _ZTS24QQuickOpacityAnimatorJob@Base 5.2.0~beta1 1
 _ZTS24QQuickShaderEffectSource@Base 5.0.2 1
 _ZTS24QQuickUniformAnimatorJob@Base 5.2.0~beta1 1
 _ZTS24QSGOpaqueTextureMaterial@Base 5.0.2
 _ZTS24QSGSmoothTextureMaterial@Base 5.1.1 1
 _ZTS25QAccessibleValueInterface@Base 5.4.0
 _ZTS25QQuickRotationAnimatorJob@Base 5.2.0~beta1 1
 _ZTS26QAccessibleTextCursorEvent@Base 5.0.2
 _ZTS26QAccessibleTextUpdateEvent@Base 5.0.2
 _ZTS26QQuickShaderEffectMaterial@Base 5.0.2 1
 _ZTS26QSGAbstractRendererPrivate@Base 5.4.0 1
 _ZTS26QSGContextFactoryInterface@Base 5.0.2
 _ZTS26QSGDistanceFieldGlyphCache@Base 5.0.2 1
 _ZTS27QAccessibleStateChangeEvent@Base 5.3.0
 _ZTS27QAccessibleValueChangeEvent@Base 5.0.2
 _ZTS27QQuickKeyNavigationAttached@Base 5.4.0 1
 _ZTS28QSGDistanceFieldTextMaterial@Base 5.0.2 1
 _ZTS29QSGDistanceFieldGlyphConsumer@Base 5.0.2 1
 _ZTS30QSGOpaqueTextureMaterialShader@Base 5.0.2 1
 _ZTS33QSGDefaultDistanceFieldGlyphCache@Base 5.0.2 1
 _ZTS34QSGDistanceFieldStyledTextMaterial@Base 5.0.2 1
 _ZTS35QSGDistanceFieldOutlineTextMaterial@Base 5.0.2 1
 _ZTS39QSGHiQSubPixelDistanceFieldTextMaterial@Base 5.0.2 1
 _ZTS39QSGLoQSubPixelDistanceFieldTextMaterial@Base 5.0.2 1
 _ZTS40QSGDistanceFieldShiftedStyleTextMaterial@Base 5.0.2 1
 _ZTS7QSGNode@Base 5.0.2
 _ZTS8QSGLayer@Base 5.4.0 1
 _ZTS9QSGEngine@Base 5.4.0
 _ZTSN16QSGBatchRenderer8RendererE@Base 5.2.0~beta1 1
 _ZTSN23QQuickFramebufferObject8RendererE@Base 5.2.0~beta1 1
 _ZTSN9QV8Engine9DeletableE@Base 5.0.2 1
 _ZTV10QQuickItem@Base 5.0.2
 _ZTV10QQuickText@Base 5.0.2 1
 _ZTV10QQuickView@Base 5.0.2
 _ZTV10QSGContext@Base 5.0.2 1
 _ZTV10QSGTexture@Base 5.0.2
 _ZTV11QQuickState@Base 5.0.2 1
 _ZTV11QSGBindable@Base 5.0.2 1
 _ZTV11QSGClipNode@Base 5.0.2
 _ZTV11QSGGeometry@Base 5.0.2
 _ZTV11QSGMaterial@Base 5.0.2
 _ZTV11QSGRenderer@Base 5.0.2 1
 _ZTV11QSGRootNode@Base 5.0.2
 _ZTV12QQmlRefCount@Base 5.4.0 1
 _ZTV12QQuickWindow@Base 5.0.2
 _ZTV12QSGGlyphNode@Base 5.0.2 1
 _ZTV12QSGImageNode@Base 5.0.2 1
 _ZTV13QQuickAnchors@Base 5.0.2 1
 _ZTV13QSGNodeDumper@Base 5.0.2 1
 _ZTV13QSGRenderLoop@Base 5.1.0 1
 _ZTV13QSGRenderNode@Base 5.0.2 1
 _ZTV14QQuickAnimator@Base 5.2.0~beta1 1
 _ZTV14QQuickBehavior@Base 5.0.2 1
 _ZTV14QQuickGradient@Base 5.3.0 1
 _ZTV14QQuickProfiler@Base 5.3.0 1
 _ZTV14QQuickTextEdit@Base 5.0.2 1
 _ZTV14QSGNodeUpdater@Base 5.0.2 1
 _ZTV14QSGNodeVisitor@Base 5.0.2
 _ZTV14QSGOpacityNode@Base 5.0.2
 _ZTV14QSGPainterNode@Base 5.0.2 1
 _ZTV15QQuickFlickable@Base 5.0.2 1
 _ZTV15QQuickImageBase@Base 5.0.2 1
 _ZTV15QQuickMouseArea@Base 5.0.2 1
 _ZTV15QQuickTextInput@Base 5.0.2 1
 _ZTV15QQuickTransform@Base 5.3.0
 _ZTV15QQuickXAnimator@Base 5.2.0~beta1 1
 _ZTV15QQuickYAnimator@Base 5.2.0~beta1 1
 _ZTV15QSGDefaultLayer@Base 5.4.0 1
 _ZTV15QSGGeometryNode@Base 5.0.2
 _ZTV15QSGPlainTexture@Base 5.0.2 1
 _ZTV16QQmlCustomParser@Base 5.0.2 1
 _ZTV16QQuickCloseEvent@Base 5.1.0 1
 _ZTV16QQuickMouseEvent@Base 5.0.2 1
 _ZTV16QQuickStateGroup@Base 5.0.2 1
 _ZTV16QQuickTransition@Base 5.0.2 1
 _ZTV16QSGContextPlugin@Base 5.0.2 1
 _ZTV16QSGRectangleNode@Base 5.0.2 1
 _ZTV16QSGRenderContext@Base 5.2.0~rc1 1
 _ZTV16QSGTransformNode@Base 5.0.2
 _ZTV16QSGVisitableNode@Base 5.4.0 1
 _ZTV17QFactoryInterface@Base 5.0.2
 _ZTV17QInputMethodEvent@Base 5.0.2
 _ZTV17QQuickAnimatorJob@Base 5.2.0~beta1 1
 _ZTV17QQuickItemPrivate@Base 5.0.2 1
 _ZTV17QQuickPaintedItem@Base 5.0.2
 _ZTV17QSGDynamicTexture@Base 5.0.2
 _ZTV17QSGMaterialShader@Base 5.0.2
 _ZTV17QSGPainterTexture@Base 5.0.2 1
 _ZTV17QSGSimpleRectNode@Base 5.0.2
 _ZTV18QQuickGradientStop@Base 5.3.0 1
 _ZTV18QQuickShaderEffect@Base 5.0.2 1
 _ZTV18QQuickSpriteEngine@Base 5.0.2 1
 _ZTV18QQuickTextDocument@Base 5.1.0
 _ZTV18QQuickXAnimatorJob@Base 5.2.0~beta1 1
 _ZTV18QQuickYAnimatorJob@Base 5.2.0~beta1 1
 _ZTV18QSGTextureMaterial@Base 5.0.2
 _ZTV18QSGTextureProvider@Base 5.0.2
 _ZTV19QQuickImageProvider@Base 5.0.2
 _ZTV19QQuickRenderControl@Base 5.3.0
 _ZTV19QQuickScaleAnimator@Base 5.2.0~beta1 1
 _ZTV19QQuickWindowPrivate@Base 5.0.2 1
 _ZTV19QSGAbstractRenderer@Base 5.4.0
 _ZTV19QSGDefaultImageNode@Base 5.1.0 1
 _ZTV20QQuickAnimationGroup@Base 5.0.2 1
 _ZTV20QQuickBasePositioner@Base 5.0.2 1
 _ZTV20QQuickColorAnimation@Base 5.0.2 1
 _ZTV20QQuickItemGrabResult@Base 5.4.0
 _ZTV20QQuickPauseAnimation@Base 5.0.2 1
 _ZTV20QQuickStateOperation@Base 5.0.2 1
 _ZTV20QQuickTextureFactory@Base 5.0.2
 _ZTV20QSGBasicGeometryNode@Base 5.0.2
 _ZTV20QSGFlatColorMaterial@Base 5.0.2
 _ZTV20QSGSimpleTextureNode@Base 5.0.2
 _ZTV20QTextObjectInterface@Base 5.0.2
 _ZTV21QQuickDefaultClipNode@Base 5.2.0~beta1 1
 _ZTV21QQuickNumberAnimation@Base 5.0.2 1
 _ZTV21QQuickOpacityAnimator@Base 5.2.0~beta1 1
 _ZTV21QQuickPropertyChanges@Base 5.0.2 1
 _ZTV21QQuickStochasticState@Base 5.0.2 1
 _ZTV21QQuickUniformAnimator@Base 5.2.0~beta1 1
 _ZTV21QSGDefaultPainterNode@Base 5.4.0 1
 _ZTV22QQuickAnimatorProxyJob@Base 5.2.0~beta1 1
 _ZTV22QQuickImplicitSizeItem@Base 5.0.2 1
 _ZTV22QQuickRotationAnimator@Base 5.2.0~beta1 1
 _ZTV22QQuickScaleAnimatorJob@Base 5.2.0~beta1 1
 _ZTV22QQuickShaderEffectNode@Base 5.0.2 1
 _ZTV22QQuickStochasticEngine@Base 5.0.2 1
 _ZTV22QSGShaderSourceBuilder@Base 5.2.0~rc1 1
 _ZTV22QSGSmoothColorMaterial@Base 5.1.1 1
 _ZTV22QSGVertexColorMaterial@Base 5.0.2
 _ZTV23QQuickAbstractAnimation@Base 5.0.2 1
 _ZTV23QQuickFramebufferObject@Base 5.2.0~beta1
 _ZTV23QQuickParallelAnimation@Base 5.0.2 1
 _ZTV23QQuickPropertyAnimation@Base 5.0.2 1
 _ZTV23QQuickRotationAnimation@Base 5.0.2 1
 _ZTV23QQuickVector3dAnimation@Base 5.0.2 1
 _ZTV23QSGDefaultRectangleNode@Base 5.1.0 1
 _ZTV24QQuickAccessibleAttached@Base 5.0.2 1
 _ZTV24QQuickOpacityAnimatorJob@Base 5.2.0~beta1 1
 _ZTV24QQuickShaderEffectSource@Base 5.0.2 1
 _ZTV24QQuickUniformAnimatorJob@Base 5.2.0~beta1 1
 _ZTV24QSGOpaqueTextureMaterial@Base 5.0.2
 _ZTV24QSGSmoothTextureMaterial@Base 5.1.1 1
 _ZTV25QAccessibleValueInterface@Base 5.4.0
 _ZTV25QQuickRotationAnimatorJob@Base 5.2.0~beta1 1
 _ZTV26QAccessibleTextCursorEvent@Base 5.0.2
 _ZTV26QAccessibleTextUpdateEvent@Base 5.0.2
 _ZTV26QQuickShaderEffectMaterial@Base 5.0.2 1
 _ZTV26QSGAbstractRendererPrivate@Base 5.4.0 1
 _ZTV26QSGContextFactoryInterface@Base 5.0.2
 _ZTV26QSGDistanceFieldGlyphCache@Base 5.0.2 1
 _ZTV27QAccessibleStateChangeEvent@Base 5.3.0
 _ZTV27QAccessibleValueChangeEvent@Base 5.0.2
 _ZTV27QQuickKeyNavigationAttached@Base 5.4.0 1
 _ZTV28QSGDistanceFieldTextMaterial@Base 5.0.2 1
 _ZTV29QSGDistanceFieldGlyphConsumer@Base 5.0.2 1
 _ZTV30QSGOpaqueTextureMaterialShader@Base 5.0.2 1
 _ZTV33QSGDefaultDistanceFieldGlyphCache@Base 5.0.2 1
 _ZTV34QSGDistanceFieldStyledTextMaterial@Base 5.0.2 1
 _ZTV35QSGDistanceFieldOutlineTextMaterial@Base 5.0.2 1
 _ZTV39QSGHiQSubPixelDistanceFieldTextMaterial@Base 5.0.2 1
 _ZTV39QSGLoQSubPixelDistanceFieldTextMaterial@Base 5.0.2 1
 _ZTV40QSGDistanceFieldShiftedStyleTextMaterial@Base 5.0.2 1
 _ZTV7QSGNode@Base 5.0.2
 _ZTV8QSGLayer@Base 5.4.0 1
 _ZTV9QSGEngine@Base 5.4.0
 _ZTVN16QSGBatchRenderer8RendererE@Base 5.2.0~beta1 1
 _ZTVN23QQuickFramebufferObject8RendererE@Base 5.2.0~beta1 1
 _ZTVN9QV8Engine9DeletableE@Base 5.0.2 1
 _ZZN8QQmlData4initEvE11initialized@Base 5.0.2 1
 _ZZZNK15QQuickXAnimator12propertyNameEvENKUlvE_clEvE15qstring_literal@Base 5.2.0~beta1 1
 _ZZZNK15QQuickYAnimator12propertyNameEvENKUlvE_clEvE15qstring_literal@Base 5.2.0~beta1 1
 _ZZZNK19QQuickScaleAnimator12propertyNameEvENKUlvE_clEvE15qstring_literal@Base 5.2.0~beta1 1
 _ZZZNK21QQuickOpacityAnimator12propertyNameEvENKUlvE_clEvE15qstring_literal@Base 5.2.0~beta1 1
 _ZZZNK22QQuickRotationAnimator12propertyNameEvENKUlvE_clEvE15qstring_literal@Base 5.2.0~beta1 1
 _Zls6QDebugP10QQuickItem@Base 5.0.2
 _Zls6QDebugPK11QSGRootNode@Base 5.0.2
 _Zls6QDebugPK14QSGOpacityNode@Base 5.0.2
 _Zls6QDebugPK15QSGGeometryNode@Base 5.0.2
 _Zls6QDebugPK16QSGTransformNode@Base 5.0.2
 _Zls6QDebugPK7QSGNode@Base 5.0.2
 (c++)"non-virtual thunk to QQuickAbstractAnimation::classBegin()@Base" 5.0.2
 (c++)"non-virtual thunk to QQuickAbstractAnimation::componentComplete()@Base" 5.0.2
 (c++)"non-virtual thunk to QQuickAbstractAnimation::setTarget(QQmlProperty const&)@Base" 5.0.2
 (c++)"non-virtual thunk to QQuickAbstractAnimation::~QQuickAbstractAnimation()@Base" 5.0.2
 (c++)"non-virtual thunk to QQuickAnimationGroup::~QQuickAnimationGroup()@Base" 5.0.2
 (c++)"non-virtual thunk to QQuickAnimatorProxyJob::updateCurrentTime(int)@Base" 5.2.0~beta1
 (c++)"non-virtual thunk to QQuickAnimatorProxyJob::updateState(QAbstractAnimationJob::State, QAbstractAnimationJob::State)@Base" 5.2.0~beta1
 (c++)"non-virtual thunk to QQuickAnimatorProxyJob::~QQuickAnimatorProxyJob()@Base" 5.2.0~beta1
 (c++)"non-virtual thunk to QQuickBasePositioner::componentComplete()@Base" 5.0.2
 (c++)"non-virtual thunk to QQuickBasePositioner::~QQuickBasePositioner()@Base" 5.0.2
 (c++)"non-virtual thunk to QQuickBehavior::setTarget(QQmlProperty const&)@Base" 5.0.2
 (c++)"non-virtual thunk to QQuickBehavior::write(QVariant const&)@Base" 5.0.2
 (c++)"non-virtual thunk to QQuickBehavior::~QQuickBehavior()@Base" 5.0.2
 (c++)"non-virtual thunk to QQuickColorAnimation::~QQuickColorAnimation()@Base" 5.0.2
 (c++)"non-virtual thunk to QQuickFlickable::componentComplete()@Base" 5.0.2
 (c++)"non-virtual thunk to QQuickFlickable::~QQuickFlickable()@Base" 5.0.2
 (c++)"non-virtual thunk to QQuickImageBase::componentComplete()@Base" 5.0.2
 (c++)"non-virtual thunk to QQuickImageBase::~QQuickImageBase()@Base" 5.0.2
 (c++|optional=gccinternal)"non-virtual thunk to QQuickImplicitSizeItem::~QQuickImplicitSizeItem()@Base" 5.0.2
 (c++)"non-virtual thunk to QQuickItem::classBegin()@Base" 5.0.2
 (c++)"non-virtual thunk to QQuickItem::componentComplete()@Base" 5.0.2
 (c++)"non-virtual thunk to QQuickItem::~QQuickItem()@Base" 5.0.2
 (c++)"non-virtual thunk to QQuickKeyNavigationAttached::keyPressed(QKeyEvent*, bool)@Base" 5.4.0
 (c++)"non-virtual thunk to QQuickKeyNavigationAttached::keyReleased(QKeyEvent*, bool)@Base" 5.4.0
 (c++|optional=gccinternal)"non-virtual thunk to QQuickKeyNavigationAttached::~QQuickKeyNavigationAttached()@Base" 5.4.0
 (c++)"non-virtual thunk to QQuickMouseArea::~QQuickMouseArea()@Base" 5.0.2
 (c++)"non-virtual thunk to QQuickNumberAnimation::~QQuickNumberAnimation()@Base" 5.0.2
 (c++|optional=gccinternal)"non-virtual thunk to QQuickOpacityAnimator::~QQuickOpacityAnimator()@Base" 5.2.0~beta1
 (c++)"non-virtual thunk to QQuickPaintedItem::~QQuickPaintedItem()@Base" 5.0.2
 (c++)"non-virtual thunk to QQuickParallelAnimation::~QQuickParallelAnimation()@Base" 5.0.2
 (c++)"non-virtual thunk to QQuickPauseAnimation::~QQuickPauseAnimation()@Base" 5.0.2
 (c++)"non-virtual thunk to QQuickPropertyAnimation::~QQuickPropertyAnimation()@Base" 5.0.2
 (c++)"non-virtual thunk to QQuickRotationAnimation::~QQuickRotationAnimation()@Base" 5.0.2
 (c++|optional=gccinternal)"non-virtual thunk to QQuickRotationAnimator::~QQuickRotationAnimator()@Base" 5.2.0~beta1
 (c++|optional=gccinternal)"non-virtual thunk to QQuickScaleAnimator::~QQuickScaleAnimator()@Base" 5.2.0~beta1
 (c++)"non-virtual thunk to QQuickShaderEffect::componentComplete()@Base" 5.0.2
 (c++)"non-virtual thunk to QQuickShaderEffect::~QQuickShaderEffect()@Base" 5.0.2
 (c++)"non-virtual thunk to QQuickShaderEffectNode::preprocess()@Base" 5.0.2
 (c++)"non-virtual thunk to QQuickShaderEffectNode::~QQuickShaderEffectNode()@Base" 5.0.2
 (c++)"non-virtual thunk to QQuickShaderEffectSource::itemGeometryChanged(QQuickItem*, QRectF const&, QRectF const&)@Base" 5.0.2
 (c++)"non-virtual thunk to QQuickShaderEffectSource::~QQuickShaderEffectSource()@Base" 5.0.2
 (c++)"non-virtual thunk to QQuickStateGroup::classBegin()@Base" 5.0.2
 (c++)"non-virtual thunk to QQuickStateGroup::componentComplete()@Base" 5.0.2
 (c++)"non-virtual thunk to QQuickStateGroup::~QQuickStateGroup()@Base" 5.0.2
 (c++)"non-virtual thunk to QQuickText::componentComplete()@Base" 5.0.2
 (c++)"non-virtual thunk to QQuickText::~QQuickText()@Base" 5.0.2
 (c++)"non-virtual thunk to QQuickTextEdit::componentComplete()@Base" 5.0.2
 (c++|optional=gccinternal)"non-virtual thunk to QQuickTextEdit::~QQuickTextEdit()@Base" 5.0.2
 (c++)"non-virtual thunk to QQuickTextInput::componentComplete()@Base" 5.0.2
 (c++)"non-virtual thunk to QQuickTextInput::~QQuickTextInput()@Base" 5.0.2
 (c++|optional=gccinternal)"non-virtual thunk to QQuickUniformAnimator::~QQuickUniformAnimator()@Base" 5.2.0~beta1
 (c++)"non-virtual thunk to QQuickVector3dAnimation::~QQuickVector3dAnimation()@Base" 5.0.2
 (c++)"non-virtual thunk to QQuickView::~QQuickView()@Base" 5.0.2
 (c++)"non-virtual thunk to QQuickWindow::~QQuickWindow()@Base" 5.0.2
 (c++|optional=gccinternal)"non-virtual thunk to QQuickXAnimator::~QQuickXAnimator()@Base" 5.2.0~beta1
 (c++|optional=gccinternal)"non-virtual thunk to QQuickYAnimator::~QQuickYAnimator()@Base" 5.2.0~beta1
 (c++)"non-virtual thunk to QSGContextPlugin::~QSGContextPlugin()@Base" 5.0.2
