# SymbolsHelper-Confirmed: 5.2.0 amd64 kfreebsd-amd64 kfreebsd-i386 mips powerpc ppc64
libQt5CLucene.so.5 libqt5clucene5 #MINVER#
 _ZN12QCLuceneHits2idEi@Base 5.0.2
 _ZN12QCLuceneHits5scoreEi@Base 5.0.2
 _ZN12QCLuceneHits8documentEi@Base 5.0.2
 _ZN12QCLuceneHitsC1ERK16QCLuceneSearcherRK13QCLuceneQueryRK14QCLuceneFilter@Base 5.0.2
 _ZN12QCLuceneHitsC1ERK16QCLuceneSearcherRK13QCLuceneQueryRK14QCLuceneFilterRK12QCLuceneSort@Base 5.0.2
 _ZN12QCLuceneHitsC2ERK16QCLuceneSearcherRK13QCLuceneQueryRK14QCLuceneFilter@Base 5.0.2
 _ZN12QCLuceneHitsC2ERK16QCLuceneSearcherRK13QCLuceneQueryRK14QCLuceneFilterRK12QCLuceneSort@Base 5.0.2
 _ZN12QCLuceneHitsD0Ev@Base 5.0.2
 _ZN12QCLuceneHitsD1Ev@Base 5.0.2
 _ZN12QCLuceneHitsD2Ev@Base 5.0.2
 _ZN12QCLuceneSort7setSortERK11QStringList@Base 5.0.2
 _ZN12QCLuceneSort7setSortERK7QStringb@Base 5.0.2
 _ZN12QCLuceneSortC1ERK11QStringList@Base 5.0.2
 _ZN12QCLuceneSortC1ERK7QStringb@Base 5.0.2
 _ZN12QCLuceneSortC1Ev@Base 5.0.2
 _ZN12QCLuceneSortC2ERK11QStringList@Base 5.0.2
 _ZN12QCLuceneSortC2ERK7QStringb@Base 5.0.2
 _ZN12QCLuceneSortC2Ev@Base 5.0.2
 _ZN12QCLuceneSortD0Ev@Base 5.0.2
 _ZN12QCLuceneSortD1Ev@Base 5.0.2
 _ZN12QCLuceneSortD2Ev@Base 5.0.2
 _ZN12QCLuceneTerm3setERK7QStringS2_@Base 5.0.2
 _ZN12QCLuceneTerm3setERK7QStringS2_b@Base 5.0.2
 _ZN12QCLuceneTerm3setERKS_RK7QString@Base 5.0.2
 _ZN12QCLuceneTermC1ERK7QStringS2_@Base 5.0.2
 _ZN12QCLuceneTermC1ERKS_RK7QString@Base 5.0.2
 _ZN12QCLuceneTermC1Ev@Base 5.0.2
 _ZN12QCLuceneTermC2ERK7QStringS2_@Base 5.0.2
 _ZN12QCLuceneTermC2ERKS_RK7QString@Base 5.0.2
 _ZN12QCLuceneTermC2Ev@Base 5.0.2
 _ZN12QCLuceneTermD0Ev@Base 5.0.2
 _ZN12QCLuceneTermD1Ev@Base 5.0.2
 _ZN12QCLuceneTermD2Ev@Base 5.0.2
 _ZN13QCLuceneField12setOmitNormsEb@Base 5.0.2
 _ZN13QCLuceneField8setBoostEd@Base 5.2.0
 _ZN13QCLuceneField9setConfigEi@Base 5.0.2
 _ZN13QCLuceneFieldC1ERK7QStringP14QCLuceneReaderi@Base 5.0.2
 _ZN13QCLuceneFieldC1ERK7QStringS2_i@Base 5.0.2
 _ZN13QCLuceneFieldC1Ev@Base 5.0.2
 _ZN13QCLuceneFieldC2ERK7QStringP14QCLuceneReaderi@Base 5.0.2
 _ZN13QCLuceneFieldC2ERK7QStringS2_i@Base 5.0.2
 _ZN13QCLuceneFieldC2Ev@Base 5.0.2
 _ZN13QCLuceneFieldD1Ev@Base 5.0.2
 _ZN13QCLuceneFieldD2Ev@Base 5.0.2
 _ZN13QCLuceneQuery8setBoostEd@Base 5.2.0
 _ZN13QCLuceneQueryC1Ev@Base 5.0.2
 _ZN13QCLuceneQueryC2Ev@Base 5.0.2
 _ZN13QCLuceneQueryD0Ev@Base 5.0.2
 _ZN13QCLuceneQueryD1Ev@Base 5.0.2
 _ZN13QCLuceneQueryD2Ev@Base 5.0.2
 _ZN13QCLuceneToken10growBufferEj@Base 5.0.2
 _ZN13QCLuceneToken11setTermTextERK7QString@Base 5.0.2
 _ZN13QCLuceneToken12setEndOffsetEi@Base 5.0.2
 _ZN13QCLuceneToken14setStartOffsetEi@Base 5.0.2
 _ZN13QCLuceneToken20setPositionIncrementEi@Base 5.0.2
 _ZN13QCLuceneToken7setTypeERK7QString@Base 5.0.2
 _ZN13QCLuceneTokenC1ERK7QStringiiS2_@Base 5.0.2
 _ZN13QCLuceneTokenC1Ev@Base 5.0.2
 _ZN13QCLuceneTokenC2ERK7QStringiiS2_@Base 5.0.2
 _ZN13QCLuceneTokenC2Ev@Base 5.0.2
 _ZN13QCLuceneTokenD0Ev@Base 5.0.2
 _ZN13QCLuceneTokenD1Ev@Base 5.0.2
 _ZN13QCLuceneTokenD2Ev@Base 5.0.2
 _ZN14QCLuceneFilterC1Ev@Base 5.0.2
 _ZN14QCLuceneFilterC2Ev@Base 5.0.2
 _ZN14QCLuceneFilterD0Ev@Base 5.0.2
 _ZN14QCLuceneFilterD1Ev@Base 5.0.2
 _ZN14QCLuceneFilterD2Ev@Base 5.0.2
 _ZN14QCLuceneReaderC1Ev@Base 5.0.2
 _ZN14QCLuceneReaderC2Ev@Base 5.0.2
 _ZN14QCLuceneReaderD0Ev@Base 5.0.2
 _ZN14QCLuceneReaderD1Ev@Base 5.0.2
 _ZN14QCLuceneReaderD2Ev@Base 5.0.2
 _ZN16QCLuceneAnalyzerC1Ev@Base 5.0.2
 _ZN16QCLuceneAnalyzerC2Ev@Base 5.0.2
 _ZN16QCLuceneAnalyzerD0Ev@Base 5.0.2
 _ZN16QCLuceneAnalyzerD1Ev@Base 5.0.2
 _ZN16QCLuceneAnalyzerD2Ev@Base 5.0.2
 _ZN16QCLuceneDocument11removeFieldERK7QString@Base 5.0.2
 _ZN16QCLuceneDocument12removeFieldsERK7QString@Base 5.0.2
 _ZN16QCLuceneDocument3addEP13QCLuceneField@Base 5.0.2
 _ZN16QCLuceneDocument5clearEv@Base 5.0.2
 _ZN16QCLuceneDocument8setBoostEd@Base 5.2.0
 _ZN16QCLuceneDocumentC1Ev@Base 5.0.2
 _ZN16QCLuceneDocumentC2Ev@Base 5.0.2
 _ZN16QCLuceneDocumentD1Ev@Base 5.0.2
 _ZN16QCLuceneDocumentD2Ev@Base 5.0.2
 _ZN16QCLuceneSearcher6searchERK13QCLuceneQuery@Base 5.0.2
 _ZN16QCLuceneSearcher6searchERK13QCLuceneQueryRK12QCLuceneSort@Base 5.0.2
 _ZN16QCLuceneSearcher6searchERK13QCLuceneQueryRK14QCLuceneFilter@Base 5.0.2
 _ZN16QCLuceneSearcher6searchERK13QCLuceneQueryRK14QCLuceneFilterRK12QCLuceneSort@Base 5.0.2
 _ZN16QCLuceneSearcherC1Ev@Base 5.0.2
 _ZN16QCLuceneSearcherC2Ev@Base 5.0.2
 _ZN16QCLuceneSearcherD0Ev@Base 5.0.2
 _ZN16QCLuceneSearcherD1Ev@Base 5.0.2
 _ZN16QCLuceneSearcherD2Ev@Base 5.0.2
 _ZN17QCLuceneTermQuery12getClassNameEv@Base 5.0.2
 _ZN17QCLuceneTermQueryC1ERK12QCLuceneTerm@Base 5.0.2
 _ZN17QCLuceneTermQueryC2ERK12QCLuceneTerm@Base 5.0.2
 _ZN17QCLuceneTermQueryD0Ev@Base 5.0.2
 _ZN17QCLuceneTermQueryD1Ev@Base 5.0.2
 _ZN17QCLuceneTermQueryD2Ev@Base 5.0.2
 _ZN17QCLuceneTokenizer4nextER13QCLuceneToken@Base 5.0.2
 _ZN17QCLuceneTokenizer5closeEv@Base 5.0.2
 _ZN17QCLuceneTokenizerC1ERK14QCLuceneReader@Base 5.0.2
 _ZN17QCLuceneTokenizerC1Ev@Base 5.0.2
 _ZN17QCLuceneTokenizerC2ERK14QCLuceneReader@Base 5.0.2
 _ZN17QCLuceneTokenizerC2Ev@Base 5.0.2
 _ZN17QCLuceneTokenizerD0Ev@Base 5.0.2
 _ZN17QCLuceneTokenizerD1Ev@Base 5.0.2
 _ZN17QCLuceneTokenizerD2Ev@Base 5.0.2
 _ZN18QCLuceneFileReaderC1ERK7QStringS2_ii@Base 5.0.2
 _ZN18QCLuceneFileReaderC2ERK7QStringS2_ii@Base 5.0.2
 _ZN18QCLuceneFileReaderD0Ev@Base 5.0.2
 _ZN18QCLuceneFileReaderD1Ev@Base 5.0.2
 _ZN18QCLuceneFileReaderD2Ev@Base 5.0.2
 _ZN18QCLuceneRangeQuery12getClassNameEv@Base 5.0.2
 _ZN18QCLuceneRangeQueryC1ERK12QCLuceneTermS2_b@Base 5.0.2
 _ZN18QCLuceneRangeQueryC2ERK12QCLuceneTermS2_b@Base 5.0.2
 _ZN18QCLuceneRangeQueryD0Ev@Base 5.0.2
 _ZN18QCLuceneRangeQueryD1Ev@Base 5.0.2
 _ZN18QCLuceneRangeQueryD2Ev@Base 5.0.2
 _ZN18QCLuceneSearchableC1Ev@Base 5.0.2
 _ZN18QCLuceneSearchableC2Ev@Base 5.0.2
 _ZN18QCLuceneSearchableD0Ev@Base 5.0.2
 _ZN18QCLuceneSearchableD1Ev@Base 5.0.2
 _ZN18QCLuceneSearchableD2Ev@Base 5.0.2
 _ZN19QCLuceneHitsPrivateC1ERKS_@Base 5.0.2
 _ZN19QCLuceneHitsPrivateC1Ev@Base 5.0.2
 _ZN19QCLuceneHitsPrivateC2ERKS_@Base 5.0.2
 _ZN19QCLuceneHitsPrivateC2Ev@Base 5.0.2
 _ZN19QCLuceneHitsPrivateD1Ev@Base 5.0.2
 _ZN19QCLuceneHitsPrivateD2Ev@Base 5.0.2
 _ZN19QCLuceneIndexReader10getVersionEv@Base 5.0.2
 _ZN19QCLuceneIndexReader11indexExistsERK7QString@Base 5.0.2
 _ZN19QCLuceneIndexReader11undeleteAllEv@Base 5.0.2
 _ZN19QCLuceneIndexReader12isLuceneFileERK7QString@Base 5.0.2
 _ZN19QCLuceneIndexReader12lastModifiedERK7QString@Base 5.0.2
 _ZN19QCLuceneIndexReader14deleteDocumentEi@Base 5.0.2
 _ZN19QCLuceneIndexReader15deleteDocumentsERK12QCLuceneTerm@Base 5.0.2
 _ZN19QCLuceneIndexReader17getCurrentVersionERK7QString@Base 5.0.2
 _ZN19QCLuceneIndexReader4openERK7QString@Base 5.0.2
 _ZN19QCLuceneIndexReader5closeEv@Base 5.0.2
 _ZN19QCLuceneIndexReader6unlockERK7QString@Base 5.0.2
 _ZN19QCLuceneIndexReader7setNormEiRK7QStringd@Base 5.2.0
 _ZN19QCLuceneIndexReader7setNormEiRK7QStringh@Base 5.0.2
 _ZN19QCLuceneIndexReader8documentEiR16QCLuceneDocument@Base 5.0.2
 _ZN19QCLuceneIndexReader8hasNormsERK7QString@Base 5.0.2
 _ZN19QCLuceneIndexReader8isLockedERK7QString@Base 5.0.2
 _ZN19QCLuceneIndexReader9isCurrentEv@Base 5.0.2
 _ZN19QCLuceneIndexReaderC1Ev@Base 5.0.2
 _ZN19QCLuceneIndexReaderC2Ev@Base 5.0.2
 _ZN19QCLuceneIndexReaderD0Ev@Base 5.0.2
 _ZN19QCLuceneIndexReaderD1Ev@Base 5.0.2
 _ZN19QCLuceneIndexReaderD2Ev@Base 5.0.2
 _ZN19QCLuceneIndexWriter10addIndexesERK5QListIP19QCLuceneIndexReaderE@Base 5.0.2
 _ZN19QCLuceneIndexWriter11addDocumentER16QCLuceneDocumentR16QCLuceneAnalyzer@Base 5.0.2
 _ZN19QCLuceneIndexWriter11getAnalyzerEv@Base 5.0.2
 _ZN19QCLuceneIndexWriter14setMergeFactorEi@Base 5.0.2
 _ZN19QCLuceneIndexWriter15setMaxMergeDocsEi@Base 5.0.2
 _ZN19QCLuceneIndexWriter15setMinMergeDocsEi@Base 5.0.2
 _ZN19QCLuceneIndexWriter17setMaxFieldLengthEi@Base 5.0.2
 _ZN19QCLuceneIndexWriter18setMaxBufferedDocsEi@Base 5.0.2
 _ZN19QCLuceneIndexWriter18setUseCompoundFileEb@Base 5.0.2
 _ZN19QCLuceneIndexWriter19setWriteLockTimeoutEx@Base 5.0.2
 _ZN19QCLuceneIndexWriter20setCommitLockTimeoutEx@Base 5.0.2
 _ZN19QCLuceneIndexWriter20setTermIndexIntervalEi@Base 5.0.2
 _ZN19QCLuceneIndexWriter5closeEv@Base 5.0.2
 _ZN19QCLuceneIndexWriter8docCountEv@Base 5.0.2
 _ZN19QCLuceneIndexWriter8optimizeEv@Base 5.0.2
 _ZN19QCLuceneIndexWriterC1ERK7QStringR16QCLuceneAnalyzerbb@Base 5.0.2
 _ZN19QCLuceneIndexWriterC2ERK7QStringR16QCLuceneAnalyzerbb@Base 5.0.2
 _ZN19QCLuceneIndexWriterD0Ev@Base 5.0.2
 _ZN19QCLuceneIndexWriterD1Ev@Base 5.0.2
 _ZN19QCLuceneIndexWriterD2Ev@Base 5.0.2
 _ZN19QCLucenePhraseQuery12getClassNameEv@Base 5.0.2
 _ZN19QCLucenePhraseQuery7addTermERK12QCLuceneTerm@Base 5.0.2
 _ZN19QCLucenePhraseQuery7addTermERK12QCLuceneTermi@Base 5.0.2
 _ZN19QCLucenePhraseQuery7setSlopEi@Base 5.0.2
 _ZN19QCLucenePhraseQueryC1Ev@Base 5.0.2
 _ZN19QCLucenePhraseQueryC2Ev@Base 5.0.2
 _ZN19QCLucenePhraseQueryD0Ev@Base 5.0.2
 _ZN19QCLucenePhraseQueryD1Ev@Base 5.0.2
 _ZN19QCLucenePhraseQueryD2Ev@Base 5.0.2
 _ZN19QCLucenePrefixQuery12getClassNameEv@Base 5.0.2
 _ZN19QCLucenePrefixQueryC1ERK12QCLuceneTerm@Base 5.0.2
 _ZN19QCLucenePrefixQueryC2ERK12QCLuceneTerm@Base 5.0.2
 _ZN19QCLucenePrefixQueryD0Ev@Base 5.0.2
 _ZN19QCLucenePrefixQueryD1Ev@Base 5.0.2
 _ZN19QCLucenePrefixQueryD2Ev@Base 5.0.2
 _ZN19QCLuceneQueryParser11getAnalyzerEv@Base 5.0.2
 _ZN19QCLuceneQueryParser5parseER14QCLuceneReader@Base 5.0.2
 _ZN19QCLuceneQueryParser5parseERK7QString@Base 5.0.2
 _ZN19QCLuceneQueryParser5parseERK7QStringS2_R16QCLuceneAnalyzer@Base 5.0.2
 _ZN19QCLuceneQueryParser8getFieldEv@Base 5.0.2
 _ZN19QCLuceneQueryParserC1ERK7QStringR16QCLuceneAnalyzer@Base 5.0.2
 _ZN19QCLuceneQueryParserC2ERK7QStringR16QCLuceneAnalyzer@Base 5.0.2
 _ZN19QCLuceneQueryParserD0Ev@Base 5.0.2
 _ZN19QCLuceneQueryParserD1Ev@Base 5.0.2
 _ZN19QCLuceneQueryParserD2Ev@Base 5.0.2
 _ZN19QCLuceneSortPrivateC1ERKS_@Base 5.0.2
 _ZN19QCLuceneSortPrivateC1Ev@Base 5.0.2
 _ZN19QCLuceneSortPrivateC2ERKS_@Base 5.0.2
 _ZN19QCLuceneSortPrivateC2Ev@Base 5.0.2
 _ZN19QCLuceneSortPrivateD1Ev@Base 5.0.2
 _ZN19QCLuceneSortPrivateD2Ev@Base 5.0.2
 _ZN19QCLuceneTermPrivateC1ERKS_@Base 5.0.2
 _ZN19QCLuceneTermPrivateC1Ev@Base 5.0.2
 _ZN19QCLuceneTermPrivateC2ERKS_@Base 5.0.2
 _ZN19QCLuceneTermPrivateC2Ev@Base 5.0.2
 _ZN19QCLuceneTermPrivateD1Ev@Base 5.0.2
 _ZN19QCLuceneTermPrivateD2Ev@Base 5.0.2
 _ZN19QCLuceneTokenStream4nextER13QCLuceneToken@Base 5.0.2
 _ZN19QCLuceneTokenStream5closeEv@Base 5.0.2
 _ZN19QCLuceneTokenStreamC1Ev@Base 5.0.2
 _ZN19QCLuceneTokenStreamC2Ev@Base 5.0.2
 _ZN19QCLuceneTokenStreamD0Ev@Base 5.0.2
 _ZN19QCLuceneTokenStreamD1Ev@Base 5.0.2
 _ZN19QCLuceneTokenStreamD2Ev@Base 5.0.2
 _ZN20QCLuceneBooleanQuery12getClassNameEv@Base 5.0.2
 _ZN20QCLuceneBooleanQuery17setMaxClauseCountEj@Base 5.0.2
 _ZN20QCLuceneBooleanQuery3addEP13QCLuceneQuerybb@Base 5.0.2
 _ZN20QCLuceneBooleanQuery3addEP13QCLuceneQuerybbb@Base 5.0.2
 _ZN20QCLuceneBooleanQueryC1Ev@Base 5.0.2
 _ZN20QCLuceneBooleanQueryC2Ev@Base 5.0.2
 _ZN20QCLuceneBooleanQueryD0Ev@Base 5.0.2
 _ZN20QCLuceneBooleanQueryD1Ev@Base 5.0.2
 _ZN20QCLuceneBooleanQueryD2Ev@Base 5.0.2
 _ZN20QCLuceneFieldPrivateC1ERKS_@Base 5.0.2
 _ZN20QCLuceneFieldPrivateC1Ev@Base 5.0.2
 _ZN20QCLuceneFieldPrivateC2ERKS_@Base 5.0.2
 _ZN20QCLuceneFieldPrivateC2Ev@Base 5.0.2
 _ZN20QCLuceneFieldPrivateD1Ev@Base 5.0.2
 _ZN20QCLuceneFieldPrivateD2Ev@Base 5.0.2
 _ZN20QCLuceneQueryPrivateC1ERKS_@Base 5.0.2
 _ZN20QCLuceneQueryPrivateC1Ev@Base 5.0.2
 _ZN20QCLuceneQueryPrivateC2ERKS_@Base 5.0.2
 _ZN20QCLuceneQueryPrivateC2Ev@Base 5.0.2
 _ZN20QCLuceneQueryPrivateD1Ev@Base 5.0.2
 _ZN20QCLuceneQueryPrivateD2Ev@Base 5.0.2
 _ZN20QCLuceneStopAnalyzerC1ERK11QStringList@Base 5.0.2
 _ZN20QCLuceneStopAnalyzerC1Ev@Base 5.0.2
 _ZN20QCLuceneStopAnalyzerC2ERK11QStringList@Base 5.0.2
 _ZN20QCLuceneStopAnalyzerC2Ev@Base 5.0.2
 _ZN20QCLuceneStopAnalyzerD0Ev@Base 5.0.2
 _ZN20QCLuceneStopAnalyzerD1Ev@Base 5.0.2
 _ZN20QCLuceneStopAnalyzerD2Ev@Base 5.0.2
 _ZN20QCLuceneTokenPrivateC1ERKS_@Base 5.0.2
 _ZN20QCLuceneTokenPrivateC1Ev@Base 5.0.2
 _ZN20QCLuceneTokenPrivateC2ERKS_@Base 5.0.2
 _ZN20QCLuceneTokenPrivateC2Ev@Base 5.0.2
 _ZN20QCLuceneTokenPrivateD1Ev@Base 5.0.2
 _ZN20QCLuceneTokenPrivateD2Ev@Base 5.0.2
 _ZN21QCLuceneFilterPrivateC1ERKS_@Base 5.0.2
 _ZN21QCLuceneFilterPrivateC1Ev@Base 5.0.2
 _ZN21QCLuceneFilterPrivateC2ERKS_@Base 5.0.2
 _ZN21QCLuceneFilterPrivateC2Ev@Base 5.0.2
 _ZN21QCLuceneFilterPrivateD1Ev@Base 5.0.2
 _ZN21QCLuceneFilterPrivateD2Ev@Base 5.0.2
 _ZN21QCLuceneIndexSearcher3docEiR16QCLuceneDocument@Base 5.0.2
 _ZN21QCLuceneIndexSearcher5closeEv@Base 5.0.2
 _ZN21QCLuceneIndexSearcher9getReaderEv@Base 5.0.2
 _ZN21QCLuceneIndexSearcherC1ERK19QCLuceneIndexReader@Base 5.0.2
 _ZN21QCLuceneIndexSearcherC1ERK7QString@Base 5.0.2
 _ZN21QCLuceneIndexSearcherC2ERK19QCLuceneIndexReader@Base 5.0.2
 _ZN21QCLuceneIndexSearcherC2ERK7QString@Base 5.0.2
 _ZN21QCLuceneIndexSearcherD0Ev@Base 5.0.2
 _ZN21QCLuceneIndexSearcherD1Ev@Base 5.0.2
 _ZN21QCLuceneIndexSearcherD2Ev@Base 5.0.2
 _ZN21QCLuceneMultiSearcher3docEiR16QCLuceneDocument@Base 5.0.2
 _ZN21QCLuceneMultiSearcher5closeEv@Base 5.0.2
 _ZN21QCLuceneMultiSearcherC1E5QListI18QCLuceneSearchableE@Base 5.0.2
 _ZN21QCLuceneMultiSearcherC2E5QListI18QCLuceneSearchableE@Base 5.0.2
 _ZN21QCLuceneMultiSearcherD0Ev@Base 5.0.2
 _ZN21QCLuceneMultiSearcherD1Ev@Base 5.0.2
 _ZN21QCLuceneMultiSearcherD2Ev@Base 5.0.2
 _ZN21QCLuceneReaderPrivateC1ERKS_@Base 5.0.2
 _ZN21QCLuceneReaderPrivateC1Ev@Base 5.0.2
 _ZN21QCLuceneReaderPrivateC2ERKS_@Base 5.0.2
 _ZN21QCLuceneReaderPrivateC2Ev@Base 5.0.2
 _ZN21QCLuceneReaderPrivateD1Ev@Base 5.0.2
 _ZN21QCLuceneReaderPrivateD2Ev@Base 5.0.2
 _ZN22QCLuceneSimpleAnalyzerC1Ev@Base 5.0.2
 _ZN22QCLuceneSimpleAnalyzerC2Ev@Base 5.0.2
 _ZN22QCLuceneSimpleAnalyzerD0Ev@Base 5.0.2
 _ZN22QCLuceneSimpleAnalyzerD1Ev@Base 5.0.2
 _ZN22QCLuceneSimpleAnalyzerD2Ev@Base 5.0.2
 _ZN23QCLuceneAnalyzerPrivateC1ERKS_@Base 5.0.2
 _ZN23QCLuceneAnalyzerPrivateC1Ev@Base 5.0.2
 _ZN23QCLuceneAnalyzerPrivateC2ERKS_@Base 5.0.2
 _ZN23QCLuceneAnalyzerPrivateC2Ev@Base 5.0.2
 _ZN23QCLuceneAnalyzerPrivateD1Ev@Base 5.0.2
 _ZN23QCLuceneAnalyzerPrivateD2Ev@Base 5.0.2
 _ZN23QCLuceneDocumentPrivateC1ERKS_@Base 5.0.2
 _ZN23QCLuceneDocumentPrivateC1Ev@Base 5.0.2
 _ZN23QCLuceneDocumentPrivateC2ERKS_@Base 5.0.2
 _ZN23QCLuceneDocumentPrivateC2Ev@Base 5.0.2
 _ZN23QCLuceneDocumentPrivateD1Ev@Base 5.0.2
 _ZN23QCLuceneDocumentPrivateD2Ev@Base 5.0.2
 _ZN23QCLuceneKeywordAnalyzerC1Ev@Base 5.0.2
 _ZN23QCLuceneKeywordAnalyzerC2Ev@Base 5.0.2
 _ZN23QCLuceneKeywordAnalyzerD0Ev@Base 5.0.2
 _ZN23QCLuceneKeywordAnalyzerD1Ev@Base 5.0.2
 _ZN23QCLuceneKeywordAnalyzerD2Ev@Base 5.0.2
 _ZN24QCLuceneStandardAnalyzerC1ERK11QStringList@Base 5.0.2
 _ZN24QCLuceneStandardAnalyzerC1Ev@Base 5.0.2
 _ZN24QCLuceneStandardAnalyzerC2ERK11QStringList@Base 5.0.2
 _ZN24QCLuceneStandardAnalyzerC2Ev@Base 5.0.2
 _ZN24QCLuceneStandardAnalyzerD0Ev@Base 5.0.2
 _ZN24QCLuceneStandardAnalyzerD1Ev@Base 5.0.2
 _ZN24QCLuceneStandardAnalyzerD2Ev@Base 5.0.2
 _ZN25QCLuceneSearchablePrivateC1ERKS_@Base 5.0.2
 _ZN25QCLuceneSearchablePrivateC1Ev@Base 5.0.2
 _ZN25QCLuceneSearchablePrivateC2ERKS_@Base 5.0.2
 _ZN25QCLuceneSearchablePrivateC2Ev@Base 5.0.2
 _ZN25QCLuceneSearchablePrivateD1Ev@Base 5.0.2
 _ZN25QCLuceneSearchablePrivateD2Ev@Base 5.0.2
 _ZN25QCLuceneStandardTokenizer11readCompanyERK7QStringR13QCLuceneToken@Base 5.0.2
 _ZN25QCLuceneStandardTokenizer14readApostropheERK7QStringR13QCLuceneToken@Base 5.0.2
 _ZN25QCLuceneStandardTokenizer6readAtERK7QStringR13QCLuceneToken@Base 5.0.2
 _ZN25QCLuceneStandardTokenizerC1ERK14QCLuceneReader@Base 5.0.2
 _ZN25QCLuceneStandardTokenizerC2ERK14QCLuceneReader@Base 5.0.2
 _ZN25QCLuceneStandardTokenizerD0Ev@Base 5.0.2
 _ZN25QCLuceneStandardTokenizerD1Ev@Base 5.0.2
 _ZN25QCLuceneStandardTokenizerD2Ev@Base 5.0.2
 _ZN26QCLuceneIndexReaderPrivateC1ERKS_@Base 5.0.2
 _ZN26QCLuceneIndexReaderPrivateC1Ev@Base 5.0.2
 _ZN26QCLuceneIndexReaderPrivateC2ERKS_@Base 5.0.2
 _ZN26QCLuceneIndexReaderPrivateC2Ev@Base 5.0.2
 _ZN26QCLuceneIndexReaderPrivateD1Ev@Base 5.0.2
 _ZN26QCLuceneIndexReaderPrivateD2Ev@Base 5.0.2
 _ZN26QCLuceneIndexWriterPrivateC1ERKS_@Base 5.0.2
 _ZN26QCLuceneIndexWriterPrivateC1Ev@Base 5.0.2
 _ZN26QCLuceneIndexWriterPrivateC2ERKS_@Base 5.0.2
 _ZN26QCLuceneIndexWriterPrivateC2Ev@Base 5.0.2
 _ZN26QCLuceneIndexWriterPrivateD1Ev@Base 5.0.2
 _ZN26QCLuceneIndexWriterPrivateD2Ev@Base 5.0.2
 _ZN26QCLuceneQueryParserPrivateC1ERKS_@Base 5.0.2
 _ZN26QCLuceneQueryParserPrivateC1Ev@Base 5.0.2
 _ZN26QCLuceneQueryParserPrivateC2ERKS_@Base 5.0.2
 _ZN26QCLuceneQueryParserPrivateC2Ev@Base 5.0.2
 _ZN26QCLuceneQueryParserPrivateD1Ev@Base 5.0.2
 _ZN26QCLuceneQueryParserPrivateD2Ev@Base 5.0.2
 _ZN26QCLuceneTokenStreamPrivateC1ERKS_@Base 5.0.2
 _ZN26QCLuceneTokenStreamPrivateC1Ev@Base 5.0.2
 _ZN26QCLuceneTokenStreamPrivateC2ERKS_@Base 5.0.2
 _ZN26QCLuceneTokenStreamPrivateC2Ev@Base 5.0.2
 _ZN26QCLuceneTokenStreamPrivateD1Ev@Base 5.0.2
 _ZN26QCLuceneTokenStreamPrivateD2Ev@Base 5.0.2
 _ZN26QCLuceneWhitespaceAnalyzerC1Ev@Base 5.0.2
 _ZN26QCLuceneWhitespaceAnalyzerC2Ev@Base 5.0.2
 _ZN26QCLuceneWhitespaceAnalyzerD0Ev@Base 5.0.2
 _ZN26QCLuceneWhitespaceAnalyzerD1Ev@Base 5.0.2
 _ZN26QCLuceneWhitespaceAnalyzerD2Ev@Base 5.0.2
 _ZN29QCLuceneMultiFieldQueryParser5parseERK7QStringRK11QStringList5QListINS_10FieldFlagsEER16QCLuceneAnalyzer@Base 5.0.2
 _ZN29QCLuceneMultiFieldQueryParser5parseERK7QStringRK11QStringListR16QCLuceneAnalyzer@Base 5.0.2
 _ZN29QCLuceneMultiFieldQueryParserC1ERK11QStringListR16QCLuceneAnalyzer@Base 5.0.2
 _ZN29QCLuceneMultiFieldQueryParserC2ERK11QStringListR16QCLuceneAnalyzer@Base 5.0.2
 _ZN29QCLuceneMultiFieldQueryParserD0Ev@Base 5.0.2
 _ZN29QCLuceneMultiFieldQueryParserD1Ev@Base 5.0.2
 _ZN29QCLuceneMultiFieldQueryParserD2Ev@Base 5.0.2
 _ZN31QCLucenePerFieldAnalyzerWrapper11addAnalyzerERK7QStringP16QCLuceneAnalyzer@Base 5.0.2
 _ZN31QCLucenePerFieldAnalyzerWrapperC1EP16QCLuceneAnalyzer@Base 5.0.2
 _ZN31QCLucenePerFieldAnalyzerWrapperC2EP16QCLuceneAnalyzer@Base 5.0.2
 _ZN31QCLucenePerFieldAnalyzerWrapperD0Ev@Base 5.0.2
 _ZN31QCLucenePerFieldAnalyzerWrapperD1Ev@Base 5.0.2
 _ZN31QCLucenePerFieldAnalyzerWrapperD2Ev@Base 5.0.2
 _ZNK12QCLuceneHits6lengthEv@Base 5.0.2
 _ZNK12QCLuceneSort8toStringEv@Base 5.0.2
 _ZNK12QCLuceneTerm10textLengthEv@Base 5.0.2
 _ZNK12QCLuceneTerm4textEv@Base 5.0.2
 _ZNK12QCLuceneTerm5fieldEv@Base 5.0.2
 _ZNK12QCLuceneTerm6equalsERKS_@Base 5.0.2
 _ZNK12QCLuceneTerm8hashCodeEv@Base 5.0.2
 _ZNK12QCLuceneTerm8toStringEv@Base 5.0.2
 _ZNK12QCLuceneTerm9compareToERKS_@Base 5.0.2
 _ZNK13QCLuceneField11isTokenizedEv@Base 5.0.2
 _ZNK13QCLuceneField11readerValueEv@Base 5.0.2
 _ZNK13QCLuceneField11stringValueEv@Base 5.0.2
 _ZNK13QCLuceneField12getOmitNormsEv@Base 5.0.2
 _ZNK13QCLuceneField12isCompressedEv@Base 5.0.2
 _ZNK13QCLuceneField18isTermVectorStoredEv@Base 5.0.2
 _ZNK13QCLuceneField27isStoreOffsetWithTermVectorEv@Base 5.0.2
 _ZNK13QCLuceneField29isStorePositionWithTermVectorEv@Base 5.0.2
 _ZNK13QCLuceneField4nameEv@Base 5.0.2
 _ZNK13QCLuceneField8getBoostEv@Base 5.0.2
 _ZNK13QCLuceneField8isBinaryEv@Base 5.0.2
 _ZNK13QCLuceneField8isStoredEv@Base 5.0.2
 _ZNK13QCLuceneField8toStringEv@Base 5.0.2
 _ZNK13QCLuceneField9isIndexedEv@Base 5.0.2
 _ZNK13QCLuceneQuery10instanceOfERK7QString@Base 5.0.2
 _ZNK13QCLuceneQuery12getQueryNameEv@Base 5.0.2
 _ZNK13QCLuceneQuery6equalsERKS_@Base 5.0.2
 _ZNK13QCLuceneQuery8getBoostEv@Base 5.0.2
 _ZNK13QCLuceneQuery8hashCodeEv@Base 5.0.2
 _ZNK13QCLuceneQuery8toStringERK7QString@Base 5.0.2
 _ZNK13QCLuceneQuery8toStringEv@Base 5.0.2
 _ZNK13QCLuceneToken11startOffsetEv@Base 5.0.2
 _ZNK13QCLuceneToken12bufferLengthEv@Base 5.0.2
 _ZNK13QCLuceneToken14termTextLengthEv@Base 5.0.2
 _ZNK13QCLuceneToken17positionIncrementEv@Base 5.0.2
 _ZNK13QCLuceneToken19resetTermTextLengthEv@Base 5.0.2
 _ZNK13QCLuceneToken4typeEv@Base 5.0.2
 _ZNK13QCLuceneToken8termTextEv@Base 5.0.2
 _ZNK13QCLuceneToken8toStringEv@Base 5.0.2
 _ZNK13QCLuceneToken9endOffsetEv@Base 5.0.2
 _ZNK16QCLuceneAnalyzer11tokenStreamERK7QStringRK14QCLuceneReader@Base 5.0.2
 _ZNK16QCLuceneAnalyzer20positionIncrementGapERK7QString@Base 5.0.2
 _ZNK16QCLuceneDocument3getERK7QString@Base 5.0.2
 _ZNK16QCLuceneDocument8getBoostEv@Base 5.0.2
 _ZNK16QCLuceneDocument8getFieldERK7QString@Base 5.0.2
 _ZNK16QCLuceneDocument8toStringEv@Base 5.0.2
 _ZNK16QCLuceneDocument9getValuesERK7QString@Base 5.0.2
 _ZNK17QCLuceneTermQuery7getTermEv@Base 5.0.2
 _ZNK18QCLuceneRangeQuery11isInclusiveEv@Base 5.0.2
 _ZNK18QCLuceneRangeQuery12getLowerTermEv@Base 5.0.2
 _ZNK18QCLuceneRangeQuery12getUpperTermEv@Base 5.0.2
 _ZNK18QCLuceneRangeQuery8getFieldEv@Base 5.0.2
 _ZNK19QCLuceneIndexWriter14getMergeFactorEv@Base 5.0.2
 _ZNK19QCLuceneIndexWriter15getMaxMergeDocsEv@Base 5.0.2
 _ZNK19QCLuceneIndexWriter15getMinMergeDocsEv@Base 5.0.2
 _ZNK19QCLuceneIndexWriter17getMaxFieldLengthEv@Base 5.0.2
 _ZNK19QCLuceneIndexWriter18getMaxBufferedDocsEv@Base 5.0.2
 _ZNK19QCLuceneIndexWriter18getUseCompoundFileEv@Base 5.0.2
 _ZNK19QCLuceneIndexWriter19getWriteLockTimeoutEv@Base 5.0.2
 _ZNK19QCLuceneIndexWriter20getCommitLockTimeoutEv@Base 5.0.2
 _ZNK19QCLuceneIndexWriter20getTermIndexIntervalEv@Base 5.0.2
 _ZNK19QCLucenePhraseQuery12getFieldNameEv@Base 5.0.2
 _ZNK19QCLucenePhraseQuery7getSlopEv@Base 5.0.2
 _ZNK19QCLucenePhraseQuery8getTermsEv@Base 5.0.2
 _ZNK19QCLucenePrefixQuery9getPrefixEv@Base 5.0.2
 _ZNK20QCLuceneBooleanQuery14getClauseCountEv@Base 5.0.2
 _ZNK20QCLuceneBooleanQuery17getMaxClauseCountEv@Base 5.0.2
 _ZNK20QCLuceneStopAnalyzer16englishStopWordsEv@Base 5.0.2
 _ZNK21QCLuceneIndexSearcher6maxDocEv@Base 5.0.2
 _ZNK21QCLuceneMultiSearcher11subSearcherEi@Base 5.0.2
 _ZNK21QCLuceneMultiSearcher13searcherIndexEi@Base 5.0.2
 _ZNK21QCLuceneMultiSearcher6maxDocEv@Base 5.0.2
 _ZNK21QCLuceneMultiSearcher6subDocEi@Base 5.0.2
 (optional=templinst)_ZNSt6vectorIPKwSaIS1_EE19_M_emplace_back_auxIIS1_EEEvDpOT_@Base 5.0.2
 (optional=templinst)_ZNSt6vectorIPKwSaIS1_EE19_M_emplace_back_auxIJS1_EEEvDpOT_@Base 5.2.0
 (optional=templinst)_ZNSt6vectorIPhSaIS0_EE19_M_emplace_back_auxIIRKS0_EEEvDpOT_@Base 5.0.2
 _ZNSt6vectorIPhSaIS0_EE19_M_emplace_back_auxIJRKS0_EEEvDpOT_@Base 5.2.0
 (optional=templinst)_ZNSt6vectorIPwSaIS0_EE19_M_emplace_back_auxIIRKS0_EEEvDpOT_@Base 5.0.2
 (optional=templinst)_ZNSt6vectorIPwSaIS0_EE19_M_emplace_back_auxIIS0_EEEvDpOT_@Base 5.0.2
 _ZNSt6vectorIPwSaIS0_EE19_M_emplace_back_auxIJRKS0_EEEvDpOT_@Base 5.2.0
 _ZNSt6vectorIPwSaIS0_EE19_M_emplace_back_auxIJS0_EEEvDpOT_@Base 5.2.0
 (optional=templinst)_ZNSt6vectorIiSaIiEE19_M_emplace_back_auxIIRKiEEEvDpOT_@Base 5.0.2
 _ZNSt6vectorIiSaIiEE19_M_emplace_back_auxIJRKiEEEvDpOT_@Base 5.2.0
 (optional=templinst)_ZStplIcSt11char_traitsIcESaIcEESbIT_T0_T1_EPKS3_RKS6_@Base 5.0.2
 _ZTI12QCLuceneHits@Base 5.0.2
 _ZTI12QCLuceneSort@Base 5.0.2
 _ZTI12QCLuceneTerm@Base 5.0.2
 _ZTI13QCLuceneQuery@Base 5.0.2
 _ZTI13QCLuceneToken@Base 5.0.2
 _ZTI14QCLuceneFilter@Base 5.0.2
 _ZTI14QCLuceneReader@Base 5.0.2
 _ZTI16QCLuceneAnalyzer@Base 5.0.2
 _ZTI16QCLuceneSearcher@Base 5.0.2
 _ZTI17QCLuceneTermQuery@Base 5.0.2
 _ZTI17QCLuceneTokenizer@Base 5.0.2
 _ZTI18QCLuceneFileReader@Base 5.0.2
 _ZTI18QCLuceneRangeQuery@Base 5.0.2
 _ZTI18QCLuceneSearchable@Base 5.0.2
 _ZTI19QCLuceneIndexReader@Base 5.0.2
 _ZTI19QCLuceneIndexWriter@Base 5.0.2
 _ZTI19QCLucenePhraseQuery@Base 5.0.2
 _ZTI19QCLucenePrefixQuery@Base 5.0.2
 _ZTI19QCLuceneQueryParser@Base 5.0.2
 _ZTI19QCLuceneTokenStream@Base 5.0.2
 _ZTI20QCLuceneBooleanQuery@Base 5.0.2
 _ZTI20QCLuceneStopAnalyzer@Base 5.0.2
 _ZTI21QCLuceneIndexSearcher@Base 5.0.2
 _ZTI21QCLuceneMultiSearcher@Base 5.0.2
 _ZTI22QCLuceneSimpleAnalyzer@Base 5.0.2
 _ZTI23QCLuceneKeywordAnalyzer@Base 5.0.2
 _ZTI24QCLuceneStandardAnalyzer@Base 5.0.2
 _ZTI25QCLuceneStandardTokenizer@Base 5.0.2
 _ZTI26QCLuceneWhitespaceAnalyzer@Base 5.0.2
 _ZTI29QCLuceneMultiFieldQueryParser@Base 5.0.2
 _ZTI31QCLucenePerFieldAnalyzerWrapper@Base 5.0.2
 _ZTISt12_Vector_baseIPKwSaIS1_EE@Base 5.0.2
 _ZTISt12_Vector_baseIPhSaIS0_EE@Base 5.0.2
 _ZTISt12_Vector_baseIPwSaIS0_EE@Base 5.0.2
 _ZTISt12_Vector_baseIiSaIiEE@Base 5.0.2
 _ZTISt6vectorIPKwSaIS1_EE@Base 5.0.2
 _ZTISt6vectorIPhSaIS0_EE@Base 5.0.2
 _ZTISt6vectorIPwSaIS0_EE@Base 5.0.2
 _ZTISt6vectorIiSaIiEE@Base 5.0.2
 _ZTS12QCLuceneHits@Base 5.0.2
 _ZTS12QCLuceneSort@Base 5.0.2
 _ZTS12QCLuceneTerm@Base 5.0.2
 _ZTS13QCLuceneQuery@Base 5.0.2
 _ZTS13QCLuceneToken@Base 5.0.2
 _ZTS14QCLuceneFilter@Base 5.0.2
 _ZTS14QCLuceneReader@Base 5.0.2
 _ZTS16QCLuceneAnalyzer@Base 5.0.2
 _ZTS16QCLuceneSearcher@Base 5.0.2
 _ZTS17QCLuceneTermQuery@Base 5.0.2
 _ZTS17QCLuceneTokenizer@Base 5.0.2
 _ZTS18QCLuceneFileReader@Base 5.0.2
 _ZTS18QCLuceneRangeQuery@Base 5.0.2
 _ZTS18QCLuceneSearchable@Base 5.0.2
 _ZTS19QCLuceneIndexReader@Base 5.0.2
 _ZTS19QCLuceneIndexWriter@Base 5.0.2
 _ZTS19QCLucenePhraseQuery@Base 5.0.2
 _ZTS19QCLucenePrefixQuery@Base 5.0.2
 _ZTS19QCLuceneQueryParser@Base 5.0.2
 _ZTS19QCLuceneTokenStream@Base 5.0.2
 _ZTS20QCLuceneBooleanQuery@Base 5.0.2
 _ZTS20QCLuceneStopAnalyzer@Base 5.0.2
 _ZTS21QCLuceneIndexSearcher@Base 5.0.2
 _ZTS21QCLuceneMultiSearcher@Base 5.0.2
 _ZTS22QCLuceneSimpleAnalyzer@Base 5.0.2
 _ZTS23QCLuceneKeywordAnalyzer@Base 5.0.2
 _ZTS24QCLuceneStandardAnalyzer@Base 5.0.2
 _ZTS25QCLuceneStandardTokenizer@Base 5.0.2
 _ZTS26QCLuceneWhitespaceAnalyzer@Base 5.0.2
 _ZTS29QCLuceneMultiFieldQueryParser@Base 5.0.2
 _ZTS31QCLucenePerFieldAnalyzerWrapper@Base 5.0.2
 _ZTSSt12_Vector_baseIPKwSaIS1_EE@Base 5.0.2
 _ZTSSt12_Vector_baseIPhSaIS0_EE@Base 5.0.2
 _ZTSSt12_Vector_baseIPwSaIS0_EE@Base 5.0.2
 _ZTSSt12_Vector_baseIiSaIiEE@Base 5.0.2
 _ZTSSt6vectorIPKwSaIS1_EE@Base 5.0.2
 _ZTSSt6vectorIPhSaIS0_EE@Base 5.0.2
 _ZTSSt6vectorIPwSaIS0_EE@Base 5.0.2
 _ZTSSt6vectorIiSaIiEE@Base 5.0.2
 _ZTV12QCLuceneHits@Base 5.0.2
 _ZTV12QCLuceneSort@Base 5.0.2
 _ZTV12QCLuceneTerm@Base 5.0.2
 _ZTV13QCLuceneQuery@Base 5.0.2
 _ZTV13QCLuceneToken@Base 5.0.2
 _ZTV14QCLuceneFilter@Base 5.0.2
 _ZTV14QCLuceneReader@Base 5.0.2
 _ZTV16QCLuceneAnalyzer@Base 5.0.2
 _ZTV16QCLuceneSearcher@Base 5.0.2
 _ZTV17QCLuceneTermQuery@Base 5.0.2
 _ZTV17QCLuceneTokenizer@Base 5.0.2
 _ZTV18QCLuceneFileReader@Base 5.0.2
 _ZTV18QCLuceneRangeQuery@Base 5.0.2
 _ZTV18QCLuceneSearchable@Base 5.0.2
 _ZTV19QCLuceneIndexReader@Base 5.0.2
 _ZTV19QCLuceneIndexWriter@Base 5.0.2
 _ZTV19QCLucenePhraseQuery@Base 5.0.2
 _ZTV19QCLucenePrefixQuery@Base 5.0.2
 _ZTV19QCLuceneQueryParser@Base 5.0.2
 _ZTV19QCLuceneTokenStream@Base 5.0.2
 _ZTV20QCLuceneBooleanQuery@Base 5.0.2
 _ZTV20QCLuceneStopAnalyzer@Base 5.0.2
 _ZTV21QCLuceneIndexSearcher@Base 5.0.2
 _ZTV21QCLuceneMultiSearcher@Base 5.0.2
 _ZTV22QCLuceneSimpleAnalyzer@Base 5.0.2
 _ZTV23QCLuceneKeywordAnalyzer@Base 5.0.2
 _ZTV24QCLuceneStandardAnalyzer@Base 5.0.2
 _ZTV25QCLuceneStandardTokenizer@Base 5.0.2
 _ZTV26QCLuceneWhitespaceAnalyzer@Base 5.0.2
 _ZTV29QCLuceneMultiFieldQueryParser@Base 5.0.2
 _ZTV31QCLucenePerFieldAnalyzerWrapper@Base 5.0.2
