# SymbolsHelper-Confirmed: 5.3.1 armel hurd-i386 i386 kfreebsd-i386 mips mipsel powerpc s390x
libQt5DesignerComponents.so.5 libqt5designercomponents5 #MINVER#
 (optional=gccinternal|arch=amd64 hurd-i386 i386 kfreebsd-amd64 kfreebsd-i386)_ZN18qdesigner_internal24PropertySheetStringValueC1ERKS0_@Base 5.0.2
 (optional=gccinternal|arch=amd64 hurd-i386 i386 kfreebsd-amd64 kfreebsd-i386)_ZN18qdesigner_internal24PropertySheetStringValueC2ERKS0_@Base 5.0.2
 (optional=gccinternal)_ZN18qdesigner_internal24PropertySheetStringValueD1Ev@Base 5.0.2
 (optional=gccinternal)_ZN18qdesigner_internal24PropertySheetStringValueD2Ev@Base 5.0.2
 (optional=gccinternal)_ZN18qdesigner_internal28PropertySheetStringListValueD1Ev@Base 5.0.2
 (optional=gccinternal)_ZN18qdesigner_internal28PropertySheetStringListValueD2Ev@Base 5.0.2
 (optional=gccinternal)_ZN18qdesigner_internal29PropertySheetKeySequenceValueC1ERKS0_@Base 5.0.2
 (optional=gccinternal)_ZN18qdesigner_internal29PropertySheetKeySequenceValueC2ERKS0_@Base 5.0.2
 (optional=gccinternal)_ZN18qdesigner_internal29PropertySheetKeySequenceValueD1Ev@Base 5.0.2
 (optional=gccinternal)_ZN18qdesigner_internal29PropertySheetKeySequenceValueD2Ev@Base 5.0.2
 (optional=gccinternal)_ZN18qdesigner_internal29PropertySheetTranslatableDataC1ERKS0_@Base 5.2.1
 (optional=gccinternal)_ZN18qdesigner_internal29PropertySheetTranslatableDataC2ERKS0_@Base 5.2.1
 (optional=gccinternal)_ZN18qdesigner_internal9CECommandD0Ev@Base 5.0.2
 (optional=gccinternal)_ZN18qdesigner_internal9CECommandD1Ev@Base 5.0.2
 (optional=gccinternal)_ZN18qdesigner_internal9CECommandD2Ev@Base 5.0.2
 _ZN19QDesignerComponents14createTaskMenuEP28QDesignerFormEditorInterfaceP7QObject@Base 5.0.2
 _ZN19QDesignerComponents15createWidgetBoxEP28QDesignerFormEditorInterfaceP7QWidget@Base 5.0.2
 _ZN19QDesignerComponents16createFormEditorEP7QObject@Base 5.0.2
 _ZN19QDesignerComponents17initializePluginsEP28QDesignerFormEditorInterface@Base 5.0.2
 _ZN19QDesignerComponents18createActionEditorEP28QDesignerFormEditorInterfaceP7QWidget@Base 5.0.2
 _ZN19QDesignerComponents19initializeResourcesEv@Base 5.0.2
 _ZN19QDesignerComponents20createPropertyEditorEP28QDesignerFormEditorInterfaceP7QWidget@Base 5.0.2
 _ZN19QDesignerComponents20createResourceEditorEP28QDesignerFormEditorInterfaceP7QWidget@Base 5.0.2
 _ZN19QDesignerComponents21createObjectInspectorEP28QDesignerFormEditorInterfaceP7QWidget@Base 5.0.2
 _ZN19QDesignerComponents22createSignalSlotEditorEP28QDesignerFormEditorInterfaceP7QWidget@Base 5.0.2
 (optional=templinst|arch=armel armhf hurd-i386 i386 kfreebsd-i386 mips mipsel powerpc)_ZSt4swapIN8QVariant7PrivateEEvRT_S3_@Base 5.1.0
 _ZTI29QDesignerOptionsPageInterface@Base 5.0.2
 _ZTI34QDesignerFormEditorPluginInterface@Base 5.0.2
 _ZTI34QDesignerFormWindowCursorInterface@Base 5.0.2
 _ZTIN18qdesigner_internal18QEditorFormBuilderE@Base 5.0.2
 _ZTIN18qdesigner_internal7CETypesE@Base 5.0.2
 _ZTIN18qdesigner_internal9CECommandE@Base 5.0.2
 _ZTS29QDesignerOptionsPageInterface@Base 5.0.2
 _ZTS34QDesignerFormEditorPluginInterface@Base 5.0.2
 _ZTS34QDesignerFormWindowCursorInterface@Base 5.0.2
 _ZTSN18qdesigner_internal18QEditorFormBuilderE@Base 5.0.2
 _ZTSN18qdesigner_internal7CETypesE@Base 5.0.2
 _ZTSN18qdesigner_internal9CECommandE@Base 5.0.2
 _ZTV29QDesignerOptionsPageInterface@Base 5.0.2
 _ZTV34QDesignerFormEditorPluginInterface@Base 5.0.2
 _ZTV34QDesignerFormWindowCursorInterface@Base 5.0.2
 _ZTVN18qdesigner_internal18QEditorFormBuilderE@Base 5.0.2
 _ZTVN18qdesigner_internal9CECommandE@Base 5.0.2
