# SymbolsHelper-Confirmed: 5.3.0 amd64
libQt5Help.so.5 libqt5help5 #MINVER#
 _ZN11QHelpEngine11indexWidgetEv@Base 5.0.2
 _ZN11QHelpEngine11qt_metacallEN11QMetaObject4CallEiPPv@Base 5.0.2
 _ZN11QHelpEngine11qt_metacastEPKc@Base 5.0.2
 _ZN11QHelpEngine12searchEngineEv@Base 5.0.2
 _ZN11QHelpEngine13contentWidgetEv@Base 5.0.2
 _ZN11QHelpEngine16staticMetaObjectE@Base 5.0.2
 _ZN11QHelpEngineC1ERK7QStringP7QObject@Base 5.0.2
 _ZN11QHelpEngineC2ERK7QStringP7QObject@Base 5.0.2
 _ZN11QHelpEngineD0Ev@Base 5.0.2
 _ZN11QHelpEngineD1Ev@Base 5.0.2
 _ZN11QHelpEngineD2Ev@Base 5.0.2
 _ZN14QHelpGenerator10checkLinksERK18QHelpDataInterface@Base 5.0.2
 _ZN14QHelpGenerator11addProgressEd@Base 5.0.2
 _ZN14QHelpGenerator11insertFilesERK11QStringListRK7QStringS2_@Base 5.0.2
 _ZN14QHelpGenerator11qt_metacallEN11QMetaObject4CallEiPPv@Base 5.0.2
 _ZN14QHelpGenerator11qt_metacastEPKc@Base 5.0.2
 _ZN14QHelpGenerator12createTablesEv@Base 5.0.2
 _ZN14QHelpGenerator13setupProgressEP18QHelpDataInterface@Base 5.0.2
 _ZN14QHelpGenerator13statusChangedERK7QString@Base 5.0.2
 _ZN14QHelpGenerator14insertContentsERK10QByteArrayRK11QStringList@Base 5.0.2
 _ZN14QHelpGenerator14insertKeywordsERK5QListI18QHelpDataIndexItemERK11QStringList@Base 5.0.2
 _ZN14QHelpGenerator14insertMetaDataERK4QMapI7QString8QVariantE@Base 5.0.2
 _ZN14QHelpGenerator15progressChangedEd@Base 5.0.2
 _ZN14QHelpGenerator16staticMetaObjectE@Base 5.0.2
 _ZN14QHelpGenerator20registerCustomFilterERK7QStringRK11QStringListb@Base 5.0.2
 _ZN14QHelpGenerator21registerVirtualFolderERK7QStringS2_@Base 5.0.2
 _ZN14QHelpGenerator22insertFileNotFoundFileEv@Base 5.0.2
 _ZN14QHelpGenerator22insertFilterAttributesERK11QStringList@Base 5.0.2
 _ZN14QHelpGenerator7warningERK7QString@Base 5.0.2
 _ZN14QHelpGenerator8generateEP18QHelpDataInterfaceRK7QString@Base 5.0.2
 _ZN14QHelpGenerator9cleanupDBEv@Base 5.0.2
 _ZN14QHelpGenerator9writeTreeER11QDataStreamP20QHelpDataContentItemi@Base 5.0.2
 _ZN14QHelpGeneratorC1EP7QObject@Base 5.0.2
 _ZN14QHelpGeneratorC2EP7QObject@Base 5.0.2
 _ZN14QHelpGeneratorD0Ev@Base 5.0.2
 _ZN14QHelpGeneratorD1Ev@Base 5.0.2
 _ZN14QHelpGeneratorD2Ev@Base 5.0.2
 _ZN15QHelpEngineCore11qt_metacallEN11QMetaObject4CallEiPPv@Base 5.0.2
 _ZN15QHelpEngineCore11qt_metacastEPKc@Base 5.0.2
 _ZN15QHelpEngineCore12setupStartedEv@Base 5.0.2
 _ZN15QHelpEngineCore13namespaceNameERK7QString@Base 5.0.2
 _ZN15QHelpEngineCore13setupFinishedEv@Base 5.0.2
 _ZN15QHelpEngineCore14setCustomValueERK7QStringRK8QVariant@Base 5.0.2
 _ZN15QHelpEngineCore15addCustomFilterERK7QStringRK11QStringList@Base 5.0.2
 _ZN15QHelpEngineCore16setCurrentFilterERK7QString@Base 5.0.2
 _ZN15QHelpEngineCore16staticMetaObjectE@Base 5.0.2
 _ZN15QHelpEngineCore17removeCustomValueERK7QString@Base 5.0.2
 _ZN15QHelpEngineCore17setAutoSaveFilterEb@Base 5.0.2
 _ZN15QHelpEngineCore17setCollectionFileERK7QString@Base 5.0.2
 _ZN15QHelpEngineCore18copyCollectionFileERK7QString@Base 5.0.2
 _ZN15QHelpEngineCore18removeCustomFilterERK7QString@Base 5.0.2
 _ZN15QHelpEngineCore20currentFilterChangedERK7QString@Base 5.0.2
 _ZN15QHelpEngineCore21documentationFileNameERK7QString@Base 5.0.2
 _ZN15QHelpEngineCore21registerDocumentationERK7QString@Base 5.0.2
 _ZN15QHelpEngineCore23unregisterDocumentationERK7QString@Base 5.0.2
 _ZN15QHelpEngineCore5filesE7QStringRK11QStringListRKS0_@Base 5.0.2
 _ZN15QHelpEngineCore7warningERK7QString@Base 5.0.2
 _ZN15QHelpEngineCore8metaDataERK7QStringS2_@Base 5.0.2
 _ZN15QHelpEngineCore9setupDataEv@Base 5.0.2
 _ZN15QHelpEngineCoreC1EP22QHelpEngineCorePrivateP7QObject@Base 5.0.2
 _ZN15QHelpEngineCoreC1ERK7QStringP7QObject@Base 5.0.2
 _ZN15QHelpEngineCoreC2EP22QHelpEngineCorePrivateP7QObject@Base 5.0.2
 _ZN15QHelpEngineCoreC2ERK7QStringP7QObject@Base 5.0.2
 _ZN15QHelpEngineCoreD0Ev@Base 5.0.2
 _ZN15QHelpEngineCoreD1Ev@Base 5.0.2
 _ZN15QHelpEngineCoreD2Ev@Base 5.0.2
 _ZN15QHelpIndexModel11createIndexERK7QString@Base 5.0.2
 _ZN15QHelpIndexModel11qt_metacallEN11QMetaObject4CallEiPPv@Base 5.0.2
 _ZN15QHelpIndexModel11qt_metacastEPKc@Base 5.0.2
 _ZN15QHelpIndexModel12indexCreatedEv@Base 5.0.2
 _ZN15QHelpIndexModel13insertIndicesEv@Base 5.0.2
 _ZN15QHelpIndexModel15invalidateIndexEb@Base 5.0.2
 _ZN15QHelpIndexModel16staticMetaObjectE@Base 5.0.2
 _ZN15QHelpIndexModel20indexCreationStartedEv@Base 5.0.2
 _ZN15QHelpIndexModel6filterERK7QStringS2_@Base 5.0.2
 _ZN15QHelpIndexModelC1EP18QHelpEnginePrivate@Base 5.0.2
 _ZN15QHelpIndexModelC2EP18QHelpEnginePrivate@Base 5.0.2
 _ZN15QHelpIndexModelD0Ev@Base 5.0.2
 _ZN15QHelpIndexModelD1Ev@Base 5.0.2
 _ZN15QHelpIndexModelD2Ev@Base 5.0.2
 _ZN16QHelpContentItem11appendChildEPS_@Base 5.0.2
 _ZN16QHelpContentItemC1ERK7QStringS2_P13QHelpDBReaderPS_@Base 5.0.2
 _ZN16QHelpContentItemC2ERK7QStringS2_P13QHelpDBReaderPS_@Base 5.0.2
 _ZN16QHelpContentItemD1Ev@Base 5.0.2
 _ZN16QHelpContentItemD2Ev@Base 5.0.2
 _ZN16QHelpIndexWidget11qt_metacallEN11QMetaObject4CallEiPPv@Base 5.0.2
 _ZN16QHelpIndexWidget11qt_metacastEPKc@Base 5.0.2
 _ZN16QHelpIndexWidget13filterIndicesERK7QStringS2_@Base 5.0.2
 _ZN16QHelpIndexWidget13linkActivatedERK4QUrlRK7QString@Base 5.0.2
 _ZN16QHelpIndexWidget14linksActivatedERK4QMapI7QString4QUrlERKS1_@Base 5.0.2
 _ZN16QHelpIndexWidget16staticMetaObjectE@Base 5.0.2
 _ZN16QHelpIndexWidget19activateCurrentItemEv@Base 5.0.2
 _ZN16QHelpIndexWidget8showLinkERK11QModelIndex@Base 5.0.2
 _ZN16QHelpIndexWidgetC1Ev@Base 5.0.2
 _ZN16QHelpIndexWidgetC2Ev@Base 5.0.2
 (optional=gccinternal)_ZN16QHelpIndexWidgetD0Ev@Base 5.0.2
 (optional=gccinternal)_ZN16QHelpIndexWidgetD1Ev@Base 5.0.2
 (optional=gccinternal)_ZN16QHelpIndexWidgetD2Ev@Base 5.0.2
 _ZN16QHelpProjectData8readDataERK7QString@Base 5.0.2
 _ZN16QHelpProjectDataC1Ev@Base 5.0.2
 _ZN16QHelpProjectDataC2Ev@Base 5.0.2
 _ZN16QHelpProjectDataD0Ev@Base 5.0.2
 _ZN16QHelpProjectDataD1Ev@Base 5.0.2
 _ZN16QHelpProjectDataD2Ev@Base 5.0.2
 _ZN17QHelpContentModel11qt_metacallEN11QMetaObject4CallEiPPv@Base 5.0.2
 _ZN17QHelpContentModel11qt_metacastEPKc@Base 5.0.2
 _ZN17QHelpContentModel14createContentsERK7QString@Base 5.0.2
 _ZN17QHelpContentModel14insertContentsEv@Base 5.0.2
 _ZN17QHelpContentModel15contentsCreatedEv@Base 5.0.2
 _ZN17QHelpContentModel16staticMetaObjectE@Base 5.0.2
 _ZN17QHelpContentModel18invalidateContentsEb@Base 5.0.2
 _ZN17QHelpContentModel23contentsCreationStartedEv@Base 5.0.2
 _ZN17QHelpContentModelC1EP18QHelpEnginePrivate@Base 5.0.2
 _ZN17QHelpContentModelC2EP18QHelpEnginePrivate@Base 5.0.2
 _ZN17QHelpContentModelD0Ev@Base 5.0.2
 _ZN17QHelpContentModelD1Ev@Base 5.0.2
 _ZN17QHelpContentModelD2Ev@Base 5.0.2
 _ZN17QHelpSearchEngine11qt_metacallEN11QMetaObject4CallEiPPv@Base 5.0.2
 _ZN17QHelpSearchEngine11qt_metacastEPKc@Base 5.0.2
 _ZN17QHelpSearchEngine11queryWidgetEv@Base 5.0.2
 _ZN17QHelpSearchEngine12resultWidgetEv@Base 5.0.2
 _ZN17QHelpSearchEngine14cancelIndexingEv@Base 5.0.2
 _ZN17QHelpSearchEngine15cancelSearchingEv@Base 5.0.2
 _ZN17QHelpSearchEngine15indexingStartedEv@Base 5.0.2
 _ZN17QHelpSearchEngine16indexingFinishedEv@Base 5.0.2
 _ZN17QHelpSearchEngine16searchingStartedEv@Base 5.0.2
 _ZN17QHelpSearchEngine16staticMetaObjectE@Base 5.0.2
 _ZN17QHelpSearchEngine17searchingFinishedEi@Base 5.0.2
 _ZN17QHelpSearchEngine18indexDocumentationEv@Base 5.0.2
 _ZN17QHelpSearchEngine20reindexDocumentationEv@Base 5.0.2
 _ZN17QHelpSearchEngine6searchERK5QListI16QHelpSearchQueryE@Base 5.0.2
 _ZN17QHelpSearchEngineC1EP15QHelpEngineCoreP7QObject@Base 5.0.2
 _ZN17QHelpSearchEngineC2EP15QHelpEngineCoreP7QObject@Base 5.0.2
 _ZN17QHelpSearchEngineD0Ev@Base 5.0.2
 _ZN17QHelpSearchEngineD1Ev@Base 5.0.2
 _ZN17QHelpSearchEngineD2Ev@Base 5.0.2
 _ZN18QHelpContentWidget11qt_metacallEN11QMetaObject4CallEiPPv@Base 5.0.2
 _ZN18QHelpContentWidget11qt_metacastEPKc@Base 5.0.2
 _ZN18QHelpContentWidget13linkActivatedERK4QUrl@Base 5.0.2
 _ZN18QHelpContentWidget16staticMetaObjectE@Base 5.0.2
 _ZN18QHelpContentWidget17searchContentItemEP17QHelpContentModelRK11QModelIndexRK7QString@Base 5.0.2
 _ZN18QHelpContentWidget7indexOfERK4QUrl@Base 5.0.2
 _ZN18QHelpContentWidget8showLinkERK11QModelIndex@Base 5.0.2
 _ZN18QHelpContentWidgetC1Ev@Base 5.0.2
 _ZN18QHelpContentWidgetC2Ev@Base 5.0.2
 (optional=gccinternal)_ZN18QHelpContentWidgetD0Ev@Base 5.0.2
 (optional=gccinternal)_ZN18QHelpContentWidgetD1Ev@Base 5.0.2
 (optional=gccinternal)_ZN18QHelpContentWidgetD2Ev@Base 5.0.2
 (optional=gccinternal)_ZN18QHelpDataIndexItemD1Ev@Base 5.0.2
 (optional=gccinternal)_ZN18QHelpDataIndexItemD2Ev@Base 5.0.2
 _ZN20QHelpDataContentItemC1EPS_RK7QStringS3_@Base 5.0.2
 _ZN20QHelpDataContentItemC2EPS_RK7QStringS3_@Base 5.0.2
 _ZN20QHelpDataContentItemD1Ev@Base 5.0.2
 _ZN20QHelpDataContentItemD2Ev@Base 5.0.2
 _ZN22QHelpDataFilterSection10addContentEP20QHelpDataContentItem@Base 5.0.2
 _ZN22QHelpDataFilterSection10setIndicesERK5QListI18QHelpDataIndexItemE@Base 5.0.2
 _ZN22QHelpDataFilterSection11setContentsERK5QListIP20QHelpDataContentItemE@Base 5.0.2
 _ZN22QHelpDataFilterSection18addFilterAttributeERK7QString@Base 5.0.2
 _ZN22QHelpDataFilterSection7addFileERK7QString@Base 5.0.2
 _ZN22QHelpDataFilterSection8addIndexERK18QHelpDataIndexItem@Base 5.0.2
 _ZN22QHelpDataFilterSection8setFilesERK11QStringList@Base 5.0.2
 _ZN22QHelpDataFilterSectionC1Ev@Base 5.0.2
 _ZN22QHelpDataFilterSectionC2Ev@Base 5.0.2
 _ZN22QHelpSearchQueryWidget11changeEventEP6QEvent@Base 5.0.2
 _ZN22QHelpSearchQueryWidget11qt_metacallEN11QMetaObject4CallEiPPv@Base 5.0.2
 _ZN22QHelpSearchQueryWidget11qt_metacastEPKc@Base 5.0.2
 _ZN22QHelpSearchQueryWidget12focusInEventEP11QFocusEvent@Base 5.0.2
 _ZN22QHelpSearchQueryWidget14setCompactModeEb@Base 5.3.0
 _ZN22QHelpSearchQueryWidget16staticMetaObjectE@Base 5.0.2
 _ZN22QHelpSearchQueryWidget20expandExtendedSearchEv@Base 5.0.2
 _ZN22QHelpSearchQueryWidget22collapseExtendedSearchEv@Base 5.0.2
 _ZN22QHelpSearchQueryWidget6searchEv@Base 5.0.2
 _ZN22QHelpSearchQueryWidget8setQueryERK5QListI16QHelpSearchQueryE@Base 5.0.2
 _ZN22QHelpSearchQueryWidgetC1EP7QWidget@Base 5.0.2
 _ZN22QHelpSearchQueryWidgetC2EP7QWidget@Base 5.0.2
 _ZN22QHelpSearchQueryWidgetD0Ev@Base 5.0.2
 _ZN22QHelpSearchQueryWidgetD1Ev@Base 5.0.2
 _ZN22QHelpSearchQueryWidgetD2Ev@Base 5.0.2
 _ZN23QHelpSearchResultWidget11changeEventEP6QEvent@Base 5.0.2
 _ZN23QHelpSearchResultWidget11qt_metacallEN11QMetaObject4CallEiPPv@Base 5.0.2
 _ZN23QHelpSearchResultWidget11qt_metacastEPKc@Base 5.0.2
 _ZN23QHelpSearchResultWidget15requestShowLinkERK4QUrl@Base 5.0.2
 _ZN23QHelpSearchResultWidget16staticMetaObjectE@Base 5.0.2
 _ZN23QHelpSearchResultWidget6linkAtERK6QPoint@Base 5.0.2
 _ZN23QHelpSearchResultWidgetC1EP17QHelpSearchEngine@Base 5.0.2
 _ZN23QHelpSearchResultWidgetC2EP17QHelpSearchEngine@Base 5.0.2
 _ZN23QHelpSearchResultWidgetD0Ev@Base 5.0.2
 _ZN23QHelpSearchResultWidgetD1Ev@Base 5.0.2
 _ZN23QHelpSearchResultWidgetD2Ev@Base 5.0.2
 _ZNK11QHelpEngine10indexModelEv@Base 5.0.2
 _ZNK11QHelpEngine10metaObjectEv@Base 5.0.2
 _ZNK11QHelpEngine12contentModelEv@Base 5.0.2
 _ZNK14QHelpGenerator10metaObjectEv@Base 5.0.2
 _ZNK14QHelpGenerator5errorEv@Base 5.0.2
 _ZNK15QHelpEngineCore10metaObjectEv@Base 5.0.2
 _ZNK15QHelpEngineCore11customValueERK7QStringRK8QVariant@Base 5.0.2
 _ZNK15QHelpEngineCore13currentFilterEv@Base 5.0.2
 _ZNK15QHelpEngineCore13customFiltersEv@Base 5.0.2
 _ZNK15QHelpEngineCore14autoSaveFilterEv@Base 5.0.2
 _ZNK15QHelpEngineCore14collectionFileEv@Base 5.0.2
 _ZNK15QHelpEngineCore16filterAttributesERK7QString@Base 5.0.2
 _ZNK15QHelpEngineCore16filterAttributesEv@Base 5.0.2
 _ZNK15QHelpEngineCore18linksForIdentifierERK7QString@Base 5.0.2
 _ZNK15QHelpEngineCore19filterAttributeSetsERK7QString@Base 5.0.2
 _ZNK15QHelpEngineCore24registeredDocumentationsEv@Base 5.0.2
 _ZNK15QHelpEngineCore5errorEv@Base 5.0.2
 _ZNK15QHelpEngineCore8fileDataERK4QUrl@Base 5.0.2
 _ZNK15QHelpEngineCore8findFileERK4QUrl@Base 5.0.2
 _ZNK15QHelpIndexModel10metaObjectEv@Base 5.0.2
 _ZNK15QHelpIndexModel15isCreatingIndexEv@Base 5.0.2
 _ZNK15QHelpIndexModel15linksForKeywordERK7QString@Base 5.0.2
 _ZNK16QHelpContentItem10childCountEv@Base 5.0.2
 _ZNK16QHelpContentItem13childPositionEPS_@Base 5.0.2
 _ZNK16QHelpContentItem3rowEv@Base 5.0.2
 _ZNK16QHelpContentItem3urlEv@Base 5.0.2
 _ZNK16QHelpContentItem5childEi@Base 5.0.2
 _ZNK16QHelpContentItem5titleEv@Base 5.0.2
 _ZNK16QHelpContentItem6parentEv@Base 5.0.2
 _ZNK16QHelpIndexWidget10metaObjectEv@Base 5.0.2
 _ZNK16QHelpProjectData12errorMessageEv@Base 5.0.2
 _ZNK16QHelpProjectData13customFiltersEv@Base 5.0.2
 _ZNK16QHelpProjectData13namespaceNameEv@Base 5.0.2
 _ZNK16QHelpProjectData13virtualFolderEv@Base 5.0.2
 _ZNK16QHelpProjectData14filterSectionsEv@Base 5.0.2
 _ZNK16QHelpProjectData8metaDataEv@Base 5.0.2
 _ZNK16QHelpProjectData8rootPathEv@Base 5.0.2
 _ZNK17QHelpContentModel10metaObjectEv@Base 5.0.2
 _ZNK17QHelpContentModel11columnCountERK11QModelIndex@Base 5.0.2
 _ZNK17QHelpContentModel13contentItemAtERK11QModelIndex@Base 5.0.2
 _ZNK17QHelpContentModel18isCreatingContentsEv@Base 5.0.2
 _ZNK17QHelpContentModel4dataERK11QModelIndexi@Base 5.0.2
 _ZNK17QHelpContentModel5indexEiiRK11QModelIndex@Base 5.0.2
 _ZNK17QHelpContentModel6parentERK11QModelIndex@Base 5.0.2
 _ZNK17QHelpContentModel8rowCountERK11QModelIndex@Base 5.0.2
 _ZNK17QHelpSearchEngine10metaObjectEv@Base 5.0.2
 _ZNK17QHelpSearchEngine4hitsEii@Base 5.0.2
 _ZNK17QHelpSearchEngine5queryEv@Base 5.0.2
 _ZNK17QHelpSearchEngine8hitCountEv@Base 5.0.2
 _ZNK17QHelpSearchEngine9hitsCountEv@Base 5.0.2
 _ZNK18QHelpContentWidget10metaObjectEv@Base 5.0.2
 _ZNK18QHelpDataIndexItemeqERKS_@Base 5.0.2
 _ZNK20QHelpDataContentItem5titleEv@Base 5.0.2
 _ZNK20QHelpDataContentItem8childrenEv@Base 5.0.2
 _ZNK20QHelpDataContentItem9referenceEv@Base 5.0.2
 _ZNK22QHelpDataFilterSection16filterAttributesEv@Base 5.0.2
 _ZNK22QHelpDataFilterSection5filesEv@Base 5.0.2
 _ZNK22QHelpDataFilterSection7indicesEv@Base 5.0.2
 _ZNK22QHelpDataFilterSection8contentsEv@Base 5.0.2
 _ZNK22QHelpSearchQueryWidget10metaObjectEv@Base 5.0.2
 _ZNK22QHelpSearchQueryWidget13isCompactModeEv@Base 5.3.0
 _ZNK22QHelpSearchQueryWidget5queryEv@Base 5.0.2
 _ZNK23QHelpSearchResultWidget10metaObjectEv@Base 5.0.2
 _ZTI11QHelpEngine@Base 5.0.2
 _ZTI14QHelpGenerator@Base 5.0.2
 _ZTI15QHelpEngineCore@Base 5.0.2
 _ZTI15QHelpIndexModel@Base 5.0.2
 _ZTI16QHelpIndexWidget@Base 5.0.2
 _ZTI16QHelpProjectData@Base 5.0.2
 _ZTI17QHelpContentModel@Base 5.0.2
 _ZTI17QHelpSearchEngine@Base 5.0.2
 _ZTI18QHelpContentWidget@Base 5.0.2
 _ZTI18QHelpDataInterface@Base 5.0.2
 _ZTI22QHelpSearchQueryWidget@Base 5.0.2
 _ZTI23QHelpSearchResultWidget@Base 5.0.2
 _ZTS11QHelpEngine@Base 5.0.2
 _ZTS14QHelpGenerator@Base 5.0.2
 _ZTS15QHelpEngineCore@Base 5.0.2
 _ZTS15QHelpIndexModel@Base 5.0.2
 _ZTS16QHelpIndexWidget@Base 5.0.2
 _ZTS16QHelpProjectData@Base 5.0.2
 _ZTS17QHelpContentModel@Base 5.0.2
 _ZTS17QHelpSearchEngine@Base 5.0.2
 _ZTS18QHelpContentWidget@Base 5.0.2
 _ZTS18QHelpDataInterface@Base 5.0.2
 _ZTS22QHelpSearchQueryWidget@Base 5.0.2
 _ZTS23QHelpSearchResultWidget@Base 5.0.2
 _ZTV11QHelpEngine@Base 5.0.2
 _ZTV14QHelpGenerator@Base 5.0.2
 _ZTV15QHelpEngineCore@Base 5.0.2
 _ZTV15QHelpIndexModel@Base 5.0.2
 _ZTV16QHelpIndexWidget@Base 5.0.2
 _ZTV16QHelpProjectData@Base 5.0.2
 _ZTV17QHelpContentModel@Base 5.0.2
 _ZTV17QHelpSearchEngine@Base 5.0.2
 _ZTV18QHelpContentWidget@Base 5.0.2
 _ZTV18QHelpDataInterface@Base 5.0.2
 _ZTV22QHelpSearchQueryWidget@Base 5.0.2
 _ZTV23QHelpSearchResultWidget@Base 5.0.2
 (c++|optional=gccinternal)"non-virtual thunk to QHelpContentWidget::~QHelpContentWidget()@Base" 5.0.2
 (c++|optional=gccinternal)"non-virtual thunk to QHelpIndexWidget::~QHelpIndexWidget()@Base" 5.0.2
 (c++)"non-virtual thunk to QHelpSearchQueryWidget::~QHelpSearchQueryWidget()@Base" 5.0.2
 (c++)"non-virtual thunk to QHelpSearchResultWidget::~QHelpSearchResultWidget()@Base" 5.0.2
