# SymbolsHelper-Confirmed: 5.3.0 amd64
libQt5Nfc.so.5 libqt5nfc5 #MINVER#
 _Z12qNfcChecksumPKcj@Base 5.2.0
 _Z29qRegisterNdefRecordTypeHelperPK11QMetaObjectN11QNdefRecord14TypeNameFormatERK10QByteArray@Base 5.2.0
 _Z38qNewDeclarativeNdefRecordForNdefRecordRK11QNdefRecord@Base 5.2.0
 _Z5qHashRK11QNdefRecord@Base 5.2.0
 _ZN11QLlcpServer11qt_metacallEN11QMetaObject4CallEiPPv@Base 5.2.0
 _ZN11QLlcpServer11qt_metacastEPKc@Base 5.2.0
 _ZN11QLlcpServer13newConnectionEv@Base 5.2.0
 _ZN11QLlcpServer16staticMetaObjectE@Base 5.2.0
 _ZN11QLlcpServer21nextPendingConnectionEv@Base 5.2.0
 _ZN11QLlcpServer5closeEv@Base 5.2.0
 _ZN11QLlcpServer6listenERK7QString@Base 5.2.0
 _ZN11QLlcpServerC1EP7QObject@Base 5.2.0
 _ZN11QLlcpServerC2EP7QObject@Base 5.2.0
 _ZN11QLlcpServerD0Ev@Base 5.2.0
 _ZN11QLlcpServerD1Ev@Base 5.2.0
 _ZN11QLlcpServerD2Ev@Base 5.2.0
 _ZN11QLlcpSocket11qt_metacallEN11QMetaObject4CallEiPPv@Base 5.2.0
 _ZN11QLlcpSocket11qt_metacastEPKc@Base 5.2.0
 _ZN11QLlcpSocket12disconnectedEv@Base 5.2.0
 _ZN11QLlcpSocket12readDatagramEPcxPP16QNearFieldTargetPh@Base 5.2.0
 _ZN11QLlcpSocket12stateChangedENS_11SocketStateE@Base 5.2.0
 _ZN11QLlcpSocket13writeDatagramEPKcx@Base 5.2.0
 _ZN11QLlcpSocket13writeDatagramEPKcxP16QNearFieldTargeth@Base 5.2.0
 _ZN11QLlcpSocket13writeDatagramERK10QByteArray@Base 5.2.0
 _ZN11QLlcpSocket13writeDatagramERK10QByteArrayP16QNearFieldTargeth@Base 5.2.0
 _ZN11QLlcpSocket16connectToServiceEP16QNearFieldTargetRK7QString@Base 5.2.0
 _ZN11QLlcpSocket16staticMetaObjectE@Base 5.2.0
 _ZN11QLlcpSocket16waitForConnectedEi@Base 5.2.0
 _ZN11QLlcpSocket16waitForReadyReadEi@Base 5.2.0
 _ZN11QLlcpSocket19waitForBytesWrittenEi@Base 5.2.0
 _ZN11QLlcpSocket19waitForDisconnectedEi@Base 5.2.0
 _ZN11QLlcpSocket21disconnectFromServiceEv@Base 5.2.0
 _ZN11QLlcpSocket4bindEh@Base 5.2.0
 _ZN11QLlcpSocket5closeEv@Base 5.2.0
 _ZN11QLlcpSocket5errorENS_11SocketErrorE@Base 5.2.0
 _ZN11QLlcpSocket8readDataEPcx@Base 5.2.0
 _ZN11QLlcpSocket9connectedEv@Base 5.2.0
 _ZN11QLlcpSocket9writeDataEPKcx@Base 5.2.0
 _ZN11QLlcpSocketC1EP18QLlcpSocketPrivateP7QObject@Base 5.2.0
 _ZN11QLlcpSocketC1EP7QObject@Base 5.2.0
 _ZN11QLlcpSocketC2EP18QLlcpSocketPrivateP7QObject@Base 5.2.0
 _ZN11QLlcpSocketC2EP7QObject@Base 5.2.0
 _ZN11QLlcpSocketD0Ev@Base 5.2.0
 _ZN11QLlcpSocketD1Ev@Base 5.2.0
 _ZN11QLlcpSocketD2Ev@Base 5.2.0
 _ZN11QNdefFilter12appendRecordEN11QNdefRecord14TypeNameFormatERK10QByteArrayjj@Base 5.2.0
 _ZN11QNdefFilter12appendRecordERKNS_6RecordE@Base 5.2.0
 _ZN11QNdefFilter13setOrderMatchEb@Base 5.2.0
 _ZN11QNdefFilter5clearEv@Base 5.2.0
 _ZN11QNdefFilterC1ERKS_@Base 5.2.0
 _ZN11QNdefFilterC1Ev@Base 5.2.0
 _ZN11QNdefFilterC2ERKS_@Base 5.2.0
 _ZN11QNdefFilterC2Ev@Base 5.2.0
 _ZN11QNdefFilterD1Ev@Base 5.2.0
 _ZN11QNdefFilterD2Ev@Base 5.2.0
 _ZN11QNdefFilteraSERKS_@Base 5.2.0
 _ZN11QNdefRecord10setPayloadERK10QByteArray@Base 5.2.0
 _ZN11QNdefRecord17setTypeNameFormatENS_14TypeNameFormatE@Base 5.2.0
 _ZN11QNdefRecord5setIdERK10QByteArray@Base 5.2.0
 _ZN11QNdefRecord7setTypeERK10QByteArray@Base 5.2.0
 _ZN11QNdefRecordC1ENS_14TypeNameFormatERK10QByteArray@Base 5.2.0
 _ZN11QNdefRecordC1ERKS_@Base 5.2.0
 _ZN11QNdefRecordC1ERKS_NS_14TypeNameFormatE@Base 5.2.0
 _ZN11QNdefRecordC1ERKS_NS_14TypeNameFormatERK10QByteArray@Base 5.2.0
 _ZN11QNdefRecordC1Ev@Base 5.2.0
 _ZN11QNdefRecordC2ENS_14TypeNameFormatERK10QByteArray@Base 5.2.0
 _ZN11QNdefRecordC2ERKS_@Base 5.2.0
 _ZN11QNdefRecordC2ERKS_NS_14TypeNameFormatE@Base 5.2.0
 _ZN11QNdefRecordC2ERKS_NS_14TypeNameFormatERK10QByteArray@Base 5.2.0
 _ZN11QNdefRecordC2Ev@Base 5.2.0
 _ZN11QNdefRecordD1Ev@Base 5.2.0
 _ZN11QNdefRecordD2Ev@Base 5.2.0
 _ZN11QNdefRecordaSERKS_@Base 5.2.0
 _ZN12QNdefMessage13fromByteArrayERK10QByteArray@Base 5.2.0
 _ZN14QQmlNdefRecord11qt_metacallEN11QMetaObject4CallEiPPv@Base 5.2.0
 _ZN14QQmlNdefRecord11qt_metacastEPKc@Base 5.2.0
 _ZN14QQmlNdefRecord11typeChangedEv@Base 5.2.0
 _ZN14QQmlNdefRecord13recordChangedEv@Base 5.2.0
 _ZN14QQmlNdefRecord16staticMetaObjectE@Base 5.2.0
 _ZN14QQmlNdefRecord17setTypeNameFormatENS_14TypeNameFormatE@Base 5.2.0
 _ZN14QQmlNdefRecord21typeNameFormatChangedEv@Base 5.2.0
 _ZN14QQmlNdefRecord7setTypeERK7QString@Base 5.2.0
 _ZN14QQmlNdefRecord9setRecordERK11QNdefRecord@Base 5.2.0
 _ZN14QQmlNdefRecordC1EP7QObject@Base 5.2.0
 _ZN14QQmlNdefRecordC1ERK11QNdefRecordP7QObject@Base 5.2.0
 _ZN14QQmlNdefRecordC2EP7QObject@Base 5.2.0
 _ZN14QQmlNdefRecordC2ERK11QNdefRecordP7QObject@Base 5.2.0
 (optional=gccinternal)_ZN14QQmlNdefRecordD0Ev@Base 5.2.0
 (optional=gccinternal)_ZN14QQmlNdefRecordD1Ev@Base 5.2.0
 (optional=gccinternal)_ZN14QQmlNdefRecordD2Ev@Base 5.2.0
 _ZN16QNearFieldTarget11qt_metacallEN11QMetaObject4CallEiPPv@Base 5.2.0
 _ZN16QNearFieldTarget11qt_metacastEPKc@Base 5.2.0
 _ZN16QNearFieldTarget11sendCommandERK10QByteArray@Base 5.2.0
 _ZN16QNearFieldTarget12disconnectedEv@Base 5.2.0
 _ZN16QNearFieldTarget12sendCommandsERK5QListI10QByteArrayE@Base 5.2.0
 _ZN16QNearFieldTarget14handleResponseERKNS_9RequestIdERK10QByteArray@Base 5.2.0
 _ZN16QNearFieldTarget14hasNdefMessageEv@Base 5.2.0
 _ZN16QNearFieldTarget15ndefMessageReadERK12QNdefMessage@Base 5.2.0
 _ZN16QNearFieldTarget15requestResponseERKNS_9RequestIdE@Base 5.2.0
 _ZN16QNearFieldTarget16readNdefMessagesEv@Base 5.2.0
 _ZN16QNearFieldTarget16requestCompletedERKNS_9RequestIdE@Base 5.2.0
 _ZN16QNearFieldTarget16staticMetaObjectE@Base 5.2.0
 _ZN16QNearFieldTarget17writeNdefMessagesERK5QListI12QNdefMessageE@Base 5.2.0
 _ZN16QNearFieldTarget19ndefMessagesWrittenEv@Base 5.2.0
 _ZN16QNearFieldTarget21setResponseForRequestERKNS_9RequestIdERK8QVariantb@Base 5.2.0
 _ZN16QNearFieldTarget23waitForRequestCompletedERKNS_9RequestIdEi@Base 5.2.0
 _ZN16QNearFieldTarget5errorENS_5ErrorERKNS_9RequestIdE@Base 5.2.0
 _ZN16QNearFieldTarget9RequestIdC1EPNS_16RequestIdPrivateE@Base 5.2.0
 _ZN16QNearFieldTarget9RequestIdC1ERKS0_@Base 5.2.0
 _ZN16QNearFieldTarget9RequestIdC1Ev@Base 5.2.0
 _ZN16QNearFieldTarget9RequestIdC2EPNS_16RequestIdPrivateE@Base 5.2.0
 _ZN16QNearFieldTarget9RequestIdC2ERKS0_@Base 5.2.0
 _ZN16QNearFieldTarget9RequestIdC2Ev@Base 5.2.0
 _ZN16QNearFieldTarget9RequestIdD1Ev@Base 5.2.0
 _ZN16QNearFieldTarget9RequestIdD2Ev@Base 5.2.0
 _ZN16QNearFieldTarget9RequestIdaSERKS0_@Base 5.2.0
 _ZN16QNearFieldTargetC1EP7QObject@Base 5.2.0
 _ZN16QNearFieldTargetC2EP7QObject@Base 5.2.0
 _ZN16QNearFieldTargetD0Ev@Base 5.2.0
 _ZN16QNearFieldTargetD1Ev@Base 5.2.0
 _ZN16QNearFieldTargetD2Ev@Base 5.2.0
 _ZN17QNdefNfcUriRecord6setUriERK4QUrl@Base 5.2.0
 _ZN17QNearFieldManager10targetLostEP16QNearFieldTarget@Base 5.2.0
 _ZN17QNearFieldManager11qt_metacallEN11QMetaObject4CallEiPPv@Base 5.2.0
 _ZN17QNearFieldManager11qt_metacastEPKc@Base 5.2.0
 _ZN17QNearFieldManager14targetDetectedEP16QNearFieldTarget@Base 5.2.0
 _ZN17QNearFieldManager16staticMetaObjectE@Base 5.2.0
 _ZN17QNearFieldManager19stopTargetDetectionEv@Base 5.2.0
 _ZN17QNearFieldManager20setTargetAccessModesE6QFlagsINS_16TargetAccessModeEE@Base 5.2.0
 _ZN17QNearFieldManager20startTargetDetectionEv@Base 5.2.0
 _ZN17QNearFieldManager26registerNdefMessageHandlerEN11QNdefRecord14TypeNameFormatERK10QByteArrayP7QObjectPKc@Base 5.2.0
 _ZN17QNearFieldManager26registerNdefMessageHandlerEP7QObjectPKc@Base 5.2.0
 _ZN17QNearFieldManager26registerNdefMessageHandlerERK11QNdefFilterP7QObjectPKc@Base 5.2.0
 _ZN17QNearFieldManager28unregisterNdefMessageHandlerEi@Base 5.2.0
 _ZN17QNearFieldManagerC1EP24QNearFieldManagerPrivateP7QObject@Base 5.2.0
 _ZN17QNearFieldManagerC1EP7QObject@Base 5.2.0
 _ZN17QNearFieldManagerC2EP24QNearFieldManagerPrivateP7QObject@Base 5.2.0
 _ZN17QNearFieldManagerC2EP7QObject@Base 5.2.0
 _ZN17QNearFieldManagerD0Ev@Base 5.2.0
 _ZN17QNearFieldManagerD1Ev@Base 5.2.0
 _ZN17QNearFieldManagerD2Ev@Base 5.2.0
 _ZN18QNdefNfcIconRecord7setDataERK10QByteArray@Base 5.2.0
 _ZN18QNdefNfcTextRecord11setEncodingENS_8EncodingE@Base 5.2.0
 _ZN18QNdefNfcTextRecord7setTextE7QString@Base 5.2.0
 _ZN18QNdefNfcTextRecord9setLocaleERK7QString@Base 5.2.0
 _ZN21QNearFieldShareTarget11qt_metacallEN11QMetaObject4CallEiPPv@Base 5.3.0
 _ZN21QNearFieldShareTarget11qt_metacastEPKc@Base 5.3.0
 _ZN21QNearFieldShareTarget13shareFinishedEv@Base 5.3.0
 _ZN21QNearFieldShareTarget16staticMetaObjectE@Base 5.3.0
 _ZN21QNearFieldShareTarget5errorEN22QNearFieldShareManager10ShareErrorE@Base 5.3.0
 _ZN21QNearFieldShareTarget5shareERK12QNdefMessage@Base 5.3.0
 _ZN21QNearFieldShareTarget5shareERK5QListI9QFileInfoE@Base 5.3.0
 _ZN21QNearFieldShareTarget6cancelEv@Base 5.3.0
 _ZN21QNearFieldShareTargetC1E6QFlagsIN22QNearFieldShareManager9ShareModeEEP7QObject@Base 5.3.0
 _ZN21QNearFieldShareTargetC2E6QFlagsIN22QNearFieldShareManager9ShareModeEEP7QObject@Base 5.3.0
 _ZN21QNearFieldShareTargetD0Ev@Base 5.3.0
 _ZN21QNearFieldShareTargetD1Ev@Base 5.3.0
 _ZN21QNearFieldShareTargetD2Ev@Base 5.3.0
 _ZN22QNearFieldShareManager11qt_metacallEN11QMetaObject4CallEiPPv@Base 5.3.0
 _ZN22QNearFieldShareManager11qt_metacastEPKc@Base 5.3.0
 _ZN22QNearFieldShareManager13setShareModesE6QFlagsINS_9ShareModeEE@Base 5.3.0
 _ZN22QNearFieldShareManager14targetDetectedEP21QNearFieldShareTarget@Base 5.3.0
 _ZN22QNearFieldShareManager16staticMetaObjectE@Base 5.3.0
 _ZN22QNearFieldShareManager17shareModesChangedE6QFlagsINS_9ShareModeEE@Base 5.3.0
 _ZN22QNearFieldShareManager19supportedShareModesEv@Base 5.3.0
 _ZN22QNearFieldShareManager5errorENS_10ShareErrorE@Base 5.3.0
 _ZN22QNearFieldShareManagerC1EP7QObject@Base 5.3.0
 _ZN22QNearFieldShareManagerC2EP7QObject@Base 5.3.0
 _ZN22QNearFieldShareManagerD0Ev@Base 5.3.0
 _ZN22QNearFieldShareManagerD1Ev@Base 5.3.0
 _ZN22QNearFieldShareManagerD2Ev@Base 5.3.0
 _ZN25QNdefNfcSmartPosterRecord10removeIconERK10QByteArray@Base 5.2.0
 _ZN25QNdefNfcSmartPosterRecord10removeIconERK18QNdefNfcIconRecord@Base 5.2.0
 _ZN25QNdefNfcSmartPosterRecord10setPayloadERK10QByteArray@Base 5.2.0
 _ZN25QNdefNfcSmartPosterRecord11removeTitleERK18QNdefNfcTextRecord@Base 5.2.0
 _ZN25QNdefNfcSmartPosterRecord11removeTitleERK7QString@Base 5.2.0
 _ZN25QNdefNfcSmartPosterRecord11setTypeInfoERK10QByteArray@Base 5.2.0
 _ZN25QNdefNfcSmartPosterRecord15addIconInternalERK18QNdefNfcIconRecord@Base 5.2.0
 _ZN25QNdefNfcSmartPosterRecord16addTitleInternalERK18QNdefNfcTextRecord@Base 5.2.0
 _ZN25QNdefNfcSmartPosterRecord16convertToPayloadEv@Base 5.2.0
 _ZN25QNdefNfcSmartPosterRecord6setUriERK17QNdefNfcUriRecord@Base 5.2.0
 _ZN25QNdefNfcSmartPosterRecord6setUriERK4QUrl@Base 5.2.0
 _ZN25QNdefNfcSmartPosterRecord7addIconERK10QByteArrayS2_@Base 5.2.0
 _ZN25QNdefNfcSmartPosterRecord7addIconERK18QNdefNfcIconRecord@Base 5.2.0
 _ZN25QNdefNfcSmartPosterRecord7cleanupEv@Base 5.2.0
 _ZN25QNdefNfcSmartPosterRecord7setSizeEj@Base 5.2.0
 _ZN25QNdefNfcSmartPosterRecord8addTitleERK18QNdefNfcTextRecord@Base 5.2.0
 _ZN25QNdefNfcSmartPosterRecord8addTitleERK7QStringS2_N18QNdefNfcTextRecord8EncodingE@Base 5.2.0
 _ZN25QNdefNfcSmartPosterRecord8setIconsERK5QListI18QNdefNfcIconRecordE@Base 5.2.0
 _ZN25QNdefNfcSmartPosterRecord9setActionENS_6ActionE@Base 5.2.0
 _ZN25QNdefNfcSmartPosterRecord9setTitlesERK5QListI18QNdefNfcTextRecordE@Base 5.2.0
 _ZN25QNdefNfcSmartPosterRecordC1ERK11QNdefRecord@Base 5.2.0
 _ZN25QNdefNfcSmartPosterRecordC1ERKS_@Base 5.2.0
 _ZN25QNdefNfcSmartPosterRecordC1Ev@Base 5.2.0
 _ZN25QNdefNfcSmartPosterRecordC2ERK11QNdefRecord@Base 5.2.0
 _ZN25QNdefNfcSmartPosterRecordC2ERKS_@Base 5.2.0
 _ZN25QNdefNfcSmartPosterRecordC2Ev@Base 5.2.0
 _ZN25QNdefNfcSmartPosterRecordD1Ev@Base 5.2.0
 _ZN25QNdefNfcSmartPosterRecordD2Ev@Base 5.2.0
 _ZNK11QLlcpServer10metaObjectEv@Base 5.2.0
 _ZNK11QLlcpServer10serverPortEv@Base 5.2.0
 _ZNK11QLlcpServer10serviceUriEv@Base 5.2.0
 _ZNK11QLlcpServer11isListeningEv@Base 5.2.0
 _ZNK11QLlcpServer11serverErrorEv@Base 5.2.0
 _ZNK11QLlcpServer21hasPendingConnectionsEv@Base 5.2.0
 _ZNK11QLlcpSocket10metaObjectEv@Base 5.2.0
 _ZNK11QLlcpSocket11canReadLineEv@Base 5.2.0
 _ZNK11QLlcpSocket12isSequentialEv@Base 5.2.0
 _ZNK11QLlcpSocket14bytesAvailableEv@Base 5.2.0
 _ZNK11QLlcpSocket19hasPendingDatagramsEv@Base 5.2.0
 _ZNK11QLlcpSocket19pendingDatagramSizeEv@Base 5.2.0
 _ZNK11QLlcpSocket5errorEv@Base 5.2.0
 _ZNK11QLlcpSocket5stateEv@Base 5.2.0
 _ZNK11QNdefFilter10orderMatchEv@Base 5.2.0
 _ZNK11QNdefFilter11recordCountEv@Base 5.2.0
 _ZNK11QNdefFilter8recordAtEi@Base 5.2.0
 _ZNK11QNdefRecord14typeNameFormatEv@Base 5.2.0
 _ZNK11QNdefRecord2idEv@Base 5.2.0
 _ZNK11QNdefRecord4typeEv@Base 5.2.0
 _ZNK11QNdefRecord7isEmptyEv@Base 5.2.0
 _ZNK11QNdefRecord7payloadEv@Base 5.2.0
 _ZNK11QNdefRecordeqERKS_@Base 5.2.0
 _ZNK12QNdefMessage11toByteArrayEv@Base 5.2.0
 _ZNK12QNdefMessageeqERKS_@Base 5.2.0
 _ZNK14QQmlNdefRecord10metaObjectEv@Base 5.2.0
 _ZNK14QQmlNdefRecord14typeNameFormatEv@Base 5.2.0
 _ZNK14QQmlNdefRecord4typeEv@Base 5.2.0
 _ZNK14QQmlNdefRecord6recordEv@Base 5.2.0
 _ZNK16QNearFieldTarget10metaObjectEv@Base 5.2.0
 _ZNK16QNearFieldTarget19isProcessingCommandEv@Base 5.2.0
 _ZNK16QNearFieldTarget3urlEv@Base 5.2.0
 _ZNK16QNearFieldTarget9RequestId7isValidEv@Base 5.2.0
 _ZNK16QNearFieldTarget9RequestId8refCountEv@Base 5.2.0
 _ZNK16QNearFieldTarget9RequestIdeqERKS0_@Base 5.2.0
 _ZNK16QNearFieldTarget9RequestIdltERKS0_@Base 5.2.0
 _ZNK16QNearFieldTarget9RequestIdneERKS0_@Base 5.2.0
 _ZNK17QNdefNfcUriRecord3uriEv@Base 5.2.0
 _ZNK17QNearFieldManager10metaObjectEv@Base 5.2.0
 _ZNK17QNearFieldManager11isAvailableEv@Base 5.2.0
 _ZNK17QNearFieldManager17targetAccessModesEv@Base 5.2.0
 _ZNK18QNdefNfcIconRecord4dataEv@Base 5.2.0
 _ZNK18QNdefNfcTextRecord4textEv@Base 5.2.0
 _ZNK18QNdefNfcTextRecord6localeEv@Base 5.2.0
 _ZNK18QNdefNfcTextRecord8encodingEv@Base 5.2.0
 _ZNK21QNearFieldShareTarget10metaObjectEv@Base 5.3.0
 _ZNK21QNearFieldShareTarget10shareErrorEv@Base 5.3.0
 _ZNK21QNearFieldShareTarget10shareModesEv@Base 5.3.0
 _ZNK21QNearFieldShareTarget17isShareInProgressEv@Base 5.3.0
 _ZNK22QNearFieldShareManager10metaObjectEv@Base 5.3.0
 _ZNK22QNearFieldShareManager10shareErrorEv@Base 5.3.0
 _ZNK22QNearFieldShareManager10shareModesEv@Base 5.3.0
 _ZNK25QNdefNfcSmartPosterRecord10iconRecordEi@Base 5.2.0
 _ZNK25QNdefNfcSmartPosterRecord10titleCountEv@Base 5.2.0
 _ZNK25QNdefNfcSmartPosterRecord11hasTypeInfoEv@Base 5.2.0
 _ZNK25QNdefNfcSmartPosterRecord11iconRecordsEv@Base 5.2.0
 _ZNK25QNdefNfcSmartPosterRecord11titleRecordEi@Base 5.2.0
 _ZNK25QNdefNfcSmartPosterRecord12titleRecordsEv@Base 5.2.0
 _ZNK25QNdefNfcSmartPosterRecord3uriEv@Base 5.2.0
 _ZNK25QNdefNfcSmartPosterRecord4iconERK10QByteArray@Base 5.2.0
 _ZNK25QNdefNfcSmartPosterRecord4sizeEv@Base 5.2.0
 _ZNK25QNdefNfcSmartPosterRecord5titleERK7QString@Base 5.2.0
 _ZNK25QNdefNfcSmartPosterRecord6actionEv@Base 5.2.0
 _ZNK25QNdefNfcSmartPosterRecord7hasIconERK10QByteArray@Base 5.2.0
 _ZNK25QNdefNfcSmartPosterRecord7hasSizeEv@Base 5.2.0
 _ZNK25QNdefNfcSmartPosterRecord8hasTitleERK7QString@Base 5.2.0
 _ZNK25QNdefNfcSmartPosterRecord8typeInfoEv@Base 5.2.0
 _ZNK25QNdefNfcSmartPosterRecord9hasActionEv@Base 5.2.0
 _ZNK25QNdefNfcSmartPosterRecord9iconCountEv@Base 5.2.0
 _ZNK25QNdefNfcSmartPosterRecord9uriRecordEv@Base 5.2.0
 _ZTI11QLlcpServer@Base 5.2.0
 _ZTI11QLlcpSocket@Base 5.2.0
 _ZTI14QQmlNdefRecord@Base 5.2.0
 _ZTI16QNearFieldTarget@Base 5.2.0
 _ZTI17QNearFieldManager@Base 5.2.0
 _ZTI21QNearFieldShareTarget@Base 5.3.0
 _ZTI22QNearFieldShareManager@Base 5.3.0
 _ZTS11QLlcpServer@Base 5.2.0
 _ZTS11QLlcpSocket@Base 5.2.0
 _ZTS14QQmlNdefRecord@Base 5.2.0
 _ZTS16QNearFieldTarget@Base 5.2.0
 _ZTS17QNearFieldManager@Base 5.2.0
 _ZTS21QNearFieldShareTarget@Base 5.3.0
 _ZTS22QNearFieldShareManager@Base 5.3.0
 _ZTV11QLlcpServer@Base 5.2.0
 _ZTV11QLlcpSocket@Base 5.2.0
 _ZTV14QQmlNdefRecord@Base 5.2.0
 _ZTV16QNearFieldTarget@Base 5.2.0
 _ZTV17QNearFieldManager@Base 5.2.0
 _ZTV21QNearFieldShareTarget@Base 5.3.0
 _ZTV22QNearFieldShareManager@Base 5.3.0
