# SymbolsHelper-Confirmed: 5.4.0 amd64
libQt5Bluetooth.so.5 libqt5bluetooth5 #MINVER#
 (optional=gccinternal)_ZN10QByteArray7reserveEi@Base 5.4.1
 _ZN14QBluetoothUuid16protocolToStringENS_12ProtocolUuidE@Base 5.4.0
 _ZN14QBluetoothUuid18descriptorToStringENS_14DescriptorTypeE@Base 5.4.0
 _ZN14QBluetoothUuid20serviceClassToStringENS_16ServiceClassUuidE@Base 5.4.0
 _ZN14QBluetoothUuid22characteristicToStringENS_18CharacteristicTypeE@Base 5.4.0
 _ZN14QBluetoothUuidC1E8quint128@Base 5.2.0
 _ZN14QBluetoothUuidC1ENS_12ProtocolUuidE@Base 5.2.0
 _ZN14QBluetoothUuidC1ENS_14DescriptorTypeE@Base 5.4.0
 _ZN14QBluetoothUuidC1ENS_16ServiceClassUuidE@Base 5.2.0
 _ZN14QBluetoothUuidC1ENS_18CharacteristicTypeE@Base 5.4.0
 _ZN14QBluetoothUuidC1ERK5QUuid@Base 5.2.0
 _ZN14QBluetoothUuidC1ERK7QString@Base 5.2.0
 _ZN14QBluetoothUuidC1ERKS_@Base 5.2.0
 _ZN14QBluetoothUuidC1Ej@Base 5.2.0
 _ZN14QBluetoothUuidC1Et@Base 5.2.0
 _ZN14QBluetoothUuidC1Ev@Base 5.2.0
 _ZN14QBluetoothUuidC2E8quint128@Base 5.2.0
 _ZN14QBluetoothUuidC2ENS_12ProtocolUuidE@Base 5.2.0
 _ZN14QBluetoothUuidC2ENS_14DescriptorTypeE@Base 5.4.0
 _ZN14QBluetoothUuidC2ENS_16ServiceClassUuidE@Base 5.2.0
 _ZN14QBluetoothUuidC2ENS_18CharacteristicTypeE@Base 5.4.0
 _ZN14QBluetoothUuidC2ERK5QUuid@Base 5.2.0
 _ZN14QBluetoothUuidC2ERK7QString@Base 5.2.0
 _ZN14QBluetoothUuidC2ERKS_@Base 5.2.0
 _ZN14QBluetoothUuidC2Ej@Base 5.2.0
 _ZN14QBluetoothUuidC2Et@Base 5.2.0
 _ZN14QBluetoothUuidC2Ev@Base 5.2.0
 _ZN14QBluetoothUuidD1Ev@Base 5.2.0
 _ZN14QBluetoothUuidD2Ev@Base 5.2.0
 _ZN16QBluetoothServer11qt_metacallEN11QMetaObject4CallEiPPv@Base 5.2.0
 _ZN16QBluetoothServer11qt_metacastEPKc@Base 5.2.0
 _ZN16QBluetoothServer13newConnectionEv@Base 5.2.0
 _ZN16QBluetoothServer16setSecurityFlagsE6QFlagsIN10QBluetooth8SecurityEE@Base 5.2.0
 _ZN16QBluetoothServer16staticMetaObjectE@Base 5.2.0
 _ZN16QBluetoothServer21nextPendingConnectionEv@Base 5.2.0
 _ZN16QBluetoothServer24setMaxPendingConnectionsEi@Base 5.2.0
 _ZN16QBluetoothServer5closeEv@Base 5.2.0
 _ZN16QBluetoothServer5errorENS_5ErrorE@Base 5.2.0
 _ZN16QBluetoothServer6listenERK14QBluetoothUuidRK7QString@Base 5.2.0
 _ZN16QBluetoothServer6listenERK17QBluetoothAddresst@Base 5.2.0
 _ZN16QBluetoothServerC1EN21QBluetoothServiceInfo8ProtocolEP7QObject@Base 5.2.0
 _ZN16QBluetoothServerC2EN21QBluetoothServiceInfo8ProtocolEP7QObject@Base 5.2.0
 _ZN16QBluetoothServerD0Ev@Base 5.2.0
 _ZN16QBluetoothServerD1Ev@Base 5.2.0
 _ZN16QBluetoothServerD2Ev@Base 5.2.0
 _ZN16QBluetoothSocket11qt_metacallEN11QMetaObject4CallEiPPv@Base 5.2.0
 _ZN16QBluetoothSocket11qt_metacastEPKc@Base 5.2.0
 _ZN16QBluetoothSocket12disconnectedEv@Base 5.2.0
 _ZN16QBluetoothSocket12stateChangedENS_11SocketStateE@Base 5.2.0
 _ZN16QBluetoothSocket14setSocketErrorENS_11SocketErrorE@Base 5.2.0
 _ZN16QBluetoothSocket14setSocketStateENS_11SocketStateE@Base 5.2.0
 _ZN16QBluetoothSocket16connectToServiceERK17QBluetoothAddressRK14QBluetoothUuid6QFlagsIN9QIODevice12OpenModeFlagEE@Base 5.2.0
 _ZN16QBluetoothSocket16connectToServiceERK17QBluetoothAddresst6QFlagsIN9QIODevice12OpenModeFlagEE@Base 5.2.0
 _ZN16QBluetoothSocket16connectToServiceERK21QBluetoothServiceInfo6QFlagsIN9QIODevice12OpenModeFlagEE@Base 5.2.0
 _ZN16QBluetoothSocket16staticMetaObjectE@Base 5.2.0
 _ZN16QBluetoothSocket17discoveryFinishedEv@Base 5.2.0
 _ZN16QBluetoothSocket17doDeviceDiscoveryERK21QBluetoothServiceInfo6QFlagsIN9QIODevice12OpenModeFlagEE@Base 5.2.0
 _ZN16QBluetoothSocket17serviceDiscoveredERK21QBluetoothServiceInfo@Base 5.2.0
 _ZN16QBluetoothSocket19setSocketDescriptorEiN21QBluetoothServiceInfo8ProtocolENS_11SocketStateE6QFlagsIN9QIODevice12OpenModeFlagEE@Base 5.2.0
 _ZN16QBluetoothSocket21disconnectFromServiceEv@Base 5.2.0
 _ZN16QBluetoothSocket5abortEv@Base 5.2.0
 _ZN16QBluetoothSocket5closeEv@Base 5.2.0
 _ZN16QBluetoothSocket5errorENS_11SocketErrorE@Base 5.2.0
 _ZN16QBluetoothSocket8readDataEPcx@Base 5.2.0
 _ZN16QBluetoothSocket9connectedEv@Base 5.2.0
 _ZN16QBluetoothSocket9writeDataEPKcx@Base 5.2.0
 _ZN16QBluetoothSocketC1EN21QBluetoothServiceInfo8ProtocolEP7QObject@Base 5.2.0
 _ZN16QBluetoothSocketC1EP7QObject@Base 5.2.0
 _ZN16QBluetoothSocketC2EN21QBluetoothServiceInfo8ProtocolEP7QObject@Base 5.2.0
 _ZN16QBluetoothSocketC2EP7QObject@Base 5.2.0
 _ZN16QBluetoothSocketD0Ev@Base 5.2.0
 _ZN16QBluetoothSocketD1Ev@Base 5.2.0
 _ZN16QBluetoothSocketD2Ev@Base 5.2.0
 _ZN17QBluetoothAddress5clearEv@Base 5.2.0
 _ZN17QBluetoothAddressC1ERK7QString@Base 5.2.0
 _ZN17QBluetoothAddressC1ERKS_@Base 5.2.0
 _ZN17QBluetoothAddressC1Ev@Base 5.2.0
 _ZN17QBluetoothAddressC1Ey@Base 5.2.0
 _ZN17QBluetoothAddressC2ERK7QString@Base 5.2.0
 _ZN17QBluetoothAddressC2ERKS_@Base 5.2.0
 _ZN17QBluetoothAddressC2Ev@Base 5.2.0
 _ZN17QBluetoothAddressC2Ey@Base 5.2.0
 _ZN17QBluetoothAddressD1Ev@Base 5.2.0
 _ZN17QBluetoothAddressD2Ev@Base 5.2.0
 _ZN17QBluetoothAddressaSERKS_@Base 5.2.0
 _ZN17QLowEnergyService11qt_metacallEN11QMetaObject4CallEiPPv@Base 5.4.0
 _ZN17QLowEnergyService11qt_metacastEPKc@Base 5.4.0
 _ZN17QLowEnergyService12stateChangedENS_12ServiceStateE@Base 5.4.0
 _ZN17QLowEnergyService15discoverDetailsEv@Base 5.4.0
 _ZN17QLowEnergyService15writeDescriptorERK20QLowEnergyDescriptorRK10QByteArray@Base 5.4.0
 _ZN17QLowEnergyService16staticMetaObjectE@Base 5.4.0
 _ZN17QLowEnergyService17descriptorWrittenERK20QLowEnergyDescriptorRK10QByteArray@Base 5.4.0
 _ZN17QLowEnergyService19writeCharacteristicERK24QLowEnergyCharacteristicRK10QByteArrayNS_9WriteModeE@Base 5.4.0
 _ZN17QLowEnergyService21characteristicChangedERK24QLowEnergyCharacteristicRK10QByteArray@Base 5.4.0
 _ZN17QLowEnergyService21characteristicWrittenERK24QLowEnergyCharacteristicRK10QByteArray@Base 5.4.0
 _ZN17QLowEnergyService5errorENS_12ServiceErrorE@Base 5.4.0
 _ZN17QLowEnergyServiceC1E14QSharedPointerI24QLowEnergyServicePrivateEP7QObject@Base 5.4.0
 _ZN17QLowEnergyServiceC2E14QSharedPointerI24QLowEnergyServicePrivateEP7QObject@Base 5.4.0
 _ZN17QLowEnergyServiceD0Ev@Base 5.4.0
 _ZN17QLowEnergyServiceD1Ev@Base 5.4.0
 _ZN17QLowEnergyServiceD2Ev@Base 5.4.0
 _ZN18QBluetoothHostInfo10setAddressERK17QBluetoothAddress@Base 5.2.0
 _ZN18QBluetoothHostInfo7setNameERK7QString@Base 5.2.0
 _ZN18QBluetoothHostInfoC1ERKS_@Base 5.2.0
 _ZN18QBluetoothHostInfoC1Ev@Base 5.2.0
 _ZN18QBluetoothHostInfoC2ERKS_@Base 5.2.0
 _ZN18QBluetoothHostInfoC2Ev@Base 5.2.0
 _ZN18QBluetoothHostInfoD1Ev@Base 5.2.0
 _ZN18QBluetoothHostInfoD2Ev@Base 5.2.0
 _ZN18QBluetoothHostInfoaSERKS_@Base 5.3.0
 _ZN20QBluetoothDeviceInfo15setServiceUuidsERK5QListI14QBluetoothUuidENS_16DataCompletenessE@Base 5.2.0
 _ZN20QBluetoothDeviceInfo21setCoreConfigurationsE6QFlagsINS_17CoreConfigurationEE@Base 5.4.0
 _ZN20QBluetoothDeviceInfo7setRssiEs@Base 5.2.0
 _ZN20QBluetoothDeviceInfo9setCachedEb@Base 5.2.0
 _ZN20QBluetoothDeviceInfoC1ERK17QBluetoothAddressRK7QStringj@Base 5.2.0
 _ZN20QBluetoothDeviceInfoC1ERKS_@Base 5.2.0
 _ZN20QBluetoothDeviceInfoC1Ev@Base 5.2.0
 _ZN20QBluetoothDeviceInfoC2ERK17QBluetoothAddressRK7QStringj@Base 5.2.0
 _ZN20QBluetoothDeviceInfoC2ERKS_@Base 5.2.0
 _ZN20QBluetoothDeviceInfoC2Ev@Base 5.2.0
 _ZN20QBluetoothDeviceInfoD1Ev@Base 5.2.0
 _ZN20QBluetoothDeviceInfoD2Ev@Base 5.2.0
 _ZN20QBluetoothDeviceInfoaSERKS_@Base 5.2.0
 _ZN20QLowEnergyController11qt_metacallEN11QMetaObject4CallEiPPv@Base 5.4.0
 _ZN20QLowEnergyController11qt_metacastEPKc@Base 5.4.0
 _ZN20QLowEnergyController12disconnectedEv@Base 5.4.0
 _ZN20QLowEnergyController12stateChangedENS_15ControllerStateE@Base 5.4.0
 _ZN20QLowEnergyController15connectToDeviceEv@Base 5.4.0
 _ZN20QLowEnergyController16discoverServicesEv@Base 5.4.0
 _ZN20QLowEnergyController16staticMetaObjectE@Base 5.4.0
 _ZN20QLowEnergyController17discoveryFinishedEv@Base 5.4.0
 _ZN20QLowEnergyController17serviceDiscoveredERK14QBluetoothUuid@Base 5.4.0
 _ZN20QLowEnergyController19createServiceObjectERK14QBluetoothUuidP7QObject@Base 5.4.0
 _ZN20QLowEnergyController20disconnectFromDeviceEv@Base 5.4.0
 _ZN20QLowEnergyController20setRemoteAddressTypeENS_17RemoteAddressTypeE@Base 5.4.0
 _ZN20QLowEnergyController5errorENS_5ErrorE@Base 5.4.0
 _ZN20QLowEnergyController9connectedEv@Base 5.4.0
 _ZN20QLowEnergyControllerC1ERK17QBluetoothAddressP7QObject@Base 5.4.0
 _ZN20QLowEnergyControllerC1ERK17QBluetoothAddressS2_P7QObject@Base 5.4.0
 _ZN20QLowEnergyControllerC2ERK17QBluetoothAddressP7QObject@Base 5.4.0
 _ZN20QLowEnergyControllerC2ERK17QBluetoothAddressS2_P7QObject@Base 5.4.0
 _ZN20QLowEnergyControllerD0Ev@Base 5.4.0
 _ZN20QLowEnergyControllerD1Ev@Base 5.4.0
 _ZN20QLowEnergyControllerD2Ev@Base 5.4.0
 _ZN20QLowEnergyDescriptorC1E14QSharedPointerI24QLowEnergyServicePrivateEtt@Base 5.4.0
 _ZN20QLowEnergyDescriptorC1ERKS_@Base 5.4.0
 _ZN20QLowEnergyDescriptorC1Ev@Base 5.4.0
 _ZN20QLowEnergyDescriptorC2E14QSharedPointerI24QLowEnergyServicePrivateEtt@Base 5.4.0
 _ZN20QLowEnergyDescriptorC2ERKS_@Base 5.4.0
 _ZN20QLowEnergyDescriptorC2Ev@Base 5.4.0
 _ZN20QLowEnergyDescriptorD1Ev@Base 5.4.0
 _ZN20QLowEnergyDescriptorD2Ev@Base 5.4.0
 _ZN20QLowEnergyDescriptoraSERKS_@Base 5.4.0
 _ZN21QBluetoothLocalDevice10allDevicesEv@Base 5.2.0
 _ZN21QBluetoothLocalDevice11qt_metacallEN11QMetaObject4CallEiPPv@Base 5.2.0
 _ZN21QBluetoothLocalDevice11qt_metacastEPKc@Base 5.2.0
 _ZN21QBluetoothLocalDevice11setHostModeENS_8HostModeE@Base 5.2.0
 _ZN21QBluetoothLocalDevice14requestPairingERK17QBluetoothAddressNS_7PairingE@Base 5.2.0
 _ZN21QBluetoothLocalDevice15deviceConnectedERK17QBluetoothAddress@Base 5.3.0
 _ZN21QBluetoothLocalDevice15pairingFinishedERK17QBluetoothAddressNS_7PairingE@Base 5.2.0
 _ZN21QBluetoothLocalDevice16staticMetaObjectE@Base 5.2.0
 _ZN21QBluetoothLocalDevice18deviceDisconnectedERK17QBluetoothAddress@Base 5.3.0
 _ZN21QBluetoothLocalDevice19pairingConfirmationEb@Base 5.2.0
 _ZN21QBluetoothLocalDevice20hostModeStateChangedENS_8HostModeE@Base 5.2.0
 _ZN21QBluetoothLocalDevice21pairingDisplayPinCodeERK17QBluetoothAddress7QString@Base 5.2.0
 _ZN21QBluetoothLocalDevice26pairingDisplayConfirmationERK17QBluetoothAddress7QString@Base 5.2.0
 _ZN21QBluetoothLocalDevice5errorENS_5ErrorE@Base 5.2.0
 _ZN21QBluetoothLocalDevice7powerOnEv@Base 5.2.0
 _ZN21QBluetoothLocalDeviceC1EP7QObject@Base 5.2.0
 _ZN21QBluetoothLocalDeviceC1ERK17QBluetoothAddressP7QObject@Base 5.2.0
 _ZN21QBluetoothLocalDeviceC2EP7QObject@Base 5.2.0
 _ZN21QBluetoothLocalDeviceC2ERK17QBluetoothAddressP7QObject@Base 5.2.0
 _ZN21QBluetoothLocalDeviceD0Ev@Base 5.2.0
 _ZN21QBluetoothLocalDeviceD1Ev@Base 5.2.0
 _ZN21QBluetoothLocalDeviceD2Ev@Base 5.2.0
 (optional=gccinternal)_ZN21QBluetoothServiceInfo12setAttributeEtRK14QBluetoothUuid@Base 5.4.0
 _ZN21QBluetoothServiceInfo12setAttributeEtRK8QVariant@Base 5.2.0
 _ZN21QBluetoothServiceInfo12setAttributeEtRKNS_8SequenceE@Base 5.4.0
 _ZN21QBluetoothServiceInfo15registerServiceERK17QBluetoothAddress@Base 5.2.0
 _ZN21QBluetoothServiceInfo15removeAttributeEt@Base 5.2.0
 _ZN21QBluetoothServiceInfo17unregisterServiceEv@Base 5.2.0
 _ZN21QBluetoothServiceInfo9setDeviceERK20QBluetoothDeviceInfo@Base 5.2.0
 _ZN21QBluetoothServiceInfoC1ERKS_@Base 5.2.0
 _ZN21QBluetoothServiceInfoC1Ev@Base 5.2.0
 _ZN21QBluetoothServiceInfoC2ERKS_@Base 5.2.0
 _ZN21QBluetoothServiceInfoC2Ev@Base 5.2.0
 _ZN21QBluetoothServiceInfoD1Ev@Base 5.2.0
 _ZN21QBluetoothServiceInfoD2Ev@Base 5.2.0
 _ZN21QBluetoothServiceInfoaSERKS_@Base 5.2.0
 _ZN23QBluetoothTransferReply10setManagerEP25QBluetoothTransferManager@Base 5.2.0
 _ZN23QBluetoothTransferReply10setRequestERK25QBluetoothTransferRequest@Base 5.2.0
 _ZN23QBluetoothTransferReply11qt_metacallEN11QMetaObject4CallEiPPv@Base 5.2.0
 _ZN23QBluetoothTransferReply11qt_metacastEPKc@Base 5.2.0
 _ZN23QBluetoothTransferReply16staticMetaObjectE@Base 5.2.0
 _ZN23QBluetoothTransferReply16transferProgressExx@Base 5.2.0
 _ZN23QBluetoothTransferReply5abortEv@Base 5.2.0
 _ZN23QBluetoothTransferReply5errorENS_13TransferErrorE@Base 5.4.0
 _ZN23QBluetoothTransferReply8finishedEPS_@Base 5.2.0
 _ZN23QBluetoothTransferReplyC1EP7QObject@Base 5.2.0
 _ZN23QBluetoothTransferReplyC2EP7QObject@Base 5.2.0
 _ZN23QBluetoothTransferReplyD0Ev@Base 5.2.0
 _ZN23QBluetoothTransferReplyD1Ev@Base 5.2.0
 _ZN23QBluetoothTransferReplyD2Ev@Base 5.2.0
 _ZN24QLowEnergyCharacteristicC1E14QSharedPointerI24QLowEnergyServicePrivateEt@Base 5.4.0
 _ZN24QLowEnergyCharacteristicC1ERKS_@Base 5.4.0
 _ZN24QLowEnergyCharacteristicC1Ev@Base 5.4.0
 _ZN24QLowEnergyCharacteristicC2E14QSharedPointerI24QLowEnergyServicePrivateEt@Base 5.4.0
 _ZN24QLowEnergyCharacteristicC2ERKS_@Base 5.4.0
 _ZN24QLowEnergyCharacteristicC2Ev@Base 5.4.0
 _ZN24QLowEnergyCharacteristicD1Ev@Base 5.4.0
 _ZN24QLowEnergyCharacteristicD2Ev@Base 5.4.0
 _ZN24QLowEnergyCharacteristicaSERKS_@Base 5.4.0
 _ZN25QBluetoothTransferManager11qt_metacallEN11QMetaObject4CallEiPPv@Base 5.2.0
 _ZN25QBluetoothTransferManager11qt_metacastEPKc@Base 5.2.0
 _ZN25QBluetoothTransferManager16staticMetaObjectE@Base 5.2.0
 _ZN25QBluetoothTransferManager3putERK25QBluetoothTransferRequestP9QIODevice@Base 5.2.0
 _ZN25QBluetoothTransferManager8finishedEP23QBluetoothTransferReply@Base 5.2.0
 _ZN25QBluetoothTransferManagerC1EP7QObject@Base 5.2.0
 _ZN25QBluetoothTransferManagerC2EP7QObject@Base 5.2.0
 _ZN25QBluetoothTransferManagerD0Ev@Base 5.2.0
 _ZN25QBluetoothTransferManagerD1Ev@Base 5.2.0
 _ZN25QBluetoothTransferManagerD2Ev@Base 5.2.0
 _ZN25QBluetoothTransferRequest12setAttributeENS_9AttributeERK8QVariant@Base 5.2.0
 _ZN25QBluetoothTransferRequestC1ERK17QBluetoothAddress@Base 5.2.0
 _ZN25QBluetoothTransferRequestC1ERKS_@Base 5.2.0
 _ZN25QBluetoothTransferRequestC2ERK17QBluetoothAddress@Base 5.2.0
 _ZN25QBluetoothTransferRequestC2ERKS_@Base 5.2.0
 _ZN25QBluetoothTransferRequestD1Ev@Base 5.2.0
 _ZN25QBluetoothTransferRequestD2Ev@Base 5.2.0
 _ZN25QBluetoothTransferRequestaSERKS_@Base 5.2.0
 (arch=!hurd-i386 !kfreebsd-amd64 !kfreebsd-i386)_ZN28QBluetoothTransferReplyBluez11qt_metacallEN11QMetaObject4CallEiPPv@Base 5.3.1
 (arch=!hurd-i386 !kfreebsd-amd64 !kfreebsd-i386)_ZN28QBluetoothTransferReplyBluez11qt_metacastEPKc@Base 5.3.1
 (arch=!hurd-i386 !kfreebsd-amd64 !kfreebsd-i386)_ZN28QBluetoothTransferReplyBluez12sendReturnedEP23QDBusPendingCallWatcher@Base 5.3.1
 _ZN28QBluetoothTransferReplyBluez14cleanupSessionEv@Base 5.4.0
 (arch=!hurd-i386 !kfreebsd-amd64 !kfreebsd-i386)_ZN28QBluetoothTransferReplyBluez14copyToTempFileEP9QIODeviceS1_@Base 5.3.1
 _ZN28QBluetoothTransferReplyBluez14sessionChangedERK7QStringRK4QMapIS0_8QVariantERK11QStringList@Base 5.4.0
 _ZN28QBluetoothTransferReplyBluez14sessionCreatedEP23QDBusPendingCallWatcher@Base 5.4.0
 _ZN28QBluetoothTransferReplyBluez14sessionStartedEP23QDBusPendingCallWatcher@Base 5.4.0
 (arch=!hurd-i386 !kfreebsd-amd64 !kfreebsd-i386)_ZN28QBluetoothTransferReplyBluez16staticMetaObjectE@Base 5.3.1
 (arch=!hurd-i386 !kfreebsd-amd64 !kfreebsd-i386)_ZN28QBluetoothTransferReplyBluez5ErrorERK15QDBusObjectPathRK7QString@Base 5.3.1
 (arch=!hurd-i386 !kfreebsd-amd64 !kfreebsd-i386)_ZN28QBluetoothTransferReplyBluez5abortEv@Base 5.3.1
 (arch=!hurd-i386 !kfreebsd-amd64 !kfreebsd-i386)_ZN28QBluetoothTransferReplyBluez5startEv@Base 5.3.1
 (arch=!hurd-i386 !kfreebsd-amd64 !kfreebsd-i386)_ZN28QBluetoothTransferReplyBluez7ReleaseEv@Base 5.3.1
 (arch=!hurd-i386 !kfreebsd-amd64 !kfreebsd-i386)_ZN28QBluetoothTransferReplyBluez7RequestERK15QDBusObjectPath@Base 5.3.1
 (arch=!hurd-i386 !kfreebsd-amd64 !kfreebsd-i386)_ZN28QBluetoothTransferReplyBluez8CompleteERK15QDBusObjectPath@Base 5.3.1
 (arch=!hurd-i386 !kfreebsd-amd64 !kfreebsd-i386)_ZN28QBluetoothTransferReplyBluez8ProgressERK15QDBusObjectPathy@Base 5.3.1
 (arch=!hurd-i386 !kfreebsd-amd64 !kfreebsd-i386)_ZN28QBluetoothTransferReplyBluez8copyDoneEv@Base 5.3.1
 _ZN28QBluetoothTransferReplyBluez8startOPPERK7QString@Base 5.4.0
 (arch=!hurd-i386 !kfreebsd-amd64 !kfreebsd-i386)_ZN28QBluetoothTransferReplyBluezC1EP9QIODeviceRK25QBluetoothTransferRequestP25QBluetoothTransferManager@Base 5.3.1
 (arch=!hurd-i386 !kfreebsd-amd64 !kfreebsd-i386)_ZN28QBluetoothTransferReplyBluezC2EP9QIODeviceRK25QBluetoothTransferRequestP25QBluetoothTransferManager@Base 5.3.1
 (arch=!hurd-i386 !kfreebsd-amd64 !kfreebsd-i386)_ZN28QBluetoothTransferReplyBluezD0Ev@Base 5.3.1
 (arch=!hurd-i386 !kfreebsd-amd64 !kfreebsd-i386)_ZN28QBluetoothTransferReplyBluezD1Ev@Base 5.3.1
 (arch=!hurd-i386 !kfreebsd-amd64 !kfreebsd-i386)_ZN28QBluetoothTransferReplyBluezD2Ev@Base 5.3.1
 _ZN30QBluetoothDeviceDiscoveryAgent11qt_metacallEN11QMetaObject4CallEiPPv@Base 5.2.0
 _ZN30QBluetoothDeviceDiscoveryAgent11qt_metacastEPKc@Base 5.2.0
 _ZN30QBluetoothDeviceDiscoveryAgent14setInquiryTypeENS_11InquiryTypeE@Base 5.2.0
 _ZN30QBluetoothDeviceDiscoveryAgent16deviceDiscoveredERK20QBluetoothDeviceInfo@Base 5.2.0
 _ZN30QBluetoothDeviceDiscoveryAgent16staticMetaObjectE@Base 5.2.0
 _ZN30QBluetoothDeviceDiscoveryAgent4stopEv@Base 5.2.0
 _ZN30QBluetoothDeviceDiscoveryAgent5errorENS_5ErrorE@Base 5.2.0
 _ZN30QBluetoothDeviceDiscoveryAgent5startEv@Base 5.2.0
 _ZN30QBluetoothDeviceDiscoveryAgent8canceledEv@Base 5.2.0
 _ZN30QBluetoothDeviceDiscoveryAgent8finishedEv@Base 5.2.0
 _ZN30QBluetoothDeviceDiscoveryAgentC1EP7QObject@Base 5.2.0
 _ZN30QBluetoothDeviceDiscoveryAgentC1ERK17QBluetoothAddressP7QObject@Base 5.2.0
 _ZN30QBluetoothDeviceDiscoveryAgentC2EP7QObject@Base 5.2.0
 _ZN30QBluetoothDeviceDiscoveryAgentC2ERK17QBluetoothAddressP7QObject@Base 5.2.0
 _ZN30QBluetoothDeviceDiscoveryAgentD0Ev@Base 5.2.0
 _ZN30QBluetoothDeviceDiscoveryAgentD1Ev@Base 5.2.0
 _ZN30QBluetoothDeviceDiscoveryAgentD2Ev@Base 5.2.0
 _ZN30QBluetoothTransferReplyPrivateC1Ev@Base 5.2.0
 _ZN30QBluetoothTransferReplyPrivateC2Ev@Base 5.2.0
 _ZN31QBluetoothServiceDiscoveryAgent11qt_metacallEN11QMetaObject4CallEiPPv@Base 5.2.0
 _ZN31QBluetoothServiceDiscoveryAgent11qt_metacastEPKc@Base 5.2.0
 _ZN31QBluetoothServiceDiscoveryAgent13setUuidFilterERK14QBluetoothUuid@Base 5.2.0
 _ZN31QBluetoothServiceDiscoveryAgent13setUuidFilterERK5QListI14QBluetoothUuidE@Base 5.2.0
 _ZN31QBluetoothServiceDiscoveryAgent16setRemoteAddressERK17QBluetoothAddress@Base 5.2.0
 _ZN31QBluetoothServiceDiscoveryAgent16staticMetaObjectE@Base 5.2.0
 _ZN31QBluetoothServiceDiscoveryAgent17serviceDiscoveredERK21QBluetoothServiceInfo@Base 5.2.0
 _ZN31QBluetoothServiceDiscoveryAgent4stopEv@Base 5.2.0
 _ZN31QBluetoothServiceDiscoveryAgent5clearEv@Base 5.2.0
 _ZN31QBluetoothServiceDiscoveryAgent5errorENS_5ErrorE@Base 5.2.0
 _ZN31QBluetoothServiceDiscoveryAgent5startENS_13DiscoveryModeE@Base 5.2.0
 _ZN31QBluetoothServiceDiscoveryAgent8canceledEv@Base 5.2.0
 _ZN31QBluetoothServiceDiscoveryAgent8finishedEv@Base 5.2.0
 _ZN31QBluetoothServiceDiscoveryAgentC1EP7QObject@Base 5.2.0
 _ZN31QBluetoothServiceDiscoveryAgentC1ERK17QBluetoothAddressP7QObject@Base 5.2.0
 _ZN31QBluetoothServiceDiscoveryAgentC2EP7QObject@Base 5.2.0
 _ZN31QBluetoothServiceDiscoveryAgentC2ERK17QBluetoothAddressP7QObject@Base 5.2.0
 _ZN31QBluetoothServiceDiscoveryAgentD0Ev@Base 5.2.0
 _ZN31QBluetoothServiceDiscoveryAgentD1Ev@Base 5.2.0
 _ZN31QBluetoothServiceDiscoveryAgentD2Ev@Base 5.2.0
 _ZNK14QBluetoothUuid11minimumSizeEv@Base 5.2.0
 _ZNK14QBluetoothUuid8toUInt16EPb@Base 5.2.0
 _ZNK14QBluetoothUuid8toUInt32EPb@Base 5.2.0
 _ZNK14QBluetoothUuid9toUInt128Ev@Base 5.2.0
 _ZNK14QBluetoothUuideqERKS_@Base 5.2.0
 _ZNK16QBluetoothServer10metaObjectEv@Base 5.2.0
 _ZNK16QBluetoothServer10serverPortEv@Base 5.2.0
 _ZNK16QBluetoothServer10serverTypeEv@Base 5.2.0
 _ZNK16QBluetoothServer11isListeningEv@Base 5.2.0
 _ZNK16QBluetoothServer13securityFlagsEv@Base 5.2.0
 _ZNK16QBluetoothServer13serverAddressEv@Base 5.2.0
 _ZNK16QBluetoothServer21hasPendingConnectionsEv@Base 5.2.0
 _ZNK16QBluetoothServer21maxPendingConnectionsEv@Base 5.2.0
 _ZNK16QBluetoothServer5errorEv@Base 5.2.0
 _ZNK16QBluetoothSocket10metaObjectEv@Base 5.2.0
 _ZNK16QBluetoothSocket10socketTypeEv@Base 5.2.0
 _ZNK16QBluetoothSocket11canReadLineEv@Base 5.2.0
 _ZNK16QBluetoothSocket11errorStringEv@Base 5.2.0
 _ZNK16QBluetoothSocket11peerAddressEv@Base 5.2.0
 _ZNK16QBluetoothSocket12bytesToWriteEv@Base 5.2.0
 _ZNK16QBluetoothSocket12isSequentialEv@Base 5.2.0
 _ZNK16QBluetoothSocket12localAddressEv@Base 5.2.0
 _ZNK16QBluetoothSocket14bytesAvailableEv@Base 5.2.0
 _ZNK16QBluetoothSocket16socketDescriptorEv@Base 5.2.0
 _ZNK16QBluetoothSocket5errorEv@Base 5.2.0
 _ZNK16QBluetoothSocket5stateEv@Base 5.2.0
 _ZNK16QBluetoothSocket8peerNameEv@Base 5.2.0
 _ZNK16QBluetoothSocket8peerPortEv@Base 5.2.0
 _ZNK16QBluetoothSocket9localNameEv@Base 5.2.0
 _ZNK16QBluetoothSocket9localPortEv@Base 5.2.0
 _ZNK17QBluetoothAddress6isNullEv@Base 5.2.0
 _ZNK17QBluetoothAddress8toStringEv@Base 5.2.0
 _ZNK17QBluetoothAddress8toUInt64Ev@Base 5.2.0
 _ZNK17QBluetoothAddresseqERKS_@Base 5.2.0
 _ZNK17QBluetoothAddressltERKS_@Base 5.2.0
 _ZNK17QLowEnergyService10metaObjectEv@Base 5.4.0
 _ZNK17QLowEnergyService11serviceNameEv@Base 5.4.0
 _ZNK17QLowEnergyService11serviceUuidEv@Base 5.4.0
 _ZNK17QLowEnergyService14characteristicERK14QBluetoothUuid@Base 5.4.0
 _ZNK17QLowEnergyService15characteristicsEv@Base 5.4.0
 _ZNK17QLowEnergyService16includedServicesEv@Base 5.4.0
 _ZNK17QLowEnergyService4typeEv@Base 5.4.0
 _ZNK17QLowEnergyService5errorEv@Base 5.4.0
 _ZNK17QLowEnergyService5stateEv@Base 5.4.0
 _ZNK17QLowEnergyService8containsERK20QLowEnergyDescriptor@Base 5.4.0
 _ZNK17QLowEnergyService8containsERK24QLowEnergyCharacteristic@Base 5.4.0
 _ZNK18QBluetoothHostInfo4nameEv@Base 5.2.0
 _ZNK18QBluetoothHostInfo7addressEv@Base 5.2.0
 _ZNK20QBluetoothDeviceInfo12serviceUuidsEPNS_16DataCompletenessE@Base 5.2.0
 _ZNK20QBluetoothDeviceInfo14serviceClassesEv@Base 5.2.0
 _ZNK20QBluetoothDeviceInfo16majorDeviceClassEv@Base 5.2.0
 _ZNK20QBluetoothDeviceInfo16minorDeviceClassEv@Base 5.2.0
 _ZNK20QBluetoothDeviceInfo18coreConfigurationsEv@Base 5.4.0
 _ZNK20QBluetoothDeviceInfo24serviceUuidsCompletenessEv@Base 5.2.0
 _ZNK20QBluetoothDeviceInfo4nameEv@Base 5.2.0
 _ZNK20QBluetoothDeviceInfo4rssiEv@Base 5.2.0
 _ZNK20QBluetoothDeviceInfo7addressEv@Base 5.2.0
 _ZNK20QBluetoothDeviceInfo7isValidEv@Base 5.2.0
 _ZNK20QBluetoothDeviceInfo8isCachedEv@Base 5.2.0
 _ZNK20QBluetoothDeviceInfoeqERKS_@Base 5.2.0
 _ZNK20QBluetoothDeviceInfoneERKS_@Base 5.2.0
 _ZNK20QLowEnergyController10metaObjectEv@Base 5.4.0
 _ZNK20QLowEnergyController11errorStringEv@Base 5.4.0
 _ZNK20QLowEnergyController12localAddressEv@Base 5.4.0
 _ZNK20QLowEnergyController13remoteAddressEv@Base 5.4.0
 _ZNK20QLowEnergyController17remoteAddressTypeEv@Base 5.4.0
 _ZNK20QLowEnergyController5errorEv@Base 5.4.0
 _ZNK20QLowEnergyController5stateEv@Base 5.4.0
 _ZNK20QLowEnergyController8servicesEv@Base 5.4.0
 _ZNK20QLowEnergyDescriptor20characteristicHandleEv@Base 5.4.0
 _ZNK20QLowEnergyDescriptor4nameEv@Base 5.4.0
 _ZNK20QLowEnergyDescriptor4typeEv@Base 5.4.0
 _ZNK20QLowEnergyDescriptor4uuidEv@Base 5.4.0
 _ZNK20QLowEnergyDescriptor5valueEv@Base 5.4.0
 _ZNK20QLowEnergyDescriptor6handleEv@Base 5.4.0
 _ZNK20QLowEnergyDescriptor7isValidEv@Base 5.4.0
 _ZNK20QLowEnergyDescriptoreqERKS_@Base 5.4.0
 _ZNK20QLowEnergyDescriptorneERKS_@Base 5.4.0
 _ZNK21QBluetoothLocalDevice10metaObjectEv@Base 5.2.0
 _ZNK21QBluetoothLocalDevice13pairingStatusERK17QBluetoothAddress@Base 5.2.0
 _ZNK21QBluetoothLocalDevice16connectedDevicesEv@Base 5.3.0
 _ZNK21QBluetoothLocalDevice4nameEv@Base 5.2.0
 _ZNK21QBluetoothLocalDevice7addressEv@Base 5.2.0
 _ZNK21QBluetoothLocalDevice7isValidEv@Base 5.2.0
 _ZNK21QBluetoothLocalDevice8hostModeEv@Base 5.2.0
 _ZNK21QBluetoothServiceInfo10attributesEv@Base 5.2.0
 _ZNK21QBluetoothServiceInfo10isCompleteEv@Base 5.2.0
 _ZNK21QBluetoothServiceInfo12isRegisteredEv@Base 5.2.0
 _ZNK21QBluetoothServiceInfo13serverChannelEv@Base 5.2.0
 _ZNK21QBluetoothServiceInfo14socketProtocolEv@Base 5.2.0
 _ZNK21QBluetoothServiceInfo17serviceClassUuidsEv@Base 5.3.0
 _ZNK21QBluetoothServiceInfo18protocolDescriptorEN14QBluetoothUuid12ProtocolUuidE@Base 5.2.0
 _ZNK21QBluetoothServiceInfo26protocolServiceMultiplexerEv@Base 5.2.0
 _ZNK21QBluetoothServiceInfo6deviceEv@Base 5.2.0
 _ZNK21QBluetoothServiceInfo7isValidEv@Base 5.2.0
 _ZNK21QBluetoothServiceInfo8containsEt@Base 5.2.0
 _ZNK21QBluetoothServiceInfo9attributeEt@Base 5.2.0
 _ZNK23QBluetoothTransferReply10metaObjectEv@Base 5.2.0
 _ZNK23QBluetoothTransferReply7managerEv@Base 5.2.0
 _ZNK23QBluetoothTransferReply7requestEv@Base 5.2.0
 _ZNK24QLowEnergyCharacteristic10descriptorERK14QBluetoothUuid@Base 5.4.0
 _ZNK24QLowEnergyCharacteristic10propertiesEv@Base 5.4.0
 _ZNK24QLowEnergyCharacteristic11descriptorsEv@Base 5.4.0
 _ZNK24QLowEnergyCharacteristic15attributeHandleEv@Base 5.4.0
 _ZNK24QLowEnergyCharacteristic4nameEv@Base 5.4.0
 _ZNK24QLowEnergyCharacteristic4uuidEv@Base 5.4.0
 _ZNK24QLowEnergyCharacteristic5valueEv@Base 5.4.0
 _ZNK24QLowEnergyCharacteristic6handleEv@Base 5.4.0
 _ZNK24QLowEnergyCharacteristic7isValidEv@Base 5.4.0
 _ZNK24QLowEnergyCharacteristiceqERKS_@Base 5.4.0
 _ZNK24QLowEnergyCharacteristicneERKS_@Base 5.4.0
 _ZNK25QBluetoothTransferManager10metaObjectEv@Base 5.2.0
 _ZNK25QBluetoothTransferRequest7addressEv@Base 5.2.0
 _ZNK25QBluetoothTransferRequest9attributeENS_9AttributeERK8QVariant@Base 5.2.0
 _ZNK25QBluetoothTransferRequesteqERKS_@Base 5.2.0
 _ZNK25QBluetoothTransferRequestneERKS_@Base 5.2.0
 (arch=!hurd-i386 !kfreebsd-amd64 !kfreebsd-i386)_ZNK28QBluetoothTransferReplyBluez10isFinishedEv@Base 5.3.1
 (arch=!hurd-i386 !kfreebsd-amd64 !kfreebsd-i386)_ZNK28QBluetoothTransferReplyBluez10metaObjectEv@Base 5.3.1
 (arch=!hurd-i386 !kfreebsd-amd64 !kfreebsd-i386)_ZNK28QBluetoothTransferReplyBluez11errorStringEv@Base 5.3.1
 (arch=!hurd-i386 !kfreebsd-amd64 !kfreebsd-i386)_ZNK28QBluetoothTransferReplyBluez5errorEv@Base 5.3.1
 (arch=!hurd-i386 !kfreebsd-amd64 !kfreebsd-i386)_ZNK28QBluetoothTransferReplyBluez9isRunningEv@Base 5.3.1
 _ZNK30QBluetoothDeviceDiscoveryAgent10metaObjectEv@Base 5.2.0
 _ZNK30QBluetoothDeviceDiscoveryAgent11errorStringEv@Base 5.2.0
 _ZNK30QBluetoothDeviceDiscoveryAgent11inquiryTypeEv@Base 5.2.0
 _ZNK30QBluetoothDeviceDiscoveryAgent17discoveredDevicesEv@Base 5.2.0
 _ZNK30QBluetoothDeviceDiscoveryAgent5errorEv@Base 5.2.0
 _ZNK30QBluetoothDeviceDiscoveryAgent8isActiveEv@Base 5.2.0
 _ZNK31QBluetoothServiceDiscoveryAgent10metaObjectEv@Base 5.2.0
 _ZNK31QBluetoothServiceDiscoveryAgent10uuidFilterEv@Base 5.2.0
 _ZNK31QBluetoothServiceDiscoveryAgent11errorStringEv@Base 5.2.0
 _ZNK31QBluetoothServiceDiscoveryAgent13remoteAddressEv@Base 5.2.0
 _ZNK31QBluetoothServiceDiscoveryAgent18discoveredServicesEv@Base 5.2.0
 _ZNK31QBluetoothServiceDiscoveryAgent5errorEv@Base 5.2.0
 _ZNK31QBluetoothServiceDiscoveryAgent8isActiveEv@Base 5.2.0
 (arch=!hurd-i386 !kfreebsd-amd64 !kfreebsd-i386)_ZTI12QDBusContext@Base 5.3.1
 _ZTI16QBluetoothServer@Base 5.2.0
 _ZTI16QBluetoothSocket@Base 5.2.0
 _ZTI17QLowEnergyService@Base 5.4.0
 _ZTI20QLowEnergyController@Base 5.4.0
 _ZTI21QBluetoothLocalDevice@Base 5.2.0
 _ZTI23QBluetoothTransferReply@Base 5.2.0
 _ZTI25QBluetoothTransferManager@Base 5.2.0
 (arch=!hurd-i386 !kfreebsd-amd64 !kfreebsd-i386)_ZTI28QBluetoothTransferReplyBluez@Base 5.3.1
 _ZTI30QBluetoothDeviceDiscoveryAgent@Base 5.2.0
 _ZTI31QBluetoothServiceDiscoveryAgent@Base 5.2.0
 (arch=!hurd-i386 !kfreebsd-amd64 !kfreebsd-i386)_ZTS12QDBusContext@Base 5.3.1
 _ZTS16QBluetoothServer@Base 5.2.0
 _ZTS16QBluetoothSocket@Base 5.2.0
 _ZTS17QLowEnergyService@Base 5.4.0
 _ZTS20QLowEnergyController@Base 5.4.0
 _ZTS21QBluetoothLocalDevice@Base 5.2.0
 _ZTS23QBluetoothTransferReply@Base 5.2.0
 _ZTS25QBluetoothTransferManager@Base 5.2.0
 (arch=!hurd-i386 !kfreebsd-amd64 !kfreebsd-i386)_ZTS28QBluetoothTransferReplyBluez@Base 5.3.1
 _ZTS30QBluetoothDeviceDiscoveryAgent@Base 5.2.0
 _ZTS31QBluetoothServiceDiscoveryAgent@Base 5.2.0
 _ZTV16QBluetoothServer@Base 5.2.0
 _ZTV16QBluetoothSocket@Base 5.2.0
 _ZTV17QLowEnergyService@Base 5.4.0
 _ZTV20QLowEnergyController@Base 5.4.0
 _ZTV21QBluetoothLocalDevice@Base 5.2.0
 _ZTV23QBluetoothTransferReply@Base 5.2.0
 _ZTV25QBluetoothTransferManager@Base 5.2.0
 (arch=!hurd-i386 !kfreebsd-amd64 !kfreebsd-i386)_ZTV28QBluetoothTransferReplyBluez@Base 5.3.1
 _ZTV30QBluetoothDeviceDiscoveryAgent@Base 5.2.0
 _ZTV31QBluetoothServiceDiscoveryAgent@Base 5.2.0
 _Zls6QDebugN16QBluetoothSocket11SocketErrorE@Base 5.2.0
 _Zls6QDebugN16QBluetoothSocket11SocketStateE@Base 5.2.0
 _Zls6QDebugRK17QBluetoothAddress@Base 5.4.0
 _Zls6QDebugRK21QBluetoothServiceInfo@Base 5.2.0
