# SymbolsHelper-Confirmed: 5.4.0 amd64
libQt5Positioning.so.5 libqt5positioning5 #MINVER#
 _ZN10QGeoCircle9setCenterERK14QGeoCoordinate@Base 5.2.1
 _ZN10QGeoCircle9setRadiusEd@Base 5.2.1
 _ZN10QGeoCircle9translateEdd@Base 5.2.1
 _ZN10QGeoCircleC1ERK14QGeoCoordinated@Base 5.2.1
 _ZN10QGeoCircleC1ERK9QGeoShape@Base 5.2.1
 _ZN10QGeoCircleC1ERKS_@Base 5.2.1
 _ZN10QGeoCircleC1Ev@Base 5.2.1
 _ZN10QGeoCircleC2ERK14QGeoCoordinated@Base 5.2.1
 _ZN10QGeoCircleC2ERK9QGeoShape@Base 5.2.1
 _ZN10QGeoCircleC2ERKS_@Base 5.2.1
 _ZN10QGeoCircleC2Ev@Base 5.2.1
 _ZN10QGeoCircleD1Ev@Base 5.2.1
 _ZN10QGeoCircleD2Ev@Base 5.2.1
 _ZN10QGeoCircleaSERKS_@Base 5.2.1
 _ZN11QGeoAddress10setCountryERK7QString@Base 5.2.1
 _ZN11QGeoAddress11setDistrictERK7QString@Base 5.2.1
 _ZN11QGeoAddress13setPostalCodeERK7QString@Base 5.2.1
 _ZN11QGeoAddress14setCountryCodeERK7QString@Base 5.2.1
 _ZN11QGeoAddress5clearEv@Base 5.2.1
 _ZN11QGeoAddress7setCityERK7QString@Base 5.2.1
 _ZN11QGeoAddress7setTextERK7QString@Base 5.2.1
 _ZN11QGeoAddress8setStateERK7QString@Base 5.2.1
 _ZN11QGeoAddress9setCountyERK7QString@Base 5.2.1
 _ZN11QGeoAddress9setStreetERK7QString@Base 5.2.1
 _ZN11QGeoAddressC1ERKS_@Base 5.2.1
 _ZN11QGeoAddressC1Ev@Base 5.2.1
 _ZN11QGeoAddressC2ERKS_@Base 5.2.1
 _ZN11QGeoAddressC2Ev@Base 5.2.1
 _ZN11QGeoAddressD1Ev@Base 5.2.1
 _ZN11QGeoAddressD2Ev@Base 5.2.1
 _ZN11QGeoAddressaSERKS_@Base 5.2.1
 _ZN12QGeoLocation10setAddressERK11QGeoAddress@Base 5.2.1
 _ZN12QGeoLocation13setCoordinateERK14QGeoCoordinate@Base 5.2.1
 _ZN12QGeoLocation14setBoundingBoxERK13QGeoRectangle@Base 5.2.1
 _ZN12QGeoLocationC1ERKS_@Base 5.2.1
 _ZN12QGeoLocationC1Ev@Base 5.2.1
 _ZN12QGeoLocationC2ERKS_@Base 5.2.1
 _ZN12QGeoLocationC2Ev@Base 5.2.1
 _ZN12QGeoLocationD1Ev@Base 5.2.1
 _ZN12QGeoLocationD2Ev@Base 5.2.1
 _ZN12QGeoLocationaSERKS_@Base 5.2.1
 _ZN13QGeoRectangle10setTopLeftERK14QGeoCoordinate@Base 5.2.1
 _ZN13QGeoRectangle11setTopRightERK14QGeoCoordinate@Base 5.2.1
 _ZN13QGeoRectangle13setBottomLeftERK14QGeoCoordinate@Base 5.2.1
 _ZN13QGeoRectangle14setBottomRightERK14QGeoCoordinate@Base 5.2.1
 _ZN13QGeoRectangle8setWidthEd@Base 5.2.1
 _ZN13QGeoRectangle9setCenterERK14QGeoCoordinate@Base 5.2.1
 _ZN13QGeoRectangle9setHeightEd@Base 5.2.1
 _ZN13QGeoRectangle9translateEdd@Base 5.2.1
 _ZN13QGeoRectangleC1ERK14QGeoCoordinateS2_@Base 5.2.1
 _ZN13QGeoRectangleC1ERK14QGeoCoordinatedd@Base 5.2.1
 _ZN13QGeoRectangleC1ERK5QListI14QGeoCoordinateE@Base 5.3.0
 _ZN13QGeoRectangleC1ERK9QGeoShape@Base 5.2.1
 _ZN13QGeoRectangleC1ERKS_@Base 5.2.1
 _ZN13QGeoRectangleC1Ev@Base 5.2.1
 _ZN13QGeoRectangleC2ERK14QGeoCoordinateS2_@Base 5.2.1
 _ZN13QGeoRectangleC2ERK14QGeoCoordinatedd@Base 5.2.1
 _ZN13QGeoRectangleC2ERK5QListI14QGeoCoordinateE@Base 5.3.0
 _ZN13QGeoRectangleC2ERK9QGeoShape@Base 5.2.1
 _ZN13QGeoRectangleC2ERKS_@Base 5.2.1
 _ZN13QGeoRectangleC2Ev@Base 5.2.1
 _ZN13QGeoRectangleD1Ev@Base 5.2.1
 _ZN13QGeoRectangleD2Ev@Base 5.2.1
 _ZN13QGeoRectangleaSERKS_@Base 5.2.1
 _ZN13QGeoRectangleoRERKS_@Base 5.2.1
 _ZN14QGeoCoordinate11setAltitudeEd@Base 5.2.1
 _ZN14QGeoCoordinate11setLatitudeEd@Base 5.2.1
 _ZN14QGeoCoordinate12setLongitudeEd@Base 5.2.1
 _ZN14QGeoCoordinateC1ERKS_@Base 5.2.1
 _ZN14QGeoCoordinateC1Edd@Base 5.2.1
 _ZN14QGeoCoordinateC1Eddd@Base 5.2.1
 _ZN14QGeoCoordinateC1Ev@Base 5.2.1
 _ZN14QGeoCoordinateC2ERKS_@Base 5.2.1
 _ZN14QGeoCoordinateC2Edd@Base 5.2.1
 _ZN14QGeoCoordinateC2Eddd@Base 5.2.1
 _ZN14QGeoCoordinateC2Ev@Base 5.2.1
 _ZN14QGeoCoordinateD1Ev@Base 5.2.1
 _ZN14QGeoCoordinateD2Ev@Base 5.2.1
 _ZN14QGeoCoordinateaSERKS_@Base 5.2.1
 _ZN14QGeoProjection15coordToMercatorERK14QGeoCoordinate@Base 5.3.0
 _ZN14QGeoProjection15mercatorToCoordERK15QDoubleVector2D@Base 5.3.0
 _ZN14QGeoProjection23coordinateInterpolationERK14QGeoCoordinateS2_d@Base 5.3.0
 _ZN14QGeoProjection7realmodEdd@Base 5.3.0
 _ZN15QDoubleVector2D9normalizeEv@Base 5.3.0
 _ZN15QDoubleVector2DC1ERK15QDoubleVector3D@Base 5.3.0
 _ZN15QDoubleVector2DC2ERK15QDoubleVector3D@Base 5.3.0
 _ZN15QDoubleVector3D6normalERKS_S1_@Base 5.3.0
 _ZN15QDoubleVector3D6normalERKS_S1_S1_@Base 5.3.0
 _ZN15QDoubleVector3D9normalizeEv@Base 5.3.0
 _ZN16QGeoPositionInfo12setAttributeENS_9AttributeEd@Base 5.2.1
 _ZN16QGeoPositionInfo12setTimestampERK9QDateTime@Base 5.2.1
 _ZN16QGeoPositionInfo13setCoordinateERK14QGeoCoordinate@Base 5.2.1
 _ZN16QGeoPositionInfo15removeAttributeENS_9AttributeE@Base 5.2.1
 _ZN16QGeoPositionInfoC1ERK14QGeoCoordinateRK9QDateTime@Base 5.2.1
 _ZN16QGeoPositionInfoC1ERKS_@Base 5.2.1
 _ZN16QGeoPositionInfoC1Ev@Base 5.2.1
 _ZN16QGeoPositionInfoC2ERK14QGeoCoordinateRK9QDateTime@Base 5.2.1
 _ZN16QGeoPositionInfoC2ERKS_@Base 5.2.1
 _ZN16QGeoPositionInfoC2Ev@Base 5.2.1
 _ZN16QGeoPositionInfoD1Ev@Base 5.2.1
 _ZN16QGeoPositionInfoD2Ev@Base 5.2.1
 _ZN16QGeoPositionInfoaSERKS_@Base 5.2.1
 _ZN17QGeoSatelliteInfo12setAttributeENS_9AttributeEd@Base 5.2.1
 _ZN17QGeoSatelliteInfo15removeAttributeENS_9AttributeE@Base 5.2.1
 _ZN17QGeoSatelliteInfo17setSignalStrengthEi@Base 5.2.1
 _ZN17QGeoSatelliteInfo18setSatelliteSystemENS_15SatelliteSystemE@Base 5.2.1
 _ZN17QGeoSatelliteInfo22setSatelliteIdentifierEi@Base 5.2.1
 _ZN17QGeoSatelliteInfoC1ERKS_@Base 5.2.1
 _ZN17QGeoSatelliteInfoC1Ev@Base 5.2.1
 _ZN17QGeoSatelliteInfoC2ERKS_@Base 5.2.1
 _ZN17QGeoSatelliteInfoC2Ev@Base 5.2.1
 _ZN17QGeoSatelliteInfoD1Ev@Base 5.2.1
 _ZN17QGeoSatelliteInfoD2Ev@Base 5.2.1
 _ZN17QGeoSatelliteInfoaSERKS_@Base 5.2.1
 _ZN19QGeoAreaMonitorInfo13setExpirationERK9QDateTime@Base 5.2.1
 _ZN19QGeoAreaMonitorInfo13setPersistentEb@Base 5.2.1
 _ZN19QGeoAreaMonitorInfo25setNotificationParametersERK4QMapI7QString8QVariantE@Base 5.2.1
 _ZN19QGeoAreaMonitorInfo7setAreaERK9QGeoShape@Base 5.2.1
 _ZN19QGeoAreaMonitorInfo7setNameERK7QString@Base 5.2.1
 _ZN19QGeoAreaMonitorInfoC1ERK7QString@Base 5.2.1
 _ZN19QGeoAreaMonitorInfoC1ERKS_@Base 5.2.1
 _ZN19QGeoAreaMonitorInfoC2ERK7QString@Base 5.2.1
 _ZN19QGeoAreaMonitorInfoC2ERKS_@Base 5.2.1
 _ZN19QGeoAreaMonitorInfoD1Ev@Base 5.2.1
 _ZN19QGeoAreaMonitorInfoD2Ev@Base 5.2.1
 _ZN19QGeoAreaMonitorInfoaSERKS_@Base 5.2.1
 _ZN21QGeoAreaMonitorSource10areaExitedERK19QGeoAreaMonitorInfoRK16QGeoPositionInfo@Base 5.2.1
 _ZN21QGeoAreaMonitorSource11areaEnteredERK19QGeoAreaMonitorInfoRK16QGeoPositionInfo@Base 5.2.1
 _ZN21QGeoAreaMonitorSource11qt_metacallEN11QMetaObject4CallEiPPv@Base 5.2.1
 _ZN21QGeoAreaMonitorSource11qt_metacastEPKc@Base 5.2.1
 _ZN21QGeoAreaMonitorSource12createSourceERK7QStringP7QObject@Base 5.2.1
 _ZN21QGeoAreaMonitorSource14monitorExpiredERK19QGeoAreaMonitorInfo@Base 5.2.1
 _ZN21QGeoAreaMonitorSource16availableSourcesEv@Base 5.2.1
 _ZN21QGeoAreaMonitorSource16staticMetaObjectE@Base 5.2.1
 _ZN21QGeoAreaMonitorSource19createDefaultSourceEP7QObject@Base 5.2.1
 _ZN21QGeoAreaMonitorSource21setPositionInfoSourceEP22QGeoPositionInfoSource@Base 5.2.1
 _ZN21QGeoAreaMonitorSource5errorENS_5ErrorE@Base 5.2.1
 _ZN21QGeoAreaMonitorSourceC1EP7QObject@Base 5.2.1
 _ZN21QGeoAreaMonitorSourceC2EP7QObject@Base 5.2.1
 _ZN21QGeoAreaMonitorSourceD0Ev@Base 5.2.1
 _ZN21QGeoAreaMonitorSourceD1Ev@Base 5.2.1
 _ZN21QGeoAreaMonitorSourceD2Ev@Base 5.2.1
 _ZN22QDeclarativeGeoAddress10setAddressERK11QGeoAddress@Base 5.2.1
 _ZN22QDeclarativeGeoAddress10setCountryERK7QString@Base 5.2.1
 _ZN22QDeclarativeGeoAddress11cityChangedEv@Base 5.2.1
 _ZN22QDeclarativeGeoAddress11qt_metacallEN11QMetaObject4CallEiPPv@Base 5.2.1
 _ZN22QDeclarativeGeoAddress11qt_metacastEPKc@Base 5.2.1
 _ZN22QDeclarativeGeoAddress11setDistrictERK7QString@Base 5.2.1
 _ZN22QDeclarativeGeoAddress11textChangedEv@Base 5.2.1
 _ZN22QDeclarativeGeoAddress12stateChangedEv@Base 5.2.1
 _ZN22QDeclarativeGeoAddress13countyChangedEv@Base 5.2.1
 _ZN22QDeclarativeGeoAddress13setPostalCodeERK7QString@Base 5.2.1
 _ZN22QDeclarativeGeoAddress13streetChangedEv@Base 5.2.1
 _ZN22QDeclarativeGeoAddress14countryChangedEv@Base 5.2.1
 _ZN22QDeclarativeGeoAddress14setCountryCodeERK7QString@Base 5.2.1
 _ZN22QDeclarativeGeoAddress15districtChangedEv@Base 5.2.1
 _ZN22QDeclarativeGeoAddress16staticMetaObjectE@Base 5.2.1
 _ZN22QDeclarativeGeoAddress17postalCodeChangedEv@Base 5.2.1
 _ZN22QDeclarativeGeoAddress18countryCodeChangedEv@Base 5.2.1
 _ZN22QDeclarativeGeoAddress22isTextGeneratedChangedEv@Base 5.2.1
 _ZN22QDeclarativeGeoAddress7setCityERK7QString@Base 5.2.1
 _ZN22QDeclarativeGeoAddress7setTextERK7QString@Base 5.2.1
 _ZN22QDeclarativeGeoAddress8setStateERK7QString@Base 5.2.1
 _ZN22QDeclarativeGeoAddress9setCountyERK7QString@Base 5.2.1
 _ZN22QDeclarativeGeoAddress9setStreetERK7QString@Base 5.2.1
 _ZN22QDeclarativeGeoAddressC1EP7QObject@Base 5.2.1
 _ZN22QDeclarativeGeoAddressC1ERK11QGeoAddressP7QObject@Base 5.2.1
 _ZN22QDeclarativeGeoAddressC2EP7QObject@Base 5.2.1
 _ZN22QDeclarativeGeoAddressC2ERK11QGeoAddressP7QObject@Base 5.2.1
 (optional=gccinternal)_ZN22QDeclarativeGeoAddressD0Ev@Base 5.2.1
 (optional=gccinternal)_ZN22QDeclarativeGeoAddressD1Ev@Base 5.2.1
 (optional=gccinternal)_ZN22QDeclarativeGeoAddressD2Ev@Base 5.2.1
 _ZN22QGeoPositionInfoSource11qt_metacallEN11QMetaObject4CallEiPPv@Base 5.2.1
 _ZN22QGeoPositionInfoSource11qt_metacastEPKc@Base 5.2.1
 _ZN22QGeoPositionInfoSource12createSourceERK7QStringP7QObject@Base 5.2.1
 _ZN22QGeoPositionInfoSource13updateTimeoutEv@Base 5.2.1
 _ZN22QGeoPositionInfoSource15positionUpdatedERK16QGeoPositionInfo@Base 5.2.1
 _ZN22QGeoPositionInfoSource16availableSourcesEv@Base 5.2.1
 _ZN22QGeoPositionInfoSource16staticMetaObjectE@Base 5.2.1
 _ZN22QGeoPositionInfoSource17setUpdateIntervalEi@Base 5.2.1
 _ZN22QGeoPositionInfoSource19createDefaultSourceEP7QObject@Base 5.2.1
 _ZN22QGeoPositionInfoSource30setPreferredPositioningMethodsE6QFlagsINS_17PositioningMethodEE@Base 5.2.1
 _ZN22QGeoPositionInfoSource5errorENS_5ErrorE@Base 5.2.1
 _ZN22QGeoPositionInfoSourceC1EP7QObject@Base 5.2.1
 _ZN22QGeoPositionInfoSourceC2EP7QObject@Base 5.2.1
 _ZN22QGeoPositionInfoSourceD0Ev@Base 5.2.1
 _ZN22QGeoPositionInfoSourceD1Ev@Base 5.2.1
 _ZN22QGeoPositionInfoSourceD2Ev@Base 5.2.1
 _ZN23QDeclarativeGeoLocation10setAddressEP22QDeclarativeGeoAddress@Base 5.2.1
 _ZN23QDeclarativeGeoLocation11qt_metacallEN11QMetaObject4CallEiPPv@Base 5.2.1
 _ZN23QDeclarativeGeoLocation11qt_metacastEPKc@Base 5.2.1
 _ZN23QDeclarativeGeoLocation11setLocationERK12QGeoLocation@Base 5.2.1
 _ZN23QDeclarativeGeoLocation13setCoordinateE14QGeoCoordinate@Base 5.2.1
 _ZN23QDeclarativeGeoLocation14addressChangedEv@Base 5.2.1
 _ZN23QDeclarativeGeoLocation14setBoundingBoxERK13QGeoRectangle@Base 5.2.1
 _ZN23QDeclarativeGeoLocation16staticMetaObjectE@Base 5.2.1
 _ZN23QDeclarativeGeoLocation17coordinateChangedEv@Base 5.2.1
 _ZN23QDeclarativeGeoLocation18boundingBoxChangedEv@Base 5.2.1
 _ZN23QDeclarativeGeoLocationC1EP7QObject@Base 5.2.1
 _ZN23QDeclarativeGeoLocationC1ERK12QGeoLocationP7QObject@Base 5.2.1
 _ZN23QDeclarativeGeoLocationC2EP7QObject@Base 5.2.1
 _ZN23QDeclarativeGeoLocationC2ERK12QGeoLocationP7QObject@Base 5.2.1
 _ZN23QDeclarativeGeoLocationD0Ev@Base 5.2.1
 _ZN23QDeclarativeGeoLocationD1Ev@Base 5.2.1
 _ZN23QDeclarativeGeoLocationD2Ev@Base 5.2.1
 _ZN23QGeoSatelliteInfoSource11qt_metacallEN11QMetaObject4CallEiPPv@Base 5.2.1
 _ZN23QGeoSatelliteInfoSource11qt_metacastEPKc@Base 5.2.1
 _ZN23QGeoSatelliteInfoSource12createSourceERK7QStringP7QObject@Base 5.2.1
 _ZN23QGeoSatelliteInfoSource14requestTimeoutEv@Base 5.2.1
 _ZN23QGeoSatelliteInfoSource16availableSourcesEv@Base 5.2.1
 _ZN23QGeoSatelliteInfoSource16staticMetaObjectE@Base 5.2.1
 _ZN23QGeoSatelliteInfoSource17setUpdateIntervalEi@Base 5.2.1
 _ZN23QGeoSatelliteInfoSource19createDefaultSourceEP7QObject@Base 5.2.1
 _ZN23QGeoSatelliteInfoSource22satellitesInUseUpdatedERK5QListI17QGeoSatelliteInfoE@Base 5.2.1
 _ZN23QGeoSatelliteInfoSource23satellitesInViewUpdatedERK5QListI17QGeoSatelliteInfoE@Base 5.2.1
 _ZN23QGeoSatelliteInfoSource5errorENS_5ErrorE@Base 5.2.1
 _ZN23QGeoSatelliteInfoSourceC1EP7QObject@Base 5.2.1
 _ZN23QGeoSatelliteInfoSourceC2EP7QObject@Base 5.2.1
 _ZN23QGeoSatelliteInfoSourceD0Ev@Base 5.2.1
 _ZN23QGeoSatelliteInfoSourceD1Ev@Base 5.2.1
 _ZN23QGeoSatelliteInfoSourceD2Ev@Base 5.2.1
 _ZN23QNmeaPositionInfoSource11qt_metacallEN11QMetaObject4CallEiPPv@Base 5.2.1
 _ZN23QNmeaPositionInfoSource11qt_metacastEPKc@Base 5.2.1
 _ZN23QNmeaPositionInfoSource11stopUpdatesEv@Base 5.2.1
 _ZN23QNmeaPositionInfoSource12startUpdatesEv@Base 5.2.1
 _ZN23QNmeaPositionInfoSource13requestUpdateEi@Base 5.2.1
 _ZN23QNmeaPositionInfoSource16staticMetaObjectE@Base 5.2.1
 _ZN23QNmeaPositionInfoSource17setUpdateIntervalEi@Base 5.2.1
 _ZN23QNmeaPositionInfoSource24parsePosInfoFromNmeaDataEPKciP16QGeoPositionInfoPb@Base 5.2.1
 _ZN23QNmeaPositionInfoSource27setUserEquivalentRangeErrorEd@Base 5.3.0
 _ZN23QNmeaPositionInfoSource8setErrorEN22QGeoPositionInfoSource5ErrorE@Base 5.2.1
 _ZN23QNmeaPositionInfoSource9setDeviceEP9QIODevice@Base 5.2.1
 _ZN23QNmeaPositionInfoSourceC1ENS_10UpdateModeEP7QObject@Base 5.2.1
 _ZN23QNmeaPositionInfoSourceC2ENS_10UpdateModeEP7QObject@Base 5.2.1
 _ZN23QNmeaPositionInfoSourceD0Ev@Base 5.2.1
 _ZN23QNmeaPositionInfoSourceD1Ev@Base 5.2.1
 _ZN23QNmeaPositionInfoSourceD2Ev@Base 5.2.1
 _ZN29QGeoPositionInfoSourceFactoryD0Ev@Base 5.2.1
 _ZN29QGeoPositionInfoSourceFactoryD1Ev@Base 5.2.1
 _ZN29QGeoPositionInfoSourceFactoryD2Ev@Base 5.2.1
 _ZN9QGeoShape11extendShapeERK14QGeoCoordinate@Base 5.3.0
 _ZN9QGeoShapeC1EP16QGeoShapePrivate@Base 5.2.1
 _ZN9QGeoShapeC1ERKS_@Base 5.2.1
 _ZN9QGeoShapeC1Ev@Base 5.2.1
 _ZN9QGeoShapeC2EP16QGeoShapePrivate@Base 5.2.1
 _ZN9QGeoShapeC2ERKS_@Base 5.2.1
 _ZN9QGeoShapeC2Ev@Base 5.2.1
 _ZN9QGeoShapeD1Ev@Base 5.2.1
 _ZN9QGeoShapeD2Ev@Base 5.2.1
 _ZN9QGeoShapeaSERKS_@Base 5.2.1
 _ZNK10QGeoCircle10translatedEdd@Base 5.2.1
 _ZNK10QGeoCircle6centerEv@Base 5.2.1
 _ZNK10QGeoCircle6radiusEv@Base 5.2.1
 _ZNK10QGeoCircleeqERKS_@Base 5.2.1
 _ZNK10QGeoCircleneERKS_@Base 5.2.1
 _ZNK11QGeoAddress10postalCodeEv@Base 5.2.1
 _ZNK11QGeoAddress11countryCodeEv@Base 5.2.1
 _ZNK11QGeoAddress15isTextGeneratedEv@Base 5.2.1
 _ZNK11QGeoAddress4cityEv@Base 5.2.1
 _ZNK11QGeoAddress4textEv@Base 5.2.1
 _ZNK11QGeoAddress5stateEv@Base 5.2.1
 _ZNK11QGeoAddress6countyEv@Base 5.2.1
 _ZNK11QGeoAddress6streetEv@Base 5.2.1
 _ZNK11QGeoAddress7countryEv@Base 5.2.1
 _ZNK11QGeoAddress7isEmptyEv@Base 5.2.1
 _ZNK11QGeoAddress8districtEv@Base 5.2.1
 _ZNK11QGeoAddresseqERKS_@Base 5.2.1
 _ZNK12QGeoLocation10coordinateEv@Base 5.2.1
 _ZNK12QGeoLocation11boundingBoxEv@Base 5.2.1
 _ZNK12QGeoLocation7addressEv@Base 5.2.1
 _ZNK12QGeoLocation7isEmptyEv@Base 5.2.1
 _ZNK12QGeoLocationeqERKS_@Base 5.2.1
 _ZNK13QGeoRectangle10bottomLeftEv@Base 5.2.1
 _ZNK13QGeoRectangle10intersectsERKS_@Base 5.2.1
 _ZNK13QGeoRectangle10translatedEdd@Base 5.2.1
 _ZNK13QGeoRectangle11bottomRightEv@Base 5.2.1
 _ZNK13QGeoRectangle5widthEv@Base 5.2.1
 _ZNK13QGeoRectangle6centerEv@Base 5.2.1
 _ZNK13QGeoRectangle6heightEv@Base 5.2.1
 _ZNK13QGeoRectangle6unitedERKS_@Base 5.2.1
 _ZNK13QGeoRectangle7topLeftEv@Base 5.2.1
 _ZNK13QGeoRectangle8containsERKS_@Base 5.2.1
 _ZNK13QGeoRectangle8topRightEv@Base 5.2.1
 _ZNK13QGeoRectangleeqERKS_@Base 5.2.1
 _ZNK13QGeoRectangleneERKS_@Base 5.2.1
 _ZNK14QGeoCoordinate10distanceToERKS_@Base 5.2.1
 _ZNK14QGeoCoordinate20atDistanceAndAzimuthEddd@Base 5.2.1
 _ZNK14QGeoCoordinate4typeEv@Base 5.2.1
 _ZNK14QGeoCoordinate7isValidEv@Base 5.2.1
 _ZNK14QGeoCoordinate8altitudeEv@Base 5.2.1
 _ZNK14QGeoCoordinate8latitudeEv@Base 5.2.1
 _ZNK14QGeoCoordinate8toStringENS_16CoordinateFormatE@Base 5.2.1
 _ZNK14QGeoCoordinate9azimuthToERKS_@Base 5.2.1
 _ZNK14QGeoCoordinate9longitudeEv@Base 5.2.1
 _ZNK14QGeoCoordinateeqERKS_@Base 5.2.1
 _ZNK15QDoubleVector2D10normalizedEv@Base 5.3.0
 _ZNK15QDoubleVector2D10toVector3DEv@Base 5.3.0
 _ZNK15QDoubleVector2D6lengthEv@Base 5.3.0
 _ZNK15QDoubleVector3D10normalizedEv@Base 5.3.0
 _ZNK15QDoubleVector3D14distanceToLineERKS_S1_@Base 5.3.0
 _ZNK15QDoubleVector3D15distanceToPlaneERKS_S1_S1_@Base 5.3.0
 _ZNK15QDoubleVector3D6lengthEv@Base 5.3.0
 _ZNK16QGeoPositionInfo10coordinateEv@Base 5.2.1
 _ZNK16QGeoPositionInfo12hasAttributeENS_9AttributeE@Base 5.2.1
 _ZNK16QGeoPositionInfo7isValidEv@Base 5.2.1
 _ZNK16QGeoPositionInfo9attributeENS_9AttributeE@Base 5.2.1
 _ZNK16QGeoPositionInfo9timestampEv@Base 5.2.1
 _ZNK16QGeoPositionInfoeqERKS_@Base 5.2.1
 _ZNK17QGeoSatelliteInfo12hasAttributeENS_9AttributeE@Base 5.2.1
 _ZNK17QGeoSatelliteInfo14signalStrengthEv@Base 5.2.1
 _ZNK17QGeoSatelliteInfo15satelliteSystemEv@Base 5.2.1
 _ZNK17QGeoSatelliteInfo19satelliteIdentifierEv@Base 5.2.1
 _ZNK17QGeoSatelliteInfo9attributeENS_9AttributeE@Base 5.2.1
 _ZNK17QGeoSatelliteInfoeqERKS_@Base 5.2.1
 _ZNK19QGeoAreaMonitorInfo10expirationEv@Base 5.2.1
 _ZNK19QGeoAreaMonitorInfo10identifierEv@Base 5.2.1
 _ZNK19QGeoAreaMonitorInfo12isPersistentEv@Base 5.2.1
 _ZNK19QGeoAreaMonitorInfo22notificationParametersEv@Base 5.2.1
 _ZNK19QGeoAreaMonitorInfo4areaEv@Base 5.2.1
 _ZNK19QGeoAreaMonitorInfo4nameEv@Base 5.2.1
 _ZNK19QGeoAreaMonitorInfo7isValidEv@Base 5.2.1
 _ZNK19QGeoAreaMonitorInfoeqERKS_@Base 5.2.1
 _ZNK19QGeoAreaMonitorInfoneERKS_@Base 5.2.1
 _ZNK21QGeoAreaMonitorSource10metaObjectEv@Base 5.2.1
 _ZNK21QGeoAreaMonitorSource10sourceNameEv@Base 5.2.1
 _ZNK21QGeoAreaMonitorSource18positionInfoSourceEv@Base 5.2.1
 _ZNK22QDeclarativeGeoAddress10metaObjectEv@Base 5.2.1
 _ZNK22QDeclarativeGeoAddress10postalCodeEv@Base 5.2.1
 _ZNK22QDeclarativeGeoAddress11countryCodeEv@Base 5.2.1
 _ZNK22QDeclarativeGeoAddress15isTextGeneratedEv@Base 5.2.1
 _ZNK22QDeclarativeGeoAddress4cityEv@Base 5.2.1
 _ZNK22QDeclarativeGeoAddress4textEv@Base 5.2.1
 _ZNK22QDeclarativeGeoAddress5stateEv@Base 5.2.1
 _ZNK22QDeclarativeGeoAddress6countyEv@Base 5.2.1
 _ZNK22QDeclarativeGeoAddress6streetEv@Base 5.2.1
 _ZNK22QDeclarativeGeoAddress7addressEv@Base 5.2.1
 _ZNK22QDeclarativeGeoAddress7countryEv@Base 5.2.1
 _ZNK22QDeclarativeGeoAddress8districtEv@Base 5.2.1
 _ZNK22QGeoPositionInfoSource10metaObjectEv@Base 5.2.1
 _ZNK22QGeoPositionInfoSource10sourceNameEv@Base 5.2.1
 _ZNK22QGeoPositionInfoSource14updateIntervalEv@Base 5.2.1
 _ZNK22QGeoPositionInfoSource27preferredPositioningMethodsEv@Base 5.2.1
 _ZNK23QDeclarativeGeoLocation10coordinateEv@Base 5.2.1
 _ZNK23QDeclarativeGeoLocation10metaObjectEv@Base 5.2.1
 _ZNK23QDeclarativeGeoLocation11boundingBoxEv@Base 5.2.1
 _ZNK23QDeclarativeGeoLocation7addressEv@Base 5.2.1
 _ZNK23QDeclarativeGeoLocation8locationEv@Base 5.2.1
 _ZNK23QGeoSatelliteInfoSource10metaObjectEv@Base 5.2.1
 _ZNK23QGeoSatelliteInfoSource10sourceNameEv@Base 5.2.1
 _ZNK23QGeoSatelliteInfoSource14updateIntervalEv@Base 5.2.1
 _ZNK23QNmeaPositionInfoSource10metaObjectEv@Base 5.2.1
 _ZNK23QNmeaPositionInfoSource10updateModeEv@Base 5.2.1
 _ZNK23QNmeaPositionInfoSource17lastKnownPositionEb@Base 5.2.1
 _ZNK23QNmeaPositionInfoSource21minimumUpdateIntervalEv@Base 5.2.1
 _ZNK23QNmeaPositionInfoSource24userEquivalentRangeErrorEv@Base 5.3.0
 _ZNK23QNmeaPositionInfoSource27supportedPositioningMethodsEv@Base 5.2.1
 _ZNK23QNmeaPositionInfoSource5errorEv@Base 5.2.1
 _ZNK23QNmeaPositionInfoSource6deviceEv@Base 5.2.1
 _ZNK9QGeoShape4typeEv@Base 5.2.1
 _ZNK9QGeoShape7isEmptyEv@Base 5.2.1
 _ZNK9QGeoShape7isValidEv@Base 5.2.1
 _ZNK9QGeoShape8containsERK14QGeoCoordinate@Base 5.2.1
 _ZNK9QGeoShapeeqERKS_@Base 5.2.1
 _ZNK9QGeoShapeneERKS_@Base 5.2.1
 _ZTI11QSharedData@Base 5.2.1
 _ZTI21QGeoAreaMonitorSource@Base 5.2.1
 _ZTI22QDeclarativeGeoAddress@Base 5.2.1
 _ZTI22QGeoPositionInfoSource@Base 5.2.1
 _ZTI23QDeclarativeGeoLocation@Base 5.2.1
 _ZTI23QGeoSatelliteInfoSource@Base 5.2.1
 _ZTI23QNmeaPositionInfoSource@Base 5.2.1
 _ZTI29QGeoPositionInfoSourceFactory@Base 5.2.1
 _ZTS11QSharedData@Base 5.2.1
 _ZTS21QGeoAreaMonitorSource@Base 5.2.1
 _ZTS22QDeclarativeGeoAddress@Base 5.2.1
 _ZTS22QGeoPositionInfoSource@Base 5.2.1
 _ZTS23QDeclarativeGeoLocation@Base 5.2.1
 _ZTS23QGeoSatelliteInfoSource@Base 5.2.1
 _ZTS23QNmeaPositionInfoSource@Base 5.2.1
 _ZTS29QGeoPositionInfoSourceFactory@Base 5.2.1
 _ZTV21QGeoAreaMonitorSource@Base 5.2.1
 _ZTV22QDeclarativeGeoAddress@Base 5.2.1
 _ZTV22QGeoPositionInfoSource@Base 5.2.1
 _ZTV23QDeclarativeGeoLocation@Base 5.2.1
 _ZTV23QGeoSatelliteInfoSource@Base 5.2.1
 _ZTV23QNmeaPositionInfoSource@Base 5.2.1
 _ZTV29QGeoPositionInfoSourceFactory@Base 5.2.1
 _Zls6QDebugRK14QGeoCoordinate@Base 5.2.1
 _Zls6QDebugRK16QGeoPositionInfo@Base 5.2.1
 _Zls6QDebugRK17QGeoSatelliteInfo@Base 5.2.1
 _Zls6QDebugRK19QGeoAreaMonitorInfo@Base 5.2.1
 _Zls6QDebugRK9QGeoShape@Base 5.2.1
 _ZlsR11QDataStreamN16QGeoPositionInfo9AttributeE@Base 5.2.1
 _ZlsR11QDataStreamRK14QGeoCoordinate@Base 5.2.1
 _ZlsR11QDataStreamRK16QGeoPositionInfo@Base 5.2.1
 _ZlsR11QDataStreamRK17QGeoSatelliteInfo@Base 5.2.1
 _ZlsR11QDataStreamRK19QGeoAreaMonitorInfo@Base 5.2.1
 _ZlsR11QDataStreamRK9QGeoShape@Base 5.2.1
 _ZrsR11QDataStreamR14QGeoCoordinate@Base 5.2.1
 _ZrsR11QDataStreamR16QGeoPositionInfo@Base 5.2.1
 _ZrsR11QDataStreamR17QGeoSatelliteInfo@Base 5.2.1
 _ZrsR11QDataStreamR19QGeoAreaMonitorInfo@Base 5.2.1
 _ZrsR11QDataStreamR9QGeoShape@Base 5.2.1
 _ZrsR11QDataStreamRN16QGeoPositionInfo9AttributeE@Base 5.2.1
