# SymbolsHelper-Confirmed: 5.4.0 ppc64el
libQt5WebKit.so.5 libqt5webkit5 #MINVER#
 JSCheckScriptSyntax@Base 5.0.2
 JSClassCreate@Base 5.0.2
 JSClassRelease@Base 5.0.2
 JSClassRetain@Base 5.0.2
 JSContextCreateBacktrace@Base 5.0.2
 JSContextGetGlobalContext@Base 5.0.2
 JSContextGetGlobalObject@Base 5.0.2
 JSContextGetGroup@Base 5.0.2
 JSContextGroupClearExecutionTimeLimit@Base 5.2.0
 JSContextGroupCreate@Base 5.0.2
 JSContextGroupRelease@Base 5.0.2
 JSContextGroupRetain@Base 5.0.2
 JSContextGroupSetExecutionTimeLimit@Base 5.2.0
 JSEvaluateScript@Base 5.0.2
 JSGarbageCollect@Base 5.0.2
 JSGlobalContextCreate@Base 5.0.2
 JSGlobalContextCreateInGroup@Base 5.0.2
 JSGlobalContextRelease@Base 5.0.2
 JSGlobalContextRetain@Base 5.0.2
 JSObjectCallAsConstructor@Base 5.0.2
 JSObjectCallAsFunction@Base 5.0.2
 JSObjectCopyPropertyNames@Base 5.0.2
 JSObjectDeletePrivateProperty@Base 5.0.2
 JSObjectDeleteProperty@Base 5.0.2
 JSObjectGetPrivate@Base 5.0.2
 JSObjectGetPrivateProperty@Base 5.0.2
 JSObjectGetProperty@Base 5.0.2
 JSObjectGetPropertyAtIndex@Base 5.0.2
 JSObjectGetPrototype@Base 5.0.2
 JSObjectHasProperty@Base 5.0.2
 JSObjectIsConstructor@Base 5.0.2
 JSObjectIsFunction@Base 5.0.2
 JSObjectMake@Base 5.0.2
 JSObjectMakeArray@Base 5.0.2
 JSObjectMakeConstructor@Base 5.0.2
 JSObjectMakeDate@Base 5.0.2
 JSObjectMakeError@Base 5.0.2
 JSObjectMakeFunction@Base 5.0.2
 JSObjectMakeFunctionWithCallback@Base 5.0.2
 JSObjectMakeRegExp@Base 5.0.2
 JSObjectSetPrivate@Base 5.0.2
 JSObjectSetPrivateProperty@Base 5.0.2
 JSObjectSetProperty@Base 5.0.2
 JSObjectSetPropertyAtIndex@Base 5.0.2
 JSObjectSetPrototype@Base 5.0.2
 JSPropertyNameAccumulatorAddName@Base 5.0.2
 JSPropertyNameArrayGetCount@Base 5.0.2
 JSPropertyNameArrayGetNameAtIndex@Base 5.0.2
 JSPropertyNameArrayRelease@Base 5.0.2
 JSPropertyNameArrayRetain@Base 5.0.2
 JSReportExtraMemoryCost@Base 5.0.2
 JSScriptCreateFromString@Base 5.2.0
 JSScriptCreateReferencingImmortalASCIIText@Base 5.2.0
 JSScriptEvaluate@Base 5.2.0
 JSScriptRelease@Base 5.2.0
 JSScriptRetain@Base 5.2.0
 JSStringCreateWithCharacters@Base 5.0.2
 JSStringCreateWithCharactersNoCopy@Base 5.2.0
 JSStringCreateWithUTF8CString@Base 5.0.2
 JSStringGetCharactersPtr@Base 5.0.2
 JSStringGetLength@Base 5.0.2
 JSStringGetMaximumUTF8CStringSize@Base 5.0.2
 JSStringGetUTF8CString@Base 5.0.2
 JSStringIsEqual@Base 5.0.2
 JSStringIsEqualToUTF8CString@Base 5.0.2
 JSStringRelease@Base 5.0.2
 JSStringRetain@Base 5.0.2
 JSSynchronousGarbageCollectForDebugging@Base 5.2.0
 JSValueCreateJSONString@Base 5.0.2
 JSValueGetType@Base 5.0.2
 JSValueIsBoolean@Base 5.0.2
 JSValueIsEqual@Base 5.0.2
 JSValueIsInstanceOfConstructor@Base 5.0.2
 JSValueIsNull@Base 5.0.2
 JSValueIsNumber@Base 5.0.2
 JSValueIsObject@Base 5.0.2
 JSValueIsObjectOfClass@Base 5.0.2
 JSValueIsStrictEqual@Base 5.0.2
 JSValueIsString@Base 5.0.2
 JSValueIsUndefined@Base 5.0.2
 JSValueMakeBoolean@Base 5.0.2
 JSValueMakeFromJSONString@Base 5.0.2
 JSValueMakeNull@Base 5.0.2
 JSValueMakeNumber@Base 5.0.2
 JSValueMakeString@Base 5.0.2
 JSValueMakeUndefined@Base 5.0.2
 JSValueProtect@Base 5.0.2
 JSValueToBoolean@Base 5.0.2
 JSValueToNumber@Base 5.0.2
 JSValueToObject@Base 5.0.2
 JSValueToStringCopy@Base 5.0.2
 JSValueUnprotect@Base 5.0.2
 JSWeakObjectMapClear@Base 5.0.2
 JSWeakObjectMapCreate@Base 5.0.2
 JSWeakObjectMapGet@Base 5.0.2
 JSWeakObjectMapRemove@Base 5.0.2
 JSWeakObjectMapSet@Base 5.0.2
 WKAccessibilityFocusedObject@Base 5.0.2
 WKAccessibilityRootObject@Base 5.0.2
 WKArrayAppendItem@Base 5.0.2
 WKArrayCreate@Base 5.0.2
 WKArrayCreateAdoptingValues@Base 5.0.2
 WKArrayGetItemAtIndex@Base 5.0.2
 WKArrayGetSize@Base 5.0.2
 WKArrayGetTypeID@Base 5.0.2
 WKArrayIsMutable@Base 5.0.2
 WKArrayRemoveItemAtIndex@Base 5.0.2
 WKAuthenticationChallengeGetDecisionListener@Base 5.0.2
 WKAuthenticationChallengeGetPreviousFailureCount@Base 5.0.2
 WKAuthenticationChallengeGetProposedCredential@Base 5.0.2
 WKAuthenticationChallengeGetProtectionSpace@Base 5.0.2
 WKAuthenticationChallengeGetTypeID@Base 5.0.2
 WKAuthenticationDecisionListenerCancel@Base 5.0.2
 WKAuthenticationDecisionListenerGetTypeID@Base 5.0.2
 WKAuthenticationDecisionListenerUseCredential@Base 5.0.2
 WKBackForwardListCopyBackListWithLimit@Base 5.0.2
 WKBackForwardListCopyForwardListWithLimit@Base 5.0.2
 WKBackForwardListGetBackItem@Base 5.0.2
 WKBackForwardListGetBackListCount@Base 5.0.2
 WKBackForwardListGetCurrentItem@Base 5.0.2
 WKBackForwardListGetForwardItem@Base 5.0.2
 WKBackForwardListGetForwardListCount@Base 5.0.2
 WKBackForwardListGetItemAtIndex@Base 5.0.2
 WKBackForwardListGetTypeID@Base 5.0.2
 WKBackForwardListItemCopyOriginalURL@Base 5.0.2
 WKBackForwardListItemCopyTitle@Base 5.0.2
 WKBackForwardListItemCopyURL@Base 5.0.2
 WKBackForwardListItemGetTypeID@Base 5.0.2
 WKBatteryManagerGetTypeID@Base 5.0.2
 WKBatteryManagerProviderDidChangeBatteryStatus@Base 5.0.2
 WKBatteryManagerProviderUpdateBatteryStatus@Base 5.0.2
 WKBatteryManagerSetProvider@Base 5.0.2
 WKBatteryStatusCreate@Base 5.0.2
 WKBatteryStatusGetTypeID@Base 5.0.2
 WKBooleanCreate@Base 5.0.2
 WKBooleanGetTypeID@Base 5.0.2
 WKBooleanGetValue@Base 5.0.2
 WKBundleActivateMacFontAscentHack@Base 5.0.2
 WKBundleAddOriginAccessWhitelistEntry@Base 5.0.2
 WKBundleAddUserScript@Base 5.0.2
 WKBundleAddUserStyleSheet@Base 5.0.2
 WKBundleBackForwardListClear@Base 5.0.2
 WKBundleBackForwardListCopyItemAtIndex@Base 5.0.2
 WKBundleBackForwardListGetBackListCount@Base 5.0.2
 WKBundleBackForwardListGetForwardListCount@Base 5.0.2
 WKBundleBackForwardListGetTypeID@Base 5.0.2
 WKBundleBackForwardListItemCopyChildren@Base 5.0.2
 WKBundleBackForwardListItemCopyOriginalURL@Base 5.0.2
 WKBundleBackForwardListItemCopyTarget@Base 5.0.2
 WKBundleBackForwardListItemCopyTitle@Base 5.0.2
 WKBundleBackForwardListItemCopyURL@Base 5.0.2
 WKBundleBackForwardListItemGetTypeID@Base 5.0.2
 WKBundleBackForwardListItemHasCachedPageExpired@Base 5.2.0
 WKBundleBackForwardListItemIsInPageCache@Base 5.0.2
 WKBundleBackForwardListItemIsSame@Base 5.0.2
 WKBundleBackForwardListItemIsTargetItem@Base 5.0.2
 WKBundleClearAllDatabases@Base 5.0.2
 WKBundleClearApplicationCache@Base 5.0.2
 WKBundleClearApplicationCacheForOrigin@Base 5.0.2
 WKBundleCopyOriginsWithApplicationCache@Base 5.0.2
 WKBundleCreateWKDataFromUInt8Array@Base 5.2.0
 WKBundleDOMWindowExtensionCreate@Base 5.0.2
 WKBundleDOMWindowExtensionGetFrame@Base 5.0.2
 WKBundleDOMWindowExtensionGetScriptWorld@Base 5.0.2
 WKBundleDOMWindowExtensionGetTypeID@Base 5.0.2
 WKBundleDispatchPendingLoadRequests@Base 5.0.2
 WKBundleFrameAllowsFollowingLink@Base 5.0.2
 WKBundleFrameCallShouldCloseOnWebView@Base 5.0.2
 WKBundleFrameClearOpener@Base 5.0.2
 WKBundleFrameContainsAnyFormControls@Base 5.2.0
 WKBundleFrameContainsAnyFormElements@Base 5.0.2
 WKBundleFrameCopyChildFrames@Base 5.0.2
 WKBundleFrameCopyCounterValue@Base 5.0.2
 WKBundleFrameCopyInnerText@Base 5.0.2
 WKBundleFrameCopyLayerTreeAsText@Base 5.0.2
 WKBundleFrameCopyMIMETypeForResourceWithURL@Base 5.0.2
 WKBundleFrameCopyName@Base 5.0.2
 WKBundleFrameCopyProvisionalURL@Base 5.0.2
 WKBundleFrameCopySecurityOrigin@Base 5.0.2
 WKBundleFrameCopySuggestedFilenameForResourceWithURL@Base 5.0.2
 WKBundleFrameCopyURL@Base 5.0.2
 WKBundleFrameCopyWebArchive@Base 5.0.2
 WKBundleFrameCopyWebArchiveFilteringSubframes@Base 5.0.2
 WKBundleFrameCreateHitTestResult@Base 5.0.2
 WKBundleFrameForJavaScriptContext@Base 5.0.2
 WKBundleFrameGetContentBounds@Base 5.0.2
 WKBundleFrameGetDocumentBackgroundColor@Base 5.0.2
 WKBundleFrameGetFrameLoadState@Base 5.0.2
 WKBundleFrameGetJavaScriptContext@Base 5.0.2
 WKBundleFrameGetJavaScriptContextForWorld@Base 5.0.2
 WKBundleFrameGetJavaScriptWrapperForNodeForWorld@Base 5.0.2
 WKBundleFrameGetJavaScriptWrapperForRangeForWorld@Base 5.0.2
 WKBundleFrameGetPage@Base 5.0.2
 WKBundleFrameGetParentFrame@Base 5.0.2
 WKBundleFrameGetPendingUnloadCount@Base 5.0.2
 WKBundleFrameGetScrollOffset@Base 5.0.2
 WKBundleFrameGetTypeID@Base 5.0.2
 WKBundleFrameGetVisibleContentBounds@Base 5.0.2
 WKBundleFrameGetVisibleContentBoundsExcludingScrollbars@Base 5.0.2
 WKBundleFrameHandlesPageScaleGesture@Base 5.0.2
 WKBundleFrameHasHorizontalScrollbar@Base 5.0.2
 WKBundleFrameHasVerticalScrollbar@Base 5.0.2
 WKBundleFrameIsMainFrame@Base 5.0.2
 WKBundleFrameSetTextDirection@Base 5.0.2
 WKBundleFrameStopLoading@Base 5.0.2
 WKBundleGarbageCollectJavaScriptObjects@Base 5.0.2
 WKBundleGarbageCollectJavaScriptObjectsOnAlternateThreadForDebugging@Base 5.0.2
 WKBundleGetAppCacheUsageForOrigin@Base 5.0.2
 WKBundleGetApplicationConnection@Base 5.0.2
 WKBundleGetJavaScriptObjectsCount@Base 5.0.2
 WKBundleGetTypeID@Base 5.0.2
 WKBundleGetWebNotificationID@Base 5.0.2
 WKBundleHitTestResultCopyAbsoluteImageURL@Base 5.0.2
 WKBundleHitTestResultCopyAbsoluteLinkURL@Base 5.0.2
 WKBundleHitTestResultCopyAbsoluteMediaURL@Base 5.0.2
 WKBundleHitTestResultCopyAbsolutePDFURL@Base 5.0.2
 WKBundleHitTestResultCopyLinkLabel@Base 5.0.2
 WKBundleHitTestResultCopyLinkTitle@Base 5.0.2
 WKBundleHitTestResultCopyNodeHandle@Base 5.0.2
 WKBundleHitTestResultGetFrame@Base 5.0.2
 WKBundleHitTestResultGetImageRect@Base 5.0.2
 WKBundleHitTestResultGetIsSelected@Base 5.0.2
 WKBundleHitTestResultGetMediaType@Base 5.2.0
 WKBundleHitTestResultGetTargetFrame@Base 5.0.2
 WKBundleHitTestResultGetTypeID@Base 5.0.2
 WKBundleHitTestResultMediaHasAudio@Base 5.2.0
 WKBundleHitTestResultMediaIsInFullscreen@Base 5.2.0
 WKBundleInspectorClose@Base 5.0.2
 WKBundleInspectorEvaluateScriptForTest@Base 5.0.2
 WKBundleInspectorGetTypeID@Base 5.0.2
 WKBundleInspectorSetPageProfilingEnabled@Base 5.0.2
 WKBundleInspectorShow@Base 5.0.2
 WKBundleIsPageBoxVisible@Base 5.0.2
 WKBundleIsProcessingUserGesture@Base 5.0.2
 WKBundleNavigationActionCopyFormElement@Base 5.0.2
 WKBundleNavigationActionCopyHitTestResult@Base 5.0.2
 WKBundleNavigationActionGetEventModifiers@Base 5.0.2
 WKBundleNavigationActionGetEventMouseButton@Base 5.0.2
 WKBundleNavigationActionGetNavigationType@Base 5.0.2
 WKBundleNavigationActionGetTypeID@Base 5.0.2
 WKBundleNodeHandleCopyDocument@Base 5.0.2
 WKBundleNodeHandleCopyDocumentFrame@Base 5.0.2
 WKBundleNodeHandleCopyHTMLFrameElementContentFrame@Base 5.0.2
 WKBundleNodeHandleCopyHTMLIFrameElementContentFrame@Base 5.0.2
 WKBundleNodeHandleCopyHTMLTableCellElementCellAbove@Base 5.0.2
 WKBundleNodeHandleCopySnapshotWithOptions@Base 5.2.0
 WKBundleNodeHandleCreate@Base 5.0.2
 WKBundleNodeHandleGetElementBounds@Base 5.0.2
 WKBundleNodeHandleGetHTMLInputElementAutofilled@Base 5.0.2
 WKBundleNodeHandleGetHTMLInputElementLastChangeWasUserEdit@Base 5.0.2
 WKBundleNodeHandleGetHTMLTextAreaElementLastChangeWasUserEdit@Base 5.0.2
 WKBundleNodeHandleGetRenderRect@Base 5.0.2
 WKBundleNodeHandleGetTypeID@Base 5.0.2
 WKBundleNodeHandleSetHTMLInputElementAutofilled@Base 5.0.2
 WKBundleNodeHandleSetHTMLInputElementValueForUser@Base 5.0.2
 WKBundleNumberOfPages@Base 5.0.2
 WKBundleOverrideBoolPreferenceForTestRunner@Base 5.0.2
 WKBundlePageCanHandleRequest@Base 5.0.2
 WKBundlePageCanShowMIMEType@Base 5.0.2
 WKBundlePageClearMainFrameName@Base 5.0.2
 WKBundlePageClose@Base 5.0.2
 WKBundlePageConfirmComposition@Base 5.0.2
 WKBundlePageConfirmCompositionWithText@Base 5.0.2
 WKBundlePageCopyContextMenuAtPointInWindow@Base 5.2.0
 WKBundlePageCopyContextMenuItemTitles@Base 5.0.2
 WKBundlePageCopyRenderLayerTree@Base 5.0.2
 WKBundlePageCopyRenderTree@Base 5.0.2
 WKBundlePageCopyRenderTreeExternalRepresentation@Base 5.0.2
 WKBundlePageCopyRenderTreeExternalRepresentationForPrinting@Base 5.2.0
 WKBundlePageCopyTrackedRepaintRects@Base 5.0.2
 WKBundlePageCreateScaledSnapshotInDocumentCoordinates@Base 5.0.2
 WKBundlePageCreateSnapshotInDocumentCoordinates@Base 5.0.2
 WKBundlePageCreateSnapshotInViewCoordinates@Base 5.0.2
 WKBundlePageCreateSnapshotWithOptions@Base 5.0.2
 WKBundlePageDidEnterFullScreen@Base 5.0.2
 WKBundlePageDidExitFullScreen@Base 5.0.2
 WKBundlePageExecuteEditingCommand@Base 5.0.2
 WKBundlePageExtendIncrementalRenderingSuppression@Base 5.2.0
 WKBundlePageFindString@Base 5.0.2
 WKBundlePageForceRepaint@Base 5.0.2
 WKBundlePageGetBackForwardList@Base 5.0.2
 WKBundlePageGetBackingScaleFactor@Base 5.0.2
 WKBundlePageGetInspector@Base 5.0.2
 WKBundlePageGetMainFrame@Base 5.0.2
 WKBundlePageGetPageGroup@Base 5.0.2
 WKBundlePageGetPageZoomFactor@Base 5.0.2
 WKBundlePageGetRenderTreeSize@Base 5.0.2
 WKBundlePageGetTextZoomFactor@Base 5.0.2
 WKBundlePageGetTypeID@Base 5.0.2
 WKBundlePageGroupCopyIdentifier@Base 5.0.2
 WKBundlePageGroupGetTypeID@Base 5.0.2
 WKBundlePageHasComposition@Base 5.0.2
 WKBundlePageHasLocalDataForURL@Base 5.0.2
 WKBundlePageInstallPageOverlay@Base 5.0.2
 WKBundlePageInstallPageOverlayWithAnimation@Base 5.2.0
 WKBundlePageIsEditingCommandEnabled@Base 5.0.2
 WKBundlePageIsTrackingRepaints@Base 5.0.2
 WKBundlePageListenForLayoutMilestones@Base 5.0.2
 WKBundlePageNumberForElementById@Base 5.0.2
 WKBundlePageOverlayCreate@Base 5.0.2
 WKBundlePageOverlayFractionFadedIn@Base 5.0.2
 WKBundlePageOverlayGetTypeID@Base 5.0.2
 WKBundlePageOverlaySetNeedsDisplay@Base 5.0.2
 WKBundlePageResetTrackedRepaints@Base 5.0.2
 WKBundlePageSetBottomOverhangImage@Base 5.2.0
 WKBundlePageSetComposition@Base 5.0.2
 WKBundlePageSetContextMenuClient@Base 5.0.2
 WKBundlePageSetDefersLoading@Base 5.0.2
 WKBundlePageSetDiagnosticLoggingClient@Base 5.0.2
 WKBundlePageSetEditorClient@Base 5.0.2
 WKBundlePageSetFooterBanner@Base 5.2.0
 WKBundlePageSetFormClient@Base 5.0.2
 WKBundlePageSetFullScreenClient@Base 5.0.2
 WKBundlePageSetHeaderBanner@Base 5.2.0
 WKBundlePageSetPageLoaderClient@Base 5.0.2
 WKBundlePageSetPageZoomFactor@Base 5.0.2
 WKBundlePageSetPaintedObjectsCounterThreshold@Base 5.0.2
 WKBundlePageSetPolicyClient@Base 5.0.2
 WKBundlePageSetResourceLoadClient@Base 5.0.2
 WKBundlePageSetScaleAtOrigin@Base 5.0.2
 WKBundlePageSetTextZoomFactor@Base 5.0.2
 WKBundlePageSetTopOverhangImage@Base 5.2.0
 WKBundlePageSetTracksRepaints@Base 5.0.2
 WKBundlePageSetUIClient@Base 5.0.2
 WKBundlePageSetUnderlayPage@Base 5.0.2
 WKBundlePageSimulateMouseDown@Base 5.0.2
 WKBundlePageSimulateMouseMotion@Base 5.0.2
 WKBundlePageSimulateMouseUp@Base 5.0.2
 WKBundlePageSizeAndMarginsInPixels@Base 5.0.2
 WKBundlePageStopExtendingIncrementalRenderingSuppression@Base 5.2.0
 WKBundlePageStopLoading@Base 5.0.2
 WKBundlePageUninstallPageOverlay@Base 5.0.2
 WKBundlePageUninstallPageOverlayWithAnimation@Base 5.2.0
 WKBundlePageWillEnterFullScreen@Base 5.0.2
 WKBundlePageWillExitFullScreen@Base 5.0.2
 WKBundlePostMessage@Base 5.0.2
 WKBundlePostSynchronousMessage@Base 5.0.2
 WKBundleRemoveAllUserContent@Base 5.0.2
 WKBundleRemoveAllVisitedLinks@Base 5.0.2
 WKBundleRemoveAllWebNotificationPermissions@Base 5.0.2
 WKBundleRemoveOriginAccessWhitelistEntry@Base 5.0.2
 WKBundleRemoveUserScript@Base 5.0.2
 WKBundleRemoveUserScripts@Base 5.0.2
 WKBundleRemoveUserStyleSheet@Base 5.0.2
 WKBundleRemoveUserStyleSheets@Base 5.0.2
 WKBundleReportException@Base 5.0.2
 WKBundleResetApplicationCacheOriginQuota@Base 5.0.2
 WKBundleResetOriginAccessWhitelists@Base 5.0.2
 WKBundleScriptWorldClearWrappers@Base 5.0.2
 WKBundleScriptWorldCreateWorld@Base 5.0.2
 WKBundleScriptWorldGetTypeID@Base 5.0.2
 WKBundleScriptWorldNormalWorld@Base 5.0.2
 WKBundleSetAllowFileAccessFromFileURLs@Base 5.0.2
 WKBundleSetAllowUniversalAccessFromFileURLs@Base 5.0.2
 WKBundleSetAlwaysAcceptCookies@Base 5.0.2
 WKBundleSetAppCacheMaximumSize@Base 5.0.2
 WKBundleSetApplicationCacheOriginQuota@Base 5.0.2
 WKBundleSetAsynchronousSpellCheckingEnabled@Base 5.2.0
 WKBundleSetAuthorAndUserStylesEnabled@Base 5.0.2
 WKBundleSetCacheModel@Base 5.0.2
 WKBundleSetClient@Base 5.0.2
 WKBundleSetDatabaseQuota@Base 5.0.2
 WKBundleSetFrameFlatteningEnabled@Base 5.0.2
 WKBundleSetJavaScriptCanAccessClipboard@Base 5.0.2
 WKBundleSetMinimumLogicalFontSize@Base 5.0.2
 WKBundleSetPluginsEnabled@Base 5.0.2
 WKBundleSetPopupBlockingEnabled@Base 5.0.2
 WKBundleSetPrivateBrowsingEnabled@Base 5.0.2
 WKBundleSetSeamlessIFramesEnabled@Base 5.2.0
 WKBundleSetSerialLoadingEnabled@Base 5.0.2
 WKBundleSetShadowDOMEnabled@Base 5.0.2
 WKBundleSetShouldTrackVisitedLinks@Base 5.0.2
 WKBundleSetSpatialNavigationEnabled@Base 5.0.2
 WKBundleSetTabKeyCyclesThroughElements@Base 5.0.2
 WKBundleSetUserStyleSheetLocation@Base 5.0.2
 WKBundleSetWebNotificationPermission@Base 5.0.2
 WKBundleSwitchNetworkLoaderToNewTestingSession@Base 5.0.2
 WKCertificateInfoGetTypeID@Base 5.0.2
 WKColorPickerResultListenerGetTypeID@Base 5.0.2
 WKColorPickerResultListenerSetColor@Base 5.0.2
 WKConnectionGetTypeID@Base 5.0.2
 WKConnectionPostMessage@Base 5.0.2
 WKConnectionSetConnectionClient@Base 5.0.2
 WKContextAddVisitedLink@Base 5.0.2
 WKContextAllowSpecificHTTPSCertificateForHost@Base 5.2.0
 WKContextCopyPlugInAutoStartOriginHashes@Base 5.2.0
 WKContextCreate@Base 5.0.2
 WKContextCreateWithInjectedBundlePath@Base 5.0.2
 WKContextDisableProcessTermination@Base 5.0.2
 WKContextDownloadURLRequest@Base 5.0.2
 WKContextEnableProcessTermination@Base 5.0.2
 WKContextGarbageCollectJavaScriptObjects@Base 5.0.2
 WKContextGetApplicationCacheManager@Base 5.0.2
 WKContextGetBatteryManager@Base 5.0.2
 WKContextGetCacheModel@Base 5.0.2
 WKContextGetCookieManager@Base 5.0.2
 WKContextGetDatabaseManager@Base 5.0.2
 WKContextGetGeolocationManager@Base 5.0.2
 WKContextGetGlobalStatistics@Base 5.0.2
 WKContextGetIconDatabase@Base 5.0.2
 WKContextGetKeyValueStorageManager@Base 5.0.2
 WKContextGetMaximumNumberOfProcesses@Base 5.2.0
 WKContextGetMediaCacheManager@Base 5.0.2
 WKContextGetNetworkInfoManager@Base 5.0.2
 WKContextGetNotificationManager@Base 5.0.2
 WKContextGetPluginSiteDataManager@Base 5.0.2
 WKContextGetProcessModel@Base 5.0.2
 WKContextGetResourceCacheManager@Base 5.0.2
 WKContextGetStatistics@Base 5.0.2
 WKContextGetStatisticsWithOptions@Base 5.2.0
 WKContextGetTypeID@Base 5.0.2
 WKContextMenuCopySubmenuItems@Base 5.0.2
 WKContextMenuItemCopyTitle@Base 5.0.2
 WKContextMenuItemCreateAsAction@Base 5.0.2
 WKContextMenuItemCreateAsCheckableAction@Base 5.0.2
 WKContextMenuItemCreateAsSubmenu@Base 5.0.2
 WKContextMenuItemGetChecked@Base 5.0.2
 WKContextMenuItemGetEnabled@Base 5.0.2
 WKContextMenuItemGetTag@Base 5.0.2
 WKContextMenuItemGetType@Base 5.0.2
 WKContextMenuItemGetTypeID@Base 5.0.2
 WKContextMenuItemGetUserData@Base 5.0.2
 WKContextMenuItemSeparatorItem@Base 5.0.2
 WKContextMenuItemSetUserData@Base 5.0.2
 WKContextPostMessageToInjectedBundle@Base 5.0.2
 WKContextRegisterURLSchemeAsEmptyDocument@Base 5.0.2
 WKContextRegisterURLSchemeAsSecure@Base 5.0.2
 WKContextSetAdditionalPluginsDirectory@Base 5.0.2
 WKContextSetAlwaysUsesComplexTextCodePath@Base 5.0.2
 WKContextSetApplicationCacheDirectory@Base 5.2.0
 WKContextSetCacheModel@Base 5.0.2
 WKContextSetClient@Base 5.2.0
 WKContextSetConnectionClient@Base 5.0.2
 WKContextSetCookieStorageDirectory@Base 5.0.2
 WKContextSetDatabaseDirectory@Base 5.0.2
 WKContextSetDiskCacheDirectory@Base 5.0.2
 WKContextSetDomainRelaxationForbiddenForURLScheme@Base 5.0.2
 WKContextSetDownloadClient@Base 5.0.2
 WKContextSetHTTPPipeliningEnabled@Base 5.0.2
 WKContextSetHistoryClient@Base 5.0.2
 WKContextSetIconDatabasePath@Base 5.0.2
 WKContextSetInitializationUserDataForInjectedBundle@Base 5.0.2
 WKContextSetInjectedBundleClient@Base 5.0.2
 WKContextSetInvalidMessageFunction@Base 5.2.0
 WKContextSetJavaScriptGarbageCollectorTimerEnabled@Base 5.0.2
 WKContextSetLocalStorageDirectory@Base 5.0.2
 WKContextSetMaximumNumberOfProcesses@Base 5.2.0
 WKContextSetPlugInAutoStartOriginHashes@Base 5.2.0
 WKContextSetPlugInAutoStartOrigins@Base 5.2.0
 WKContextSetProcessModel@Base 5.0.2
 WKContextSetShouldUseFontSmoothing@Base 5.0.2
 WKContextSetUsesNetworkProcess@Base 5.0.2
 WKContextStartMemorySampler@Base 5.0.2
 WKContextStopMemorySampler@Base 5.0.2
 WKContextWarmInitialProcess@Base 5.0.2
 WKCredentialCopyUser@Base 5.0.2
 WKCredentialCreate@Base 5.0.2
 WKCredentialCreateWithCertificateInfo@Base 5.0.2
 WKCredentialGetTypeID@Base 5.0.2
 WKDataCreate@Base 5.2.0
 WKDataGetBytes@Base 5.2.0
 WKDataGetSize@Base 5.2.0
 WKDataGetTypeID@Base 5.2.0
 WKDatabaseManagerDeleteAllDatabases@Base 5.0.2
 WKDatabaseManagerDeleteDatabasesForOrigin@Base 5.0.2
 WKDatabaseManagerDeleteDatabasesWithNameForOrigin@Base 5.0.2
 WKDatabaseManagerGetDatabaseDetailsCurrentUsageKey@Base 5.0.2
 WKDatabaseManagerGetDatabaseDetailsDisplayNameKey@Base 5.0.2
 WKDatabaseManagerGetDatabaseDetailsExpectedUsageKey@Base 5.0.2
 WKDatabaseManagerGetDatabaseDetailsKey@Base 5.0.2
 WKDatabaseManagerGetDatabaseDetailsNameKey@Base 5.0.2
 WKDatabaseManagerGetDatabaseOrigins@Base 5.0.2
 WKDatabaseManagerGetDatabasesByOrigin@Base 5.0.2
 WKDatabaseManagerGetOriginKey@Base 5.0.2
 WKDatabaseManagerGetOriginQuotaKey@Base 5.0.2
 WKDatabaseManagerGetOriginUsageKey@Base 5.0.2
 WKDatabaseManagerGetTypeID@Base 5.0.2
 WKDatabaseManagerSetClient@Base 5.0.2
 WKDatabaseManagerSetQuotaForOrigin@Base 5.0.2
 WKDictionaryAddItem@Base 5.0.2
 WKDictionaryCopyKeys@Base 5.0.2
 WKDictionaryGetItemForKey@Base 5.0.2
 WKDictionaryGetSize@Base 5.0.2
 WKDictionaryGetTypeID@Base 5.0.2
 WKDictionaryIsMutable@Base 5.0.2
 WKDictionaryRemoveItem@Base 5.0.2
 WKDictionarySetItem@Base 5.0.2
 WKDoubleCreate@Base 5.0.2
 WKDoubleGetTypeID@Base 5.0.2
 WKDoubleGetValue@Base 5.0.2
 WKDownloadCancel@Base 5.0.2
 WKDownloadCopyRequest@Base 5.0.2
 WKDownloadGetID@Base 5.2.0
 WKDownloadGetResumeData@Base 5.0.2
 WKDownloadGetTypeID@Base 5.0.2
 WKErrorCopyDomain@Base 5.0.2
 WKErrorCopyFailingURL@Base 5.0.2
 WKErrorCopyLocalizedDescription@Base 5.0.2
 WKErrorCopyWKErrorDomain@Base 5.0.2
 WKErrorGetErrorCode@Base 5.0.2
 WKErrorGetTypeID@Base 5.0.2
 WKFrameCanProvideSource@Base 5.0.2
 WKFrameCanShowMIMEType@Base 5.0.2
 WKFrameCopyChildFrames@Base 5.0.2
 WKFrameCopyMIMEType@Base 5.0.2
 WKFrameCopyProvisionalURL@Base 5.0.2
 WKFrameCopyTitle@Base 5.0.2
 WKFrameCopyURL@Base 5.0.2
 WKFrameCopyUnreachableURL@Base 5.0.2
 WKFrameGetCertificateInfo@Base 5.0.2
 WKFrameGetFrameLoadState@Base 5.0.2
 WKFrameGetMainResourceData@Base 5.0.2
 WKFrameGetPage@Base 5.0.2
 WKFrameGetParentFrame@Base 5.0.2
 WKFrameGetResourceData@Base 5.0.2
 WKFrameGetTypeID@Base 5.0.2
 WKFrameGetWebArchive@Base 5.0.2
 WKFrameIsDisplayingMarkupDocument@Base 5.0.2
 WKFrameIsDisplayingStandaloneImageDocument@Base 5.0.2
 WKFrameIsFrameSet@Base 5.0.2
 WKFrameIsMainFrame@Base 5.0.2
 WKFramePolicyListenerDownload@Base 5.0.2
 WKFramePolicyListenerGetTypeID@Base 5.0.2
 WKFramePolicyListenerIgnore@Base 5.0.2
 WKFramePolicyListenerUse@Base 5.0.2
 WKFrameStopLoading@Base 5.0.2
 WKGeolocationManagerGetTypeID@Base 5.0.2
 WKGeolocationManagerProviderDidChangePosition@Base 5.0.2
 WKGeolocationManagerProviderDidFailToDeterminePosition@Base 5.0.2
 WKGeolocationManagerProviderDidFailToDeterminePositionWithErrorMessage@Base 5.0.2
 WKGeolocationManagerSetProvider@Base 5.0.2
 WKGeolocationPermissionRequestAllow@Base 5.0.2
 WKGeolocationPermissionRequestDeny@Base 5.0.2
 WKGeolocationPermissionRequestGetTypeID@Base 5.0.2
 WKGeolocationPositionCreate@Base 5.0.2
 WKGeolocationPositionCreate_b@Base 5.0.2
 WKGeolocationPositionGetTypeID@Base 5.0.2
 WKGetTypeID@Base 5.0.2
 WKGrammarDetailCopyGuesses@Base 5.0.2
 WKGrammarDetailCopyUserDescription@Base 5.0.2
 WKGrammarDetailCreate@Base 5.0.2
 WKGrammarDetailGetLength@Base 5.0.2
 WKGrammarDetailGetLocation@Base 5.0.2
 WKGrammarDetailGetTypeID@Base 5.0.2
 WKGraphicsContextGetTypeID@Base 5.0.2
 WKHitTestResultCopyAbsoluteImageURL@Base 5.0.2
 WKHitTestResultCopyAbsoluteLinkURL@Base 5.0.2
 WKHitTestResultCopyAbsoluteMediaURL@Base 5.0.2
 WKHitTestResultCopyAbsolutePDFURL@Base 5.0.2
 WKHitTestResultCopyLinkLabel@Base 5.0.2
 WKHitTestResultCopyLinkTitle@Base 5.0.2
 WKHitTestResultGetTypeID@Base 5.0.2
 WKHitTestResultIsContentEditable@Base 5.0.2
 WKIconDatabaseCheckIntegrityBeforeOpening@Base 5.0.2
 WKIconDatabaseClose@Base 5.0.2
 WKIconDatabaseEnableDatabaseCleanup@Base 5.0.2
 WKIconDatabaseGetTypeID@Base 5.0.2
 WKIconDatabaseReleaseIconForURL@Base 5.0.2
 WKIconDatabaseRemoveAllIcons@Base 5.0.2
 WKIconDatabaseRetainIconForURL@Base 5.0.2
 WKIconDatabaseSetIconDatabaseClient@Base 5.0.2
 WKImageCreate@Base 5.0.2
 WKImageGetSize@Base 5.0.2
 WKImageGetTypeID@Base 5.0.2
 WKInspectorAttach@Base 5.0.2
 WKInspectorClose@Base 5.0.2
 WKInspectorConnect@Base 5.2.0
 WKInspectorDetach@Base 5.0.2
 WKInspectorGetPage@Base 5.0.2
 WKInspectorGetTypeID@Base 5.0.2
 WKInspectorHide@Base 5.2.0
 WKInspectorIsAttached@Base 5.0.2
 WKInspectorIsConnected@Base 5.2.0
 WKInspectorIsDebuggingJavaScript@Base 5.0.2
 WKInspectorIsFront@Base 5.0.2
 WKInspectorIsProfilingJavaScript@Base 5.0.2
 WKInspectorIsProfilingPage@Base 5.0.2
 WKInspectorIsVisible@Base 5.0.2
 WKInspectorShow@Base 5.0.2
 WKInspectorShowConsole@Base 5.0.2
 WKInspectorShowMainResourceForFrame@Base 5.0.2
 WKInspectorShowResources@Base 5.0.2
 WKInspectorToggleJavaScriptDebugging@Base 5.0.2
 WKInspectorToggleJavaScriptProfiling@Base 5.0.2
 WKInspectorTogglePageProfiling@Base 5.0.2
 WKMutableArrayCreate@Base 5.0.2
 WKMutableDictionaryCreate@Base 5.0.2
 WKNavigationDataCopyNavigationDestinationURL@Base 5.2.0
 WKNavigationDataCopyOriginalRequest@Base 5.0.2
 WKNavigationDataCopyTitle@Base 5.0.2
 WKNavigationDataCopyURL@Base 5.0.2
 WKNavigationDataGetTypeID@Base 5.0.2
 WKNetworkInfoCreate@Base 5.0.2
 WKNetworkInfoGetTypeID@Base 5.0.2
 WKNetworkInfoManagerGetTypeID@Base 5.0.2
 WKNetworkInfoManagerProviderDidChangeNetworkInformation@Base 5.0.2
 WKNetworkInfoManagerSetProvider@Base 5.0.2
 WKNotificationCopyBody@Base 5.0.2
 WKNotificationCopyDir@Base 5.0.2
 WKNotificationCopyIconURL@Base 5.0.2
 WKNotificationCopyLang@Base 5.0.2
 WKNotificationCopyTag@Base 5.0.2
 WKNotificationCopyTitle@Base 5.0.2
 WKNotificationGetID@Base 5.0.2
 WKNotificationGetSecurityOrigin@Base 5.0.2
 WKNotificationGetTypeID@Base 5.0.2
 WKNotificationManagerGetTypeID@Base 5.0.2
 WKNotificationManagerProviderDidClickNotification@Base 5.0.2
 WKNotificationManagerProviderDidCloseNotifications@Base 5.0.2
 WKNotificationManagerProviderDidRemoveNotificationPolicies@Base 5.0.2
 WKNotificationManagerProviderDidShowNotification@Base 5.0.2
 WKNotificationManagerProviderDidUpdateNotificationPolicy@Base 5.0.2
 WKNotificationManagerSetProvider@Base 5.0.2
 WKNotificationPermissionRequestAllow@Base 5.0.2
 WKNotificationPermissionRequestDeny@Base 5.0.2
 WKNotificationPermissionRequestGetTypeID@Base 5.0.2
 WKOpenPanelParametersCopyAcceptedMIMETypes@Base 5.0.2
 WKOpenPanelParametersCopyCapture@Base 5.0.2
 WKOpenPanelParametersCopySelectedFileNames@Base 5.2.0
 WKOpenPanelParametersGetAllowsMultipleFiles@Base 5.0.2
 WKOpenPanelParametersGetTypeID@Base 5.0.2
 WKOpenPanelResultListenerCancel@Base 5.0.2
 WKOpenPanelResultListenerChooseFiles@Base 5.0.2
 WKOpenPanelResultListenerGetTypeID@Base 5.0.2
 WKPageAreScrollbarAnimationsSuppressed@Base 5.0.2
 WKPageCanDelete@Base 5.0.2
 WKPageCanGoBack@Base 5.0.2
 WKPageCanGoForward@Base 5.0.2
 WKPageCenterSelectionInVisibleArea@Base 5.0.2
 WKPageClose@Base 5.0.2
 WKPageCopyActiveURL@Base 5.0.2
 WKPageCopyApplicationNameForUserAgent@Base 5.0.2
 WKPageCopyCommittedURL@Base 5.0.2
 WKPageCopyCustomTextEncodingName@Base 5.0.2
 WKPageCopyCustomUserAgent@Base 5.0.2
 WKPageCopyPendingAPIRequestURL@Base 5.0.2
 WKPageCopyProvisionalURL@Base 5.0.2
 WKPageCopyRelatedPages@Base 5.0.2
 WKPageCopySessionState@Base 5.0.2
 WKPageCopyStandardUserAgentWithApplicationName@Base 5.0.2
 WKPageCopyTitle@Base 5.0.2
 WKPageCopyUserAgent@Base 5.0.2
 WKPageCountStringMatches@Base 5.0.2
 WKPageCreateSnapshotOfVisibleContent@Base 5.0.2
 WKPageExecuteCommand@Base 5.0.2
 WKPageFindString@Base 5.0.2
 WKPageFindStringMatches@Base 5.2.0
 WKPageFixedLayoutSize@Base 5.0.2
 WKPageForceRepaint@Base 5.0.2
 WKPageGetBackForwardList@Base 5.0.2
 WKPageGetBackingScaleFactor@Base 5.0.2
 WKPageGetContentsAsMHTMLData@Base 5.0.2
 WKPageGetContentsAsString@Base 5.0.2
 WKPageGetContext@Base 5.0.2
 WKPageGetDebugPaintFlags@Base 5.0.2
 WKPageGetEstimatedProgress@Base 5.0.2
 WKPageGetFocusedFrame@Base 5.0.2
 WKPageGetFrameSetLargestFrame@Base 5.0.2
 WKPageGetGapBetweenPages@Base 5.0.2
 WKPageGetImageForFindMatch@Base 5.2.0
 WKPageGetInspector@Base 5.0.2
 WKPageGetMainFrame@Base 5.0.2
 WKPageGetPageCount@Base 5.0.2
 WKPageGetPageGroup@Base 5.0.2
 WKPageGetPageLength@Base 5.0.2
 WKPageGetPageZoomFactor@Base 5.0.2
 WKPageGetPaginationBehavesLikeColumns@Base 5.0.2
 WKPageGetPaginationMode@Base 5.0.2
 WKPageGetPluginInformationBundleIdentifierKey@Base 5.2.0
 WKPageGetPluginInformationBundleVersionKey@Base 5.2.0
 WKPageGetPluginInformationDisplayNameKey@Base 5.2.0
 WKPageGetPluginInformationFrameURLKey@Base 5.2.0
 WKPageGetPluginInformationMIMETypeKey@Base 5.2.0
 WKPageGetPluginInformationPageURLKey@Base 5.2.0
 WKPageGetPluginInformationPluginURLKey@Base 5.2.0
 WKPageGetPluginInformationPluginspageAttributeURLKey@Base 5.2.0
 WKPageGetRenderTreeSize@Base 5.0.2
 WKPageGetScaleFactor@Base 5.0.2
 WKPageGetScrollPinningBehavior@Base 5.2.0
 WKPageGetSelectionAsWebArchiveData@Base 5.2.0
 WKPageGetSessionBackForwardListItemValueType@Base 5.2.0
 WKPageGetSessionHistoryURLValueType@Base 5.0.2
 WKPageGetSourceForFrame@Base 5.0.2
 WKPageGetTextZoomFactor@Base 5.0.2
 WKPageGetTypeID@Base 5.0.2
 WKPageGetVibration@Base 5.0.2
 WKPageGoBack@Base 5.0.2
 WKPageGoForward@Base 5.0.2
 WKPageGoToBackForwardListItem@Base 5.0.2
 WKPageGroupAddUserScript@Base 5.0.2
 WKPageGroupAddUserStyleSheet@Base 5.0.2
 WKPageGroupCopyIdentifier@Base 5.0.2
 WKPageGroupCreateWithIdentifier@Base 5.0.2
 WKPageGroupGetPreferences@Base 5.0.2
 WKPageGroupGetTypeID@Base 5.0.2
 WKPageGroupRemoveAllUserScripts@Base 5.0.2
 WKPageGroupRemoveAllUserStyleSheets@Base 5.0.2
 WKPageGroupSetPreferences@Base 5.0.2
 WKPageHasHorizontalScrollbar@Base 5.0.2
 WKPageHasSelectedRange@Base 5.0.2
 WKPageHasVerticalScrollbar@Base 5.0.2
 WKPageHideFindUI@Base 5.0.2
 WKPageIsClosed@Base 5.0.2
 WKPageIsContentEditable@Base 5.0.2
 WKPageIsPinnedToBottomSide@Base 5.0.2
 WKPageIsPinnedToLeftSide@Base 5.0.2
 WKPageIsPinnedToRightSide@Base 5.0.2
 WKPageIsPinnedToTopSide@Base 5.0.2
 WKPageListenForLayoutMilestones@Base 5.0.2
 WKPageLoadAlternateHTMLString@Base 5.0.2
 WKPageLoadAlternateHTMLStringWithUserData@Base 5.2.0
 WKPageLoadData@Base 5.2.0
 WKPageLoadDataWithUserData@Base 5.2.0
 WKPageLoadFile@Base 5.2.0
 WKPageLoadFileWithUserData@Base 5.2.0
 WKPageLoadHTMLString@Base 5.0.2
 WKPageLoadHTMLStringWithUserData@Base 5.2.0
 WKPageLoadPlainTextString@Base 5.0.2
 WKPageLoadPlainTextStringWithUserData@Base 5.2.0
 WKPageLoadURL@Base 5.0.2
 WKPageLoadURLRequest@Base 5.0.2
 WKPageLoadURLRequestWithUserData@Base 5.2.0
 WKPageLoadURLWithUserData@Base 5.2.0
 WKPageLoadWebArchiveData@Base 5.0.2
 WKPageLoadWebArchiveDataWithUserData@Base 5.2.0
 WKPagePostMessageToInjectedBundle@Base 5.0.2
 WKPageReload@Base 5.0.2
 WKPageReloadFromOrigin@Base 5.0.2
 WKPageRenderTreeExternalRepresentation@Base 5.0.2
 WKPageRestoreFromSessionState@Base 5.0.2
 WKPageRubberBandsAtBottom@Base 5.2.0
 WKPageRubberBandsAtTop@Base 5.2.0
 WKPageRunJavaScriptInMainFrame@Base 5.0.2
 WKPageSelectContextMenuItem@Base 5.2.0
 WKPageSelectFindMatch@Base 5.2.0
 WKPageSetApplicationNameForUserAgent@Base 5.0.2
 WKPageSetCustomBackingScaleFactor@Base 5.0.2
 WKPageSetCustomTextEncodingName@Base 5.0.2
 WKPageSetCustomUserAgent@Base 5.0.2
 WKPageSetDebugPaintFlags@Base 5.0.2
 WKPageSetFixedLayoutSize@Base 5.0.2
 WKPageSetGapBetweenPages@Base 5.0.2
 WKPageSetInvalidMessageFunction@Base 5.2.0
 WKPageSetMaintainsInactiveSelection@Base 5.0.2
 WKPageSetMayStartMediaWhenInWindow@Base 5.0.2
 WKPageSetMediaVolume@Base 5.0.2
 WKPageSetMemoryCacheClientCallsEnabled@Base 5.0.2
 WKPageSetPageAndTextZoomFactors@Base 5.0.2
 WKPageSetPageContextMenuClient@Base 5.0.2
 WKPageSetPageFindClient@Base 5.0.2
 WKPageSetPageFindMatchesClient@Base 5.2.0
 WKPageSetPageFormClient@Base 5.0.2
 WKPageSetPageLength@Base 5.0.2
 WKPageSetPageLoaderClient@Base 5.0.2
 WKPageSetPagePolicyClient@Base 5.0.2
 WKPageSetPageUIClient@Base 5.0.2
 WKPageSetPageZoomFactor@Base 5.0.2
 WKPageSetPaginationBehavesLikeColumns@Base 5.0.2
 WKPageSetPaginationMode@Base 5.0.2
 WKPageSetRubberBandsAtBottom@Base 5.2.0
 WKPageSetRubberBandsAtTop@Base 5.2.0
 WKPageSetScaleFactor@Base 5.0.2
 WKPageSetScrollPinningBehavior@Base 5.2.0
 WKPageSetShouldSendEventsSynchronously@Base 5.0.2
 WKPageSetSuppressScrollbarAnimations@Base 5.0.2
 WKPageSetTextZoomFactor@Base 5.0.2
 WKPageSetUseFixedLayout@Base 5.0.2
 WKPageSetVisibilityState@Base 5.2.0
 WKPageStopLoading@Base 5.0.2
 WKPageSupportsTextEncoding@Base 5.0.2
 WKPageSupportsTextZoom@Base 5.0.2
 WKPageTerminate@Base 5.0.2
 WKPageTryClose@Base 5.0.2
 WKPageTryRestoreScrollPosition@Base 5.0.2
 WKPageUseFixedLayout@Base 5.0.2
 WKPageValidateCommand@Base 5.0.2
 WKPageWillHandleHorizontalScrollEvents@Base 5.0.2
 WKPlugInInformationReplacementObscuredKey@Base 5.2.0
 WKPluginInformationBundleIdentifierKey@Base 5.2.0
 WKPluginInformationBundleVersionKey@Base 5.2.0
 WKPluginInformationDefaultLoadPolicyKey@Base 5.2.0
 WKPluginInformationDisplayNameKey@Base 5.2.0
 WKPluginInformationFrameURLKey@Base 5.2.0
 WKPluginInformationHasSandboxProfileKey@Base 5.2.0
 WKPluginInformationMIMETypeKey@Base 5.2.0
 WKPluginInformationPageURLKey@Base 5.2.0
 WKPluginInformationPathKey@Base 5.2.0
 WKPluginInformationPluginURLKey@Base 5.2.0
 WKPluginInformationPluginspageAttributeURLKey@Base 5.2.0
 WKPluginInformationUpdatePastLastBlockedVersionIsKnownAvailableKey@Base 5.2.0
 WKPluginSiteDataManagerClearAllSiteData@Base 5.0.2
 WKPluginSiteDataManagerClearSiteData@Base 5.0.2
 WKPluginSiteDataManagerGetSitesWithData@Base 5.0.2
 WKPluginSiteDataManagerGetTypeID@Base 5.0.2
 WKPointCreate@Base 5.0.2
 WKPointGetTypeID@Base 5.0.2
 WKPointGetValue@Base 5.0.2
 WKPreferencesCopyCursiveFontFamily@Base 5.0.2
 WKPreferencesCopyDefaultTextEncodingName@Base 5.0.2
 WKPreferencesCopyFTPDirectoryTemplatePath@Base 5.0.2
 WKPreferencesCopyFantasyFontFamily@Base 5.0.2
 WKPreferencesCopyFixedFontFamily@Base 5.0.2
 WKPreferencesCopyPictographFontFamily@Base 5.0.2
 WKPreferencesCopySansSerifFontFamily@Base 5.0.2
 WKPreferencesCopySerifFontFamily@Base 5.0.2
 WKPreferencesCopyStandardFontFamily@Base 5.0.2
 WKPreferencesCreate@Base 5.0.2
 WKPreferencesCreateCopy@Base 5.0.2
 WKPreferencesCreateWithIdentifier@Base 5.0.2
 WKPreferencesGetAVFoundationEnabled@Base 5.0.2
 WKPreferencesGetAccelerated2DCanvasEnabled@Base 5.0.2
 WKPreferencesGetAcceleratedCompositingEnabled@Base 5.0.2
 WKPreferencesGetAcceleratedCompositingForOverflowScrollEnabled@Base 5.2.0
 WKPreferencesGetAcceleratedDrawingEnabled@Base 5.0.2
 WKPreferencesGetAggressiveTileRetentionEnabled@Base 5.2.0
 WKPreferencesGetApplicationChromeModeEnabled@Base 5.0.2
 WKPreferencesGetArtificialPluginInitializationDelayEnabled@Base 5.0.2
 WKPreferencesGetAsynchronousPluginInitializationEnabled@Base 5.0.2
 WKPreferencesGetAsynchronousPluginInitializationEnabledForAllPlugins@Base 5.0.2
 WKPreferencesGetAsynchronousSpellCheckingEnabled@Base 5.2.0
 WKPreferencesGetAuthorAndUserStylesEnabled@Base 5.0.2
 WKPreferencesGetAutostartOriginPlugInSnapshottingEnabled@Base 5.2.0
 WKPreferencesGetBackspaceKeyNavigationEnabled@Base 5.0.2
 WKPreferencesGetCSSCustomFilterEnabled@Base 5.0.2
 WKPreferencesGetCSSGridLayoutEnabled@Base 5.0.2
 WKPreferencesGetCSSRegionsEnabled@Base 5.0.2
 WKPreferencesGetCanvasUsesAcceleratedDrawing@Base 5.0.2
 WKPreferencesGetCaretBrowsingEnabled@Base 5.0.2
 WKPreferencesGetCompositingBordersVisible@Base 5.0.2
 WKPreferencesGetCompositingRepaintCountersVisible@Base 5.0.2
 WKPreferencesGetCookieEnabled@Base 5.0.2
 WKPreferencesGetDNSPrefetchingEnabled@Base 5.0.2
 WKPreferencesGetDOMPasteAllowed@Base 5.0.2
 WKPreferencesGetDatabasesEnabled@Base 5.0.2
 WKPreferencesGetDefaultFixedFontSize@Base 5.0.2
 WKPreferencesGetDefaultFontSize@Base 5.0.2
 WKPreferencesGetDeveloperExtrasEnabled@Base 5.0.2
 WKPreferencesGetDiagnosticLoggingEnabled@Base 5.0.2
 WKPreferencesGetEditableLinkBehavior@Base 5.0.2
 WKPreferencesGetEncodingDetectorEnabled@Base 5.0.2
 WKPreferencesGetFileAccessFromFileURLsAllowed@Base 5.0.2
 WKPreferencesGetFontSmoothingLevel@Base 5.0.2
 WKPreferencesGetForceFTPDirectoryListings@Base 5.0.2
 WKPreferencesGetFrameFlatteningEnabled@Base 5.0.2
 WKPreferencesGetFullScreenEnabled@Base 5.0.2
 WKPreferencesGetHiddenPageCSSAnimationSuspensionEnabled@Base 5.2.0
 WKPreferencesGetHiddenPageDOMTimerThrottlingEnabled@Base 5.2.0
 WKPreferencesGetHixie76WebSocketProtocolEnabled@Base 5.0.2
 WKPreferencesGetHyperlinkAuditingEnabled@Base 5.0.2
 WKPreferencesGetIncrementalRenderingSuppressionTimeout@Base 5.2.0
 WKPreferencesGetInspectorUsesWebKitUserInterface@Base 5.0.2
 WKPreferencesGetInteractiveFormValidationEnabled@Base 5.0.2
 WKPreferencesGetJavaEnabled@Base 5.0.2
 WKPreferencesGetJavaEnabledForLocalFiles@Base 5.0.2
 WKPreferencesGetJavaScriptCanAccessClipboard@Base 5.0.2
 WKPreferencesGetJavaScriptCanOpenWindowsAutomatically@Base 5.0.2
 WKPreferencesGetJavaScriptEnabled@Base 5.0.2
 WKPreferencesGetJavaScriptExperimentsEnabled@Base 5.0.2
 WKPreferencesGetJavaScriptMarkupEnabled@Base 5.2.0
 WKPreferencesGetLoadsImagesAutomatically@Base 5.0.2
 WKPreferencesGetLoadsSiteIconsIgnoringImageLoadingPreference@Base 5.0.2
 WKPreferencesGetLocalFileContentSniffingEnabled@Base 5.0.2
 WKPreferencesGetLocalStorageEnabled@Base 5.0.2
 WKPreferencesGetLogsPageMessagesToSystemConsoleEnabled@Base 5.2.0
 WKPreferencesGetMediaPlaybackAllowsInline@Base 5.0.2
 WKPreferencesGetMediaPlaybackRequiresUserGesture@Base 5.0.2
 WKPreferencesGetMinimumFontSize@Base 5.0.2
 WKPreferencesGetMockScrollbarsEnabled@Base 5.0.2
 WKPreferencesGetNeedsSiteSpecificQuirks@Base 5.0.2
 WKPreferencesGetNotificationsEnabled@Base 5.0.2
 WKPreferencesGetOfflineWebApplicationCacheEnabled@Base 5.0.2
 WKPreferencesGetPDFPluginEnabled@Base 5.0.2
 WKPreferencesGetPageCacheEnabled@Base 5.0.2
 WKPreferencesGetPageCacheSupportsPlugins@Base 5.0.2
 WKPreferencesGetPageVisibilityBasedProcessSuppressionEnabled@Base 5.2.0
 WKPreferencesGetPaginateDuringLayoutEnabled@Base 5.0.2
 WKPreferencesGetPlugInSnapshottingEnabled@Base 5.0.2
 WKPreferencesGetPluginsEnabled@Base 5.0.2
 WKPreferencesGetPrimaryPlugInSnapshotDetectionEnabled@Base 5.2.0
 WKPreferencesGetPrivateBrowsingEnabled@Base 5.0.2
 WKPreferencesGetQTKitEnabled@Base 5.2.0
 WKPreferencesGetRegionBasedColumnsEnabled@Base 5.0.2
 WKPreferencesGetRequestAnimationFrameEnabled@Base 5.0.2
 WKPreferencesGetScreenFontSubstitutionEnabled@Base 5.0.2
 WKPreferencesGetScrollingPerformanceLoggingEnabled@Base 5.0.2
 WKPreferencesGetSelectTrailingWhitespaceEnabled@Base 5.2.0
 WKPreferencesGetShouldDisplayCaptions@Base 5.0.2
 WKPreferencesGetShouldDisplaySubtitles@Base 5.0.2
 WKPreferencesGetShouldDisplayTextDescriptions@Base 5.0.2
 WKPreferencesGetShouldPrintBackgrounds@Base 5.0.2
 WKPreferencesGetShouldRespectImageOrientation@Base 5.0.2
 WKPreferencesGetShowsToolTipOverTruncatedText@Base 5.0.2
 WKPreferencesGetShowsURLsInToolTipsEnabled@Base 5.2.0
 WKPreferencesGetSmartInsertDeleteEnabled@Base 5.2.0
 WKPreferencesGetSnapshotAllPlugIns@Base 5.2.0
 WKPreferencesGetStorageBlockingPolicy@Base 5.0.2
 WKPreferencesGetSuppressesIncrementalRendering@Base 5.0.2
 WKPreferencesGetTabToLinksEnabled@Base 5.0.2
 WKPreferencesGetTabsToLinks@Base 5.0.2
 WKPreferencesGetTextAreasAreResizable@Base 5.0.2
 WKPreferencesGetTextAutosizingEnabled@Base 5.0.2
 WKPreferencesGetTiledScrollingIndicatorVisible@Base 5.2.0
 WKPreferencesGetTypeID@Base 5.0.2
 WKPreferencesGetUniversalAccessFromFileURLsAllowed@Base 5.0.2
 WKPreferencesGetWebArchiveDebugModeEnabled@Base 5.0.2
 WKPreferencesGetWebAudioEnabled@Base 5.0.2
 WKPreferencesGetWebGLEnabled@Base 5.0.2
 WKPreferencesGetWebSecurityEnabled@Base 5.0.2
 WKPreferencesGetXSSAuditorEnabled@Base 5.0.2
 WKPreferencesResetTestRunnerOverrides@Base 5.0.2
 WKPreferencesSetAVFoundationEnabled@Base 5.0.2
 WKPreferencesSetAccelerated2DCanvasEnabled@Base 5.0.2
 WKPreferencesSetAcceleratedCompositingEnabled@Base 5.0.2
 WKPreferencesSetAcceleratedCompositingForOverflowScrollEnabled@Base 5.2.0
 WKPreferencesSetAcceleratedDrawingEnabled@Base 5.0.2
 WKPreferencesSetAggressiveTileRetentionEnabled@Base 5.2.0
 WKPreferencesSetApplicationChromeModeEnabled@Base 5.0.2
 WKPreferencesSetArtificialPluginInitializationDelayEnabled@Base 5.0.2
 WKPreferencesSetAsynchronousPluginInitializationEnabled@Base 5.0.2
 WKPreferencesSetAsynchronousPluginInitializationEnabledForAllPlugins@Base 5.0.2
 WKPreferencesSetAsynchronousSpellCheckingEnabled@Base 5.2.0
 WKPreferencesSetAuthorAndUserStylesEnabled@Base 5.0.2
 WKPreferencesSetAutostartOriginPlugInSnapshottingEnabled@Base 5.2.0
 WKPreferencesSetBackspaceKeyNavigationEnabled@Base 5.0.2
 WKPreferencesSetCSSCustomFilterEnabled@Base 5.0.2
 WKPreferencesSetCSSGridLayoutEnabled@Base 5.0.2
 WKPreferencesSetCSSRegionsEnabled@Base 5.0.2
 WKPreferencesSetCanvasUsesAcceleratedDrawing@Base 5.0.2
 WKPreferencesSetCaretBrowsingEnabled@Base 5.0.2
 WKPreferencesSetCompositingBordersVisible@Base 5.0.2
 WKPreferencesSetCompositingRepaintCountersVisible@Base 5.0.2
 WKPreferencesSetCookieEnabled@Base 5.0.2
 WKPreferencesSetCursiveFontFamily@Base 5.0.2
 WKPreferencesSetDNSPrefetchingEnabled@Base 5.0.2
 WKPreferencesSetDOMPasteAllowed@Base 5.0.2
 WKPreferencesSetDatabasesEnabled@Base 5.0.2
 WKPreferencesSetDefaultFixedFontSize@Base 5.0.2
 WKPreferencesSetDefaultFontSize@Base 5.0.2
 WKPreferencesSetDefaultTextEncodingName@Base 5.0.2
 WKPreferencesSetDeveloperExtrasEnabled@Base 5.0.2
 WKPreferencesSetDiagnosticLoggingEnabled@Base 5.0.2
 WKPreferencesSetEditableLinkBehavior@Base 5.0.2
 WKPreferencesSetEncodingDetectorEnabled@Base 5.0.2
 WKPreferencesSetFTPDirectoryTemplatePath@Base 5.0.2
 WKPreferencesSetFantasyFontFamily@Base 5.0.2
 WKPreferencesSetFileAccessFromFileURLsAllowed@Base 5.0.2
 WKPreferencesSetFixedFontFamily@Base 5.0.2
 WKPreferencesSetFontSmoothingLevel@Base 5.0.2
 WKPreferencesSetForceFTPDirectoryListings@Base 5.0.2
 WKPreferencesSetFrameFlatteningEnabled@Base 5.0.2
 WKPreferencesSetFullScreenEnabled@Base 5.0.2
 WKPreferencesSetHiddenPageCSSAnimationSuspensionEnabled@Base 5.2.0
 WKPreferencesSetHiddenPageDOMTimerThrottlingEnabled@Base 5.2.0
 WKPreferencesSetHixie76WebSocketProtocolEnabled@Base 5.0.2
 WKPreferencesSetHyperlinkAuditingEnabled@Base 5.0.2
 WKPreferencesSetIncrementalRenderingSuppressionTimeout@Base 5.2.0
 WKPreferencesSetInspectorUsesWebKitUserInterface@Base 5.0.2
 WKPreferencesSetInteractiveFormValidationEnabled@Base 5.0.2
 WKPreferencesSetJavaEnabled@Base 5.0.2
 WKPreferencesSetJavaEnabledForLocalFiles@Base 5.0.2
 WKPreferencesSetJavaScriptCanAccessClipboard@Base 5.0.2
 WKPreferencesSetJavaScriptCanOpenWindowsAutomatically@Base 5.0.2
 WKPreferencesSetJavaScriptEnabled@Base 5.0.2
 WKPreferencesSetJavaScriptExperimentsEnabled@Base 5.0.2
 WKPreferencesSetJavaScriptMarkupEnabled@Base 5.2.0
 WKPreferencesSetLoadsImagesAutomatically@Base 5.0.2
 WKPreferencesSetLoadsSiteIconsIgnoringImageLoadingPreference@Base 5.0.2
 WKPreferencesSetLocalFileContentSniffingEnabled@Base 5.0.2
 WKPreferencesSetLocalStorageEnabled@Base 5.0.2
 WKPreferencesSetLogsPageMessagesToSystemConsoleEnabled@Base 5.2.0
 WKPreferencesSetMediaPlaybackAllowsInline@Base 5.0.2
 WKPreferencesSetMediaPlaybackRequiresUserGesture@Base 5.0.2
 WKPreferencesSetMinimumFontSize@Base 5.0.2
 WKPreferencesSetMockScrollbarsEnabled@Base 5.0.2
 WKPreferencesSetNeedsSiteSpecificQuirks@Base 5.0.2
 WKPreferencesSetNotificationsEnabled@Base 5.0.2
 WKPreferencesSetOfflineWebApplicationCacheEnabled@Base 5.0.2
 WKPreferencesSetPDFPluginEnabled@Base 5.0.2
 WKPreferencesSetPageCacheEnabled@Base 5.0.2
 WKPreferencesSetPageCacheSupportsPlugins@Base 5.0.2
 WKPreferencesSetPageVisibilityBasedProcessSuppressionEnabled@Base 5.2.0
 WKPreferencesSetPaginateDuringLayoutEnabled@Base 5.0.2
 WKPreferencesSetPictographFontFamily@Base 5.0.2
 WKPreferencesSetPlugInSnapshottingEnabled@Base 5.0.2
 WKPreferencesSetPluginsEnabled@Base 5.0.2
 WKPreferencesSetPrimaryPlugInSnapshotDetectionEnabled@Base 5.2.0
 WKPreferencesSetPrivateBrowsingEnabled@Base 5.0.2
 WKPreferencesSetQTKitEnabled@Base 5.2.0
 WKPreferencesSetRegionBasedColumnsEnabled@Base 5.0.2
 WKPreferencesSetRequestAnimationFrameEnabled@Base 5.0.2
 WKPreferencesSetSansSerifFontFamily@Base 5.0.2
 WKPreferencesSetScreenFontSubstitutionEnabled@Base 5.0.2
 WKPreferencesSetScrollingPerformanceLoggingEnabled@Base 5.0.2
 WKPreferencesSetSelectTrailingWhitespaceEnabled@Base 5.2.0
 WKPreferencesSetSerifFontFamily@Base 5.0.2
 WKPreferencesSetShouldDisplayCaptions@Base 5.0.2
 WKPreferencesSetShouldDisplaySubtitles@Base 5.0.2
 WKPreferencesSetShouldDisplayTextDescriptions@Base 5.0.2
 WKPreferencesSetShouldPrintBackgrounds@Base 5.0.2
 WKPreferencesSetShouldRespectImageOrientation@Base 5.0.2
 WKPreferencesSetShowsToolTipOverTruncatedText@Base 5.0.2
 WKPreferencesSetShowsURLsInToolTipsEnabled@Base 5.2.0
 WKPreferencesSetSmartInsertDeleteEnabled@Base 5.2.0
 WKPreferencesSetSnapshotAllPlugIns@Base 5.2.0
 WKPreferencesSetStandardFontFamily@Base 5.0.2
 WKPreferencesSetStorageBlockingPolicy@Base 5.0.2
 WKPreferencesSetSuppressesIncrementalRendering@Base 5.0.2
 WKPreferencesSetTabToLinksEnabled@Base 5.0.2
 WKPreferencesSetTabsToLinks@Base 5.0.2
 WKPreferencesSetTextAreasAreResizable@Base 5.0.2
 WKPreferencesSetTextAutosizingEnabled@Base 5.0.2
 WKPreferencesSetTiledScrollingIndicatorVisible@Base 5.2.0
 WKPreferencesSetUniversalAccessFromFileURLsAllowed@Base 5.0.2
 WKPreferencesSetWebArchiveDebugModeEnabled@Base 5.0.2
 WKPreferencesSetWebAudioEnabled@Base 5.0.2
 WKPreferencesSetWebGLEnabled@Base 5.0.2
 WKPreferencesSetWebSecurityEnabled@Base 5.0.2
 WKPreferencesSetXSSAuditorEnabled@Base 5.0.2
 WKProtectionSpaceCopyHost@Base 5.0.2
 WKProtectionSpaceCopyRealm@Base 5.0.2
 WKProtectionSpaceGetAuthenticationScheme@Base 5.0.2
 WKProtectionSpaceGetIsProxy@Base 5.0.2
 WKProtectionSpaceGetPort@Base 5.0.2
 WKProtectionSpaceGetReceivesCredentialSecurely@Base 5.0.2
 WKProtectionSpaceGetServerType@Base 5.0.2
 WKProtectionSpaceGetTypeID@Base 5.0.2
 WKRectCreate@Base 5.0.2
 WKRectGetTypeID@Base 5.0.2
 WKRectGetValue@Base 5.0.2
 WKRelease@Base 5.0.2
 WKRenderLayerCopyElementID@Base 5.0.2
 WKRenderLayerCopyElementTagName@Base 5.0.2
 WKRenderLayerCopyRendererName@Base 5.0.2
 WKRenderLayerGetAbsoluteBounds@Base 5.0.2
 WKRenderLayerGetCompositingLayerType@Base 5.0.2
 WKRenderLayerGetElementClassNames@Base 5.0.2
 WKRenderLayerGetNegativeZOrderList@Base 5.0.2
 WKRenderLayerGetNormalFlowList@Base 5.0.2
 WKRenderLayerGetPositiveZOrderList@Base 5.0.2
 WKRenderLayerGetRenderer@Base 5.0.2
 WKRenderLayerGetTypeID@Base 5.0.2
 WKRenderLayerIsClipped@Base 5.0.2
 WKRenderLayerIsClipping@Base 5.0.2
 WKRenderLayerIsReflection@Base 5.0.2
 WKRenderObjectCopyElementID@Base 5.0.2
 WKRenderObjectCopyElementTagName@Base 5.0.2
 WKRenderObjectCopyName@Base 5.0.2
 WKRenderObjectGetAbsolutePosition@Base 5.0.2
 WKRenderObjectGetChildren@Base 5.0.2
 WKRenderObjectGetElementClassNames@Base 5.0.2
 WKRenderObjectGetFrameRect@Base 5.0.2
 WKRenderObjectGetTypeID@Base 5.0.2
 WKResourceCacheManagerClearCacheForAllOrigins@Base 5.0.2
 WKResourceCacheManagerClearCacheForOrigin@Base 5.0.2
 WKResourceCacheManagerGetCacheOrigins@Base 5.0.2
 WKResourceCacheManagerGetTypeID@Base 5.0.2
 WKRetain@Base 5.0.2
 WKSecurityOriginCopyDatabaseIdentifier@Base 5.0.2
 WKSecurityOriginCopyHost@Base 5.0.2
 WKSecurityOriginCopyProtocol@Base 5.0.2
 WKSecurityOriginCopyToString@Base 5.0.2
 WKSecurityOriginCreate@Base 5.0.2
 WKSecurityOriginCreateFromDatabaseIdentifier@Base 5.0.2
 WKSecurityOriginCreateFromString@Base 5.0.2
 WKSecurityOriginGetHost@Base 5.0.2
 WKSecurityOriginGetPort@Base 5.0.2
 WKSecurityOriginGetProtocol@Base 5.0.2
 WKSecurityOriginGetTypeID@Base 5.0.2
 WKSerializedScriptValueCreate@Base 5.0.2
 WKSerializedScriptValueCreateWithInternalRepresentation@Base 5.0.2
 WKSerializedScriptValueDeserialize@Base 5.0.2
 WKSerializedScriptValueGetInternalRepresentation@Base 5.0.2
 WKSerializedScriptValueGetTypeID@Base 5.0.2
 WKSizeCreate@Base 5.0.2
 WKSizeGetTypeID@Base 5.0.2
 WKSizeGetValue@Base 5.0.2
 WKStringCopyJSString@Base 5.0.2
 WKStringCreateWithJSString@Base 5.0.2
 WKStringCreateWithUTF8CString@Base 5.0.2
 WKStringGetCharacters@Base 5.0.2
 WKStringGetLength@Base 5.0.2
 WKStringGetMaximumUTF8CStringSize@Base 5.0.2
 WKStringGetTypeID@Base 5.0.2
 WKStringGetUTF8CString@Base 5.0.2
 WKStringIsEmpty@Base 5.0.2
 WKStringIsEqual@Base 5.0.2
 WKStringIsEqualToUTF8CString@Base 5.0.2
 WKStringIsEqualToUTF8CStringIgnoringCase@Base 5.0.2
 WKTextCheckerChangeSpellingToWord@Base 5.0.2
 WKTextCheckerCheckSpelling@Base 5.0.2
 WKTextCheckerContinuousSpellCheckingEnabledStateChanged@Base 5.0.2
 WKTextCheckerGrammarCheckingEnabledStateChanged@Base 5.0.2
 WKTextCheckerSetClient@Base 5.0.2
 WKUInt64Create@Base 5.0.2
 WKUInt64GetTypeID@Base 5.0.2
 WKUInt64GetValue@Base 5.0.2
 WKURLCopyHostName@Base 5.0.2
 WKURLCopyLastPathComponent@Base 5.0.2
 WKURLCopyPath@Base 5.0.2
 WKURLCopyScheme@Base 5.0.2
 WKURLCopyString@Base 5.0.2
 WKURLCreateWithBaseURL@Base 5.0.2
 WKURLCreateWithUTF8CString@Base 5.0.2
 WKURLGetTypeID@Base 5.0.2
 WKURLIsEqual@Base 5.0.2
 WKURLRequestCopyFirstPartyForCookies@Base 5.0.2
 WKURLRequestCopyHTTPMethod@Base 5.0.2
 WKURLRequestCopyURL@Base 5.0.2
 WKURLRequestCreateWithWKURL@Base 5.0.2
 WKURLRequestGetTypeID@Base 5.0.2
 WKURLRequestSetDefaultTimeoutInterval@Base 5.0.2
 WKURLResponseCopyMIMEType@Base 5.0.2
 WKURLResponseCopySuggestedFilename@Base 5.0.2
 WKURLResponseCopyURL@Base 5.0.2
 WKURLResponseGetExpectedContentLength@Base 5.2.0
 WKURLResponseGetTypeID@Base 5.0.2
 WKURLResponseHTTPStatusCode@Base 5.0.2
 WKURLResponseIsAttachment@Base 5.0.2
 WKUserContentURLPatternCopyHost@Base 5.0.2
 WKUserContentURLPatternCopyScheme@Base 5.0.2
 WKUserContentURLPatternCreate@Base 5.0.2
 WKUserContentURLPatternGetTypeID@Base 5.0.2
 WKUserContentURLPatternIsValid@Base 5.0.2
 WKUserContentURLPatternMatchesSubdomains@Base 5.0.2
 WKUserContentURLPatternMatchesURL@Base 5.0.2
 WKVibrationGetTypeID@Base 5.0.2
 WKVibrationSetProvider@Base 5.0.2
 WTFCrash@Base 5.2.0
 WTFGetBacktrace@Base 5.0.2
 WTFInstallReportBacktraceOnCrashHook@Base 5.0.2
 WTFInvokeCrashHook@Base 5.0.2
 WTFLog@Base 5.0.2
 WTFLogAlways@Base 5.0.2
 WTFLogVerbose@Base 5.0.2
 WTFPrintBacktrace@Base 5.0.2
 WTFReportArgumentAssertionFailure@Base 5.0.2
 WTFReportAssertionFailure@Base 5.0.2
 WTFReportAssertionFailureWithMessage@Base 5.0.2
 WTFReportBacktrace@Base 5.0.2
 WTFReportError@Base 5.0.2
 WTFReportFatalError@Base 5.0.2
 WTFSetCrashHook@Base 5.0.2
 _WKContextRegisterURLSchemeAsEmptyDocument@Base 5.0.2
 _WKContextSetAdditionalPluginsDirectory@Base 5.0.2
 _WKContextSetAlwaysUsesComplexTextCodePath@Base 5.0.2
 _WKContextSetHTTPPipeliningEnabled@Base 5.0.2
 _Z13WKURLCopyQUrlPK11OpaqueWKURL@Base 5.2.0
 _Z14qWebKitVersionv@Base 5.0.2
 _Z16WKURLCopyQStringPK11OpaqueWKURL@Base 5.2.0
 _Z19JSStringCopyQStringP14OpaqueJSString@Base 5.2.0
 _Z19WKImageCreateQImagePK13OpaqueWKImage@Base 5.0.2
 _Z19WKStringCopyQStringPK14OpaqueWKString@Base 5.0.2
 _Z19WKURLCreateWithQUrlRK4QUrl@Base 5.0.2
 _Z19qWebKitMajorVersionv@Base 5.0.2
 _Z19qWebKitMinorVersionv@Base 5.0.2
 _Z22WKURLCreateWithQStringRK7QString@Base 5.2.0
 _Z23WKImageCreateFromQImageRK6QImage@Base 5.0.2
 _Z23qt_networkAccessAllowedb@Base 5.0.2
 _Z25JSStringCreateWithQStringRK7QString@Base 5.2.0
 _Z25WKStringCreateWithQStringRK7QString@Base 5.0.2
 _Z32WKIconDatabaseTryGetQImageForURLPK20OpaqueWKIconDatabasePK11OpaqueWKURL@Base 5.2.0
 _ZN10UndoStepQt4redoEv@Base 5.0.2
 _ZN10UndoStepQt4undoEv@Base 5.0.2
 _ZN10UndoStepQtC1EN3WTF6RefPtrIN7WebCore8UndoStepEEE@Base 5.0.2
 _ZN10UndoStepQtC2EN3WTF6RefPtrIN7WebCore8UndoStepEEE@Base 5.0.2
 _ZN10UndoStepQtD1Ev@Base 5.0.2
 _ZN10UndoStepQtD2Ev@Base 5.0.2
 _ZN11QRawWebView10setFocusedEb@Base 5.0.2
 _ZN11QRawWebView10setVisibleEb@Base 5.0.2
 _ZN11QRawWebView12sendKeyEventEP9QKeyEvent@Base 5.0.2
 _ZN11QRawWebView14sendMouseEventEP11QMouseEventi@Base 5.0.2
 _ZN11QRawWebView14sendTouchEventEP11QTouchEvent@Base 5.0.2
 _ZN11QRawWebView14sendWheelEventEP11QWheelEvent@Base 5.0.2
 _ZN11QRawWebView17setDrawBackgroundEb@Base 5.0.2
 _ZN11QRawWebView24setTransparentBackgroundEb@Base 5.0.2
 _ZN11QRawWebView5paintERK10QMatrix4x4fj@Base 5.0.2
 _ZN11QRawWebView6createEv@Base 5.0.2
 _ZN11QRawWebView7pageRefEv@Base 5.0.2
 _ZN11QRawWebView7setSizeERK5QSize@Base 5.0.2
 _ZN11QRawWebView9setActiveEb@Base 5.0.2
 _ZN11QRawWebViewC1EPK15OpaqueWKContextPK17OpaqueWKPageGroupP17QRawWebViewClient@Base 5.0.2
 _ZN11QRawWebViewC2EPK15OpaqueWKContextPK17OpaqueWKPageGroupP17QRawWebViewClient@Base 5.0.2
 _ZN11QRawWebViewD1Ev@Base 5.0.2
 _ZN11QRawWebViewD2Ev@Base 5.0.2
 _ZN11QWebElement11encloseWithERK7QString@Base 5.0.2
 _ZN11QWebElement11encloseWithERKS_@Base 5.0.2
 _ZN11QWebElement11removeClassERK7QString@Base 5.0.2
 _ZN11QWebElement11setInnerXmlERK7QString@Base 5.0.2
 _ZN11QWebElement11setOuterXmlERK7QString@Base 5.0.2
 _ZN11QWebElement11toggleClassERK7QString@Base 5.0.2
 _ZN11QWebElement12appendInsideERK7QString@Base 5.0.2
 _ZN11QWebElement12appendInsideERKS_@Base 5.0.2
 _ZN11QWebElement12setAttributeERK7QStringS2_@Base 5.0.2
 _ZN11QWebElement12setPlainTextERK7QString@Base 5.0.2
 _ZN11QWebElement13appendOutsideERK7QString@Base 5.0.2
 _ZN11QWebElement13appendOutsideERKS_@Base 5.0.2
 _ZN11QWebElement13prependInsideERK7QString@Base 5.0.2
 _ZN11QWebElement13prependInsideERKS_@Base 5.0.2
 _ZN11QWebElement14prependOutsideERK7QString@Base 5.0.2
 _ZN11QWebElement14prependOutsideERKS_@Base 5.0.2
 _ZN11QWebElement14setAttributeNSERK7QStringS2_S2_@Base 5.0.2
 _ZN11QWebElement15removeAttributeERK7QString@Base 5.0.2
 _ZN11QWebElement16enclosingElementEPN7WebCore4NodeE@Base 5.0.2
 _ZN11QWebElement16setStylePropertyERK7QStringS2_@Base 5.0.2
 _ZN11QWebElement16takeFromDocumentEv@Base 5.0.2
 _ZN11QWebElement17removeAllChildrenEv@Base 5.0.2
 _ZN11QWebElement17removeAttributeNSERK7QStringS2_@Base 5.0.2
 _ZN11QWebElement18evaluateJavaScriptERK7QString@Base 5.0.2
 _ZN11QWebElement18removeFromDocumentEv@Base 5.0.2
 _ZN11QWebElement19encloseContentsWithERK7QString@Base 5.0.2
 _ZN11QWebElement19encloseContentsWithERKS_@Base 5.0.2
 _ZN11QWebElement6renderEP8QPainter@Base 5.0.2
 _ZN11QWebElement6renderEP8QPainterRK5QRect@Base 5.0.2
 _ZN11QWebElement7replaceERK7QString@Base 5.0.2
 _ZN11QWebElement7replaceERKS_@Base 5.0.2
 _ZN11QWebElement8addClassERK7QString@Base 5.0.2
 _ZN11QWebElement8setFocusEv@Base 5.0.2
 _ZN11QWebElementC1EPN7WebCore4NodeE@Base 5.0.2
 _ZN11QWebElementC1EPN7WebCore7ElementE@Base 5.0.2
 _ZN11QWebElementC1ERKS_@Base 5.0.2
 _ZN11QWebElementC1Ev@Base 5.0.2
 _ZN11QWebElementC2EPN7WebCore4NodeE@Base 5.0.2
 _ZN11QWebElementC2EPN7WebCore7ElementE@Base 5.0.2
 _ZN11QWebElementC2ERKS_@Base 5.0.2
 _ZN11QWebElementC2Ev@Base 5.0.2
 _ZN11QWebElementD1Ev@Base 5.0.2
 _ZN11QWebElementD2Ev@Base 5.0.2
 _ZN11QWebElementaSERKS_@Base 5.0.2
 _ZN11QWebHistory19setMaximumItemCountEi@Base 5.0.2
 _ZN11QWebHistory4backEv@Base 5.0.2
 _ZN11QWebHistory5clearEv@Base 5.0.2
 _ZN11QWebHistory7forwardEv@Base 5.0.2
 _ZN11QWebHistory8goToItemERK15QWebHistoryItem@Base 5.0.2
 _ZN11QWebHistoryC1Ev@Base 5.0.2
 _ZN11QWebHistoryC2Ev@Base 5.0.2
 _ZN11QWebHistoryD1Ev@Base 5.0.2
 _ZN11QWebHistoryD2Ev@Base 5.0.2
 _ZN11QWebKitTest10wheelEventEP7QObjectddiN2Qt11OrientationE@Base 5.2.0
 _ZN11QWebKitTest11qt_metacallEN11QMetaObject4CallEiPPv@Base 5.0.2
 _ZN11QWebKitTest11qt_metacastEPKc@Base 5.0.2
 _ZN11QWebKitTest14sendTouchEventEP13QQuickWebViewN6QEvent4TypeERK5QListIN11QTouchEvent10TouchPointEEm@Base 5.0.2
 _ZN11QWebKitTest14touchDoubleTapEP7QObjectddi@Base 5.2.0
 _ZN11QWebKitTest15viewportChangedEv@Base 5.0.2
 _ZN11QWebKitTest16staticMetaObjectE@Base 5.0.2
 _ZN11QWebKitTest19contentsSizeChangedEv@Base 5.0.2
 _ZN11QWebKitTest20contentsScaleChangedEv@Base 5.0.2
 _ZN11QWebKitTest22contentsScaleCommittedEv@Base 5.0.2
 _ZN11QWebKitTest23devicePixelRatioChangedEv@Base 5.0.2
 _ZN11QWebKitTest8touchTapEP7QObjectddi@Base 5.2.0
 _ZN11QWebKitTestC1EP20QQuickWebViewPrivateP7QObject@Base 5.0.2
 _ZN11QWebKitTestC2EP20QQuickWebViewPrivateP7QObject@Base 5.0.2
 _ZN11QWebKitTestD0Ev@Base 5.0.2
 _ZN11QWebKitTestD1Ev@Base 5.0.2
 _ZN11QWebKitTestD2Ev@Base 5.0.2
 _ZN12QWebDatabase14removeDatabaseERKS_@Base 5.0.2
 _ZN12QWebDatabase18removeAllDatabasesEv@Base 5.0.2
 _ZN12QWebDatabaseC1EP19QWebDatabasePrivate@Base 5.0.2
 _ZN12QWebDatabaseC1ERKS_@Base 5.0.2
 _ZN12QWebDatabaseC2EP19QWebDatabasePrivate@Base 5.0.2
 _ZN12QWebDatabaseC2ERKS_@Base 5.0.2
 _ZN12QWebDatabaseD1Ev@Base 5.0.2
 _ZN12QWebDatabaseD2Ev@Base 5.0.2
 _ZN12QWebDatabaseaSERKS_@Base 5.0.2
 _ZN12QWebSettings10iconForUrlERK4QUrl@Base 5.0.2
 _ZN12QWebSettings10webGraphicENS_10WebGraphicE@Base 5.0.2
 _ZN12QWebSettings11setFontSizeENS_8FontSizeEi@Base 5.0.2
 _ZN12QWebSettings12setAttributeENS_12WebAttributeEb@Base 5.0.2
 _ZN12QWebSettings13resetFontSizeENS_8FontSizeE@Base 5.0.2
 _ZN12QWebSettings13setFontFamilyENS_10FontFamilyERK7QString@Base 5.0.2
 _ZN12QWebSettings13setWebGraphicENS_10WebGraphicERK7QPixmap@Base 5.0.2
 _ZN12QWebSettings14globalSettingsEv@Base 5.0.2
 _ZN12QWebSettings14resetAttributeENS_12WebAttributeE@Base 5.0.2
 _ZN12QWebSettings15resetFontFamilyENS_10FontFamilyE@Base 5.0.2
 _ZN12QWebSettings15setCSSMediaTypeERK7QString@Base 5.2.0
 _ZN12QWebSettings16iconDatabasePathEv@Base 5.0.2
 _ZN12QWebSettings17clearIconDatabaseEv@Base 5.0.2
 _ZN12QWebSettings17clearMemoryCachesEv@Base 5.0.2
 _ZN12QWebSettings18offlineStoragePathEv@Base 5.0.2
 _ZN12QWebSettings19maximumPagesInCacheEv@Base 5.0.2
 _ZN12QWebSettings19setIconDatabasePathERK7QString@Base 5.0.2
 _ZN12QWebSettings19setLocalStoragePathERK7QString@Base 5.0.2
 _ZN12QWebSettings20setUserStyleSheetUrlERK4QUrl@Base 5.0.2
 _ZN12QWebSettings21setOfflineStoragePathERK7QString@Base 5.0.2
 _ZN12QWebSettings22setDefaultTextEncodingERK7QString@Base 5.0.2
 _ZN12QWebSettings22setMaximumPagesInCacheEi@Base 5.0.2
 _ZN12QWebSettings23enablePersistentStorageERK7QString@Base 5.0.2
 _ZN12QWebSettings24setObjectCacheCapacitiesEiii@Base 5.0.2
 _ZN12QWebSettings25setThirdPartyCookiePolicyENS_22ThirdPartyCookiePolicyE@Base 5.0.2
 _ZN12QWebSettings26offlineStorageDefaultQuotaEv@Base 5.0.2
 _ZN12QWebSettings29setOfflineStorageDefaultQuotaEx@Base 5.0.2
 _ZN12QWebSettings30offlineWebApplicationCachePathEv@Base 5.0.2
 _ZN12QWebSettings31offlineWebApplicationCacheQuotaEv@Base 5.0.2
 _ZN12QWebSettings33setOfflineWebApplicationCachePathERK7QString@Base 5.0.2
 _ZN12QWebSettings34setOfflineWebApplicationCacheQuotaEx@Base 5.0.2
 _ZN12QWebSettingsC1EPN7WebCore8SettingsEPNS0_13GroupSettingsE@Base 5.3.0
 _ZN12QWebSettingsC1Ev@Base 5.0.2
 _ZN12QWebSettingsC2EPN7WebCore8SettingsEPNS0_13GroupSettingsE@Base 5.3.0
 _ZN12QWebSettingsC2Ev@Base 5.0.2
 _ZN12QWebSettingsD1Ev@Base 5.0.2
 _ZN12QWebSettingsD2Ev@Base 5.0.2
 _ZN13OpaqueJSClassD1Ev@Base 5.2.0
 _ZN13OpaqueJSClassD2Ev@Base 5.2.0
 _ZN13QQuickWebPage11qt_metacallEN11QMetaObject4CallEiPPv@Base 5.0.2
 _ZN13QQuickWebPage11qt_metacastEPKc@Base 5.0.2
 _ZN13QQuickWebPage15setContentsSizeERK6QSizeF@Base 5.0.2
 _ZN13QQuickWebPage15updatePaintNodeEP7QSGNodePN10QQuickItem19UpdatePaintNodeDataE@Base 5.0.2
 _ZN13QQuickWebPage16setContentsScaleEd@Base 5.2.0
 _ZN13QQuickWebPage16staticMetaObjectE@Base 5.0.2
 _ZN13QQuickWebPageC1EP13QQuickWebView@Base 5.0.2
 _ZN13QQuickWebPageC2EP13QQuickWebView@Base 5.0.2
 _ZN13QQuickWebPageD0Ev@Base 5.0.2
 _ZN13QQuickWebPageD1Ev@Base 5.0.2
 _ZN13QQuickWebPageD2Ev@Base 5.0.2
 _ZN13QQuickWebView10itemChangeEN10QQuickItem10ItemChangeERKNS0_14ItemChangeDataE@Base 5.0.2
 _ZN13QQuickWebView10touchEventEP11QTouchEvent@Base 5.0.2
 _ZN13QQuickWebView10urlChangedEv@Base 5.0.2
 _ZN13QQuickWebView10wheelEventEP11QWheelEvent@Base 5.0.2
 _ZN13QQuickWebView11iconChangedEv@Base 5.0.2
 _ZN13QQuickWebView11linkHoveredERK4QUrlRK7QString@Base 5.0.2
 _ZN13QQuickWebView11qt_metacallEN11QMetaObject4CallEiPPv@Base 5.0.2
 _ZN13QQuickWebView11qt_metacastEPKc@Base 5.0.2
 _ZN13QQuickWebView12focusInEventEP11QFocusEvent@Base 5.0.2
 _ZN13QQuickWebView12titleChangedEv@Base 5.0.2
 _ZN13QQuickWebView13dragMoveEventEP14QDragMoveEvent@Base 5.0.2
 _ZN13QQuickWebView13keyPressEventEP9QKeyEvent@Base 5.0.2
 _ZN13QQuickWebView13setContentPosERK7QPointF@Base 5.0.2
 _ZN13QQuickWebView13setZoomFactorEd@Base 5.2.0
 _ZN13QQuickWebView14dragEnterEventEP15QDragEnterEvent@Base 5.0.2
 _ZN13QQuickWebView14dragLeaveEventEP15QDragLeaveEvent@Base 5.0.2
 _ZN13QQuickWebView14hoverMoveEventEP11QHoverEvent@Base 5.0.2
 _ZN13QQuickWebView14loadingChangedEP15QWebLoadRequest@Base 5.0.2
 _ZN13QQuickWebView14mouseMoveEventEP11QMouseEvent@Base 5.0.2
 _ZN13QQuickWebView15geometryChangedERK6QRectFS2_@Base 5.0.2
 _ZN13QQuickWebView15hoverEnterEventEP11QHoverEvent@Base 5.0.2
 _ZN13QQuickWebView15hoverLeaveEventEP11QHoverEvent@Base 5.0.2
 _ZN13QQuickWebView15keyReleaseEventEP9QKeyEvent@Base 5.0.2
 _ZN13QQuickWebView15mousePressEventEP11QMouseEvent@Base 5.0.2
 _ZN13QQuickWebView16inputMethodEventEP17QInputMethodEvent@Base 5.0.2
 _ZN13QQuickWebView16staticMetaObjectE@Base 5.0.2
 _ZN13QQuickWebView17componentCompleteEv@Base 5.0.2
 _ZN13QQuickWebView17mouseReleaseEventEP11QMouseEvent@Base 5.0.2
 _ZN13QQuickWebView18platformInitializeEv@Base 5.0.2
 _ZN13QQuickWebView19loadProgressChangedEv@Base 5.0.2
 _ZN13QQuickWebView19navigationRequestedEP21QWebNavigationRequest@Base 5.0.2
 _ZN13QQuickWebView21childMouseEventFilterEP10QQuickItemP6QEvent@Base 5.0.2
 _ZN13QQuickWebView21emitUrlChangeIfNeededEv@Base 5.0.2
 _ZN13QQuickWebView21mouseDoubleClickEventEP11QMouseEvent@Base 5.0.2
 _ZN13QQuickWebView21qmlAttachedPropertiesEP7QObject@Base 5.0.2
 _ZN13QQuickWebView24handleFlickableMouseMoveERK7QPointFx@Base 5.0.2
 _ZN13QQuickWebView24navigationHistoryChangedEv@Base 5.0.2
 _ZN13QQuickWebView24runJavaScriptInMainFrameERK7QStringP7QObjectPKc@Base 5.0.2
 _ZN13QQuickWebView25handleFlickableMousePressERK7QPointFx@Base 5.0.2
 _ZN13QQuickWebView27handleFlickableMouseReleaseERK7QPointFx@Base 5.0.2
 _ZN13QQuickWebView39setAllowAnyHTTPSCertificateForLocalHostEb@Base 5.0.2
 _ZN13QQuickWebView4pageEv@Base 5.0.2
 _ZN13QQuickWebView4stopEv@Base 5.0.2
 _ZN13QQuickWebView5eventEP6QEvent@Base 5.0.2
 _ZN13QQuickWebView6goBackEv@Base 5.0.2
 _ZN13QQuickWebView6reloadEv@Base 5.0.2
 _ZN13QQuickWebView6setUrlERK4QUrl@Base 5.0.2
 _ZN13QQuickWebView8loadHtmlERK7QStringRK4QUrlS5_@Base 5.0.2
 _ZN13QQuickWebView9dropEventEP10QDropEvent@Base 5.0.2
 _ZN13QQuickWebView9goForwardEv@Base 5.0.2
 _ZN13QQuickWebViewC1EP10QQuickItem@Base 5.0.2
 _ZN13QQuickWebViewC1EPK15OpaqueWKContextPK17OpaqueWKPageGroupP10QQuickItem@Base 5.0.2
 _ZN13QQuickWebViewC2EP10QQuickItem@Base 5.0.2
 _ZN13QQuickWebViewC2EPK15OpaqueWKContextPK17OpaqueWKPageGroupP10QQuickItem@Base 5.0.2
 _ZN13QQuickWebViewD0Ev@Base 5.0.2
 _ZN13QQuickWebViewD1Ev@Base 5.0.2
 _ZN13QQuickWebViewD2Ev@Base 5.0.2
 _ZN14OpaqueJSString6createERKN3WTF6StringE@Base 5.0.2
 _ZN14QWebPluginInfo10setEnabledEb@Base 5.0.2
 _ZN14QWebPluginInfoC1EPN7WebCore13PluginPackageE@Base 5.0.2
 _ZN14QWebPluginInfoC1ERKS_@Base 5.0.2
 _ZN14QWebPluginInfoC1Ev@Base 5.0.2
 _ZN14QWebPluginInfoC2EPN7WebCore13PluginPackageE@Base 5.0.2
 _ZN14QWebPluginInfoC2ERKS_@Base 5.0.2
 _ZN14QWebPluginInfoC2Ev@Base 5.0.2
 _ZN14QWebPluginInfoD1Ev@Base 5.0.2
 _ZN14QWebPluginInfoD2Ev@Base 5.0.2
 _ZN14QWebPluginInfoaSERKS_@Base 5.0.2
 _ZN14QtPrintContext9spoolPageEif@Base 5.0.2
 _ZN14QtPrintContextC1EP8QPainterRK5QRectP16QWebFrameAdapter@Base 5.0.2
 _ZN14QtPrintContextC2EP8QPainterRK5QRectP16QWebFrameAdapter@Base 5.0.2
 _ZN14QtPrintContextD1Ev@Base 5.0.2
 _ZN14QtPrintContextD2Ev@Base 5.0.2
 _ZN15QWebHistoryItem11setUserDataERK8QVariant@Base 5.0.2
 _ZN15QWebHistoryItemC1EP22QWebHistoryItemPrivate@Base 5.0.2
 _ZN15QWebHistoryItemC1ERKS_@Base 5.0.2
 _ZN15QWebHistoryItemC2EP22QWebHistoryItemPrivate@Base 5.0.2
 _ZN15QWebHistoryItemC2ERKS_@Base 5.0.2
 _ZN15QWebHistoryItemD1Ev@Base 5.0.2
 _ZN15QWebHistoryItemD2Ev@Base 5.0.2
 _ZN15QWebHistoryItemaSERKS_@Base 5.0.2
 _ZN15QWebLoadRequest11qt_metacallEN11QMetaObject4CallEiPPv@Base 5.0.2
 _ZN15QWebLoadRequest11qt_metacastEPKc@Base 5.0.2
 _ZN15QWebLoadRequest16staticMetaObjectE@Base 5.0.2
 _ZN15QWebLoadRequestC1ERK4QUrlN13QQuickWebView10LoadStatusERK7QStringNS3_11ErrorDomainEiP7QObject@Base 5.0.2
 _ZN15QWebLoadRequestC2ERK4QUrlN13QQuickWebView10LoadStatusERK7QStringNS3_11ErrorDomainEiP7QObject@Base 5.0.2
 _ZN15QWebLoadRequestD0Ev@Base 5.0.2
 _ZN15QWebLoadRequestD1Ev@Base 5.0.2
 _ZN15QWebLoadRequestD2Ev@Base 5.0.2
 _ZN15QWebPageAdapter10deletePageEv@Base 5.0.2
 _ZN15QWebPageAdapter10touchEventEP11QTouchEvent@Base 5.0.2
 _ZN15QWebPageAdapter10wheelEventEP11QWheelEventi@Base 5.0.2
 _ZN15QWebPageAdapter11dragEnteredEPK9QMimeDataRK6QPoint6QFlagsIN2Qt10DropActionEE@Base 5.0.2
 _ZN15QWebPageAdapter11dragUpdatedEPK9QMimeDataRK6QPoint6QFlagsIN2Qt10DropActionEE@Base 5.0.2
 _ZN15QWebPageAdapter11performDragEPK9QMimeDataRK6QPoint6QFlagsIN2Qt10DropActionEE@Base 5.0.2
 _ZN15QWebPageAdapter12focusInEventEP11QFocusEvent@Base 5.0.2
 _ZN15QWebPageAdapter13focusOutEventEP11QFocusEvent@Base 5.0.2
 _ZN15QWebPageAdapter13triggerActionENS_10MenuActionEP24QWebHitTestResultPrivatePKcb@Base 5.0.2
 _ZN15QWebPageAdapter14dragLeaveEventEv@Base 5.0.2
 _ZN15QWebPageAdapter14handleKeyEventEP9QKeyEvent@Base 5.0.2
 _ZN15QWebPageAdapter14mouseMoveEventEP11QMouseEvent@Base 5.0.2
 _ZN15QWebPageAdapter15handleScrollingEP9QKeyEvent@Base 5.0.2
 _ZN15QWebPageAdapter15mousePressEventEP11QMouseEvent@Base 5.0.2
 _ZN15QWebPageAdapter16didShowInspectorEv@Base 5.0.2
 _ZN15QWebPageAdapter16inputMethodEventEP17QInputMethodEvent@Base 5.0.2
 _ZN15QWebPageAdapter16registerUndoStepEN3WTF10PassRefPtrIN7WebCore8UndoStepEEE@Base 5.0.2
 _ZN15QWebPageAdapter17didCloseInspectorEv@Base 5.0.2
 _ZN15QWebPageAdapter17mouseReleaseEventEP11QMouseEvent@Base 5.0.2
 _ZN15QWebPageAdapter17setSystemTrayIconEP7QObject@Base 5.0.2
 _ZN15QWebPageAdapter18setContentEditableEb@Base 5.0.2
 _ZN15QWebPageAdapter18setVisibilityStateENS_15VisibilityStateE@Base 5.2.0
 _ZN15QWebPageAdapter18treatSchemeAsLocalERK7QString@Base 5.0.2
 _ZN15QWebPageAdapter19setDevicePixelRatioEf@Base 5.3.0
 _ZN15QWebPageAdapter20networkAccessManagerEv@Base 5.0.2
 _ZN15QWebPageAdapter20updateActionInternalENS_10MenuActionEPKcPbS3_@Base 5.0.2
 _ZN15QWebPageAdapter21initializeWebCorePageEv@Base 5.0.2
 _ZN15QWebPageAdapter21mouseDoubleClickEventEP11QMouseEvent@Base 5.0.2
 _ZN15QWebPageAdapter21mouseTripleClickEventEP11QMouseEvent@Base 5.0.2
 _ZN15QWebPageAdapter22_q_cleanupLeakMessagesEv@Base 5.0.2
 _ZN15QWebPageAdapter22adjustPointForClickingEP11QMouseEvent@Base 5.0.2
 _ZN15QWebPageAdapter22defaultUserAgentStringEv@Base 5.0.2
 _ZN15QWebPageAdapter23setNetworkAccessManagerEP21QNetworkAccessManager@Base 5.0.2
 _ZN15QWebPageAdapter23swallowContextMenuEventEP17QContextMenuEventP16QWebFrameAdapter@Base 5.0.2
 _ZN15QWebPageAdapter24_q_onLoadProgressChangedEi@Base 5.0.2
 _ZN15QWebPageAdapter24handleSoftwareInputPanelEN2Qt11MouseButtonERK6QPoint@Base 5.0.2
 _ZN15QWebPageAdapter26dynamicPropertyChangeEventEP7QObjectP27QDynamicPropertyChangeEvent@Base 5.0.2
 _ZN15QWebPageAdapter27handleShortcutOverrideEventEP9QKeyEvent@Base 5.0.2
 _ZN15QWebPageAdapter30addNotificationPresenterClientEv@Base 5.0.2
 _ZN15QWebPageAdapter31setNotificationsAllowedForFrameEP16QWebFrameAdapterb@Base 5.0.2
 _ZN15QWebPageAdapter34updatePositionDependentMenuActionsERK6QPointP9QBitArray@Base 5.0.2
 _ZN15QWebPageAdapter3kitEPN7WebCore4PageE@Base 5.0.2
 _ZN15QWebPageAdapter6drtRunE@Base 5.0.2
 _ZN15QWebPageAdapter8findTextERK7QStringNS_8FindFlagE@Base 5.0.2
 _ZN15QWebPageAdapterC1Ev@Base 5.0.2
 _ZN15QWebPageAdapterC2Ev@Base 5.0.2
 _ZN15QWebPageAdapterD0Ev@Base 5.0.2
 _ZN15QWebPageAdapterD1Ev@Base 5.0.2
 _ZN15QWebPageAdapterD2Ev@Base 5.0.2
 _ZN15QWebPreferences11qt_metacallEN11QMetaObject4CallEiPPv@Base 5.0.2
 _ZN15QWebPreferences11qt_metacastEPKc@Base 5.0.2
 _ZN15QWebPreferences15setWebGLEnabledEb@Base 5.0.2
 _ZN15QWebPreferences16staticMetaObjectE@Base 5.0.2
 _ZN15QWebPreferences17setAutoLoadImagesEb@Base 5.0.2
 _ZN15QWebPreferences17setPluginsEnabledEb@Base 5.0.2
 _ZN15QWebPreferences18setDefaultFontSizeEj@Base 5.0.2
 _ZN15QWebPreferences18setFixedFontFamilyERK7QString@Base 5.0.2
 _ZN15QWebPreferences18setMinimumFontSizeEj@Base 5.0.2
 _ZN15QWebPreferences18setSerifFontFamilyERK7QString@Base 5.0.2
 _ZN15QWebPreferences18setWebAudioEnabledEb@Base 5.0.2
 _ZN15QWebPreferences19webGLEnabledChangedEv@Base 5.0.2
 _ZN15QWebPreferences20setCursiveFontFamilyERK7QString@Base 5.0.2
 _ZN15QWebPreferences20setFantasyFontFamilyERK7QString@Base 5.0.2
 _ZN15QWebPreferences20setFullScreenEnabledEb@Base 5.0.2
 _ZN15QWebPreferences20setJavascriptEnabledEb@Base 5.0.2
 _ZN15QWebPreferences21autoLoadImagesChangedEv@Base 5.0.2
 _ZN15QWebPreferences21pluginsEnabledChangedEv@Base 5.0.2
 _ZN15QWebPreferences21setDnsPrefetchEnabledEb@Base 5.0.2
 _ZN15QWebPreferences21setStandardFontFamilyERK7QString@Base 5.0.2
 _ZN15QWebPreferences21setXssAuditingEnabledEb@Base 5.0.2
 _ZN15QWebPreferences22defaultFontSizeChangedEv@Base 5.0.2
 _ZN15QWebPreferences22fixedFontFamilyChangedEv@Base 5.0.2
 _ZN15QWebPreferences22minimumFontSizeChangedEv@Base 5.0.2
 _ZN15QWebPreferences22serifFontFamilyChangedEv@Base 5.0.2
 _ZN15QWebPreferences22setLocalStorageEnabledEb@Base 5.0.2
 _ZN15QWebPreferences22setSansSerifFontFamilyERK7QString@Base 5.0.2
 _ZN15QWebPreferences22webAudioEnabledChangedEv@Base 5.0.2
 _ZN15QWebPreferences23setCaretBrowsingEnabledEb@Base 5.0.2
 _ZN15QWebPreferences23setDefaultFixedFontSizeEj@Base 5.0.2
 _ZN15QWebPreferences23setNotificationsEnabledEb@Base 5.0.2
 _ZN15QWebPreferences24cursiveFontFamilyChangedEv@Base 5.0.2
 _ZN15QWebPreferences24fantasyFontFamilyChangedEv@Base 5.0.2
 _ZN15QWebPreferences24fullScreenEnabledChangedEv@Base 5.0.2
 _ZN15QWebPreferences24javascriptEnabledChangedEv@Base 5.0.2
 _ZN15QWebPreferences25dnsPrefetchEnabledChangedEv@Base 5.0.2
 _ZN15QWebPreferences25setDeveloperExtrasEnabledEb@Base 5.0.2
 _ZN15QWebPreferences25setFrameFlatteningEnabledEb@Base 5.0.2
 _ZN15QWebPreferences25setPrivateBrowsingEnabledEb@Base 5.0.2
 _ZN15QWebPreferences25standardFontFamilyChangedEv@Base 5.0.2
 _ZN15QWebPreferences25xssAuditingEnabledChangedEv@Base 5.0.2
 _ZN15QWebPreferences26localStorageEnabledChangedEv@Base 5.0.2
 _ZN15QWebPreferences26sansSerifFontFamilyChangedEv@Base 5.0.2
 _ZN15QWebPreferences27caretBrowsingEnabledChangedEv@Base 5.0.2
 _ZN15QWebPreferences27defaultFixedFontSizeChangedEv@Base 5.0.2
 _ZN15QWebPreferences27notificationsEnabledChangedEv@Base 5.0.2
 _ZN15QWebPreferences27setNavigatorQtObjectEnabledEb@Base 5.0.2
 _ZN15QWebPreferences29developerExtrasEnabledChangedEv@Base 5.0.2
 _ZN15QWebPreferences29frameFlatteningEnabledChangedEv@Base 5.0.2
 _ZN15QWebPreferences29privateBrowsingEnabledChangedEv@Base 5.0.2
 _ZN15QWebPreferences31navigatorQtObjectEnabledChangedEv@Base 5.0.2
 _ZN15QWebPreferences32setFileAccessFromFileURLsAllowedEb@Base 5.2.0
 _ZN15QWebPreferences36fileAccessFromFileURLsAllowedChangedEv@Base 5.2.0
 _ZN15QWebPreferences36setOfflineWebApplicationCacheEnabledEb@Base 5.0.2
 _ZN15QWebPreferences37setUniversalAccessFromFileURLsAllowedEb@Base 5.2.0
 _ZN15QWebPreferences40offlineWebApplicationCacheEnabledChangedEv@Base 5.0.2
 _ZN15QWebPreferences41universalAccessFromFileURLsAllowedChangedEv@Base 5.2.0
 _ZN15QWebPreferencesC1Ev@Base 5.0.2
 _ZN15QWebPreferencesC2Ev@Base 5.0.2
 _ZN15QWebPreferencesD0Ev@Base 5.0.2
 _ZN15QWebPreferencesD1Ev@Base 5.0.2
 _ZN15QWebPreferencesD2Ev@Base 5.0.2
 _ZN15QWebScriptWorldC1ERKS_@Base 5.0.2
 _ZN15QWebScriptWorldC1Ev@Base 5.0.2
 _ZN15QWebScriptWorldC2ERKS_@Base 5.0.2
 _ZN15QWebScriptWorldC2Ev@Base 5.0.2
 _ZN15QWebScriptWorldD1Ev@Base 5.0.2
 _ZN15QWebScriptWorldD2Ev@Base 5.0.2
 _ZN15QWebScriptWorldaSERKS_@Base 5.0.2
 _ZN16QWebDownloadItem11qt_metacallEN11QMetaObject4CallEiPPv@Base 5.0.2
 _ZN16QWebDownloadItem11qt_metacastEPKc@Base 5.0.2
 _ZN16QWebDownloadItem16staticMetaObjectE@Base 5.0.2
 _ZN16QWebDownloadItem18setDestinationPathERK7QString@Base 5.0.2
 _ZN16QWebDownloadItem22destinationFileCreatedERK7QString@Base 5.0.2
 _ZN16QWebDownloadItem25totalBytesReceivedChangedEy@Base 5.0.2
 _ZN16QWebDownloadItem5startEv@Base 5.0.2
 _ZN16QWebDownloadItem6cancelEv@Base 5.0.2
 _ZN16QWebDownloadItem6failedENS_13DownloadErrorERK4QUrlRK7QString@Base 5.0.2
 _ZN16QWebDownloadItem9succeededEv@Base 5.0.2
 _ZN16QWebDownloadItemC1EP7QObject@Base 5.0.2
 _ZN16QWebDownloadItemC2EP7QObject@Base 5.0.2
 _ZN16QWebDownloadItemD0Ev@Base 5.0.2
 _ZN16QWebDownloadItemD1Ev@Base 5.0.2
 _ZN16QWebDownloadItemD2Ev@Base 5.0.2
 _ZN16QWebFrameAdapter10cancelLoadEv@Base 5.0.2
 _ZN16QWebFrameAdapter10setContentERK10QByteArrayRK7QStringRK4QUrl@Base 5.0.2
 _ZN16QWebFrameAdapter13setZoomFactorEd@Base 5.2.0
 _ZN16QWebFrameAdapter14clearCoreFrameEv@Base 5.0.2
 _ZN16QWebFrameAdapter14scrollToAnchorERK7QString@Base 5.0.2
 _ZN16QWebFrameAdapter15setViewportSizeERK5QSize@Base 5.0.2
 _ZN16QWebFrameAdapter17ensureAbsoluteUrlERK4QUrl@Base 5.0.2
 _ZN16QWebFrameAdapter17renderFrameExtrasEPN7WebCore15GraphicsContextEiRK7QRegion@Base 5.0.2
 _ZN16QWebFrameAdapter17setScrollBarValueEN2Qt11OrientationEi@Base 5.0.2
 _ZN16QWebFrameAdapter18evaluateJavaScriptERK7QString@Base 5.0.2
 _ZN16QWebFrameAdapter18handleGestureEventEP19QGestureEventFacade@Base 5.0.2
 _ZN16QWebFrameAdapter18setScrollBarPolicyEN2Qt11OrientationENS0_15ScrollBarPolicyE@Base 5.0.2
 _ZN16QWebFrameAdapter19setCustomLayoutSizeERK5QSize@Base 5.0.2
 _ZN16QWebFrameAdapter20renderRelativeCoordsEP8QPainteriRK7QRegion@Base 5.0.2
 _ZN16QWebFrameAdapter21_q_orientationChangedEv@Base 5.0.2
 _ZN16QWebFrameAdapter21setDelegatesScrollingEb@Base 5.0.2
 _ZN16QWebFrameAdapter21setTextSizeMultiplierEd@Base 5.2.0
 _ZN16QWebFrameAdapter22renderCompositedLayersEPN7WebCore15GraphicsContextERKNS0_7IntRectE@Base 5.0.2
 _ZN16QWebFrameAdapter23setPaintsEntireContentsEb@Base 5.0.2
 _ZN16QWebFrameAdapter26setFixedVisibleContentRectERK5QRect@Base 5.0.2
 _ZN16QWebFrameAdapter26setTiledBackingStoreFrozenEb@Base 5.0.2
 _ZN16QWebFrameAdapter27addToJavaScriptWindowObjectERK7QStringP7QObjectNS_14ValueOwnershipE@Base 5.0.2
 _ZN16QWebFrameAdapter27renderFromTiledBackingStoreEP8QPainterRK7QRegion@Base 5.0.2
 _ZN16QWebFrameAdapter27updateBackgroundRecursivelyERK6QColor@Base 5.0.2
 _ZN16QWebFrameAdapter33setTiledBackingStoreContentsScaleEf@Base 5.0.2
 _ZN16QWebFrameAdapter3kitEPKN7WebCore5FrameE@Base 5.0.2
 _ZN16QWebFrameAdapter4initEP15QWebPageAdapter@Base 5.0.2
 _ZN16QWebFrameAdapter4initEP15QWebPageAdapterP13QWebFrameData@Base 5.0.2
 _ZN16QWebFrameAdapter4loadERK15QNetworkRequestN21QNetworkAccessManager9OperationERK10QByteArray@Base 5.0.2
 _ZN16QWebFrameAdapter7setHtmlERK7QStringRK4QUrl@Base 5.0.2
 _ZN16QWebFrameAdapter8scrollByEii@Base 5.0.2
 _ZN16QWebFrameAdapter8setFocusEv@Base 5.0.2
 _ZN16QWebFrameAdapterC1Ev@Base 5.0.2
 _ZN16QWebFrameAdapterC2Ev@Base 5.0.2
 _ZN16QWebFrameAdapterD0Ev@Base 5.0.2
 _ZN16QWebFrameAdapterD1Ev@Base 5.0.2
 _ZN16QWebFrameAdapterD2Ev@Base 5.0.2
 _ZN17QWebPluginFactory11qt_metacallEN11QMetaObject4CallEiPPv@Base 5.0.2
 _ZN17QWebPluginFactory11qt_metacastEPKc@Base 5.0.2
 _ZN17QWebPluginFactory14refreshPluginsEv@Base 5.0.2
 _ZN17QWebPluginFactory16staticMetaObjectE@Base 5.0.2
 _ZN17QWebPluginFactory9extensionENS_9ExtensionEPKNS_15ExtensionOptionEPNS_15ExtensionReturnE@Base 5.0.2
 _ZN17QWebPluginFactoryC1EP7QObject@Base 5.0.2
 _ZN17QWebPluginFactoryC2EP7QObject@Base 5.0.2
 _ZN17QWebPluginFactoryD0Ev@Base 5.0.2
 _ZN17QWebPluginFactoryD1Ev@Base 5.0.2
 _ZN17QWebPluginFactoryD2Ev@Base 5.0.2
 _ZN18QQuickNetworkReply11qt_metacallEN11QMetaObject4CallEiPPv@Base 5.0.2
 _ZN18QQuickNetworkReply11qt_metacastEPKc@Base 5.0.2
 _ZN18QQuickNetworkReply14setContentTypeERK7QString@Base 5.0.2
 _ZN18QQuickNetworkReply16staticMetaObjectE@Base 5.0.2
 _ZN18QQuickNetworkReply21setNetworkRequestDataEN3WTF10PassRefPtrIN6WebKit30QtRefCountedNetworkRequestDataEEE@Base 5.0.2
 _ZN18QQuickNetworkReply22setWebViewExperimentalEP25QQuickWebViewExperimental@Base 5.0.2
 _ZN18QQuickNetworkReply4sendEv@Base 5.0.2
 _ZN18QQuickNetworkReply7setDataERK8QVariant@Base 5.0.2
 _ZN18QQuickNetworkReplyC1EP7QObject@Base 5.0.2
 _ZN18QQuickNetworkReplyC2EP7QObject@Base 5.0.2
 _ZN18QQuickNetworkReplyD0Ev@Base 5.0.2
 _ZN18QQuickNetworkReplyD1Ev@Base 5.0.2
 _ZN18QQuickNetworkReplyD2Ev@Base 5.0.2
 _ZN18QWebPluginDatabase11qt_metacallEN11QMetaObject4CallEiPPv@Base 5.0.2
 _ZN18QWebPluginDatabase11qt_metacastEPKc@Base 5.0.2
 _ZN18QWebPluginDatabase13addSearchPathERK7QString@Base 5.0.2
 _ZN18QWebPluginDatabase14setSearchPathsERK11QStringList@Base 5.0.2
 _ZN18QWebPluginDatabase16staticMetaObjectE@Base 5.0.2
 _ZN18QWebPluginDatabase17pluginForMimeTypeERK7QString@Base 5.0.2
 _ZN18QWebPluginDatabase18defaultSearchPathsEv@Base 5.0.2
 _ZN18QWebPluginDatabase29setPreferredPluginForMimeTypeERK7QStringRK14QWebPluginInfo@Base 5.0.2
 _ZN18QWebPluginDatabase7refreshEv@Base 5.0.2
 _ZN18QWebPluginDatabaseC1EP7QObject@Base 5.0.2
 _ZN18QWebPluginDatabaseC2EP7QObject@Base 5.0.2
 _ZN18QWebPluginDatabaseD0Ev@Base 5.0.2
 _ZN18QWebPluginDatabaseD1Ev@Base 5.0.2
 _ZN18QWebPluginDatabaseD2Ev@Base 5.0.2
 _ZN18QWebSecurityOrigin10allOriginsEv@Base 5.0.2
 _ZN18QWebSecurityOrigin12localSchemesEv@Base 5.0.2
 _ZN18QWebSecurityOrigin14addLocalSchemeERK7QString@Base 5.0.2
 _ZN18QWebSecurityOrigin16setDatabaseQuotaEx@Base 5.0.2
 _ZN18QWebSecurityOrigin17removeLocalSchemeERK7QString@Base 5.0.2
 _ZN18QWebSecurityOrigin23addAccessWhitelistEntryERK7QStringS2_NS_16SubdomainSettingE@Base 5.2.0
 _ZN18QWebSecurityOrigin24setApplicationCacheQuotaEx@Base 5.0.2
 _ZN18QWebSecurityOrigin26removeAccessWhitelistEntryERK7QStringS2_NS_16SubdomainSettingE@Base 5.2.0
 _ZN18QWebSecurityOriginC1EP25QWebSecurityOriginPrivate@Base 5.0.2
 _ZN18QWebSecurityOriginC1ERK4QUrl@Base 5.2.0
 _ZN18QWebSecurityOriginC1ERKS_@Base 5.0.2
 _ZN18QWebSecurityOriginC2EP25QWebSecurityOriginPrivate@Base 5.0.2
 _ZN18QWebSecurityOriginC2ERK4QUrl@Base 5.2.0
 _ZN18QWebSecurityOriginC2ERKS_@Base 5.0.2
 _ZN18QWebSecurityOriginD1Ev@Base 5.0.2
 _ZN18QWebSecurityOriginD2Ev@Base 5.0.2
 _ZN18QWebSecurityOriginaSERKS_@Base 5.0.2
 _ZN19QtWebSecurityOrigin11qt_metacallEN11QMetaObject4CallEiPPv@Base 5.0.2
 _ZN19QtWebSecurityOrigin11qt_metacastEPKc@Base 5.0.2
 _ZN19QtWebSecurityOrigin16staticMetaObjectE@Base 5.0.2
 _ZN19QtWebSecurityOriginC1EP7QObject@Base 5.0.2
 _ZN19QtWebSecurityOriginC2EP7QObject@Base 5.0.2
 _ZN19QtWebSecurityOriginD0Ev@Base 5.0.2
 _ZN19QtWebSecurityOriginD1Ev@Base 5.0.2
 _ZN19QtWebSecurityOriginD2Ev@Base 5.0.2
 _ZN20QQuickNetworkRequest11qt_metacallEN11QMetaObject4CallEiPPv@Base 5.0.2
 _ZN20QQuickNetworkRequest11qt_metacastEPKc@Base 5.0.2
 _ZN20QQuickNetworkRequest16staticMetaObjectE@Base 5.0.2
 _ZN20QQuickNetworkRequest21setNetworkRequestDataEN3WTF10PassRefPtrIN6WebKit30QtRefCountedNetworkRequestDataEEE@Base 5.0.2
 _ZN20QQuickNetworkRequestC1EP7QObject@Base 5.0.2
 _ZN20QQuickNetworkRequestC2EP7QObject@Base 5.0.2
 _ZN20QQuickNetworkRequestD0Ev@Base 5.0.2
 _ZN20QQuickNetworkRequestD1Ev@Base 5.0.2
 _ZN20QQuickNetworkRequestD2Ev@Base 5.0.2
 _ZN20QWebHistoryInterface11qt_metacallEN11QMetaObject4CallEiPPv@Base 5.0.2
 _ZN20QWebHistoryInterface11qt_metacastEPKc@Base 5.0.2
 _ZN20QWebHistoryInterface16defaultInterfaceEv@Base 5.0.2
 _ZN20QWebHistoryInterface16staticMetaObjectE@Base 5.0.2
 _ZN20QWebHistoryInterface19setDefaultInterfaceEPS_@Base 5.0.2
 _ZN20QWebHistoryInterfaceC1EP7QObject@Base 5.0.2
 _ZN20QWebHistoryInterfaceC2EP7QObject@Base 5.0.2
 _ZN20QWebHistoryInterfaceD0Ev@Base 5.0.2
 _ZN20QWebHistoryInterfaceD1Ev@Base 5.0.2
 _ZN20QWebHistoryInterfaceD2Ev@Base 5.0.2
 _ZN21QQuickWebViewAttached11qt_metacallEN11QMetaObject4CallEiPPv@Base 5.0.2
 _ZN21QQuickWebViewAttached11qt_metacastEPKc@Base 5.0.2
 _ZN21QQuickWebViewAttached11viewChangedEv@Base 5.0.2
 _ZN21QQuickWebViewAttached16staticMetaObjectE@Base 5.0.2
 _ZN21QQuickWebViewAttached7setViewEP13QQuickWebView@Base 5.0.2
 _ZN21QQuickWebViewAttachedC1EP7QObject@Base 5.0.2
 _ZN21QQuickWebViewAttachedC2EP7QObject@Base 5.0.2
 _ZN21QQuickWebViewAttachedD0Ev@Base 5.0.2
 _ZN21QQuickWebViewAttachedD1Ev@Base 5.0.2
 _ZN21QQuickWebViewAttachedD2Ev@Base 5.0.2
 _ZN21QWebElementCollection6appendERKS_@Base 5.0.2
 _ZN21QWebElementCollectionC1ERK11QWebElementRK7QString@Base 5.0.2
 _ZN21QWebElementCollectionC1ERKS_@Base 5.0.2
 _ZN21QWebElementCollectionC1Ev@Base 5.0.2
 _ZN21QWebElementCollectionC2ERK11QWebElementRK7QString@Base 5.0.2
 _ZN21QWebElementCollectionC2ERKS_@Base 5.0.2
 _ZN21QWebElementCollectionC2Ev@Base 5.0.2
 _ZN21QWebElementCollectionD1Ev@Base 5.0.2
 _ZN21QWebElementCollectionD2Ev@Base 5.0.2
 _ZN21QWebElementCollectionaSERKS_@Base 5.0.2
 _ZN21QWebIconImageProvider12requestImageERK7QStringP5QSizeRKS3_@Base 5.0.2
 _ZN21QWebIconImageProvider26iconURLForPageURLInContextERK7QStringPN6WebKit12QtWebContextE@Base 5.2.0
 _ZN21QWebIconImageProviderC1Ev@Base 5.0.2
 _ZN21QWebIconImageProviderC2Ev@Base 5.0.2
 _ZN21QWebIconImageProviderD0Ev@Base 5.0.2
 _ZN21QWebIconImageProviderD1Ev@Base 5.0.2
 _ZN21QWebIconImageProviderD2Ev@Base 5.0.2
 _ZN21QWebNavigationHistory11qt_metacallEN11QMetaObject4CallEiPPv@Base 5.0.2
 _ZN21QWebNavigationHistory11qt_metacastEPKc@Base 5.0.2
 _ZN21QWebNavigationHistory16staticMetaObjectE@Base 5.0.2
 _ZN21QWebNavigationHistoryC1Ev@Base 5.0.2
 _ZN21QWebNavigationHistoryC2Ev@Base 5.0.2
 _ZN21QWebNavigationHistoryD0Ev@Base 5.0.2
 _ZN21QWebNavigationHistoryD1Ev@Base 5.0.2
 _ZN21QWebNavigationHistoryD2Ev@Base 5.0.2
 _ZN21QWebNavigationRequest11qt_metacallEN11QMetaObject4CallEiPPv@Base 5.0.2
 _ZN21QWebNavigationRequest11qt_metacastEPKc@Base 5.0.2
 _ZN21QWebNavigationRequest13actionChangedEv@Base 5.0.2
 _ZN21QWebNavigationRequest16staticMetaObjectE@Base 5.0.2
 _ZN21QWebNavigationRequest9setActionEN13QQuickWebView23NavigationRequestActionE@Base 5.0.2
 _ZN21QWebNavigationRequestC1ERK4QUrlN2Qt11MouseButtonE6QFlagsINS3_16KeyboardModifierEEN13QQuickWebView14NavigationTypeEP7QObject@Base 5.0.2
 _ZN21QWebNavigationRequestC2ERK4QUrlN2Qt11MouseButtonE6QFlagsINS3_16KeyboardModifierEEN13QQuickWebView14NavigationTypeEP7QObject@Base 5.0.2
 _ZN21QWebNavigationRequestD0Ev@Base 5.0.2
 _ZN21QWebNavigationRequestD1Ev@Base 5.0.2
 _ZN21QWebNavigationRequestD2Ev@Base 5.0.2
 _ZN21QWebPermissionRequest11qt_metacallEN11QMetaObject4CallEiPPv@Base 5.0.2
 _ZN21QWebPermissionRequest11qt_metacastEPKc@Base 5.0.2
 _ZN21QWebPermissionRequest14securityOriginEv@Base 5.0.2
 _ZN21QWebPermissionRequest16staticMetaObjectE@Base 5.0.2
 _ZN21QWebPermissionRequest6createEPK22OpaqueWKSecurityOriginPK36OpaqueWKGeolocationPermissionRequest@Base 5.0.2
 _ZN21QWebPermissionRequest6createEPK22OpaqueWKSecurityOriginPK37OpaqueWKNotificationPermissionRequest@Base 5.0.2
 _ZN21QWebPermissionRequest8setAllowEb@Base 5.0.2
 _ZN21QWebPermissionRequestC1EPK22OpaqueWKSecurityOriginPK36OpaqueWKGeolocationPermissionRequestPK37OpaqueWKNotificationPermissionRequestNS_11RequestTypeEP7QObject@Base 5.0.2
 _ZN21QWebPermissionRequestC2EPK22OpaqueWKSecurityOriginPK36OpaqueWKGeolocationPermissionRequestPK37OpaqueWKNotificationPermissionRequestNS_11RequestTypeEP7QObject@Base 5.0.2
 _ZN21QWebPermissionRequestD0Ev@Base 5.0.2
 _ZN21QWebPermissionRequestD1Ev@Base 5.0.2
 _ZN21QWebPermissionRequestD2Ev@Base 5.0.2
 _ZN21QtPluginWidgetAdapter11qt_metacallEN11QMetaObject4CallEiPPv@Base 5.0.2
 _ZN21QtPluginWidgetAdapter11qt_metacastEPKc@Base 5.0.2
 _ZN21QtPluginWidgetAdapter16staticMetaObjectE@Base 5.0.2
 _ZN21QtPluginWidgetAdapterC1Ev@Base 5.0.2
 _ZN21QtPluginWidgetAdapterC2Ev@Base 5.0.2
 _ZN22QWebHistoryItemPrivate4coreEPK15QWebHistoryItem@Base 5.0.2
 _ZN23DumpRenderTreeSupportQt10initializeEv@Base 5.0.2
 _ZN23DumpRenderTreeSupportQt11clearOpenerEP16QWebFrameAdapter@Base 5.0.2
 _ZN23DumpRenderTreeSupportQt11contextMenuEP15QWebPageAdapter@Base 5.0.2
 _ZN23DumpRenderTreeSupportQt11scalePageByEP16QWebFrameAdapterfRK6QPoint@Base 5.0.2
 _ZN23DumpRenderTreeSupportQt11shouldCloseEP16QWebFrameAdapter@Base 5.0.2
 _ZN23DumpRenderTreeSupportQt12isTargetItemERK15QWebHistoryItem@Base 5.0.2
 _ZN23DumpRenderTreeSupportQt13selectedRangeEP15QWebPageAdapter@Base 5.0.2
 _ZN23DumpRenderTreeSupportQt14clearFrameNameEP16QWebFrameAdapter@Base 5.0.2
 _ZN23DumpRenderTreeSupportQt14viewportAsTextEP15QWebPageAdapteriRK5QSizeS4_@Base 5.0.2
 _ZN23DumpRenderTreeSupportQt15dumpFrameLoaderEb@Base 5.0.2
 _ZN23DumpRenderTreeSupportQt15setValueForUserERK11QWebElementRK7QString@Base 5.0.2
 _ZN23DumpRenderTreeSupportQt16addURLToRedirectERK7QStringS2_@Base 5.0.2
 _ZN23DumpRenderTreeSupportQt16dumpNotificationEb@Base 5.0.2
 _ZN23DumpRenderTreeSupportQt16isCommandEnabledEP15QWebPageAdapterRK7QString@Base 5.0.2
 _ZN23DumpRenderTreeSupportQt16responseMimeTypeEP16QWebFrameAdapter@Base 5.0.2
 _ZN23DumpRenderTreeSupportQt16setAlternateHtmlEP16QWebFrameAdapterRK7QStringRK4QUrlS7_@Base 5.0.2
 _ZN23DumpRenderTreeSupportQt16setDefersLoadingEP15QWebPageAdapterb@Base 5.0.2
 _ZN23DumpRenderTreeSupportQt16webInspectorShowEP15QWebPageAdapter@Base 5.0.2
 _ZN23DumpRenderTreeSupportQt16webPageGroupNameEP15QWebPageAdapter@Base 5.0.2
 _ZN23DumpRenderTreeSupportQt17addUserStyleSheetEP15QWebPageAdapterRK7QString@Base 5.0.2
 _ZN23DumpRenderTreeSupportQt17clearScriptWorldsEv@Base 5.0.2
 _ZN23DumpRenderTreeSupportQt17getJSWindowObjectEP16QWebFrameAdapterPPK15OpaqueJSContextPP13OpaqueJSValue@Base 5.2.0
 _ZN23DumpRenderTreeSupportQt17historyItemTargetERK15QWebHistoryItem@Base 5.0.2
 _ZN23DumpRenderTreeSupportQt17trackRepaintRectsEP16QWebFrameAdapter@Base 5.0.2
 _ZN23DumpRenderTreeSupportQt17webInspectorCloseEP15QWebPageAdapter@Base 5.0.2
 _ZN23DumpRenderTreeSupportQt18confirmCompositionEP15QWebPageAdapterPKc@Base 5.0.2
 _ZN23DumpRenderTreeSupportQt18hasDocumentElementEP16QWebFrameAdapter@Base 5.0.2
 _ZN23DumpRenderTreeSupportQt19frameRenderTreeDumpEP16QWebFrameAdapter@Base 5.0.2
 _ZN23DumpRenderTreeSupportQt19resetPageVisibilityEP15QWebPageAdapter@Base 5.2.0
 _ZN23DumpRenderTreeSupportQt19webPageSetGroupNameEP15QWebPageAdapterRK7QString@Base 5.0.2
 _ZN23DumpRenderTreeSupportQt20dumpEditingCallbacksEb@Base 5.0.2
 _ZN23DumpRenderTreeSupportQt20dumpHistoryCallbacksEb@Base 5.0.2
 _ZN23DumpRenderTreeSupportQt20enableMockScrollbarsEv@Base 5.0.2
 _ZN23DumpRenderTreeSupportQt20getChildHistoryItemsERK15QWebHistoryItem@Base 5.0.2
 _ZN23DumpRenderTreeSupportQt20resetGeolocationMockEP15QWebPageAdapter@Base 5.0.2
 _ZN23DumpRenderTreeSupportQt20resetInternalsObjectEP16QWebFrameAdapter@Base 5.0.2
 _ZN23DumpRenderTreeSupportQt20resetInternalsObjectEPK15OpaqueJSContext@Base 5.0.2
 _ZN23DumpRenderTreeSupportQt20setTrackRepaintRectsEP16QWebFrameAdapterb@Base 5.0.2
 _ZN23DumpRenderTreeSupportQt21dumpSetAcceptsEditingEb@Base 5.0.2
 _ZN23DumpRenderTreeSupportQt21injectInternalsObjectEP16QWebFrameAdapter@Base 5.0.2
 _ZN23DumpRenderTreeSupportQt21injectInternalsObjectEPK15OpaqueJSContext@Base 5.0.2
 _ZN23DumpRenderTreeSupportQt21removeUserStyleSheetsEP15QWebPageAdapter@Base 5.0.2
 _ZN23DumpRenderTreeSupportQt22getTrackedRepaintRectsEP16QWebFrameAdapterR7QVectorI5QRectE@Base 5.0.2
 _ZN23DumpRenderTreeSupportQt22javaScriptObjectsCountEv@Base 5.0.2
 _ZN23DumpRenderTreeSupportQt23garbageCollectorCollectEv@Base 5.0.2
 _ZN23DumpRenderTreeSupportQt23setCaretBrowsingEnabledEP15QWebPageAdapterb@Base 5.0.2
 _ZN23DumpRenderTreeSupportQt23setCustomPolicyDelegateEbb@Base 5.0.2
 _ZN23DumpRenderTreeSupportQt24executeCoreCommandByNameEP15QWebPageAdapterRK7QStringS4_@Base 5.0.2
 _ZN23DumpRenderTreeSupportQt24paintPagesWithBoundariesEP16QWebFrameAdapter@Base 5.0.2
 _ZN23DumpRenderTreeSupportQt24setMockDeviceOrientationEP15QWebPageAdapterbdbdbd@Base 5.0.2
 _ZN23DumpRenderTreeSupportQt25clearAllApplicationCachesEv@Base 5.0.2
 _ZN23DumpRenderTreeSupportQt25dumpResourceLoadCallbacksEb@Base 5.0.2
 _ZN23DumpRenderTreeSupportQt25dumpVisitedLinksCallbacksEb@Base 5.0.2
 _ZN23DumpRenderTreeSupportQt25setFrameFlatteningEnabledEP15QWebPageAdapterb@Base 5.0.2
 _ZN23DumpRenderTreeSupportQt25setSeamlessIFramesEnabledEb@Base 5.2.0
 _ZN23DumpRenderTreeSupportQt25setShouldUseFontSmoothingEb@Base 5.2.0
 _ZN23DumpRenderTreeSupportQt25webInspectorExecuteScriptEP15QWebPageAdapterlRK7QString@Base 5.0.2
 _ZN23DumpRenderTreeSupportQt25whiteListAccessFromOriginERK7QStringS2_S2_b@Base 5.0.2
 _ZN23DumpRenderTreeSupportQt26firstRectForCharacterRangeEP15QWebPageAdapterii@Base 5.0.2
 _ZN23DumpRenderTreeSupportQt26mediaContentUrlByElementIdEP16QWebFrameAdapterRK7QString@Base 5.0.2
 _ZN23DumpRenderTreeSupportQt26overwritePluginDirectoriesEv@Base 5.0.2
 _ZN23DumpRenderTreeSupportQt26setMockGeolocationPositionEP15QWebPageAdapterddd@Base 5.0.2
 _ZN23DumpRenderTreeSupportQt27resetOriginAccessWhiteListsEv@Base 5.0.2
 _ZN23DumpRenderTreeSupportQt28clearNotificationPermissionsEv@Base 5.2.0
 _ZN23DumpRenderTreeSupportQt28dumpProgressFinishedCallbackEb@Base 5.0.2
 _ZN23DumpRenderTreeSupportQt28dumpUserGestureInFrameLoaderEb@Base 5.0.2
 _ZN23DumpRenderTreeSupportQt28setDeferMainResourceDataLoadEb@Base 5.0.2
 _ZN23DumpRenderTreeSupportQt28setDumpRenderTreeModeEnabledEb@Base 5.0.2
 _ZN23DumpRenderTreeSupportQt28setMockGeolocationPermissionEP15QWebPageAdapterb@Base 5.0.2
 _ZN23DumpRenderTreeSupportQt28thirdPartyCookiePolicyAllowsEP15QWebPageAdapterRK4QUrlS4_@Base 5.0.2
 _ZN23DumpRenderTreeSupportQt29dumpResourceLoadCallbacksPathERK7QString@Base 5.0.2
 _ZN23DumpRenderTreeSupportQt29dumpResourceResponseMIMETypesEb@Base 5.0.2
 _ZN23DumpRenderTreeSupportQt29evaluateScriptInIsolatedWorldEP16QWebFrameAdapteriRK7QString@Base 5.0.2
 _ZN23DumpRenderTreeSupportQt29setAuthorAndUserStylesEnabledEP15QWebPageAdapterb@Base 5.0.2
 _ZN23DumpRenderTreeSupportQt29setWillSendRequestReturnsNullEb@Base 5.0.2
 _ZN23DumpRenderTreeSupportQt30dumpWillCacheResponseCallbacksEb@Base 5.0.2
 _ZN23DumpRenderTreeSupportQt30setWillSendRequestClearHeadersERK11QStringList@Base 5.0.2
 _ZN23DumpRenderTreeSupportQt31removeWhiteListAccessFromOriginERK7QStringS2_S2_b@Base 5.0.2
 _ZN23DumpRenderTreeSupportQt32simulateDesktopNotificationClickERK7QString@Base 5.0.2
 _ZN23DumpRenderTreeSupportQt33disableDefaultTypesettingFeaturesEv@Base 5.2.0
 _ZN23DumpRenderTreeSupportQt35setInteractiveFormValidationEnabledEP15QWebPageAdapterb@Base 5.0.2
 _ZN23DumpRenderTreeSupportQt35setWindowsBehaviorAsEditingBehaviorEP15QWebPageAdapter@Base 5.0.2
 _ZN23DumpRenderTreeSupportQt39setWillSendRequestReturnsNullOnRedirectEb@Base 5.0.2
 _ZN23DumpRenderTreeSupportQt40garbageCollectorCollectOnAlternateThreadEb@Base 5.0.2
 _ZN23DumpRenderTreeSupportQt40setDomainRelaxationForbiddenForURLSchemeEbRK7QString@Base 5.0.2
 _ZN23DumpRenderTreeSupportQt42setMockGeolocationPositionUnavailableErrorEP15QWebPageAdapterRK7QString@Base 5.0.2
 _ZN23DumpRenderTreeSupportQt44numberOfPendingGeolocationPermissionRequestsEP15QWebPageAdapter@Base 5.0.2
 _ZN23DumpRenderTreeSupportQt6goBackEP15QWebPageAdapter@Base 5.0.2
 _ZN23DumpRenderTreeSupportQtC1Ev@Base 5.0.2
 _ZN23DumpRenderTreeSupportQtC2Ev@Base 5.0.2
 _ZN23DumpRenderTreeSupportQtD1Ev@Base 5.0.2
 _ZN23DumpRenderTreeSupportQtD2Ev@Base 5.0.2
 _ZN23QQuickUrlSchemeDelegate11qt_metacallEN11QMetaObject4CallEiPPv@Base 5.0.2
 _ZN23QQuickUrlSchemeDelegate11qt_metacastEPKc@Base 5.0.2
 _ZN23QQuickUrlSchemeDelegate13schemeChangedEv@Base 5.0.2
 _ZN23QQuickUrlSchemeDelegate15receivedRequestEv@Base 5.0.2
 _ZN23QQuickUrlSchemeDelegate16staticMetaObjectE@Base 5.0.2
 _ZN23QQuickUrlSchemeDelegate9setSchemeERK7QString@Base 5.0.2
 _ZN23QQuickUrlSchemeDelegateC1EP7QObject@Base 5.0.2
 _ZN23QQuickUrlSchemeDelegateC2EP7QObject@Base 5.0.2
 _ZN23QQuickUrlSchemeDelegateD0Ev@Base 5.0.2
 _ZN23QQuickUrlSchemeDelegateD1Ev@Base 5.0.2
 _ZN23QQuickUrlSchemeDelegateD2Ev@Base 5.0.2
 _ZN23QWebNavigationListModel11qt_metacallEN11QMetaObject4CallEiPPv@Base 5.0.2
 _ZN23QWebNavigationListModel11qt_metacastEPKc@Base 5.0.2
 _ZN23QWebNavigationListModel16staticMetaObjectE@Base 5.0.2
 _ZN23QWebNavigationListModel5resetEv@Base 5.0.2
 _ZN23QWebNavigationListModelD0Ev@Base 5.0.2
 _ZN23QWebNavigationListModelD1Ev@Base 5.0.2
 _ZN23QWebNavigationListModelD2Ev@Base 5.0.2
 _ZN24QWebHitTestResultPrivateC1ERKN7WebCore13HitTestResultE@Base 5.0.2
 _ZN24QWebHitTestResultPrivateC1ERKS_@Base 5.0.2
 _ZN24QWebHitTestResultPrivateC2ERKN7WebCore13HitTestResultE@Base 5.0.2
 _ZN24QWebHitTestResultPrivateC2ERKS_@Base 5.0.2
 _ZN24QWebHitTestResultPrivateD1Ev@Base 5.0.2
 _ZN24QWebHitTestResultPrivateD2Ev@Base 5.0.2
 _ZN24QWebHitTestResultPrivateaSERKS_@Base 5.0.2
 _ZN25QQuickWebViewExperimental11goForwardToEi@Base 5.0.2
 _ZN25QQuickWebViewExperimental11postMessageERK7QString@Base 5.0.2
 _ZN25QQuickWebViewExperimental11qt_metacallEN11QMetaObject4CallEiPPv@Base 5.0.2
 _ZN25QQuickWebViewExperimental11qt_metacastEPKc@Base 5.0.2
 _ZN25QQuickWebViewExperimental12setUserAgentERK7QString@Base 5.0.2
 _ZN25QQuickWebViewExperimental13setFilePickerEP13QQmlComponent@Base 5.0.2
 _ZN25QQuickWebViewExperimental14setAlertDialogEP13QQmlComponent@Base 5.0.2
 _ZN25QQuickWebViewExperimental14setDeviceWidthEi@Base 5.0.2
 _ZN25QQuickWebViewExperimental14setUserScriptsERK5QListI4QUrlE@Base 5.0.2
 _ZN25QQuickWebViewExperimental15messageReceivedERK4QMapI7QString8QVariantE@Base 5.0.2
 _ZN25QQuickWebViewExperimental15processDidCrashEv@Base 5.2.0
 _ZN25QQuickWebViewExperimental15schemeDelegatesEv@Base 5.0.2
 _ZN25QQuickWebViewExperimental15setColorChooserEP13QQmlComponent@Base 5.0.2
 _ZN25QQuickWebViewExperimental15setDeviceHeightEi@Base 5.0.2
 _ZN25QQuickWebViewExperimental15setItemSelectorEP13QQmlComponent@Base 5.0.2
 _ZN25QQuickWebViewExperimental15setPromptDialogEP13QQmlComponent@Base 5.0.2
 _ZN25QQuickWebViewExperimental16setConfirmDialogEP13QQmlComponent@Base 5.0.2
 _ZN25QQuickWebViewExperimental16staticMetaObjectE@Base 5.0.2
 _ZN25QQuickWebViewExperimental16userAgentChangedEv@Base 5.0.2
 _ZN25QQuickWebViewExperimental17downloadRequestedEP16QWebDownloadItem@Base 5.0.2
 _ZN25QQuickWebViewExperimental17filePickerChangedEv@Base 5.0.2
 _ZN25QQuickWebViewExperimental18alertDialogChangedEv@Base 5.0.2
 _ZN25QQuickWebViewExperimental18deviceWidthChangedEv@Base 5.0.2
 _ZN25QQuickWebViewExperimental18didRelaunchProcessEv@Base 5.2.0
 _ZN25QQuickWebViewExperimental18evaluateJavaScriptERK7QStringRK8QJSValue@Base 5.0.2
 _ZN25QQuickWebViewExperimental18schemeDelegates_AtEP16QQmlListPropertyI23QQuickUrlSchemeDelegateEi@Base 5.0.2
 _ZN25QQuickWebViewExperimental18userScriptsChangedEv@Base 5.0.2
 _ZN25QQuickWebViewExperimental19colorChooserChangedEv@Base 5.0.2
 _ZN25QQuickWebViewExperimental19deviceHeightChangedEv@Base 5.0.2
 _ZN25QQuickWebViewExperimental19itemSelectorChangedEv@Base 5.0.2
 _ZN25QQuickWebViewExperimental19permissionRequestedEP21QWebPermissionRequest@Base 5.0.2
 _ZN25QQuickWebViewExperimental19promptDialogChangedEv@Base 5.0.2
 _ZN25QQuickWebViewExperimental20confirmDialogChangedEv@Base 5.0.2
 _ZN25QQuickWebViewExperimental21loadVisuallyCommittedEv@Base 5.0.2
 _ZN25QQuickWebViewExperimental21schemeDelegates_ClearEP16QQmlListPropertyI23QQuickUrlSchemeDelegateE@Base 5.0.2
 _ZN25QQuickWebViewExperimental21schemeDelegates_CountEP16QQmlListPropertyI23QQuickUrlSchemeDelegateE@Base 5.0.2
 _ZN25QQuickWebViewExperimental22schemeDelegates_AppendEP16QQmlListPropertyI23QQuickUrlSchemeDelegateEPS1_@Base 5.0.2
 _ZN25QQuickWebViewExperimental22setDatabaseQuotaDialogEP13QQmlComponent@Base 5.0.2
 _ZN25QQuickWebViewExperimental23exitFullScreenRequestedEv@Base 5.0.2
 _ZN25QQuickWebViewExperimental23setAuthenticationDialogEP13QQmlComponent@Base 5.0.2
 _ZN25QQuickWebViewExperimental24enterFullScreenRequestedEv@Base 5.0.2
 _ZN25QQuickWebViewExperimental24flickableViewportEnabledEv@Base 5.0.2
 _ZN25QQuickWebViewExperimental24setTransparentBackgroundEb@Base 5.0.2
 _ZN25QQuickWebViewExperimental25remoteInspectorUrlChangedEv@Base 5.0.2
 _ZN25QQuickWebViewExperimental26databaseQuotaDialogChangedEv@Base 5.0.2
 _ZN25QQuickWebViewExperimental26processDidBecomeResponsiveEv@Base 5.2.0
 _ZN25QQuickWebViewExperimental26sendApplicationSchemeReplyEP18QQuickNetworkReply@Base 5.0.2
 _ZN25QQuickWebViewExperimental26setRenderToOffscreenBufferEb@Base 5.0.2
 _ZN25QQuickWebViewExperimental27authenticationDialogChangedEv@Base 5.0.2
 _ZN25QQuickWebViewExperimental27setFlickableViewportEnabledEb@Base 5.0.2
 _ZN25QQuickWebViewExperimental28processDidBecomeUnresponsiveEv@Base 5.2.0
 _ZN25QQuickWebViewExperimental28setProxyAuthenticationDialogEP13QQmlComponent@Base 5.0.2
 _ZN25QQuickWebViewExperimental28setUseDefaultContentItemSizeEb@Base 5.0.2
 _ZN25QQuickWebViewExperimental30invokeApplicationSchemeHandlerEN3WTF10PassRefPtrIN6WebKit30QtRefCountedNetworkRequestDataEEE@Base 5.0.2
 _ZN25QQuickWebViewExperimental32proxyAuthenticationDialogChangedEv@Base 5.0.2
 _ZN25QQuickWebViewExperimental32setCertificateVerificationDialogEP13QQmlComponent@Base 5.0.2
 _ZN25QQuickWebViewExperimental32setPreferredMinimumContentsWidthEi@Base 5.0.2
 _ZN25QQuickWebViewExperimental36certificateVerificationDialogChangedEv@Base 5.0.2
 _ZN25QQuickWebViewExperimental36preferredMinimumContentsWidthChangedEv@Base 5.0.2
 _ZN25QQuickWebViewExperimental4pageEv@Base 5.0.2
 _ZN25QQuickWebViewExperimental4testEv@Base 5.0.2
 _ZN25QQuickWebViewExperimental8findTextERK7QString6QFlagsINS_8FindFlagEE@Base 5.2.0
 _ZN25QQuickWebViewExperimental8goBackToEi@Base 5.0.2
 _ZN25QQuickWebViewExperimental9textFoundEi@Base 5.2.0
 _ZN25QQuickWebViewExperimentalC1EP13QQuickWebViewP20QQuickWebViewPrivate@Base 5.0.2
 _ZN25QQuickWebViewExperimentalC2EP13QQuickWebViewP20QQuickWebViewPrivate@Base 5.0.2
 _ZN25QQuickWebViewExperimentalD0Ev@Base 5.0.2
 _ZN25QQuickWebViewExperimentalD1Ev@Base 5.0.2
 _ZN25QQuickWebViewExperimentalD2Ev@Base 5.0.2
 _ZN3JSC10Identifier11addSlowCaseEPNS_2VMEPN3WTF10StringImplE@Base 5.2.0
 _ZN3JSC10Identifier11addSlowCaseEPNS_9ExecStateEPN3WTF10StringImplE@Base 5.0.2
 _ZN3JSC10Identifier27checkCurrentIdentifierTableEPNS_2VME@Base 5.2.0
 _ZN3JSC10Identifier27checkCurrentIdentifierTableEPNS_9ExecStateE@Base 5.0.2
 _ZN3JSC10Identifier3addEPNS_9ExecStateEPKc@Base 5.0.2
 _ZN3JSC10Identifier4fromEPNS_9ExecStateEi@Base 5.0.2
 _ZN3JSC10Identifier4fromEPNS_9ExecStateEj@Base 5.0.2
 _ZN3JSC10JSFunction11displayNameEPNS_9ExecStateE@Base 5.0.2
 _ZN3JSC10JSFunction4nameEPNS_9ExecStateE@Base 5.0.2
 (subst)_ZN3JSC10JSFunction6createEPNS_9ExecStateEPNS_14JSGlobalObjectEiRKN3WTF6StringEPF{int64_t}S2_ENS_9IntrinsicESA_@Base 5.2.0
 _ZN3JSC10JSFunction6s_infoE@Base 5.0.2
 _ZN3JSC10JSFunctionC1EPNS_9ExecStateEPNS_14JSGlobalObjectEPNS_9StructureE@Base 5.0.2
 _ZN3JSC10JSFunctionC2EPNS_9ExecStateEPNS_14JSGlobalObjectEPNS_9StructureE@Base 5.0.2
 _ZN3JSC10StackFrame20computeLineAndColumnERjS1_@Base 5.2.0
 _ZN3JSC10StackFrame8toStringEPNS_9ExecStateE@Base 5.2.0
 _ZN3JSC10throwErrorEPNS_9ExecStateENS_7JSValueE@Base 5.0.2
 _ZN3JSC10throwErrorEPNS_9ExecStateEPNS_8JSObjectE@Base 5.0.2
 (subst)_ZN3JSC11CopiedSpace19tryAllocateSlowCaseE{size_t}PPv@Base 5.2.0
 _ZN3JSC11Interpreter13dumpCallFrameEPNS_9ExecStateE@Base 5.0.2
 (subst)_ZN3JSC11Interpreter13getStackTraceEPNS_2VMERN3WTF6VectorINS_10StackFrameEL{size_t}0ENS3_15CrashOnOverflowEEE{size_t}@Base 5.2.0
 _ZN3JSC11Interpreter17ErrorHandlingModeC1EPNS_9ExecStateE@Base 5.0.2
 _ZN3JSC11Interpreter17ErrorHandlingModeC2EPNS_9ExecStateE@Base 5.0.2
 _ZN3JSC11Interpreter17ErrorHandlingModeD1Ev@Base 5.0.2
 _ZN3JSC11Interpreter17ErrorHandlingModeD2Ev@Base 5.0.2
 _ZN3JSC11JSWithScope6s_infoE@Base 5.0.2
 _ZN3JSC11ParserArena5resetEv@Base 5.0.2
 _ZN3JSC11SlotVisitor16mergeOpaqueRootsEv@Base 5.0.2
 _ZN3JSC11SlotVisitor8validateEPNS_6JSCellE@Base 5.0.2
 _ZN3JSC11checkSyntaxEPNS_9ExecStateERKNS_10SourceCodeEPNS_7JSValueE@Base 5.0.2
 _ZN3JSC11checkSyntaxERNS_2VMERKNS_10SourceCodeERNS_11ParserErrorE@Base 5.2.0
 _ZN3JSC11createErrorEPNS_9ExecStateEPFPNS_8JSObjectES1_RKN3WTF6StringEENS_7JSValueES7_@Base 5.2.0
 _ZN3JSC11createErrorEPNS_9ExecStateERKN3WTF6StringE@Base 5.0.2
 _ZN3JSC11regExpFlagsERKN3WTF6StringE@Base 5.0.2
 _ZN3JSC12DateInstance14finishCreationERNS_2VMEd@Base 5.2.0
 _ZN3JSC12DateInstance6s_infoE@Base 5.0.2
 _ZN3JSC12DateInstanceC1EPNS_9ExecStateEPNS_9StructureE@Base 5.0.2
 _ZN3JSC12DateInstanceC2EPNS_9ExecStateEPNS_9StructureE@Base 5.0.2
 _ZN3JSC12GlobalJSLockC1Ev@Base 5.0.2
 _ZN3JSC12GlobalJSLockC2Ev@Base 5.0.2
 _ZN3JSC12GlobalJSLockD1Ev@Base 5.0.2
 _ZN3JSC12GlobalJSLockD2Ev@Base 5.0.2
 _ZN3JSC12JSActivation24getOwnPropertyDescriptorEPNS_8JSObjectEPNS_9ExecStateENS_12PropertyNameERNS_18PropertyDescriptorE@Base 5.0.2
 _ZN3JSC12JSLockHolderC1EPNS_2VME@Base 5.2.0
 _ZN3JSC12JSLockHolderC1EPNS_9ExecStateE@Base 5.0.2
 _ZN3JSC12JSLockHolderC1ERNS_2VME@Base 5.2.0
 _ZN3JSC12JSLockHolderC2EPNS_2VME@Base 5.2.0
 _ZN3JSC12JSLockHolderC2EPNS_9ExecStateE@Base 5.0.2
 _ZN3JSC12JSLockHolderC2ERNS_2VME@Base 5.2.0
 _ZN3JSC12JSLockHolderD1Ev@Base 5.0.2
 _ZN3JSC12JSLockHolderD2Ev@Base 5.0.2
 _ZN3JSC12NumberObject6s_infoE@Base 5.0.2
 _ZN3JSC12PrototypeMap32emptyObjectStructureForPrototypeEPNS_8JSObjectEj@Base 5.2.0
 _ZN3JSC12RegExpObject14deletePropertyEPNS_6JSCellEPNS_9ExecStateENS_12PropertyNameE@Base 5.0.2
 _ZN3JSC12RegExpObject14finishCreationEPNS_14JSGlobalObjectE@Base 5.0.2
 _ZN3JSC12RegExpObject16getPropertyNamesEPNS_8JSObjectEPNS_9ExecStateERNS_17PropertyNameArrayENS_15EnumerationModeE@Base 5.0.2
 _ZN3JSC12RegExpObject17defineOwnPropertyEPNS_8JSObjectEPNS_9ExecStateENS_12PropertyNameERNS_18PropertyDescriptorEb@Base 5.0.2
 _ZN3JSC12RegExpObject27getOwnNonIndexPropertyNamesEPNS_8JSObjectEPNS_9ExecStateERNS_17PropertyNameArrayENS_15EnumerationModeE@Base 5.0.2
 _ZN3JSC12RegExpObject6s_infoE@Base 5.0.2
 _ZN3JSC12RegExpObjectC1EPNS_14JSGlobalObjectEPNS_9StructureEPNS_6RegExpE@Base 5.0.2
 _ZN3JSC12RegExpObjectC2EPNS_14JSGlobalObjectEPNS_9StructureEPNS_6RegExpE@Base 5.0.2
 _ZN3JSC12SamplingTool5setupEv@Base 5.0.2
 _ZN3JSC12SmallStrings17createEmptyStringEPNS_2VME@Base 5.2.0
 _ZN3JSC12SmallStrings24singleCharacterStringRepEh@Base 5.0.2
 _ZN3JSC12SmallStrings27createSingleCharacterStringEPNS_2VMEh@Base 5.2.0
 _ZN3JSC12StringObject14finishCreationERNS_2VMEPNS_8JSStringE@Base 5.2.0
 _ZN3JSC12StringObject6s_infoE@Base 5.0.2
 _ZN3JSC12StringObjectC1ERNS_2VMEPNS_9StructureE@Base 5.2.0
 _ZN3JSC12StringObjectC2ERNS_2VMEPNS_9StructureE@Base 5.2.0
 _ZN3JSC13BooleanObject14finishCreationERNS_2VME@Base 5.2.0
 _ZN3JSC13BooleanObject6s_infoE@Base 5.0.2
 _ZN3JSC13BooleanObjectC1ERNS_2VMEPNS_9StructureE@Base 5.2.0
 _ZN3JSC13BooleanObjectC2ERNS_2VMEPNS_9StructureE@Base 5.2.0
 _ZN3JSC13JSFinalObject13visitChildrenEPNS_6JSCellERNS_11SlotVisitorE@Base 5.0.2
 _ZN3JSC13JSFinalObject6s_infoE@Base 5.0.2
 _ZN3JSC13PropertyTable6s_infoE@Base 5.2.0
 _ZN3JSC13SamplingFlags4stopEv@Base 5.0.2
 _ZN3JSC13SamplingFlags5startEv@Base 5.0.2
 _ZN3JSC13SamplingFlags7s_flagsE@Base 5.0.2
 _ZN3JSC13WatchpointSet15notifyWriteSlowEv@Base 5.0.2
 _ZN3JSC14ExecutableBase6s_infoE@Base 5.0.2
 _ZN3JSC14HeapStatistics13reportSuccessEv@Base 5.0.2
 _ZN3JSC14JSGlobalObject10globalExecEv@Base 5.0.2
 _ZN3JSC14JSGlobalObject12toThisObjectEPNS_6JSCellEPNS_9ExecStateE@Base 5.0.2
 _ZN3JSC14JSGlobalObject13clearRareDataEPNS_6JSCellE@Base 5.0.2
 _ZN3JSC14JSGlobalObject13setGlobalThisERNS_2VMEPNS_8JSObjectE@Base 5.2.0
 _ZN3JSC14JSGlobalObject13visitChildrenEPNS_6JSCellERNS_11SlotVisitorE@Base 5.0.2
 _ZN3JSC14JSGlobalObject16addStaticGlobalsEPNS0_18GlobalPropertyInfoEi@Base 5.0.2
 _ZN3JSC14JSGlobalObject16putDirectVirtualEPNS_8JSObjectEPNS_9ExecStateENS_12PropertyNameENS_7JSValueEj@Base 5.0.2
 _ZN3JSC14JSGlobalObject17defineOwnPropertyEPNS_8JSObjectEPNS_9ExecStateENS_12PropertyNameERNS_18PropertyDescriptorEb@Base 5.0.2
 _ZN3JSC14JSGlobalObject18getOwnPropertySlotEPNS_6JSCellEPNS_9ExecStateENS_12PropertyNameERNS_12PropertySlotE@Base 5.0.2
 _ZN3JSC14JSGlobalObject24getOwnPropertyDescriptorEPNS_8JSObjectEPNS_9ExecStateENS_12PropertyNameERNS_18PropertyDescriptorE@Base 5.0.2
 _ZN3JSC14JSGlobalObject25s_globalObjectMethodTableE@Base 5.0.2
 _ZN3JSC14JSGlobalObject3putEPNS_6JSCellEPNS_9ExecStateENS_12PropertyNameENS_7JSValueERNS_15PutPropertySlotE@Base 5.0.2
 _ZN3JSC14JSGlobalObject4initEPNS_8JSObjectE@Base 5.0.2
 _ZN3JSC14JSGlobalObject6s_infoE@Base 5.0.2
 _ZN3JSC14JSGlobalObject7destroyEPNS_6JSCellE@Base 5.0.2
 _ZN3JSC14JSGlobalObjectC1ERNS_2VMEPNS_9StructureEPKNS_23GlobalObjectMethodTableE@Base 5.2.0
 _ZN3JSC14JSGlobalObjectC2ERNS_2VMEPNS_9StructureEPKNS_23GlobalObjectMethodTableE@Base 5.2.0
 _ZN3JSC14JSGlobalObjectD1Ev@Base 5.0.2
 _ZN3JSC14JSGlobalObjectD2Ev@Base 5.0.2
 _ZN3JSC14LegacyProfiler13stopProfilingEPNS_9ExecStateERKN3WTF6StringE@Base 5.2.0
 _ZN3JSC14LegacyProfiler14startProfilingEPNS_9ExecStateERKN3WTF6StringE@Base 5.2.0
 _ZN3JSC14LegacyProfiler8profilerEv@Base 5.2.0
 _ZN3JSC14MachineThreads16addCurrentThreadEv@Base 5.0.2
 _ZN3JSC14MarkStackArray6expandEv@Base 5.0.2
 _ZN3JSC14SamplingRegion4dumpEv@Base 5.0.2
 _ZN3JSC14SamplingThread4stopEv@Base 5.0.2
 _ZN3JSC14SamplingThread5startEj@Base 5.0.2
 _ZN3JSC14SourceProvider5getIDEv@Base 5.2.0
 _ZN3JSC14SourceProviderC1ERKN3WTF6StringERKNS1_12TextPositionE@Base 5.2.0
 _ZN3JSC14SourceProviderC2ERKN3WTF6StringERKNS1_12TextPositionE@Base 5.2.0
 _ZN3JSC14SourceProviderD0Ev@Base 5.2.0
 _ZN3JSC14SourceProviderD1Ev@Base 5.2.0
 _ZN3JSC14SourceProviderD2Ev@Base 5.2.0
 _ZN3JSC14VTableSpectrum5countEPNS_6JSCellE@Base 5.0.2
 _ZN3JSC14throwTypeErrorEPNS_9ExecStateE@Base 5.0.2
 _ZN3JSC14throwTypeErrorEPNS_9ExecStateERKN3WTF6StringE@Base 5.0.2
 _ZN3JSC15IdentifierTable3addEPN3WTF10StringImplE@Base 5.2.0
 _ZN3JSC15IdentifierTableD1Ev@Base 5.2.0
 _ZN3JSC15IdentifierTableD2Ev@Base 5.2.0
 (subst)_ZN3JSC15MarkedAllocator16allocateSlowCaseE{size_t}@Base 5.2.0
 _ZN3JSC15WeakHandleOwner26isReachableFromOpaqueRootsENS_6HandleINS_7UnknownEEEPvRNS_11SlotVisitorE@Base 5.0.2
 _ZN3JSC15WeakHandleOwner8finalizeENS_6HandleINS_7UnknownEEEPv@Base 5.0.2
 _ZN3JSC15WeakHandleOwnerD0Ev@Base 5.0.2
 _ZN3JSC15WeakHandleOwnerD1Ev@Base 5.0.2
 _ZN3JSC15WeakHandleOwnerD2Ev@Base 5.0.2
 _ZN3JSC15constructNumberEPNS_9ExecStateEPNS_14JSGlobalObjectENS_7JSValueE@Base 5.0.2
 _ZN3JSC15constructStringEPNS_9ExecStateEPNS_14JSGlobalObjectENS_7JSValueE@Base 5.0.2
 _ZN3JSC15createTypeErrorEPNS_9ExecStateERKN3WTF6StringE@Base 5.0.2
 _ZN3JSC16InternalFunction14finishCreationERNS_2VMERKN3WTF6StringE@Base 5.2.0
 _ZN3JSC16InternalFunction4nameEPNS_9ExecStateE@Base 5.0.2
 _ZN3JSC16InternalFunction6s_infoE@Base 5.0.2
 _ZN3JSC16InternalFunctionC1EPNS_14JSGlobalObjectEPNS_9StructureE@Base 5.0.2
 _ZN3JSC16InternalFunctionC2EPNS_14JSGlobalObjectEPNS_9StructureE@Base 5.0.2
 _ZN3JSC16SymbolTableEntry15notifyWriteSlowEv@Base 5.0.2
 _ZN3JSC16SymbolTableEntry16freeFatEntrySlowEv@Base 5.2.0
 _ZN3JSC16createRangeErrorEPNS_9ExecStateERKN3WTF6StringE@Base 5.0.2
 _ZN3JSC16slowValidateCellEPNS_14JSGlobalObjectE@Base 5.0.2
 _ZN3JSC16slowValidateCellEPNS_6JSCellE@Base 5.0.2
 _ZN3JSC16throwSyntaxErrorEPNS_9ExecStateE@Base 5.0.2
 _ZN3JSC17JSAPIValueWrapper6s_infoE@Base 5.0.2
 _ZN3JSC17PropertyNameArray3addEPN3WTF10StringImplE@Base 5.0.2
 _ZN3JSC17SharedSymbolTable6s_infoE@Base 5.0.2
 _ZN3JSC17StructureRareData6s_infoE@Base 5.2.0
 _ZN3JSC17createSyntaxErrorEPNS_9ExecStateERKN3WTF6StringE@Base 5.0.2
 _ZN3JSC17weakClearSlowCaseERPNS_8WeakImplE@Base 5.2.0
 _ZN3JSC18DebuggerActivation14finishCreationERNS_2VMEPNS_8JSObjectE@Base 5.2.0
 _ZN3JSC18DebuggerActivation6s_infoE@Base 5.0.2
 _ZN3JSC18DebuggerActivationC1ERNS_2VME@Base 5.2.0
 _ZN3JSC18DebuggerActivationC2ERNS_2VME@Base 5.2.0
 _ZN3JSC18PropertyDescriptor11setWritableEb@Base 5.0.2
 _ZN3JSC18PropertyDescriptor12setUndefinedEv@Base 5.0.2
 _ZN3JSC18PropertyDescriptor13setDescriptorENS_7JSValueEj@Base 5.0.2
 _ZN3JSC18PropertyDescriptor13setEnumerableEb@Base 5.0.2
 _ZN3JSC18PropertyDescriptor15setConfigurableEb@Base 5.0.2
 _ZN3JSC18PropertyDescriptor17defaultAttributesE@Base 5.0.2
 _ZN3JSC18PropertyDescriptor9setGetterENS_7JSValueE@Base 5.0.2
 _ZN3JSC18PropertyDescriptor9setSetterENS_7JSValueE@Base 5.0.2
 _ZN3JSC19InlineWatchpointSet11inflateSlowEv@Base 5.0.2
 _ZN3JSC19InlineWatchpointSet7freeFatEv@Base 5.0.2
 _ZN3JSC19JSSymbolTableObject14deletePropertyEPNS_6JSCellEPNS_9ExecStateENS_12PropertyNameE@Base 5.0.2
 _ZN3JSC19JSSymbolTableObject27getOwnNonIndexPropertyNamesEPNS_8JSObjectEPNS_9ExecStateERNS_17PropertyNameArrayENS_15EnumerationModeE@Base 5.0.2
 _ZN3JSC19SourceProviderCache5clearEv@Base 5.0.2
 _ZN3JSC19SourceProviderCacheD1Ev@Base 5.0.2
 _ZN3JSC19SourceProviderCacheD2Ev@Base 5.0.2
 _ZN3JSC19SparseArrayValueMap6s_infoE@Base 5.0.2
 _ZN3JSC19initializeThreadingEv@Base 5.0.2
 _ZN3JSC20MarkedArgumentBuffer10slowAppendENS_7JSValueE@Base 5.0.2
 _ZN3JSC20WriteBarrierCounters22usesWithBarrierFromCppE@Base 5.0.2
 _ZN3JSC20WriteBarrierCounters25usesWithoutBarrierFromCppE@Base 5.0.2
 _ZN3JSC20createReferenceErrorEPNS_9ExecStateERKN3WTF6StringE@Base 5.0.2
 _ZN3JSC21getCallableObjectSlowEPNS_6JSCellE@Base 5.0.2
 _ZN3JSC22ArrayAllocationProfile18updateIndexingTypeEv@Base 5.0.2
 _ZN3JSC22JSPropertyNameIterator6s_infoE@Base 5.2.0
 _ZN3JSC22globalMemoryStatisticsEv@Base 5.0.2
 _ZN3JSC23AbstractSamplingCounter30s_abstractSamplingCounterChainE@Base 5.0.2
 _ZN3JSC23AbstractSamplingCounter4dumpEv@Base 5.0.2
 _ZN3JSC23objectProtoFuncToStringEPNS_9ExecStateE@Base 5.0.2
 _ZN3JSC23setUpStaticFunctionSlotEPNS_9ExecStateEPKNS_9HashEntryEPNS_8JSObjectENS_12PropertyNameERNS_12PropertySlotE@Base 5.0.2
 _ZN3JSC24DynamicGlobalObjectScopeC1ERNS_2VMEPNS_14JSGlobalObjectE@Base 5.2.0
 _ZN3JSC24DynamicGlobalObjectScopeC2ERNS_2VMEPNS_14JSGlobalObjectE@Base 5.2.0
 _ZN3JSC24TerminatedExecutionError6s_infoE@Base 5.0.2
 _ZN3JSC24createStackOverflowErrorEPNS_9ExecStateE@Base 5.0.2
 _ZN3JSC24getCalculatedDisplayNameEPNS_9ExecStateEPNS_8JSObjectE@Base 5.0.2
 _ZN3JSC25JSSegmentedVariableObject12addRegistersEi@Base 5.0.2
 _ZN3JSC25JSSegmentedVariableObject13visitChildrenEPNS_6JSCellERNS_11SlotVisitorE@Base 5.0.2
 _ZN3JSC25JSSegmentedVariableObject17findRegisterIndexEPv@Base 5.0.2
 _ZN3JSC25evaluateInGlobalCallFrameERKN3WTF6StringERNS_7JSValueEPNS_14JSGlobalObjectE@Base 5.0.2
 _ZN3JSC29callHostFunctionAsConstructorEPNS_9ExecStateE@Base 5.0.2
 _ZN3JSC29createNotEnoughArgumentsErrorEPNS_9ExecStateE@Base 5.0.2
 _ZN3JSC2VM10ClientDataD0Ev@Base 5.2.0
 _ZN3JSC2VM10ClientDataD1Ev@Base 5.2.0
 _ZN3JSC2VM10ClientDataD2Ev@Base 5.2.0
 _ZN3JSC2VM12createLeakedENS_8HeapTypeE@Base 5.2.0
 _ZN3JSC2VM12stopSamplingEv@Base 5.2.0
 _ZN3JSC2VM13startSamplingEv@Base 5.2.0
 _ZN3JSC2VM14discardAllCodeEv@Base 5.2.0
 _ZN3JSC2VM14dumpSampleDataEPNS_9ExecStateE@Base 5.2.0
 _ZN3JSC2VM14resetDateCacheEv@Base 5.2.0
 _ZN3JSC2VM14sharedInstanceEv@Base 5.2.0
 _ZN3JSC2VM15dumpRegExpTraceEv@Base 5.2.0
 _ZN3JSC2VM19clearExceptionStackEv@Base 5.2.0
 _ZN3JSC2VM23releaseExecutableMemoryEv@Base 5.2.0
 _ZN3JSC2VM6createENS_8HeapTypeE@Base 5.2.0
 _ZN3JSC2VMD1Ev@Base 5.2.0
 _ZN3JSC2VMD2Ev@Base 5.2.0
 _ZN3JSC30isTerminatedExecutionExceptionENS_7JSValueE@Base 5.0.2
 _ZN3JSC36StrictModeReadonlyPropertyWriteErrorE@Base 5.0.2
 (arch=amd64 armhf i386)_ZN3JSC3DFG18getNumCompilationsEv@Base 5.2.1
 _ZN3JSC41constructFunctionSkippingEvalEnabledCheckEPNS_9ExecStateEPNS_14JSGlobalObjectERKNS_7ArgListERKNS_10IdentifierERKN3WTF6StringERKNSA_12TextPositionE@Base 5.0.2
 _ZN3JSC4Heap11objectCountEv@Base 5.0.2
 _ZN3JSC4Heap12addFinalizerEPNS_6JSCellEPFvS2_E@Base 5.0.2
 _ZN3JSC4Heap16activityCallbackEv@Base 5.0.2
 _ZN3JSC4Heap16objectTypeCountsEv@Base 5.0.2
 _ZN3JSC4Heap17collectAllGarbageEv@Base 5.0.2
 _ZN3JSC4Heap17globalObjectCountEv@Base 5.0.2
 (subst)_ZN3JSC4Heap17isValidAllocationE{size_t}@Base 5.2.0
 _ZN3JSC4Heap19setActivityCallbackEN3WTF10PassOwnPtrINS_18GCActivityCallbackEEE@Base 5.2.0
 _ZN3JSC4Heap20lastChanceToFinalizeEv@Base 5.0.2
 _ZN3JSC4Heap20protectedObjectCountEv@Base 5.0.2
 _ZN3JSC4Heap21deleteAllCompiledCodeEv@Base 5.0.2
 _ZN3JSC4Heap25protectedObjectTypeCountsEv@Base 5.0.2
 _ZN3JSC4Heap26protectedGlobalObjectCountEv@Base 5.0.2
 _ZN3JSC4Heap26reportAbandonedObjectGraphEv@Base 5.0.2
 (subst)_ZN3JSC4Heap29reportExtraMemoryCostSlowCaseE{size_t}@Base 5.2.0
 _ZN3JSC4Heap32setGarbageCollectionTimerEnabledEb@Base 5.0.2
 _ZN3JSC4Heap4sizeEv@Base 5.0.2
 _ZN3JSC4Heap7protectENS_7JSValueE@Base 5.0.2
 _ZN3JSC4Heap7sweeperEv@Base 5.0.2
 _ZN3JSC4Heap8capacityEv@Base 5.0.2
 _ZN3JSC4Heap9unprotectENS_7JSValueE@Base 5.0.2
 _ZN3JSC4Yarr11YarrPatternC1ERKN3WTF6StringEbbPPKc@Base 5.0.2
 _ZN3JSC4Yarr11YarrPatternC2ERKN3WTF6StringEbbPPKc@Base 5.0.2
 _ZN3JSC4Yarr11byteCompileERNS0_11YarrPatternEPN3WTF20BumpPointerAllocatorE@Base 5.0.2
 _ZN3JSC4Yarr9interpretEPNS0_15BytecodePatternERKN3WTF6StringEjPj@Base 5.0.2
 _ZN3JSC4callEPNS_9ExecStateENS_7JSValueENS_8CallTypeERKNS_8CallDataES2_RKNS_7ArgListE@Base 5.0.2
 _ZN3JSC6JSCell11getCallDataEPS0_RNS_8CallDataE@Base 5.0.2
 _ZN3JSC6JSCell16copyBackingStoreEPS0_RNS_11CopyVisitorE@Base 5.0.2
 _ZN3JSC6JSCell16getConstructDataEPS0_RNS_13ConstructDataE@Base 5.0.2
 _ZN3JSC6JSCell17customHasInstanceEPNS_8JSObjectEPNS_9ExecStateENS_7JSValueE@Base 5.0.2
 _ZN3JSC6JSCell7destroyEPS0_@Base 5.0.2
 _ZN3JSC6JSCell9getObjectEv@Base 5.0.2
 _ZN3JSC6JSLock12DropAllLocksC1EPNS_2VME@Base 5.2.0
 _ZN3JSC6JSLock12DropAllLocksC1EPNS_9ExecStateE@Base 5.0.2
 _ZN3JSC6JSLock12DropAllLocksC2EPNS_2VME@Base 5.2.0
 _ZN3JSC6JSLock12DropAllLocksC2EPNS_9ExecStateE@Base 5.0.2
 _ZN3JSC6JSLock12DropAllLocksD1Ev@Base 5.0.2
 _ZN3JSC6JSLock12DropAllLocksD2Ev@Base 5.0.2
 _ZN3JSC6JSLock26currentThreadIsHoldingLockEv@Base 5.0.2
 _ZN3JSC6JSLock4lockEv@Base 5.0.2
 _ZN3JSC6JSLock6unlockEv@Base 5.0.2
 _ZN3JSC6JSLockD1Ev@Base 5.0.2
 _ZN3JSC6JSLockD2Ev@Base 5.0.2
 (subst)_ZN3JSC6RegExp5matchERNS_2VMERKN3WTF6StringEjRNS3_6VectorIiL{size_t}32ENS3_15CrashOnOverflowEEE@Base 5.2.0
 _ZN3JSC6RegExp6createERNS_2VMERKN3WTF6StringENS_11RegExpFlagsE@Base 5.2.0
 _ZN3JSC7JSArray17defineOwnPropertyEPNS_8JSObjectEPNS_9ExecStateENS_12PropertyNameERNS_18PropertyDescriptorEb@Base 5.0.2
 _ZN3JSC7JSArray27getOwnNonIndexPropertyNamesEPNS_8JSObjectEPNS_9ExecStateERNS_17PropertyNameArrayENS_15EnumerationModeE@Base 5.0.2
 _ZN3JSC7JSArray6s_infoE@Base 5.0.2
 _ZN3JSC7JSProxy10putByIndexEPNS_6JSCellEPNS_9ExecStateEjNS_7JSValueEb@Base 5.0.2
 _ZN3JSC7JSProxy13visitChildrenEPNS_6JSCellERNS_11SlotVisitorE@Base 5.0.2
 _ZN3JSC7JSProxy14deletePropertyEPNS_6JSCellEPNS_9ExecStateENS_12PropertyNameE@Base 5.0.2
 _ZN3JSC7JSProxy16getPropertyNamesEPNS_8JSObjectEPNS_9ExecStateERNS_17PropertyNameArrayENS_15EnumerationModeE@Base 5.0.2
 _ZN3JSC7JSProxy16putDirectVirtualEPNS_8JSObjectEPNS_9ExecStateENS_12PropertyNameENS_7JSValueEj@Base 5.0.2
 _ZN3JSC7JSProxy17defineOwnPropertyEPNS_8JSObjectEPNS_9ExecStateENS_12PropertyNameERNS_18PropertyDescriptorEb@Base 5.0.2
 _ZN3JSC7JSProxy18getOwnPropertySlotEPNS_6JSCellEPNS_9ExecStateENS_12PropertyNameERNS_12PropertySlotE@Base 5.0.2
 _ZN3JSC7JSProxy19getOwnPropertyNamesEPNS_8JSObjectEPNS_9ExecStateERNS_17PropertyNameArrayENS_15EnumerationModeE@Base 5.0.2
 _ZN3JSC7JSProxy21deletePropertyByIndexEPNS_6JSCellEPNS_9ExecStateEj@Base 5.0.2
 _ZN3JSC7JSProxy24getOwnPropertyDescriptorEPNS_8JSObjectEPNS_9ExecStateENS_12PropertyNameERNS_18PropertyDescriptorE@Base 5.0.2
 _ZN3JSC7JSProxy25getOwnPropertySlotByIndexEPNS_6JSCellEPNS_9ExecStateEjRNS_12PropertySlotE@Base 5.0.2
 _ZN3JSC7JSProxy3putEPNS_6JSCellEPNS_9ExecStateENS_12PropertyNameENS_7JSValueERNS_15PutPropertySlotE@Base 5.0.2
 _ZN3JSC7JSProxy6s_infoE@Base 5.0.2
 _ZN3JSC7JSProxy9classNameEPKNS_8JSObjectE@Base 5.0.2
 _ZN3JSC7JSProxy9setTargetERNS_2VMEPNS_14JSGlobalObjectE@Base 5.2.0
 _ZN3JSC7JSScope13objectAtScopeEPS0_@Base 5.0.2
 _ZN3JSC7JSValue13isValidCalleeEv@Base 5.0.2
 _ZN3JSC7Options14dumpAllOptionsEP8_IO_FILE@Base 5.0.2
 _ZN3JSC7Options9s_optionsE@Base 5.0.2
 _ZN3JSC7Options9setOptionEPKc@Base 5.0.2
 _ZN3JSC7Profile10restoreAllEv@Base 5.0.2
 _ZN3JSC7Profile5focusEPKNS_11ProfileNodeE@Base 5.0.2
 _ZN3JSC7Profile7excludeEPKNS_11ProfileNodeE@Base 5.0.2
 _ZN3JSC7Profile7forEachEMNS_11ProfileNodeEFvvE@Base 5.0.2
 _ZN3JSC7WeakSet13findAllocatorEv@Base 5.0.2
 _ZN3JSC7toInt32Ed@Base 5.0.2
 _ZN3JSC8Debugger23recompileAllJSFunctionsEPNS_2VME@Base 5.2.0
 _ZN3JSC8Debugger6attachEPNS_14JSGlobalObjectE@Base 5.0.2
 _ZN3JSC8Debugger6detachEPNS_14JSGlobalObjectE@Base 5.0.2
 _ZN3JSC8DebuggerD0Ev@Base 5.0.2
 _ZN3JSC8DebuggerD1Ev@Base 5.0.2
 _ZN3JSC8DebuggerD2Ev@Base 5.0.2
 _ZN3JSC8JSObject10putByIndexEPNS_6JSCellEPNS_9ExecStateEjNS_7JSValueEb@Base 5.0.2
 _ZN3JSC8JSObject12defaultValueEPKS0_PNS_9ExecStateENS_22PreferredPrimitiveTypeE@Base 5.0.2
 _ZN3JSC8JSObject12toThisObjectEPNS_6JSCellEPNS_9ExecStateE@Base 5.0.2
 _ZN3JSC8JSObject13visitChildrenEPNS_6JSCellERNS_11SlotVisitorE@Base 5.0.2
 _ZN3JSC8JSObject14deletePropertyEPNS_6JSCellEPNS_9ExecStateENS_12PropertyNameE@Base 5.0.2
 _ZN3JSC8JSObject16copyBackingStoreEPNS_6JSCellERNS_11CopyVisitorE@Base 5.0.2
 _ZN3JSC8JSObject16getPropertyNamesEPS0_PNS_9ExecStateERNS_17PropertyNameArrayENS_15EnumerationModeE@Base 5.0.2
 _ZN3JSC8JSObject16putDirectVirtualEPS0_PNS_9ExecStateENS_12PropertyNameENS_7JSValueEj@Base 5.0.2
 _ZN3JSC8JSObject17defineOwnPropertyEPS0_PNS_9ExecStateENS_12PropertyNameERNS_18PropertyDescriptorEb@Base 5.0.2
 _ZN3JSC8JSObject17preventExtensionsERNS_2VME@Base 5.2.0
 _ZN3JSC8JSObject19getOwnPropertyNamesEPS0_PNS_9ExecStateERNS_17PropertyNameArrayENS_15EnumerationModeE@Base 5.0.2
 _ZN3JSC8JSObject19putDirectMayBeIndexEPNS_9ExecStateENS_12PropertyNameENS_7JSValueE@Base 5.0.2
 (subst)_ZN3JSC8JSObject20growOutOfLineStorageERNS_2VME{size_t}{size_t}@Base 5.2.0
 _ZN3JSC8JSObject21deletePropertyByIndexEPNS_6JSCellEPNS_9ExecStateEj@Base 5.0.2
 _ZN3JSC8JSObject21getPropertyDescriptorEPNS_9ExecStateENS_12PropertyNameERNS_18PropertyDescriptorE@Base 5.0.2
 _ZN3JSC8JSObject22fillGetterPropertySlotERNS_12PropertySlotEi@Base 5.0.2
 _ZN3JSC8JSObject22getOwnPropertySlotSlowEPNS_9ExecStateENS_12PropertyNameERNS_12PropertySlotE@Base 5.0.2
 _ZN3JSC8JSObject24getOwnPropertyDescriptorEPS0_PNS_9ExecStateENS_12PropertyNameERNS_18PropertyDescriptorE@Base 5.0.2
 _ZN3JSC8JSObject25getOwnPropertySlotByIndexEPNS_6JSCellEPNS_9ExecStateEjRNS_12PropertySlotE@Base 5.0.2
 _ZN3JSC8JSObject26setIndexQuicklyToUndecidedERNS_2VMEjNS_7JSValueE@Base 5.2.0
 _ZN3JSC8JSObject27getOwnNonIndexPropertyNamesEPS0_PNS_9ExecStateERNS_17PropertyNameArrayENS_15EnumerationModeE@Base 5.0.2
 _ZN3JSC8JSObject32putDirectIndexBeyondVectorLengthEPNS_9ExecStateEjNS_7JSValueEjNS_18PutDirectIndexModeE@Base 5.0.2
 _ZN3JSC8JSObject3putEPNS_6JSCellEPNS_9ExecStateENS_12PropertyNameENS_7JSValueERNS_15PutPropertySlotE@Base 5.0.2
 _ZN3JSC8JSObject48convertDoubleToContiguousWhilePerformingSetIndexERNS_2VMEjNS_7JSValueE@Base 5.2.0
 _ZN3JSC8JSObject55convertInt32ToDoubleOrContiguousWhilePerformingSetIndexERNS_2VMEjNS_7JSValueE@Base 5.2.0
 _ZN3JSC8JSObject6s_infoE@Base 5.0.2
 _ZN3JSC8JSObject9classNameEPKS0_@Base 5.0.2
 _ZN3JSC8JSString6s_infoE@Base 5.0.2
 _ZN3JSC8Profiler8DatabaseC1ERNS_2VME@Base 5.2.0
 _ZN3JSC8Profiler8DatabaseC2ERNS_2VME@Base 5.2.0
 _ZN3JSC8Profiler8DatabaseD1Ev@Base 5.2.0
 _ZN3JSC8Profiler8DatabaseD2Ev@Base 5.2.0
 _ZN3JSC8evaluateEPNS_9ExecStateERKNS_10SourceCodeENS_7JSValueEPS5_@Base 5.0.2
 _ZN3JSC9CodeBlockD0Ev@Base 5.0.2
 _ZN3JSC9CodeBlockD1Ev@Base 5.0.2
 _ZN3JSC9CodeBlockD2Ev@Base 5.0.2
 _ZN3JSC9HandleSet12writeBarrierEPNS_7JSValueERKS1_@Base 5.0.2
 _ZN3JSC9HandleSet4growEv@Base 5.0.2
 _ZN3JSC9Structure21addPropertyTransitionERNS_2VMEPS0_NS_12PropertyNameEjPNS_6JSCellERi@Base 5.2.0
 _ZN3JSC9Structure22materializePropertyMapERNS_2VME@Base 5.2.0
 _ZN3JSC9Structure25changePrototypeTransitionERNS_2VMEPS0_NS_7JSValueE@Base 5.2.0
 _ZN3JSC9Structure27despecifyDictionaryFunctionERNS_2VMENS_12PropertyNameE@Base 5.2.0
 _ZN3JSC9Structure27despecifyFunctionTransitionERNS_2VMEPS0_NS_12PropertyNameE@Base 5.2.0
 _ZN3JSC9Structure28addPropertyWithoutTransitionERNS_2VMENS_12PropertyNameEjPNS_6JSCellE@Base 5.2.0
 _ZN3JSC9Structure36suggestedNewOutOfLineStorageCapacityEv@Base 5.0.2
 _ZN3JSC9Structure3getERNS_2VMENS_12PropertyNameERjRPNS_6JSCellE@Base 5.2.0
 _ZN3JSC9Structure40addPropertyTransitionToExistingStructureEPS0_NS_12PropertyNameEjPNS_6JSCellERi@Base 5.0.2
 _ZN3JSC9Structure6s_infoE@Base 5.0.2
 _ZN3JSC9StructureC1ERNS_2VMEPNS_14JSGlobalObjectENS_7JSValueERKNS_8TypeInfoEPKNS_9ClassInfoEhj@Base 5.2.0
 _ZN3JSC9StructureC2ERNS_2VMEPNS_14JSGlobalObjectENS_7JSValueERKNS_8TypeInfoEPKNS_9ClassInfoEhj@Base 5.2.0
 _ZN3JSC9constructEPNS_9ExecStateENS_7JSValueENS_13ConstructTypeERKNS_13ConstructDataERKNS_7ArgListE@Base 5.0.2
 _ZN3WTF10StringImpl11reverseFindEPS0_j@Base 5.0.2
 _ZN3WTF10StringImpl11reverseFindEtj@Base 5.0.2
 _ZN3WTF10StringImpl16findIgnoringCaseEPS0_j@Base 5.0.2
 _ZN3WTF10StringImpl17createFromLiteralEPKc@Base 5.0.2
 _ZN3WTF10StringImpl17createFromLiteralEPKcj@Base 5.0.2
 _ZN3WTF10StringImpl17findNextLineStartEj@Base 5.2.0
 _ZN3WTF10StringImpl18simplifyWhiteSpaceEv@Base 5.0.2
 _ZN3WTF10StringImpl19characterStartingAtEj@Base 5.0.2
 _ZN3WTF10StringImpl19createUninitializedEjRPh@Base 5.0.2
 _ZN3WTF10StringImpl19createUninitializedEjRPt@Base 5.0.2
 _ZN3WTF10StringImpl20create8BitIfPossibleEPKt@Base 5.2.0
 _ZN3WTF10StringImpl20create8BitIfPossibleEPKtj@Base 5.0.2
 _ZN3WTF10StringImpl20createWithoutCopyingEPKhjNS_27HasTerminatingNullCharacterE@Base 5.2.0
 _ZN3WTF10StringImpl20createWithoutCopyingEPKtjNS_27HasTerminatingNullCharacterE@Base 5.2.0
 _ZN3WTF10StringImpl22containsOnlyWhitespaceEv@Base 5.0.2
 _ZN3WTF10StringImpl23defaultWritingDirectionEPb@Base 5.0.2
 _ZN3WTF10StringImpl23reverseFindIgnoringCaseEPS0_j@Base 5.0.2
 _ZN3WTF10StringImpl4fillEt@Base 5.0.2
 _ZN3WTF10StringImpl4findEPFbtEj@Base 5.0.2
 _ZN3WTF10StringImpl4findEPS0_@Base 5.0.2
 _ZN3WTF10StringImpl4findEPS0_j@Base 5.0.2
 _ZN3WTF10StringImpl5adoptERNS_12StringBufferIhEE@Base 5.0.2
 _ZN3WTF10StringImpl5adoptERNS_12StringBufferItEE@Base 5.0.2
 _ZN3WTF10StringImpl5emptyEv@Base 5.0.2
 _ZN3WTF10StringImpl5lowerEv@Base 5.0.2
 _ZN3WTF10StringImpl5toIntEPb@Base 5.0.2
 _ZN3WTF10StringImpl5upperEv@Base 5.0.2
 _ZN3WTF10StringImpl6createEPKh@Base 5.0.2
 _ZN3WTF10StringImpl6createEPKhj@Base 5.0.2
 _ZN3WTF10StringImpl6createEPKtj@Base 5.0.2
 _ZN3WTF10StringImpl7destroyEPS0_@Base 5.2.0
 _ZN3WTF10StringImpl7replaceEPS0_S1_@Base 5.0.2
 _ZN3WTF10StringImpl7replaceEjjPS0_@Base 5.0.2
 _ZN3WTF10StringImpl7replaceEtPKhj@Base 5.0.2
 _ZN3WTF10StringImpl7replaceEtPS0_@Base 5.0.2
 _ZN3WTF10StringImpl7replaceEtt@Base 5.0.2
 _ZN3WTF10StringImpl8endsWithEPS0_b@Base 5.0.2
 _ZN3WTF10StringImpl9substringEjj@Base 5.0.2
 (subst)_ZN3WTF10fastCallocE{size_t}{size_t}@Base 5.2.0
 (subst)_ZN3WTF10fastMallocE{size_t}@Base 5.2.0
 _ZN3WTF10fastStrDupEPKc@Base 5.0.2
 _ZN3WTF10isLeapYearEi@Base 5.2.0
 (subst)_ZN3WTF11ArrayBuffer8transferERNS_19ArrayBufferContentsERNS_6VectorINS_6RefPtrINS_15ArrayBufferViewEEEL{size_t}0ENS_15CrashOnOverflowEEE@Base 5.2.0
 (subst)_ZN3WTF11OSAllocator16reserveAndCommitE{size_t}NS0_5UsageEbbb@Base 5.2.0
 (subst)_ZN3WTF11OSAllocator18releaseDecommittedEPv{size_t}@Base 5.2.0
 (subst)_ZN3WTF11OSAllocator18reserveUncommittedE{size_t}NS0_5UsageEbbb@Base 5.2.0
 (subst)_ZN3WTF11OSAllocator6commitEPv{size_t}bb@Base 5.2.0
 (subst)_ZN3WTF11OSAllocator8decommitEPv{size_t}@Base 5.2.0
 _ZN3WTF11PrintStream6printfEPKcz@Base 5.2.0
 _ZN3WTF11StackBounds10initializeEv@Base 5.2.0
 _ZN3WTF11commentAtomE@Base 5.0.2
 _ZN3WTF11currentTimeEv@Base 5.0.2
 _ZN3WTF11dtoaRoundDPEPcdiRbRiRj@Base 5.0.2
 _ZN3WTF11dtoaRoundSFEPcdiRbRiRj@Base 5.0.2
 _ZN3WTF11emptyStringEv@Base 5.0.2
 (subst)_ZN3WTF11fastReallocEPv{size_t}@Base 5.2.0
 _ZN3WTF11msToMinutesEd@Base 5.2.0
 _ZN3WTF12AtomicString11addSlowCaseEPNS_10StringImplE@Base 5.0.2
 _ZN3WTF12AtomicString16fromUTF8InternalEPKcS2_@Base 5.0.2
 _ZN3WTF12AtomicString18addFromLiteralDataEPKcj@Base 5.0.2
 _ZN3WTF12AtomicString3addEPKh@Base 5.0.2
 _ZN3WTF12AtomicString3addEPKhj@Base 5.0.2
 _ZN3WTF12AtomicString3addEPKt@Base 5.0.2
 _ZN3WTF12AtomicString3addEPKtj@Base 5.0.2
 _ZN3WTF12AtomicString3addEPKtjj@Base 5.0.2
 _ZN3WTF12AtomicString3addEPNS_10StringImplEjj@Base 5.0.2
 _ZN3WTF12AtomicString4findEPKNS_10StringImplE@Base 5.0.2
 _ZN3WTF12AtomicString4initEv@Base 5.0.2
 (subst)_ZN3WTF12base64DecodeEPKcjRNS_6VectorIcL{size_t}0ENS_15CrashOnOverflowEEENS_18Base64DecodePolicyE@Base 5.2.0
 (subst)_ZN3WTF12base64DecodeERKNS_6StringERNS_6VectorIcL{size_t}0ENS_15CrashOnOverflowEEENS_18Base64DecodePolicyE@Base 5.2.0
 (subst)_ZN3WTF12base64DecodeERKNS_6VectorIcL{size_t}0ENS_15CrashOnOverflowEEERS2_NS_18Base64DecodePolicyE@Base 5.2.0
 _ZN3WTF12base64EncodeEPKcjNS_18Base64EncodePolicyE@Base 5.0.2
 (subst)_ZN3WTF12base64EncodeEPKcjRNS_6VectorIcL{size_t}0ENS_15CrashOnOverflowEEENS_18Base64EncodePolicyE@Base 5.2.0
 _ZN3WTF12createThreadEPFvPvES0_PKc@Base 5.0.2
 _ZN3WTF12detachThreadEj@Base 5.0.2
 _ZN3WTF12equalNonNullEPKNS_10StringImplES2_@Base 5.2.0
 _ZN3WTF12isMainThreadEv@Base 5.0.2
 _ZN3WTF12randomNumberEv@Base 5.0.2
 (subst)_ZN3WTF13MetaAllocator17addFreshFreeSpaceEPv{size_t}@Base 5.2.0
 _ZN3WTF13MetaAllocator17freeFreeSpaceNodeEPNS0_13FreeSpaceNodeE@Base 5.0.2
 _ZN3WTF13MetaAllocator18debugFreeSpaceSizeEv@Base 5.0.2
 (subst)_ZN3WTF13MetaAllocator8allocateE{size_t}Pv@Base 5.2.0
 (subst)_ZN3WTF13MetaAllocatorC1E{size_t}{size_t}@Base 5.2.0
 (subst)_ZN3WTF13MetaAllocatorC2E{size_t}{size_t}@Base 5.2.0
 _ZN3WTF13MetaAllocatorD0Ev@Base 5.0.2
 _ZN3WTF13MetaAllocatorD1Ev@Base 5.0.2
 _ZN3WTF13MetaAllocatorD2Ev@Base 5.0.2
 _ZN3WTF13StringBuilder11shrinkToFitEv@Base 5.0.2
 _ZN3WTF13StringBuilder12appendNumberEi@Base 5.0.2
 _ZN3WTF13StringBuilder12appendNumberEj@Base 5.0.2
 _ZN3WTF13StringBuilder12appendNumberEl@Base 5.0.2
 _ZN3WTF13StringBuilder12appendNumberEm@Base 5.0.2
 _ZN3WTF13StringBuilder12appendNumberEx@Base 5.0.2
 _ZN3WTF13StringBuilder12appendNumberEy@Base 5.0.2
 _ZN3WTF13StringBuilder15reserveCapacityEj@Base 5.0.2
 _ZN3WTF13StringBuilder6appendEPKhj@Base 5.0.2
 _ZN3WTF13StringBuilder6appendEPKtj@Base 5.0.2
 _ZN3WTF13StringBuilder6resizeEj@Base 5.0.2
 _ZN3WTF13WTFThreadData10staticDataE@Base 5.0.2
 _ZN3WTF13WTFThreadDataC1Ev@Base 5.0.2
 _ZN3WTF13WTFThreadDataC2Ev@Base 5.0.2
 _ZN3WTF13WTFThreadDataD1Ev@Base 5.0.2
 _ZN3WTF13WTFThreadDataD2Ev@Base 5.0.2
 _ZN3WTF13currentThreadEv@Base 5.0.2
 _ZN3WTF13printInternalERNS_11PrintStreamENS_10RawPointerE@Base 5.2.0
 _ZN3WTF13printInternalERNS_11PrintStreamEPKc@Base 5.2.0
 _ZN3WTF13printInternalERNS_11PrintStreamERKNS_6StringE@Base 5.2.0
 _ZN3WTF13printInternalERNS_11PrintStreamERKNS_7CStringE@Base 5.2.0
 _ZN3WTF13printInternalERNS_11PrintStreamEb@Base 5.2.0
 _ZN3WTF13printInternalERNS_11PrintStreamEd@Base 5.2.0
 _ZN3WTF13printInternalERNS_11PrintStreamEf@Base 5.2.0
 _ZN3WTF13printInternalERNS_11PrintStreamEi@Base 5.2.0
 _ZN3WTF13printInternalERNS_11PrintStreamEj@Base 5.2.0
 _ZN3WTF13printInternalERNS_11PrintStreamEl@Base 5.2.0
 _ZN3WTF13printInternalERNS_11PrintStreamEm@Base 5.2.0
 _ZN3WTF13printInternalERNS_11PrintStreamEx@Base 5.2.0
 _ZN3WTF13printInternalERNS_11PrintStreamEy@Base 5.2.0
 (subst)_ZN3WTF13tryFastCallocE{size_t}{size_t}@Base 5.2.0
 (subst)_ZN3WTF13tryFastMallocE{size_t}@Base 5.2.0
 _ZN3WTF14currentCPUTimeEv@Base 5.2.0
 _ZN3WTF14dataLogFStringEPKc@Base 5.0.2
 _ZN3WTF14fastMallocSizeEPKv@Base 5.0.2
 _ZN3WTF14numberToStringEdPc@Base 5.0.2
 (subst)_ZN3WTF14tryFastReallocEPv{size_t}@Base 5.2.0
 _ZN3WTF15ArrayBufferView6neuterEv@Base 5.0.2
 _ZN3WTF15ArrayBufferViewC1ENS_10PassRefPtrINS_11ArrayBufferEEEj@Base 5.0.2
 _ZN3WTF15ArrayBufferViewC2ENS_10PassRefPtrINS_11ArrayBufferEEEj@Base 5.0.2
 _ZN3WTF15ArrayBufferViewD0Ev@Base 5.0.2
 _ZN3WTF15ArrayBufferViewD1Ev@Base 5.0.2
 _ZN3WTF15ArrayBufferViewD2Ev@Base 5.0.2
 _ZN3WTF15BinarySemaphore4waitEd@Base 5.2.0
 _ZN3WTF15BinarySemaphore6signalEv@Base 5.2.0
 _ZN3WTF15BinarySemaphoreC1Ev@Base 5.2.0
 _ZN3WTF15BinarySemaphoreC2Ev@Base 5.2.0
 _ZN3WTF15BinarySemaphoreD1Ev@Base 5.2.0
 _ZN3WTF15BinarySemaphoreD2Ev@Base 5.2.0
 _ZN3WTF15FilePrintStream4openEPKcS2_@Base 5.2.0
 _ZN3WTF15ThreadCondition4waitERNS_5MutexE@Base 5.0.2
 _ZN3WTF15ThreadCondition6signalEv@Base 5.0.2
 _ZN3WTF15ThreadCondition9broadcastEv@Base 5.0.2
 _ZN3WTF15ThreadCondition9timedWaitERNS_5MutexEd@Base 5.0.2
 _ZN3WTF15ThreadConditionC1Ev@Base 5.0.2
 _ZN3WTF15ThreadConditionC2Ev@Base 5.0.2
 _ZN3WTF15ThreadConditionD1Ev@Base 5.0.2
 _ZN3WTF15ThreadConditionD2Ev@Base 5.0.2
 (subst)_ZN3WTF15charactersToIntEPKt{size_t}Pb@Base 5.2.0
 _ZN3WTF16callOnMainThreadEPFvPvES0_@Base 5.0.2
 _ZN3WTF16callOnMainThreadERKNS_8FunctionIFvvEEE@Base 5.0.2
 _ZN3WTF16codePointCompareERKNS_6StringES2_@Base 5.0.2
 _ZN3WTF16currentCPUTimeMSEv@Base 5.2.0
 (subst)_ZN3WTF16fastZeroedMallocE{size_t}@Base 5.2.0
 _ZN3WTF17GregorianDateTime21setToCurrentLocalTimeEv@Base 5.0.2
 _ZN3WTF17StringPrintStream5resetEv@Base 5.2.0
 _ZN3WTF17StringPrintStream8toStringEv@Base 5.2.0
 _ZN3WTF17StringPrintStream9toCStringEv@Base 5.2.0
 _ZN3WTF17StringPrintStreamC1Ev@Base 5.2.0
 _ZN3WTF17StringPrintStreamC2Ev@Base 5.2.0
 _ZN3WTF17StringPrintStreamD0Ev@Base 5.2.0
 _ZN3WTF17StringPrintStreamD1Ev@Base 5.2.0
 _ZN3WTF17StringPrintStreamD2Ev@Base 5.2.0
 (subst)_ZN3WTF17charactersToFloatEPKh{size_t}R{size_t}@Base 5.2.0
 (subst)_ZN3WTF17charactersToFloatEPKt{size_t}Pb@Base 5.2.0
 (subst)_ZN3WTF17charactersToFloatEPKt{size_t}R{size_t}@Base 5.2.0
 _ZN3WTF17double_conversion10initializeEv@Base 5.2.0
 _ZN3WTF17double_conversion23DoubleToStringConverter19EcmaScriptConverterEv@Base 5.2.0
 (subst)_ZN3WTF17double_conversion23StringToDoubleConverter14StringToDoubleEPKc{size_t}P{size_t}@Base 5.2.0
 _ZN3WTF17equalIgnoringCaseEPKNS_10StringImplEPKh@Base 5.2.0
 _ZN3WTF17equalIgnoringCaseEPKNS_10StringImplES2_@Base 5.2.0
 _ZN3WTF17equalIgnoringCaseEPKhS1_j@Base 5.0.2
 _ZN3WTF17equalIgnoringCaseEPKtPKhj@Base 5.0.2
 _ZN3WTF18FunctionDispatcherC1Ev@Base 5.2.0
 _ZN3WTF18FunctionDispatcherC2Ev@Base 5.2.0
 _ZN3WTF18FunctionDispatcherD0Ev@Base 5.2.0
 _ZN3WTF18FunctionDispatcherD1Ev@Base 5.2.0
 _ZN3WTF18FunctionDispatcherD2Ev@Base 5.2.0
 (subst)_ZN3WTF18charactersToDoubleEPKh{size_t}Pb@Base 5.2.0
 (subst)_ZN3WTF18charactersToDoubleEPKt{size_t}Pb@Base 5.2.0
 _ZN3WTF18dateToDaysFrom1970Eiii@Base 5.0.2
 (subst)_ZN3WTF18fastMallocGoodSizeE{size_t}@Base 5.2.0
 _ZN3WTF18monthFromDayInYearEib@Base 5.0.2
 (subst)_ZN3WTF19MetaAllocatorHandle6shrinkE{size_t}@Base 5.2.0
 _ZN3WTF19MetaAllocatorHandleD1Ev@Base 5.0.2
 _ZN3WTF19MetaAllocatorHandleD2Ev@Base 5.0.2
 _ZN3WTF19ParallelEnvironment7executeEPv@Base 5.0.2
 (subst)_ZN3WTF19ParallelEnvironmentC1EPFvPvE{size_t}i@Base 5.2.0
 (subst)_ZN3WTF19ParallelEnvironmentC2EPFvPvE{size_t}i@Base 5.2.0
 _ZN3WTF19initializeThreadingEv@Base 5.0.2
 _ZN3WTF20equalIgnoringNullityEPNS_10StringImplES1_@Base 5.0.2
 _ZN3WTF20fastMallocStatisticsEv@Base 5.0.2
 _ZN3WTF20initializeMainThreadEv@Base 5.0.2
 _ZN3WTF21PageAllocationAligned10deallocateEv@Base 5.2.0
 (subst)_ZN3WTF21PageAllocationAligned8allocateE{size_t}{size_t}NS_11OSAllocator5UsageEb@Base 5.2.0
 _ZN3WTF21RefCountedLeakCounter16suppressMessagesEPKc@Base 5.0.2
 _ZN3WTF21RefCountedLeakCounter24cancelMessageSuppressionEPKc@Base 5.0.2
 _ZN3WTF21RefCountedLeakCounter9decrementEv@Base 5.0.2
 _ZN3WTF21RefCountedLeakCounter9incrementEv@Base 5.0.2
 _ZN3WTF21RefCountedLeakCounterC1EPKc@Base 5.0.2
 _ZN3WTF21RefCountedLeakCounterC2EPKc@Base 5.0.2
 _ZN3WTF21RefCountedLeakCounterD1Ev@Base 5.0.2
 _ZN3WTF21RefCountedLeakCounterD2Ev@Base 5.0.2
 (subst)_ZN3WTF21charactersToIntStrictEPKh{size_t}Pbi@Base 5.2.0
 (subst)_ZN3WTF21charactersToIntStrictEPKt{size_t}Pbi@Base 5.2.0
 _ZN3WTF22cancelCallOnMainThreadEPFvPvES0_@Base 5.0.2
 (subst)_ZN3WTF22charactersToUIntStrictEPKh{size_t}Pbi@Base 5.2.0
 (subst)_ZN3WTF22charactersToUIntStrictEPKt{size_t}Pbi@Base 5.2.0
 (arch=amd64 armhf hurd-i386 i386 kfreebsd-amd64 kfreebsd-i386)_ZN3WTF22isMainThreadOrGCThreadEv@Base 5.2.1
 _ZN3WTF23callOnMainThreadAndWaitEPFvPvES0_@Base 5.0.2
 _ZN3WTF23dayInMonthFromDayInYearEib@Base 5.0.2
 _ZN3WTF23waitForThreadCompletionEj@Base 5.0.2
 _ZN3WTF24calculateLocalTimeOffsetEd@Base 5.2.0
 _ZN3WTF24equalIgnoringCaseNonNullEPKNS_10StringImplES2_@Base 5.2.0
 _ZN3WTF24numberToFixedWidthStringEdjPc@Base 5.0.2
 _ZN3WTF27monotonicallyIncreasingTimeEv@Base 5.0.2
 _ZN3WTF27releaseFastMallocFreeMemoryEv@Base 5.0.2
 _ZN3WTF28numberToFixedPrecisionStringEdjPcb@Base 5.0.2
 _ZN3WTF28setMainThreadCallbacksPausedEb@Base 5.0.2
 _ZN3WTF29cryptographicallyRandomNumberEv@Base 5.0.2
 (subst)_ZN3WTF29cryptographicallyRandomValuesEPv{size_t}@Base 5.2.0
 _ZN3WTF36lockAtomicallyInitializedStaticMutexEv@Base 5.0.2
 _ZN3WTF37parseDateFromNullTerminatedCharactersEPKc@Base 5.0.2
 _ZN3WTF37parseDateFromNullTerminatedCharactersEPKcRbRi@Base 5.2.0
 _ZN3WTF38unlockAtomicallyInitializedStaticMutexEv@Base 5.0.2
 (subst)_ZN3WTF3MD58addBytesEPKh{size_t}@Base 5.2.0
 (subst)_ZN3WTF3MD58checksumERNS_6VectorIhL{size_t}16ENS_15CrashOnOverflowEEE@Base 5.2.0
 _ZN3WTF3MD5C1Ev@Base 5.0.2
 _ZN3WTF3MD5C2Ev@Base 5.0.2
 _ZN3WTF3absERKNS_9MediaTimeE@Base 5.0.2
 _ZN3WTF40parseES5DateFromNullTerminatedCharactersEPKc@Base 5.2.0
 (subst)_ZN3WTF4SHA111computeHashERNS_6VectorIhL{size_t}20ENS_15CrashOnOverflowEEE@Base 5.2.0
 _ZN3WTF4SHA116computeHexDigestEv@Base 5.0.2
 (subst)_ZN3WTF4SHA18addBytesEPKh{size_t}@Base 5.2.0
 (subst)_ZN3WTF4SHA19hexDigestERKNS_6VectorIhL{size_t}20ENS_15CrashOnOverflowEEE@Base 5.2.0
 _ZN3WTF4SHA1C1Ev@Base 5.0.2
 _ZN3WTF4SHA1C2Ev@Base 5.0.2
 _ZN3WTF4dtoaEPcdRbRiRj@Base 5.0.2
 _ZN3WTF5Mutex4lockEv@Base 5.0.2
 _ZN3WTF5Mutex6unlockEv@Base 5.0.2
 _ZN3WTF5Mutex7tryLockEv@Base 5.0.2
 _ZN3WTF5MutexC1Ev@Base 5.0.2
 _ZN3WTF5MutexC2Ev@Base 5.0.2
 _ZN3WTF5MutexD1Ev@Base 5.0.2
 _ZN3WTF5MutexD2Ev@Base 5.0.2
 _ZN3WTF5equalEPKNS_10StringImplEPKh@Base 5.0.2
 _ZN3WTF5equalEPKNS_10StringImplEPKhj@Base 5.0.2
 _ZN3WTF5equalEPKNS_10StringImplEPKtj@Base 5.0.2
 _ZN3WTF5equalEPKNS_10StringImplES2_@Base 5.0.2
 _ZN3WTF5yieldEv@Base 5.0.2
 (subst)_ZN3WTF6String23make16BitFrom8BitSourceEPKh{size_t}@Base 5.2.0
 (subst)_ZN3WTF6String23make8BitFrom16BitSourceEPKt{size_t}@Base 5.2.0
 _ZN3WTF6String24numberToStringECMAScriptEd@Base 5.0.2
 _ZN3WTF6String24numberToStringFixedWidthEdj@Base 5.0.2
 (subst)_ZN3WTF6String26fromUTF8WithLatin1FallbackEPKh{size_t}@Base 5.2.0
 _ZN3WTF6String39deprecatedCharactersWithNullTerminationEv@Base 5.2.0
 _ZN3WTF6String6appendEPKhj@Base 5.0.2
 _ZN3WTF6String6appendEPKtj@Base 5.0.2
 _ZN3WTF6String6appendERKS0_@Base 5.0.2
 _ZN3WTF6String6appendEh@Base 5.0.2
 _ZN3WTF6String6appendEt@Base 5.0.2
 _ZN3WTF6String6formatEPKcz@Base 5.0.2
 _ZN3WTF6String6insertERKS0_j@Base 5.0.2
 _ZN3WTF6String6numberEdjNS_29TrailingZerosTruncatingPolicyE@Base 5.0.2
 _ZN3WTF6String6numberEi@Base 5.0.2
 _ZN3WTF6String6numberEj@Base 5.0.2
 _ZN3WTF6String6numberEl@Base 5.0.2
 _ZN3WTF6String6numberEm@Base 5.0.2
 _ZN3WTF6String6numberEx@Base 5.0.2
 _ZN3WTF6String6numberEy@Base 5.0.2
 _ZN3WTF6String6removeEji@Base 5.0.2
 _ZN3WTF6String8fromUTF8EPKh@Base 5.0.2
 (subst)_ZN3WTF6String8fromUTF8EPKh{size_t}@Base 5.2.0
 _ZN3WTF6String8fromUTF8ERKNS_7CStringE@Base 5.2.0
 _ZN3WTF6String8truncateEj@Base 5.0.2
 _ZN3WTF6StringC1ENS_12ASCIILiteralE@Base 5.0.2
 _ZN3WTF6StringC1EPKc@Base 5.0.2
 _ZN3WTF6StringC1EPKcj@Base 5.0.2
 _ZN3WTF6StringC1EPKh@Base 5.0.2
 _ZN3WTF6StringC1EPKhj@Base 5.0.2
 _ZN3WTF6StringC1EPKt@Base 5.0.2
 _ZN3WTF6StringC1EPKtj@Base 5.0.2
 _ZN3WTF6StringC1ERK10QStringRef@Base 5.0.2
 _ZN3WTF6StringC1ERK7QString@Base 5.0.2
 _ZN3WTF6StringC2ENS_12ASCIILiteralE@Base 5.0.2
 _ZN3WTF6StringC2EPKc@Base 5.0.2
 _ZN3WTF6StringC2EPKcj@Base 5.0.2
 _ZN3WTF6StringC2EPKh@Base 5.0.2
 _ZN3WTF6StringC2EPKhj@Base 5.0.2
 _ZN3WTF6StringC2EPKt@Base 5.0.2
 _ZN3WTF6StringC2EPKtj@Base 5.0.2
 _ZN3WTF6StringC2ERK10QStringRef@Base 5.0.2
 _ZN3WTF6StringC2ERK7QString@Base 5.0.2
 _ZN3WTF7CString11mutableDataEv@Base 5.0.2
 (subst)_ZN3WTF7CString16newUninitializedE{size_t}RPc@Base 5.2.0
 _ZN3WTF7CStringC1EPKc@Base 5.0.2
 (subst)_ZN3WTF7CStringC1EPKc{size_t}@Base 5.2.0
 _ZN3WTF7CStringC2EPKc@Base 5.0.2
 (subst)_ZN3WTF7CStringC2EPKc{size_t}@Base 5.2.0
 _ZN3WTF7Unicode18UTF8SequenceLengthEc@Base 5.2.0
 _ZN3WTF7Unicode18convertUTF16ToUTF8EPPKtS2_PPcS4_b@Base 5.0.2
 _ZN3WTF7Unicode18convertUTF8ToUTF16EPPKcS2_PPtS4_Pbb@Base 5.0.2
 _ZN3WTF7Unicode18decodeUTF8SequenceEPKc@Base 5.2.0
 _ZN3WTF7Unicode18equalUTF16WithUTF8EPKtS2_PKcS4_@Base 5.0.2
 _ZN3WTF7Unicode19convertLatin1ToUTF8EPPKhS2_PPcS4_@Base 5.0.2
 _ZN3WTF7Unicode51calculateStringHashAndLengthFromUTF8MaskingTop8BitsEPKcS2_RjS3_@Base 5.0.2
 _ZN3WTF7ramSizeEv@Base 5.0.2
 _ZN3WTF7xmlAtomE@Base 5.0.2
 _ZN3WTF8Collator11userDefaultEv@Base 5.2.0
 _ZN3WTF8Collator18setOrderLowerFirstEb@Base 5.0.2
 _ZN3WTF8CollatorC1EPKc@Base 5.0.2
 _ZN3WTF8CollatorC2EPKc@Base 5.0.2
 _ZN3WTF8CollatorD1Ev@Base 5.0.2
 _ZN3WTF8CollatorD2Ev@Base 5.0.2
 _ZN3WTF8Internal21fastMallocMatchFailedEPv@Base 5.0.2
 (subst)_ZN3WTF8Internal25parseDoubleFromLongStringEPKt{size_t}R{size_t}@Base 5.2.0
 _ZN3WTF8dataFileEv@Base 5.0.2
 _ZN3WTF8dataLogFEPKcz@Base 5.0.2
 _ZN3WTF8fastFreeEPv@Base 5.0.2
 _ZN3WTF8msToDaysEd@Base 5.2.0
 _ZN3WTF8msToYearEd@Base 5.0.2
 _ZN3WTF8nullAtomE@Base 5.0.2
 _ZN3WTF8pageMaskEv@Base 5.0.2
 _ZN3WTF8pageSizeEv@Base 5.0.2
 _ZN3WTF8starAtomE@Base 5.0.2
 _ZN3WTF8textAtomE@Base 5.0.2
 _ZN3WTF8timeClipEd@Base 5.2.0
 (subst)_ZN3WTF9BitVector13OutOfLineBits6createE{size_t}@Base 5.2.0
 _ZN3WTF9BitVector13OutOfLineBits7destroyEPS1_@Base 5.0.2
 (subst)_ZN3WTF9BitVector15resizeOutOfLineE{size_t}@Base 5.2.0
 (subst)_ZN3WTF9BitVector6resizeE{size_t}@Base 5.2.0
 _ZN3WTF9BitVector7setSlowERKS0_@Base 5.0.2
 _ZN3WTF9BitVector8clearAllEv@Base 5.0.2
 _ZN3WTF9MediaTime11invalidTimeEv@Base 5.0.2
 _ZN3WTF9MediaTime12setTimeScaleEi@Base 5.0.2
 _ZN3WTF9MediaTime14indefiniteTimeEv@Base 5.0.2
 _ZN3WTF9MediaTime15createWithFloatEfi@Base 5.0.2
 _ZN3WTF9MediaTime16MaximumTimeScaleE@Base 5.0.2
 _ZN3WTF9MediaTime16createWithDoubleEdi@Base 5.0.2
 _ZN3WTF9MediaTime20negativeInfiniteTimeEv@Base 5.0.2
 _ZN3WTF9MediaTime20positiveInfiniteTimeEv@Base 5.0.2
 _ZN3WTF9MediaTime8zeroTimeEv@Base 5.0.2
 _ZN3WTF9MediaTimeC1ERKS0_@Base 5.0.2
 _ZN3WTF9MediaTimeC1Ev@Base 5.0.2
 (subst)_ZN3WTF9MediaTimeC1E{int64_t}ij@Base 5.0.2
 _ZN3WTF9MediaTimeC2ERKS0_@Base 5.0.2
 _ZN3WTF9MediaTimeC2Ev@Base 5.0.2
 (subst)_ZN3WTF9MediaTimeC2E{int64_t}ij@Base 5.0.2
 _ZN3WTF9MediaTimeD1Ev@Base 5.0.2
 _ZN3WTF9MediaTimeD2Ev@Base 5.0.2
 _ZN3WTF9MediaTimeaSERKS0_@Base 5.0.2
 (arch=amd64 kfreebsd-amd64 powerpc s390x)_ZN3WTF9dataLogFVEPKcP13__va_list_tag@Base 5.2.1
 (arch=hurd-i386 i386 kfreebsd-i386 ppc64 ppc64el)_ZN3WTF9dataLogFVEPKcPc@Base 5.3.2
 (arch=mips mips64el mipsel sparc sparc64)_ZN3WTF9dataLogFVEPKcPv@Base 5.3.1
 (arch=arm64 armel armhf)_ZN3WTF9dataLogFVEPKcSt9__va_list@Base 5.3.1
 _ZN3WTF9dayInYearEdi@Base 5.0.2
 _ZN3WTF9dayInYearEiii@Base 5.2.0
 _ZN3WTF9emptyAtomE@Base 5.0.2
 _ZN3WTF9msToHoursEd@Base 5.2.0
 _ZN3WTF9xlinkAtomE@Base 5.0.2
 _ZN3WTF9xmlnsAtomE@Base 5.0.2
 _ZN3WTFeqERKNS_7CStringEPKc@Base 5.2.0
 _ZN3WTFeqERKNS_7CStringES2_@Base 5.0.2
 _ZN6WebKit16WebProcessMainQtEP15QGuiApplication@Base 5.0.2
 _ZN6WebKit17PluginProcessMainEiPPc@Base 5.0.2
 _ZN6WebKit18initializeWebKitQtEv@Base 5.0.2
 _ZN6WebKit24setImagePlatformResourceEPKcRK7QPixmap@Base 5.0.2
 _ZN6WebKit28setWebKitWidgetsInitCallbackEPFPN7WebCore12QStyleFacadeEP15QWebPageAdapterE@Base 5.0.2
 _ZN7WebCore17JSDOMGlobalObject6s_infoE@Base 5.0.2
 _ZN7WebCore19initializeWebCoreQtEv@Base 5.0.2
 _ZN7WebCore6JSNode6s_infoE@Base 5.0.2
 _ZN8QDRTNodeC1EPN7WebCore4NodeE@Base 5.0.2
 _ZN8QDRTNodeC1ERKS_@Base 5.0.2
 _ZN8QDRTNodeC1Ev@Base 5.0.2
 _ZN8QDRTNodeC2EPN7WebCore4NodeE@Base 5.0.2
 _ZN8QDRTNodeC2ERKS_@Base 5.0.2
 _ZN8QDRTNodeC2Ev@Base 5.0.2
 _ZN8QDRTNodeD1Ev@Base 5.0.2
 _ZN8QDRTNodeD2Ev@Base 5.0.2
 _ZN8QDRTNodeaSERKS_@Base 5.0.2
 _ZNK10UndoStepQt4textEv@Base 5.0.2
 _ZNK11QRawWebView14drawBackgroundEv@Base 5.0.2
 _ZNK11QRawWebView21transparentBackgroundEv@Base 5.0.2
 _ZNK11QRawWebView24coordinatedGraphicsSceneEv@Base 5.2.0
 _ZNK11QRawWebView4sizeEv@Base 5.0.2
 _ZNK11QRawWebView8isActiveEv@Base 5.0.2
 _ZNK11QRawWebView9isFocusedEv@Base 5.0.2
 _ZNK11QRawWebView9isVisibleEv@Base 5.0.2
 _ZNK11QWebElement10firstChildEv@Base 5.0.2
 _ZNK11QWebElement10toInnerXmlEv@Base 5.0.2
 _ZNK11QWebElement10toOuterXmlEv@Base 5.0.2
 _ZNK11QWebElement11attributeNSERK7QStringS2_S2_@Base 5.0.2
 _ZNK11QWebElement11nextSiblingEv@Base 5.0.2
 _ZNK11QWebElement11toPlainTextEv@Base 5.0.2
 _ZNK11QWebElement12hasAttributeERK7QString@Base 5.0.2
 _ZNK11QWebElement12namespaceUriEv@Base 5.0.2
 _ZNK11QWebElement13hasAttributesEv@Base 5.0.2
 _ZNK11QWebElement13stylePropertyERK7QStringNS_20StyleResolveStrategyE@Base 5.0.2
 _ZNK11QWebElement14attributeNamesERK7QString@Base 5.0.2
 _ZNK11QWebElement14hasAttributeNSERK7QStringS2_@Base 5.0.2
 _ZNK11QWebElement15previousSiblingEv@Base 5.0.2
 _ZNK11QWebElement5cloneEv@Base 5.0.2
 _ZNK11QWebElement6isNullEv@Base 5.0.2
 _ZNK11QWebElement6parentEv@Base 5.0.2
 _ZNK11QWebElement6prefixEv@Base 5.0.2
 _ZNK11QWebElement7classesEv@Base 5.0.2
 _ZNK11QWebElement7findAllERK7QString@Base 5.0.2
 _ZNK11QWebElement7tagNameEv@Base 5.0.2
 _ZNK11QWebElement8documentEv@Base 5.0.2
 _ZNK11QWebElement8geometryEv@Base 5.0.2
 _ZNK11QWebElement8hasClassERK7QString@Base 5.0.2
 _ZNK11QWebElement8hasFocusEv@Base 5.0.2
 _ZNK11QWebElement8webFrameEv@Base 5.0.2
 _ZNK11QWebElement9attributeERK7QStringS2_@Base 5.0.2
 _ZNK11QWebElement9findFirstERK7QString@Base 5.0.2
 _ZNK11QWebElement9lastChildEv@Base 5.0.2
 _ZNK11QWebElement9localNameEv@Base 5.0.2
 _ZNK11QWebElementeqERKS_@Base 5.0.2
 _ZNK11QWebElementneERKS_@Base 5.0.2
 _ZNK11QWebHistory11currentItemEv@Base 5.0.2
 _ZNK11QWebHistory11forwardItemEv@Base 5.0.2
 _ZNK11QWebHistory12canGoForwardEv@Base 5.0.2
 _ZNK11QWebHistory12forwardItemsEi@Base 5.0.2
 _ZNK11QWebHistory16currentItemIndexEv@Base 5.0.2
 _ZNK11QWebHistory16maximumItemCountEv@Base 5.0.2
 _ZNK11QWebHistory5countEv@Base 5.0.2
 _ZNK11QWebHistory5itemsEv@Base 5.0.2
 _ZNK11QWebHistory6itemAtEi@Base 5.0.2
 _ZNK11QWebHistory8backItemEv@Base 5.0.2
 _ZNK11QWebHistory9backItemsEi@Base 5.0.2
 _ZNK11QWebHistory9canGoBackEv@Base 5.0.2
 _ZNK11QWebKitTest10metaObjectEv@Base 5.0.2
 _ZNK11QWebKitTest12contentsSizeEv@Base 5.0.2
 _ZNK11QWebKitTest13contentsScaleEv@Base 5.0.2
 _ZNK11QWebKitTest16devicePixelRatioEv@Base 5.0.2
 _ZNK11QWebKitTest8viewportEv@Base 5.0.2
 _ZNK12QWebDatabase11displayNameEv@Base 5.0.2
 _ZNK12QWebDatabase12expectedSizeEv@Base 5.0.2
 _ZNK12QWebDatabase4nameEv@Base 5.0.2
 _ZNK12QWebDatabase4sizeEv@Base 5.0.2
 _ZNK12QWebDatabase6originEv@Base 5.0.2
 _ZNK12QWebDatabase8fileNameEv@Base 5.0.2
 _ZNK12QWebSettings10fontFamilyENS_10FontFamilyE@Base 5.0.2
 _ZNK12QWebSettings12cssMediaTypeEv@Base 5.2.0
 _ZNK12QWebSettings13testAttributeENS_12WebAttributeE@Base 5.0.2
 _ZNK12QWebSettings16localStoragePathEv@Base 5.0.2
 _ZNK12QWebSettings17userStyleSheetUrlEv@Base 5.0.2
 _ZNK12QWebSettings19defaultTextEncodingEv@Base 5.0.2
 _ZNK12QWebSettings22thirdPartyCookiePolicyEv@Base 5.0.2
 _ZNK12QWebSettings8fontSizeENS_8FontSizeE@Base 5.0.2
 _ZNK13QQuickWebPage10metaObjectEv@Base 5.0.2
 _ZNK13QQuickWebPage12contentsSizeEv@Base 5.0.2
 _ZNK13QQuickWebPage13contentsScaleEv@Base 5.0.2
 _ZNK13QQuickWebPage15transformToItemEv@Base 5.0.2
 _ZNK13QQuickWebPage17transformFromItemEv@Base 5.0.2
 _ZNK13QQuickWebView10contentPosEv@Base 5.0.2
 _ZNK13QQuickWebView10metaObjectEv@Base 5.0.2
 _ZNK13QQuickWebView10zoomFactorEv@Base 5.0.2
 _ZNK13QQuickWebView12canGoForwardEv@Base 5.0.2
 _ZNK13QQuickWebView12experimentalEv@Base 5.0.2
 _ZNK13QQuickWebView12loadProgressEv@Base 5.0.2
 _ZNK13QQuickWebView15mapToWebContentERK7QPointF@Base 5.0.2
 _ZNK13QQuickWebView16inputMethodQueryEN2Qt16InputMethodQueryE@Base 5.0.2
 _ZNK13QQuickWebView17mapFromWebContentERK7QPointF@Base 5.0.2
 _ZNK13QQuickWebView19mapRectToWebContentERK6QRectF@Base 5.0.2
 _ZNK13QQuickWebView21mapRectFromWebContentERK6QRectF@Base 5.0.2
 _ZNK13QQuickWebView36allowAnyHTTPSCertificateForLocalHostEv@Base 5.0.2
 _ZNK13QQuickWebView3urlEv@Base 5.0.2
 _ZNK13QQuickWebView4iconEv@Base 5.0.2
 _ZNK13QQuickWebView5titleEv@Base 5.0.2
 _ZNK13QQuickWebView7loadingEv@Base 5.0.2
 _ZNK13QQuickWebView7pageRefEv@Base 5.0.2
 _ZNK13QQuickWebView9canGoBackEv@Base 5.0.2
 _ZNK14OpaqueJSString6stringEv@Base 5.0.2
 _ZNK14QWebPluginInfo11descriptionEv@Base 5.0.2
 _ZNK14QWebPluginInfo16supportsMimeTypeERK7QString@Base 5.0.2
 _ZNK14QWebPluginInfo4nameEv@Base 5.0.2
 _ZNK14QWebPluginInfo4pathEv@Base 5.0.2
 _ZNK14QWebPluginInfo6isNullEv@Base 5.0.2
 _ZNK14QWebPluginInfo9isEnabledEv@Base 5.0.2
 _ZNK14QWebPluginInfo9mimeTypesEv@Base 5.0.2
 _ZNK14QWebPluginInfoeqERKS_@Base 5.0.2
 _ZNK14QWebPluginInfoneERKS_@Base 5.0.2
 _ZNK14QtPrintContext9pageCountEv@Base 5.0.2
 _ZNK15QWebHistoryItem11lastVisitedEv@Base 5.0.2
 _ZNK15QWebHistoryItem11originalUrlEv@Base 5.0.2
 _ZNK15QWebHistoryItem3urlEv@Base 5.0.2
 _ZNK15QWebHistoryItem4iconEv@Base 5.0.2
 _ZNK15QWebHistoryItem5titleEv@Base 5.0.2
 _ZNK15QWebHistoryItem7isValidEv@Base 5.0.2
 _ZNK15QWebHistoryItem8userDataEv@Base 5.0.2
 _ZNK15QWebLoadRequest10metaObjectEv@Base 5.0.2
 _ZNK15QWebLoadRequest11errorDomainEv@Base 5.0.2
 _ZNK15QWebLoadRequest11errorStringEv@Base 5.0.2
 _ZNK15QWebLoadRequest3urlEv@Base 5.0.2
 _ZNK15QWebLoadRequest6statusEv@Base 5.0.2
 _ZNK15QWebLoadRequest9errorCodeEv@Base 5.0.2
 _ZNK15QWebPageAdapter12currentFrameEv@Base 5.0.2
 _ZNK15QWebPageAdapter12hasSelectionEv@Base 5.0.2
 _ZNK15QWebPageAdapter12selectedHtmlEv@Base 5.0.2
 _ZNK15QWebPageAdapter12selectedTextEv@Base 5.0.2
 _ZNK15QWebPageAdapter14hasFocusedNodeEv@Base 5.0.2
 _ZNK15QWebPageAdapter15visibilityStateEv@Base 5.2.0
 _ZNK15QWebPageAdapter16inputMethodQueryEN2Qt16InputMethodQueryE@Base 5.0.2
 _ZNK15QWebPageAdapter17hasSystemTrayIconEv@Base 5.0.2
 _ZNK15QWebPageAdapter17isContentEditableEv@Base 5.0.2
 _ZNK15QWebPageAdapter17viewportArgumentsEv@Base 5.0.2
 _ZNK15QWebPageAdapter19supportsContentTypeERK7QString@Base 5.0.2
 _ZNK15QWebPageAdapter21supportedContentTypesEv@Base 5.0.2
 _ZNK15QWebPageAdapter25viewportAttributesForSizeERK5QSizeS2_@Base 5.0.2
 _ZNK15QWebPageAdapter27contextMenuItemTagForActionENS_10MenuActionEPb@Base 5.0.2
 _ZNK15QWebPreferences10metaObjectEv@Base 5.0.2
 _ZNK15QWebPreferences12webGLEnabledEv@Base 5.0.2
 _ZNK15QWebPreferences14autoLoadImagesEv@Base 5.0.2
 _ZNK15QWebPreferences14pluginsEnabledEv@Base 5.0.2
 _ZNK15QWebPreferences15defaultFontSizeEv@Base 5.0.2
 _ZNK15QWebPreferences15fixedFontFamilyEv@Base 5.0.2
 _ZNK15QWebPreferences15minimumFontSizeEv@Base 5.0.2
 _ZNK15QWebPreferences15serifFontFamilyEv@Base 5.0.2
 _ZNK15QWebPreferences15webAudioEnabledEv@Base 5.0.2
 _ZNK15QWebPreferences17cursiveFontFamilyEv@Base 5.0.2
 _ZNK15QWebPreferences17fantasyFontFamilyEv@Base 5.0.2
 _ZNK15QWebPreferences17fullScreenEnabledEv@Base 5.0.2
 _ZNK15QWebPreferences17javascriptEnabledEv@Base 5.0.2
 _ZNK15QWebPreferences18dnsPrefetchEnabledEv@Base 5.0.2
 _ZNK15QWebPreferences18standardFontFamilyEv@Base 5.0.2
 _ZNK15QWebPreferences18xssAuditingEnabledEv@Base 5.0.2
 _ZNK15QWebPreferences19localStorageEnabledEv@Base 5.0.2
 _ZNK15QWebPreferences19sansSerifFontFamilyEv@Base 5.0.2
 _ZNK15QWebPreferences20caretBrowsingEnabledEv@Base 5.0.2
 _ZNK15QWebPreferences20defaultFixedFontSizeEv@Base 5.0.2
 _ZNK15QWebPreferences20notificationsEnabledEv@Base 5.0.2
 _ZNK15QWebPreferences22developerExtrasEnabledEv@Base 5.0.2
 _ZNK15QWebPreferences22frameFlatteningEnabledEv@Base 5.0.2
 _ZNK15QWebPreferences22privateBrowsingEnabledEv@Base 5.0.2
 _ZNK15QWebPreferences24navigatorQtObjectEnabledEv@Base 5.0.2
 _ZNK15QWebPreferences29fileAccessFromFileURLsAllowedEv@Base 5.2.0
 _ZNK15QWebPreferences33offlineWebApplicationCacheEnabledEv@Base 5.0.2
 _ZNK15QWebPreferences34universalAccessFromFileURLsAllowedEv@Base 5.2.0
 _ZNK15QWebScriptWorld5worldEv@Base 5.0.2
 _ZNK16QWebDownloadItem10metaObjectEv@Base 5.0.2
 _ZNK16QWebDownloadItem15destinationPathEv@Base 5.0.2
 _ZNK16QWebDownloadItem17suggestedFilenameEv@Base 5.0.2
 _ZNK16QWebDownloadItem18totalBytesReceivedEv@Base 5.0.2
 _ZNK16QWebDownloadItem21expectedContentLengthEv@Base 5.0.2
 _ZNK16QWebDownloadItem3urlEv@Base 5.0.2
 _ZNK16QWebDownloadItem8mimeTypeEv@Base 5.0.2
 _ZNK16QWebFrameAdapter10uniqueNameEv@Base 5.0.2
 _ZNK16QWebFrameAdapter10zoomFactorEv@Base 5.0.2
 _ZNK16QWebFrameAdapter11childFramesEv@Base 5.0.2
 _ZNK16QWebFrameAdapter11toPlainTextEv@Base 5.0.2
 _ZNK16QWebFrameAdapter12contentsSizeEv@Base 5.0.2
 _ZNK16QWebFrameAdapter12coreFrameUrlEv@Base 5.0.2
 _ZNK16QWebFrameAdapter14hitTestContentERK6QPoint@Base 5.0.2
 _ZNK16QWebFrameAdapter14scrollBarValueEN2Qt11OrientationE@Base 5.0.2
 _ZNK16QWebFrameAdapter14scrollPositionEv@Base 5.0.2
 _ZNK16QWebFrameAdapter14securityOriginEv@Base 5.0.2
 _ZNK16QWebFrameAdapter15documentElementEv@Base 5.0.2
 _ZNK16QWebFrameAdapter16customLayoutSizeEv@Base 5.0.2
 _ZNK16QWebFrameAdapter16lastRequestedUrlEv@Base 5.0.2
 _ZNK16QWebFrameAdapter16scrollBarMaximumEN2Qt11OrientationE@Base 5.0.2
 _ZNK16QWebFrameAdapter17scrollBarGeometryEN2Qt11OrientationE@Base 5.0.2
 _ZNK16QWebFrameAdapter17verticalScrollBarEv@Base 5.0.2
 _ZNK16QWebFrameAdapter19horizontalScrollBarEv@Base 5.0.2
 _ZNK16QWebFrameAdapter23tiledBackingStoreFrozenEv@Base 5.0.2
 _ZNK16QWebFrameAdapter5titleEv@Base 5.0.2
 _ZNK16QWebFrameAdapter6toHtmlEv@Base 5.0.2
 _ZNK16QWebFrameAdapter7baseUrlEv@Base 5.0.2
 _ZNK16QWebFrameAdapter7hasViewEv@Base 5.0.2
 _ZNK16QWebFrameAdapter8hasFocusEv@Base 5.0.2
 _ZNK16QWebFrameAdapter8metaDataEv@Base 5.0.2
 _ZNK16QWebFrameAdapter9frameRectEv@Base 5.0.2
 _ZNK17QWebPluginFactory10metaObjectEv@Base 5.0.2
 _ZNK17QWebPluginFactory17supportsExtensionENS_9ExtensionE@Base 5.0.2
 _ZNK17QWebPluginFactory8MimeTypeeqERKS0_@Base 5.0.2
 _ZNK18QQuickNetworkReply10metaObjectEv@Base 5.0.2
 _ZNK18QQuickNetworkReply11contentTypeEv@Base 5.0.2
 _ZNK18QQuickNetworkReply16networkReplyDataEv@Base 5.0.2
 _ZNK18QQuickNetworkReply18networkRequestDataEv@Base 5.0.2
 _ZNK18QQuickNetworkReply4dataEv@Base 5.0.2
 _ZNK18QWebPluginDatabase10metaObjectEv@Base 5.0.2
 _ZNK18QWebPluginDatabase11searchPathsEv@Base 5.0.2
 _ZNK18QWebPluginDatabase7pluginsEv@Base 5.0.2
 _ZNK18QWebSecurityOrigin13databaseQuotaEv@Base 5.0.2
 _ZNK18QWebSecurityOrigin13databaseUsageEv@Base 5.0.2
 _ZNK18QWebSecurityOrigin4hostEv@Base 5.0.2
 _ZNK18QWebSecurityOrigin4portEv@Base 5.0.2
 _ZNK18QWebSecurityOrigin6schemeEv@Base 5.0.2
 _ZNK18QWebSecurityOrigin9databasesEv@Base 5.0.2
 _ZNK19QtWebSecurityOrigin10metaObjectEv@Base 5.0.2
 _ZNK19QtWebSecurityOrigin4hostEv@Base 5.0.2
 _ZNK19QtWebSecurityOrigin4pathEv@Base 5.0.2
 _ZNK19QtWebSecurityOrigin4portEv@Base 5.0.2
 _ZNK19QtWebSecurityOrigin6schemeEv@Base 5.0.2
 _ZNK20QQuickNetworkRequest10metaObjectEv@Base 5.0.2
 _ZNK20QQuickNetworkRequest3urlEv@Base 5.0.2
 _ZNK20QWebHistoryInterface10metaObjectEv@Base 5.0.2
 _ZNK21QQuickWebViewAttached10metaObjectEv@Base 5.0.2
 _ZNK21QWebElementCollection2atEi@Base 5.0.2
 _ZNK21QWebElementCollection5countEv@Base 5.0.2
 _ZNK21QWebElementCollection6toListEv@Base 5.0.2
 _ZNK21QWebElementCollectionplERKS_@Base 5.0.2
 _ZNK21QWebNavigationHistory10metaObjectEv@Base 5.0.2
 _ZNK21QWebNavigationHistory12forwardItemsEv@Base 5.0.2
 _ZNK21QWebNavigationHistory9backItemsEv@Base 5.0.2
 _ZNK21QWebNavigationRequest10metaObjectEv@Base 5.0.2
 _ZNK21QWebNavigationRequest11mouseButtonEv@Base 5.0.2
 _ZNK21QWebNavigationRequest14navigationTypeEv@Base 5.0.2
 _ZNK21QWebNavigationRequest17keyboardModifiersEv@Base 5.0.2
 _ZNK21QWebNavigationRequest3urlEv@Base 5.0.2
 _ZNK21QWebNavigationRequest6actionEv@Base 5.0.2
 _ZNK21QWebPermissionRequest10metaObjectEv@Base 5.0.2
 _ZNK21QWebPermissionRequest4typeEv@Base 5.0.2
 _ZNK21QWebPermissionRequest5allowEv@Base 5.0.2
 _ZNK21QtPluginWidgetAdapter10metaObjectEv@Base 5.0.2
 _ZNK23QQuickUrlSchemeDelegate10metaObjectEv@Base 5.0.2
 _ZNK23QQuickUrlSchemeDelegate5replyEv@Base 5.0.2
 _ZNK23QQuickUrlSchemeDelegate6schemeEv@Base 5.0.2
 _ZNK23QQuickUrlSchemeDelegate7requestEv@Base 5.0.2
 _ZNK23QWebNavigationListModel10metaObjectEv@Base 5.0.2
 _ZNK23QWebNavigationListModel4dataERK11QModelIndexi@Base 5.0.2
 _ZNK23QWebNavigationListModel8rowCountERK11QModelIndex@Base 5.0.2
 _ZNK23QWebNavigationListModel9roleNamesEv@Base 5.0.2
 _ZNK24QWebHitTestResultPrivate19elementForInnerNodeEv@Base 5.0.2
 _ZNK25QQuickWebViewExperimental10filePickerEv@Base 5.0.2
 _ZNK25QQuickWebViewExperimental10metaObjectEv@Base 5.0.2
 _ZNK25QQuickWebViewExperimental11alertDialogEv@Base 5.0.2
 _ZNK25QQuickWebViewExperimental11deviceWidthEv@Base 5.0.2
 _ZNK25QQuickWebViewExperimental11preferencesEv@Base 5.0.2
 _ZNK25QQuickWebViewExperimental11userScriptsEv@Base 5.0.2
 _ZNK25QQuickWebViewExperimental12colorChooserEv@Base 5.0.2
 _ZNK25QQuickWebViewExperimental12deviceHeightEv@Base 5.0.2
 _ZNK25QQuickWebViewExperimental12itemSelectorEv@Base 5.0.2
 _ZNK25QQuickWebViewExperimental12promptDialogEv@Base 5.0.2
 _ZNK25QQuickWebViewExperimental13confirmDialogEv@Base 5.0.2
 _ZNK25QQuickWebViewExperimental17navigationHistoryEv@Base 5.0.2
 _ZNK25QQuickWebViewExperimental18remoteInspectorUrlEv@Base 5.0.2
 _ZNK25QQuickWebViewExperimental19databaseQuotaDialogEv@Base 5.0.2
 _ZNK25QQuickWebViewExperimental20authenticationDialogEv@Base 5.0.2
 _ZNK25QQuickWebViewExperimental21transparentBackgroundEv@Base 5.0.2
 _ZNK25QQuickWebViewExperimental23renderToOffscreenBufferEv@Base 5.0.2
 _ZNK25QQuickWebViewExperimental25proxyAuthenticationDialogEv@Base 5.0.2
 _ZNK25QQuickWebViewExperimental25useDefaultContentItemSizeEv@Base 5.0.2
 _ZNK25QQuickWebViewExperimental29certificateVerificationDialogEv@Base 5.0.2
 _ZNK25QQuickWebViewExperimental29preferredMinimumContentsWidthEv@Base 5.0.2
 _ZNK25QQuickWebViewExperimental9userAgentEv@Base 5.0.2
 _ZNK3JSC10JSFunction10sourceCodeEv@Base 5.0.2
 _ZNK3JSC10JSFunction23isHostFunctionNonInlineEv@Base 5.0.2
 (optional=gccinternal)_ZNK3JSC11Interpreter18retrieveLastCallerEPNS_9ExecStateERiRlRN3WTF6StringERNS_7JSValueE@Base 5.3.1
 _ZNK3JSC12JSRopeString11resolveRopeEPNS_9ExecStateE@Base 5.0.2
 _ZNK3JSC12PropertySlot14functionGetterEPNS_9ExecStateE@Base 5.0.2
 _ZNK3JSC17DebuggerCallFrame10thisObjectEv@Base 5.0.2
 _ZNK3JSC17DebuggerCallFrame12functionNameEv@Base 5.0.2
 _ZNK3JSC17DebuggerCallFrame22calculatedFunctionNameEv@Base 5.0.2
 _ZNK3JSC17DebuggerCallFrame4typeEv@Base 5.0.2
 _ZNK3JSC17DebuggerCallFrame8evaluateERKN3WTF6StringERNS_7JSValueE@Base 5.0.2
 _ZNK3JSC18PropertyDescriptor10enumerableEv@Base 5.0.2
 _ZNK3JSC18PropertyDescriptor12configurableEv@Base 5.0.2
 _ZNK3JSC18PropertyDescriptor16isDataDescriptorEv@Base 5.0.2
 _ZNK3JSC18PropertyDescriptor20isAccessorDescriptorEv@Base 5.0.2
 _ZNK3JSC18PropertyDescriptor6getterEv@Base 5.0.2
 _ZNK3JSC18PropertyDescriptor6setterEv@Base 5.0.2
 _ZNK3JSC18PropertyDescriptor8writableEv@Base 5.0.2
 _ZNK3JSC6JSCell11toPrimitiveEPNS_9ExecStateENS_22PreferredPrimitiveTypeE@Base 5.0.2
 _ZNK3JSC6JSCell8toNumberEPNS_9ExecStateE@Base 5.0.2
 _ZNK3JSC6JSCell8toObjectEPNS_9ExecStateEPNS_14JSGlobalObjectE@Base 5.0.2
 _ZNK3JSC6JSCell9getStringEPNS_9ExecStateE@Base 5.0.2
 _ZNK3JSC6JSCell9getStringEPNS_9ExecStateERN3WTF6StringE@Base 5.0.2
 _ZNK3JSC7ArgList8getSliceEiRS0_@Base 5.0.2
 _ZNK3JSC7JSValue16toNumberSlowCaseEPNS_9ExecStateE@Base 5.0.2
 _ZNK3JSC7JSValue16toObjectSlowCaseEPNS_9ExecStateEPNS_14JSGlobalObjectE@Base 5.0.2
 _ZNK3JSC7JSValue16toStringSlowCaseEPNS_9ExecStateE@Base 5.0.2
 _ZNK3JSC7JSValue19synthesizePrototypeEPNS_9ExecStateE@Base 5.0.2
 _ZNK3JSC7JSValue19toWTFStringSlowCaseEPNS_9ExecStateE@Base 5.0.2
 _ZNK3JSC7JSValue20toThisObjectSlowCaseEPNS_9ExecStateE@Base 5.0.2
 _ZNK3JSC7JSValue4dumpERN3WTF11PrintStreamE@Base 5.2.0
 _ZNK3JSC7JSValue9toIntegerEPNS_9ExecStateE@Base 5.0.2
 _ZNK3JSC8JSObject11hasPropertyEPNS_9ExecStateENS_12PropertyNameE@Base 5.0.2
 _ZNK3JSC8JSObject11hasPropertyEPNS_9ExecStateEj@Base 5.0.2
 _ZNK3JSC8JSObject8toNumberEPNS_9ExecStateE@Base 5.0.2
 _ZNK3JSC8JSObject8toStringEPNS_9ExecStateE@Base 5.0.2
 _ZNK3JSC8JSString9toBooleanEv@Base 5.0.2
 _ZNK3JSC8Profiler8Database4saveEPKc@Base 5.2.0
 _ZNK3JSC8Profiler8Database4toJSEPNS_9ExecStateE@Base 5.2.0
 _ZNK3JSC8Profiler8Database6toJSONEv@Base 5.2.0
 _ZNK3JSC9HashTable11createTableEPNS_2VME@Base 5.2.0
 _ZNK3JSC9HashTable11deleteTableEv@Base 5.0.2
 _ZNK3WTF10StringImpl10startsWithEPKS0_@Base 5.2.0
 _ZNK3WTF10StringImpl10startsWithEPKcjb@Base 5.0.2
 _ZNK3WTF10StringImpl10startsWithEt@Base 5.0.2
 _ZNK3WTF10StringImpl11sizeInBytesEv@Base 5.0.2
 _ZNK3WTF10StringImpl12hashSlowCaseEv@Base 5.0.2
 _ZNK3WTF10StringImpl17getData16SlowCaseEv@Base 5.0.2
 _ZNK3WTF10StringImpl19upconvertCharactersEjj@Base 5.0.2
 _ZNK3WTF10StringImpl8endsWithEPKcjb@Base 5.0.2
 _ZNK3WTF10StringImpl8endsWithEt@Base 5.0.2
 _ZNK3WTF12AtomicString5lowerEv@Base 5.0.2
 _ZNK3WTF13DecimalNumber15toStringDecimalEPhj@Base 5.0.2
 _ZNK3WTF13DecimalNumber19toStringExponentialEPhj@Base 5.0.2
 _ZNK3WTF13DecimalNumber28bufferLengthForStringDecimalEv@Base 5.0.2
 _ZNK3WTF13DecimalNumber32bufferLengthForStringExponentialEv@Base 5.0.2
 _ZNK3WTF13StringBuilder11reifyStringEv@Base 5.0.2
 _ZNK3WTF13StringBuilder9canShrinkEv@Base 5.0.2
 _ZNK3WTF17double_conversion23DoubleToStringConverter13ToExponentialEdiPNS0_13StringBuilderE@Base 5.2.0
 _ZNK3WTF6String11toIntStrictEPbi@Base 5.0.2
 _ZNK3WTF6String12isolatedCopyEv@Base 5.0.2
 _ZNK3WTF6String12toUIntStrictEPbi@Base 5.0.2
 _ZNK3WTF6String13toInt64StrictEPbi@Base 5.0.2
 _ZNK3WTF6String15stripWhiteSpaceEPFbtE@Base 5.0.2
 _ZNK3WTF6String15stripWhiteSpaceEv@Base 5.0.2
 _ZNK3WTF6String16removeCharactersEPFbtE@Base 5.0.2
 _ZNK3WTF6String18simplifyWhiteSpaceEPFbtE@Base 5.0.2
 _ZNK3WTF6String18simplifyWhiteSpaceEv@Base 5.0.2
 _ZNK3WTF6String19characterStartingAtEj@Base 5.0.2
 _ZNK3WTF6String20substringSharingImplEjj@Base 5.0.2
 _ZNK3WTF6String27isSafeToSendToAnotherThreadEv@Base 5.2.0
 _ZNK3WTF6String29charactersWithNullTerminationEv@Base 5.2.0
 _ZNK3WTF6String4utf8ENS0_14ConversionModeE@Base 5.0.2
 _ZNK3WTF6String5asciiEv@Base 5.0.2
 _ZNK3WTF6String5lowerEv@Base 5.0.2
 (subst)_ZNK3WTF6String5splitERKS0_bRNS_6VectorIS0_L{size_t}0ENS_15CrashOnOverflowEEE@Base 5.2.0
 (subst)_ZNK3WTF6String5splitEtbRNS_6VectorIS0_L{size_t}0ENS_15CrashOnOverflowEEE@Base 5.2.0
 _ZNK3WTF6String5toIntEPb@Base 5.0.2
 _ZNK3WTF6String5upperEv@Base 5.0.2
 _ZNK3WTF6String6latin1Ev@Base 5.0.2
 _ZNK3WTF6String6toUIntEPb@Base 5.0.2
 _ZNK3WTF6String7toFloatEPb@Base 5.0.2
 _ZNK3WTF6String8foldCaseEv@Base 5.0.2
 _ZNK3WTF6String8toDoubleEPb@Base 5.0.2
 _ZNK3WTF6String8toIntPtrEPb@Base 5.0.2
 _ZNK3WTF6String8toUInt64EPb@Base 5.0.2
 _ZNK3WTF6String9substringEjj@Base 5.0.2
 _ZNK3WTF6Stringcv7QStringEv@Base 5.0.2
 (subst)_ZNK3WTF8Collator7collateEPKt{size_t}S2_{size_t}@Base 5.2.0
 _ZNK3WTF9MediaTime7compareERKS0_@Base 5.0.2
 _ZNK3WTF9MediaTime7toFloatEv@Base 5.0.2
 _ZNK3WTF9MediaTime8toDoubleEv@Base 5.0.2
 _ZNK3WTF9MediaTimeeqERKS0_@Base 5.0.2
 _ZNK3WTF9MediaTimegeERKS0_@Base 5.0.2
 _ZNK3WTF9MediaTimegtERKS0_@Base 5.0.2
 _ZNK3WTF9MediaTimeleERKS0_@Base 5.0.2
 _ZNK3WTF9MediaTimeltERKS0_@Base 5.0.2
 _ZNK3WTF9MediaTimemiERKS0_@Base 5.0.2
 _ZNK3WTF9MediaTimeplERKS0_@Base 5.0.2
 (optional=templinst|arch=sparc)_ZNK8QVariant5valueIS_EET_v@Base 5.2.1
 (optional=templinst|arch=sparc)_ZNKSbIcSt11char_traitsIcE14pool_allocatorIcEE7compareEjjPKc@Base 5.2.1
 (optional=templinst|arch=!sparc)_ZNKSt8_Rb_treeISsSt4pairIKSs9TBehaviorESt10_Select1stIS3_ESt4lessISsESaIS3_EE4findERS1_@Base 5.0.2
 (optional=templinst|arch=sparc)_ZNSbIcSt11char_traitsIcE14pool_allocatorIcEE12_S_constructIPKcEEPcT_S8_RKS2_St20forward_iterator_tag@Base 5.2.1
 (arch=sparc)_ZNSbIcSt11char_traitsIcE14pool_allocatorIcEE4_Rep20_S_empty_rep_storageE@Base 5.2.1
 (optional=templinst|arch=sparc)_ZNSbIcSt11char_traitsIcE14pool_allocatorIcEE4_Rep8_M_cloneERKS2_j@Base 5.2.1
 (optional=templinst|arch=sparc)_ZNSbIcSt11char_traitsIcE14pool_allocatorIcEE4_Rep9_S_createEjjRKS2_@Base 5.2.1
 (optional=templinst|arch=sparc)_ZNSbIcSt11char_traitsIcE14pool_allocatorIcEE4swapERS3_@Base 5.2.1
 (optional=templinst|arch=sparc)_ZNSbIcSt11char_traitsIcE14pool_allocatorIcEE6appendEPKcj@Base 5.2.1
 (optional=templinst|arch=sparc)_ZNSbIcSt11char_traitsIcE14pool_allocatorIcEE6appendERKS3_@Base 5.2.1
 (optional=templinst|arch=sparc)_ZNSbIcSt11char_traitsIcE14pool_allocatorIcEE6appendEjc@Base 5.2.1
 (optional=templinst|arch=sparc)_ZNSbIcSt11char_traitsIcE14pool_allocatorIcEE6assignEPKcj@Base 5.2.1
 (optional=templinst|arch=sparc)_ZNSbIcSt11char_traitsIcE14pool_allocatorIcEE6assignERKS3_@Base 5.2.1
 (optional=templinst|arch=sparc)_ZNSbIcSt11char_traitsIcE14pool_allocatorIcEE6insertEjPKcj@Base 5.2.1
 (optional=templinst|arch=sparc)_ZNSbIcSt11char_traitsIcE14pool_allocatorIcEE7reserveEj@Base 5.2.1
 (optional=templinst|arch=sparc)_ZNSbIcSt11char_traitsIcE14pool_allocatorIcEE9_M_mutateEjjj@Base 5.2.1
 (optional=templinst|arch=sparc)_ZNSbIcSt11char_traitsIcE14pool_allocatorIcEEC1EPKcRKS2_@Base 5.2.1
 (optional=templinst|arch=sparc)_ZNSbIcSt11char_traitsIcE14pool_allocatorIcEEC1ERKS3_@Base 5.2.1
 (optional=templinst|arch=sparc)_ZNSbIcSt11char_traitsIcE14pool_allocatorIcEEC1ERKS3_jj@Base 5.2.1
 (optional=templinst|arch=sparc)_ZNSbIcSt11char_traitsIcE14pool_allocatorIcEEC1IN9__gnu_cxx17__normal_iteratorIPcS3_EEEET_S9_RKS2_@Base 5.2.1
 (optional=templinst|arch=sparc)_ZNSbIcSt11char_traitsIcE14pool_allocatorIcEEC1IPcEET_S6_RKS2_@Base 5.2.1
 (optional=templinst|arch=sparc)_ZNSbIcSt11char_traitsIcE14pool_allocatorIcEEC2EPKcRKS2_@Base 5.2.1
 (optional=templinst|arch=sparc)_ZNSbIcSt11char_traitsIcE14pool_allocatorIcEEC2ERKS3_@Base 5.2.1
 (optional=templinst|arch=sparc)_ZNSbIcSt11char_traitsIcE14pool_allocatorIcEEC2ERKS3_jj@Base 5.2.1
 (optional=templinst|arch=sparc)_ZNSbIcSt11char_traitsIcE14pool_allocatorIcEEC2IN9__gnu_cxx17__normal_iteratorIPcS3_EEEET_S9_RKS2_@Base 5.2.1
 (optional=templinst|arch=sparc)_ZNSbIcSt11char_traitsIcE14pool_allocatorIcEEC2IPcEET_S6_RKS2_@Base 5.2.1
 (optional=templinst|arch=sparc)_ZNSbIcSt11char_traitsIcE14pool_allocatorIcEED1Ev@Base 5.2.1
 (optional=templinst|arch=sparc)_ZNSbIcSt11char_traitsIcE14pool_allocatorIcEED2Ev@Base 5.2.1
 (optional=templinst|arch=!sparc)_ZNSs12_S_constructIPcEES0_T_S1_RKSaIcESt20forward_iterator_tag@Base 5.0.2
 (optional=templinst|arch=sparc)_ZNSsC1IPcEET_S1_RKSaIcE@Base 5.2.1
 (optional=templinst|arch=sparc)_ZNSsC2IPcEET_S1_RKSaIcE@Base 5.2.1
 (optional=templinst|arch=sparc)_ZNSt11_Deque_baseIP12TGraphSymbolSaIS1_EE17_M_initialize_mapEj@Base 5.2.1
 (optional=templinst|arch=sparc)_ZNSt11_Deque_baseIPSt3setIP16TGraphParentNodeSt4lessIS2_ESaIS2_EESaIS7_EE17_M_initialize_mapEj@Base 5.2.1
 (optional=templinst|arch=sparc)_ZNSt11__copy_moveILb0ELb0ESt26random_access_iterator_tagE8__copy_mIPKN7WebCore10UserScriptEPS4_EET0_T_S9_S8_@Base 5.2.1
 (optional=templinst|arch=sparc)_ZNSt11__copy_moveILb0ELb0ESt26random_access_iterator_tagE8__copy_mIPKN7WebCore14UserStyleSheetEPS4_EET0_T_S9_S8_@Base 5.2.1
 (optional=templinst|arch=sparc)_ZNSt15basic_stringbufIcSt11char_traitsIcE14pool_allocatorIcEE6setbufEPci@Base 5.2.1
 (optional=templinst|arch=sparc)_ZNSt15basic_stringbufIcSt11char_traitsIcE14pool_allocatorIcEE7_M_syncEPcjj@Base 5.2.1
 (optional=templinst|arch=sparc)_ZNSt15basic_stringbufIcSt11char_traitsIcE14pool_allocatorIcEE7seekoffExSt12_Ios_SeekdirSt13_Ios_Openmode@Base 5.2.1
 (optional=templinst|arch=sparc)_ZNSt15basic_stringbufIcSt11char_traitsIcE14pool_allocatorIcEE7seekposESt4fposI11__mbstate_tESt13_Ios_Openmode@Base 5.2.1
 (optional=templinst|arch=sparc)_ZNSt15basic_stringbufIcSt11char_traitsIcE14pool_allocatorIcEE8overflowEi@Base 5.2.1
 (optional=templinst|arch=sparc)_ZNSt15basic_stringbufIcSt11char_traitsIcE14pool_allocatorIcEE9pbackfailEi@Base 5.2.1
 (optional=templinst|arch=sparc)_ZNSt15basic_stringbufIcSt11char_traitsIcE14pool_allocatorIcEE9showmanycEv@Base 5.2.1
 (optional=templinst|arch=sparc)_ZNSt15basic_stringbufIcSt11char_traitsIcE14pool_allocatorIcEE9underflowEv@Base 5.2.1
 (optional=templinst|arch=sparc)_ZNSt15basic_stringbufIcSt11char_traitsIcE14pool_allocatorIcEED0Ev@Base 5.2.1
 (optional=templinst|arch=sparc)_ZNSt15basic_stringbufIcSt11char_traitsIcE14pool_allocatorIcEED1Ev@Base 5.2.1
 (optional=templinst|arch=sparc)_ZNSt15basic_stringbufIcSt11char_traitsIcE14pool_allocatorIcEED2Ev@Base 5.2.1
 (optional=templinst|arch=sparc)_ZNSt17_Temporary_bufferIPN7WebCore20CSSGradientColorStopES1_EC1ES2_S2_@Base 5.2.1
 (optional=templinst|arch=sparc)_ZNSt17_Temporary_bufferIPN7WebCore20CSSGradientColorStopES1_EC2ES2_S2_@Base 5.2.1
 (optional=templinst|arch=sparc)_ZNSt17_Temporary_bufferIPN7WebCore8Gradient9ColorStopES2_EC1ES3_S3_@Base 5.2.1
 (optional=templinst|arch=sparc)_ZNSt17_Temporary_bufferIPN7WebCore8Gradient9ColorStopES2_EC2ES3_S3_@Base 5.2.1
 (optional=templinst|arch=sparc)_ZNSt17_Temporary_bufferIPSt4pairIN7WebCore4KURLES2_ES3_EC1ES4_S4_@Base 5.2.1
 (optional=templinst|arch=sparc)_ZNSt17_Temporary_bufferIPSt4pairIN7WebCore4KURLES2_ES3_EC2ES4_S4_@Base 5.2.1
 (optional=templinst|arch=sparc)_ZNSt19basic_ostringstreamIcSt11char_traitsIcE14pool_allocatorIcEED0Ev@Base 5.2.1
 (optional=templinst|arch=sparc)_ZNSt19basic_ostringstreamIcSt11char_traitsIcE14pool_allocatorIcEED1Ev@Base 5.2.1
 (optional=templinst|arch=sparc)_ZNSt3mapISbIcSt11char_traitsIcE14pool_allocatorIcEEP13TIntermSymbolSt4lessIS4_ESaISt4pairIKS4_S6_EEEixERSA_@Base 5.2.1
 (optional=templinst|arch=sparc)_ZNSt3mapISsN2pp5MacroESt4lessISsESaISt4pairIKSsS1_EEEixEOSs@Base 5.2.1
 (optional=templinst|arch=sparc)_ZNSt4pairIN7WebCore4KURLES1_EC1IS1_S1_EEOS_IT_T0_E@Base 5.2.1
 (optional=templinst|arch=sparc)_ZNSt4pairIN7WebCore4KURLES1_EC2IS1_S1_EEOS_IT_T0_E@Base 5.2.1
 (optional=templinst|arch=sparc)_ZNSt4pairIN7WebCore4KURLES1_ED1Ev@Base 5.2.1
 (optional=templinst|arch=sparc)_ZNSt4pairIN7WebCore4KURLES1_ED2Ev@Base 5.2.1
 (optional=templinst|arch=sparc)_ZNSt5dequeIP12TGraphSymbolSaIS1_EE17_M_reallocate_mapEjb@Base 5.2.1
 (optional=templinst|arch=sparc)_ZNSt5dequeIPSt3setIP16TGraphParentNodeSt4lessIS2_ESaIS2_EESaIS7_EE12emplace_backIIS7_EEEvDpOT_@Base 5.2.1
 (optional=templinst|arch=sparc)_ZNSt5dequeIPSt3setIP16TGraphParentNodeSt4lessIS2_ESaIS2_EESaIS7_EE17_M_reallocate_mapEjb@Base 5.2.1
 (optional=templinst|arch=sparc)_ZNSt6vectorI10TParameter14pool_allocatorIS0_EE13_M_insert_auxIIRKS0_EEEvN9__gnu_cxx17__normal_iteratorIPS0_S3_EEDpOT_@Base 5.2.1
 (optional=templinst|arch=sparc)_ZNSt6vectorI13TVariableInfoSaIS0_EE13_M_insert_auxIIRKS0_EEEvN9__gnu_cxx17__normal_iteratorIPS0_S2_EEDpOT_@Base 5.2.1
 (optional=templinst|arch=sparc)_ZNSt6vectorI14TLoopIndexInfo14pool_allocatorIS0_EE13_M_insert_auxIIRKS0_EEEvN9__gnu_cxx17__normal_iteratorIPS0_S3_EEDpOT_@Base 5.2.1
 (optional=templinst|arch=sparc)_ZNSt6vectorI5TTypeSaIS0_EE13_M_insert_auxIIRKS0_EEEvN9__gnu_cxx17__normal_iteratorIPS0_S2_EEDpOT_@Base 5.2.1
 (optional=templinst|arch=sparc)_ZNSt6vectorI9TLoopInfo14pool_allocatorIS0_EE13_M_insert_auxIIRKS0_EEEvN9__gnu_cxx17__normal_iteratorIPS0_S3_EEDpOT_@Base 5.2.1
 (optional=templinst|arch=sparc)_ZNSt6vectorIN14TPoolAllocator11tAllocStateESaIS1_EE13_M_insert_auxIIRKS1_EEEvN9__gnu_cxx17__normal_iteratorIPS1_S3_EEDpOT_@Base 5.2.1
 (optional=templinst|arch=sparc)_ZNSt6vectorIN23BuiltInFunctionEmulator16TBuiltInFunctionESaIS1_EE13_M_insert_auxIIRKS1_EEEvN9__gnu_cxx17__normal_iteratorIPS1_S3_EEDpOT_@Base 5.2.1
 (optional=templinst|arch=!sparc)_ZNSt6vectorIN23BuiltInFunctionEmulator16TBuiltInFunctionESaIS1_EE19_M_emplace_back_auxIIRKS1_EEEvDpOT_@Base 5.2.0
 (optional=templinst|arch=!sparc)_ZNSt6vectorIN23BuiltInFunctionEmulator16TBuiltInFunctionESaIS1_EE19_M_emplace_back_auxIJRKS1_EEEvDpOT_@Base 5.2.0
 (optional=templinst|arch=sparc)_ZNSt6vectorIN2pp15DirectiveParser16ConditionalBlockESaIS2_EE13_M_insert_auxIIRKS2_EEEvN9__gnu_cxx17__normal_iteratorIPS2_S4_EEDpOT_@Base 5.2.1
 (optional=templinst|arch=sparc)_ZNSt6vectorIN2pp5TokenESaIS1_EE13_M_assign_auxIN9__gnu_cxx17__normal_iteratorIPKS1_S3_EEEEvT_SA_St20forward_iterator_tag@Base 5.2.1
 (optional=templinst|arch=sparc)_ZNSt6vectorIN2pp5TokenESaIS1_EE13_M_insert_auxIIRKS1_EEEvN9__gnu_cxx17__normal_iteratorIPS1_S3_EEDpOT_@Base 5.2.1
 (optional=templinst|arch=sparc)_ZNSt6vectorIN2pp5TokenESaIS1_EE15_M_range_insertIN9__gnu_cxx17__normal_iteratorIPKS1_S3_EEEEvNS6_IPS1_S3_EET_SC_St20forward_iterator_tag@Base 5.2.1
 (optional=templinst|arch=sparc)_ZNSt6vectorIN2pp5TokenESaIS1_EEaSERKS3_@Base 5.2.1
 (optional=templinst|arch=sparc)_ZNSt6vectorIN2sh7UniformESaIS1_EE13_M_insert_auxIIS1_EEEvN9__gnu_cxx17__normal_iteratorIPS1_S3_EEDpOT_@Base 5.2.1
 (optional=templinst|arch=sparc)_ZNSt6vectorIN2sh7UniformESaIS1_EEaSERKS3_@Base 5.2.1
 (optional=templinst|arch=sparc)_ZNSt6vectorIP10TGraphNodeSaIS1_EE13_M_insert_auxIIS1_EEEvN9__gnu_cxx17__normal_iteratorIPS1_S3_EEDpOT_@Base 5.2.1
 (optional=templinst|arch=sparc)_ZNSt6vectorIP11TIntermNode14pool_allocatorIS1_EE13_M_insert_auxIIRKS1_EEEvN9__gnu_cxx17__normal_iteratorIPS1_S4_EEDpOT_@Base 5.2.1
 (optional=templinst|arch=sparc)_ZNSt6vectorIP11TIntermNode14pool_allocatorIS1_EE13_M_insert_auxIIS1_EEEvN9__gnu_cxx17__normal_iteratorIPS1_S4_EEDpOT_@Base 5.2.1
 (optional=templinst|arch=sparc)_ZNSt6vectorIP12TGraphSymbolSaIS1_EE13_M_insert_auxIIRKS1_EEEvN9__gnu_cxx17__normal_iteratorIPS1_S3_EEDpOT_@Base 5.2.1
 (optional=templinst|arch=sparc)_ZNSt6vectorIP17TSymbolTableLevelSaIS1_EE13_M_insert_auxIIS1_EEEvN9__gnu_cxx17__normal_iteratorIPS1_S3_EEDpOT_@Base 5.2.1
 (optional=templinst|arch=sparc)_ZNSt6vectorIP18TGraphFunctionCallSaIS1_EE13_M_insert_auxIIRKS1_EEEvN9__gnu_cxx17__normal_iteratorIPS1_S3_EEDpOT_@Base 5.2.1
 (optional=templinst|arch=sparc)_ZNSt6vectorIP6TField14pool_allocatorIS1_EE13_M_insert_auxIIRKS1_EEEvN9__gnu_cxx17__normal_iteratorIPS1_S4_EEDpOT_@Base 5.2.1
 (optional=templinst|arch=sparc)_ZNSt6vectorIPN15DetectCallDepth12FunctionNodeE14pool_allocatorIS2_EE13_M_insert_auxIIRKS2_EEEvN9__gnu_cxx17__normal_iteratorIPS2_S5_EEDpOT_@Base 5.2.1
 (optional=templinst|arch=sparc)_ZNSt6vectorIPN2pp13MacroExpander12MacroContextESaIS3_EE13_M_insert_auxIIRKS3_EEEvN9__gnu_cxx17__normal_iteratorIPS3_S5_EEDpOT_@Base 5.2.1
 (optional=templinst)_ZNSt6vectorIPcSaIS0_EE19_M_emplace_back_auxIIRKS0_EEEvDpOT_@Base 5.3.0
 (optional=templinst)_ZNSt6vectorIPcSaIS0_EE19_M_emplace_back_auxIIS0_EEEvDpOT_@Base 5.3.0
 (optional=templinst)_ZNSt6vectorIPcSaIS0_EE19_M_emplace_back_auxIJRKS0_EEEvDpOT_@Base 5.3.0
 (optional=templinst)_ZNSt6vectorIPcSaIS0_EE19_M_emplace_back_auxIJS0_EEEvDpOT_@Base 5.3.0
 (optional=templinst|arch=sparc)_ZNSt6vectorIS_IN2pp5TokenESaIS1_EESaIS3_EE13_M_insert_auxIIS3_EEEvN9__gnu_cxx17__normal_iteratorIPS3_S5_EEDpOT_@Base 5.2.1
 (optional=templinst|arch=sparc)_ZNSt6vectorIS_IN2pp5TokenESaIS1_EESaIS3_EE7reserveEj@Base 5.2.1
 (optional=templinst|arch=sparc)_ZNSt6vectorISsSaISsEE13_M_insert_auxIIRKSsEEEvN9__gnu_cxx17__normal_iteratorIPSsS1_EEDpOT_@Base 5.2.1
 (optional=templinst|arch=!sparc)_ZNSt6vectorISsSaISsEE19_M_emplace_back_auxIIRKSsEEEvDpOT_@Base 5.2.0
 (optional=templinst)_ZNSt6vectorISsSaISsEE19_M_emplace_back_auxIISsEEEvDpOT_@Base 5.3.0
 (optional=templinst|arch=!sparc)_ZNSt6vectorISsSaISsEE19_M_emplace_back_auxIJRKSsEEEvDpOT_@Base 5.2.0
 (optional=templinst)_ZNSt6vectorISsSaISsEE19_M_emplace_back_auxIJSsEEEvDpOT_@Base 5.3.0
 (optional=templinst)_ZNSt6vectorISsSaISsEED1Ev@Base 5.3.0
 (optional=templinst)_ZNSt6vectorISsSaISsEED2Ev@Base 5.3.0
 (optional=templinst)_ZNSt6vectorISsSaISsEEaSERKS1_@Base 5.0.2
 (optional=templinst|arch=sparc)_ZNSt6vectorISt3mapI10TBasicType10TPrecisionSt4lessIS1_ESaISt4pairIKS1_S2_EEESaIS9_EE13_M_insert_auxIIS9_EEEvN9__gnu_cxx17__normal_iteratorIPS9_SB_EEDpOT_@Base 5.2.1
 (optional=templinst|arch=!sparc)_ZNSt6vectorISt3mapI10TBasicType10TPrecisionSt4lessIS1_ESaISt4pairIKS1_S2_EEESaIS9_EE19_M_emplace_back_auxIIS9_EEEvDpOT_@Base 5.2.0
 (optional=templinst|arch=!sparc)_ZNSt6vectorISt3mapI10TBasicType10TPrecisionSt4lessIS1_ESaISt4pairIKS1_S2_EEESaIS9_EE19_M_emplace_back_auxIJS9_EEEvDpOT_@Base 5.2.0
 (optional=templinst|arch=sparc)_ZNSt6vectorIiSaIiEE13_M_insert_auxIIiEEEvN9__gnu_cxx17__normal_iteratorIPiS1_EEDpOT_@Base 5.2.1
 (optional=templinst|arch=!sparc)_ZNSt6vectorIiSaIiEE19_M_emplace_back_auxIIiEEEvDpOT_@Base 5.2.0
 (optional=templinst|arch=!sparc)_ZNSt6vectorIiSaIiEE19_M_emplace_back_auxIJiEEEvDpOT_@Base 5.2.0
 (optional=templinst)_ZNSt6vectorIjSaIjEE12emplace_backIIjEEEvDpOT_@Base 5.3.0
 (optional=templinst)_ZNSt6vectorIjSaIjEE12emplace_backIJjEEEvDpOT_@Base 5.3.0
 (optional=templinst|arch=sparc)_ZNSt6vectorIjSaIjEE13_M_insert_auxIIRKjEEEvN9__gnu_cxx17__normal_iteratorIPjS1_EEDpOT_@Base 5.2.1
 (optional=templinst|arch=sparc)_ZNSt6vectorIjSaIjEE13_M_insert_auxIIjEEEvN9__gnu_cxx17__normal_iteratorIPjS1_EEDpOT_@Base 5.2.1
 (optional=templinst|subst)_ZNSt6vectorIjSaIjEE14_M_fill_insertEN9__gnu_cxx17__normal_iteratorIPjS1_EE{size_t}RKj@Base 5.2.0
 (optional=templinst)_ZNSt6vectorIjSaIjEE19_M_emplace_back_auxIIjEEEvDpOT_@Base 5.3.0
 (optional=templinst)_ZNSt6vectorIjSaIjEE19_M_emplace_back_auxIJjEEEvDpOT_@Base 5.3.0
 (optional=templinst)_ZNSt6vectorImSaImEE12emplace_backIImEEEvDpOT_@Base 5.3.0
 (optional=templinst)_ZNSt6vectorImSaImEE12emplace_backIJmEEEvDpOT_@Base 5.3.0
 (optional=templinst|subst|arch=!sparc)_ZNSt6vectorI{size_t}SaI{size_t}EE19_M_emplace_back_auxIIRK{size_t}EEEvDpOT_@Base 5.2.0
 (optional=templinst|subst|arch=!sparc)_ZNSt6vectorI{size_t}SaI{size_t}EE19_M_emplace_back_auxII{size_t}EEEvDpOT_@Base 5.2.0
 (optional=templinst|subst|arch=!sparc)_ZNSt6vectorI{size_t}SaI{size_t}EE19_M_emplace_back_auxIJRK{size_t}EEEvDpOT_@Base 5.2.0
 (optional=templinst|subst|arch=!sparc)_ZNSt6vectorI{size_t}SaI{size_t}EE19_M_emplace_back_auxIJ{size_t}EEEvDpOT_@Base 5.2.0
 (optional=templinst|arch=sparc)_ZNSt8_Rb_treeI10TBasicTypeSt4pairIKS0_10TPrecisionESt10_Select1stIS4_ESt4lessIS0_ESaIS4_EE10_M_insert_IS4_EESt17_Rb_tree_iteratorIS4_EPKSt18_Rb_tree_node_baseSG_OT_@Base 5.2.1
 (optional=templinst|arch=sparc)_ZNSt8_Rb_treeI10TBasicTypeSt4pairIKS0_10TPrecisionESt10_Select1stIS4_ESt4lessIS0_ESaIS4_EE16_M_insert_uniqueIS4_EES1_ISt17_Rb_tree_iteratorIS4_EbEOT_@Base 5.2.1
 (optional=templinst|arch=sparc)_ZNSt8_Rb_treeI10TBasicTypeSt4pairIKS0_10TPrecisionESt10_Select1stIS4_ESt4lessIS0_ESaIS4_EE17_M_insert_unique_IS4_EESt17_Rb_tree_iteratorIS4_ESt23_Rb_tree_const_iteratorIS4_EOT_@Base 5.2.1
 (optional=templinst|arch=armel armhf hurd-i386 i386 kfreebsd-i386 mips mipsel powerpc ppc64 s390x)_ZNSt8_Rb_treeI10TBasicTypeSt4pairIKS0_10TPrecisionESt10_Select1stIS4_ESt4lessIS0_ESaIS4_EE22_M_emplace_hint_uniqueIIRKSt21piecewise_construct_tSt5tupleIIRS2_EESF_IIEEEEESt17_Rb_tree_iteratorIS4_ESt23_Rb_tree_const_iteratorIS4_EDpOT_@Base 5.2.0
 (optional=templinst|arch=armel armhf hurd-i386 i386 kfreebsd-i386 mips mipsel powerpc ppc64 s390x)_ZNSt8_Rb_treeI10TBasicTypeSt4pairIKS0_10TPrecisionESt10_Select1stIS4_ESt4lessIS0_ESaIS4_EE22_M_emplace_hint_uniqueIJRKSt21piecewise_construct_tSt5tupleIJRS2_EESF_IJEEEEESt17_Rb_tree_iteratorIS4_ESt23_Rb_tree_const_iteratorIS4_EDpOT_@Base 5.2.0
 (optional=templinst|arch=!sparc)_ZNSt8_Rb_treeI10TBasicTypeSt4pairIKS0_10TPrecisionESt10_Select1stIS4_ESt4lessIS0_ESaIS4_EE24_M_get_insert_unique_posERS2_@Base 5.0.2
 (optional=templinst|arch=amd64 arm64 kfreebsd-amd64 mips64el ppc64el sparc64)_ZNSt8_Rb_treeI10TBasicTypeSt4pairIKS0_10TPrecisionESt10_Select1stIS4_ESt4lessIS0_ESaIS4_EE29_M_get_insert_hint_unique_posESt23_Rb_tree_const_iteratorIS4_ERS2_@Base 5.2.0
 (optional=templinst|arch=sparc)_ZNSt8_Rb_treeI10TBasicTypeSt4pairIKS0_10TPrecisionESt10_Select1stIS4_ESt4lessIS0_ESaIS4_EE4swapERSA_@Base 5.2.1
 (optional=templinst)_ZNSt8_Rb_treeI10TBasicTypeSt4pairIKS0_10TPrecisionESt10_Select1stIS4_ESt4lessIS0_ESaIS4_EE8_M_eraseEPSt13_Rb_tree_nodeIS4_E@Base 5.0.2
 (optional=templinst|arch=sparc)_ZNSt8_Rb_treeIP10TGraphNodeS1_St9_IdentityIS1_ESt4lessIS1_ESaIS1_EE10_M_insert_IRKS1_EESt17_Rb_tree_iteratorIS1_EPKSt18_Rb_tree_node_baseSF_OT_@Base 5.2.1
 (optional=templinst|arch=sparc)_ZNSt8_Rb_treeIP10TGraphNodeS1_St9_IdentityIS1_ESt4lessIS1_ESaIS1_EE16_M_insert_uniqueIRKS1_EESt4pairISt17_Rb_tree_iteratorIS1_EbEOT_@Base 5.2.1
 (optional=templinst|arch=sparc)_ZNSt8_Rb_treeIP10TGraphNodeS1_St9_IdentityIS1_ESt4lessIS1_ESaIS1_EE8_M_eraseEPSt13_Rb_tree_nodeIS1_E@Base 5.2.1
 (optional=templinst|arch=sparc)_ZNSt8_Rb_treeIP16TGraphParentNodeS1_St9_IdentityIS1_ESt4lessIS1_ESaIS1_EE10_M_insert_IRKS1_EESt17_Rb_tree_iteratorIS1_EPKSt18_Rb_tree_node_baseSF_OT_@Base 5.2.1
 (optional=templinst|arch=sparc)_ZNSt8_Rb_treeIP16TGraphParentNodeS1_St9_IdentityIS1_ESt4lessIS1_ESaIS1_EE16_M_insert_uniqueIRKS1_EESt4pairISt17_Rb_tree_iteratorIS1_EbEOT_@Base 5.2.1
 (optional=templinst|arch=sparc)_ZNSt8_Rb_treeIP16TGraphParentNodeS1_St9_IdentityIS1_ESt4lessIS1_ESaIS1_EE17_M_insert_unique_IRKS1_EESt17_Rb_tree_iteratorIS1_ESt23_Rb_tree_const_iteratorIS1_EOT_@Base 5.2.1
 (optional=templinst|arch=sparc)_ZNSt8_Rb_treeIP16TGraphParentNodeS1_St9_IdentityIS1_ESt4lessIS1_ESaIS1_EE8_M_eraseEPSt13_Rb_tree_nodeIS1_E@Base 5.2.1
 (optional=templinst|arch=sparc)_ZNSt8_Rb_treeISbIcSt11char_traitsIcE14pool_allocatorIcEES4_St9_IdentityIS4_ESt4lessIS4_ESaIS4_EE10_M_insert_IRKS4_EESt17_Rb_tree_iteratorIS4_EPKSt18_Rb_tree_node_baseSI_OT_@Base 5.2.1
 (optional=templinst|arch=sparc)_ZNSt8_Rb_treeISbIcSt11char_traitsIcE14pool_allocatorIcEES4_St9_IdentityIS4_ESt4lessIS4_ESaIS4_EE10_M_insert_IS4_EESt17_Rb_tree_iteratorIS4_EPKSt18_Rb_tree_node_baseSG_OT_@Base 5.2.1
 (optional=templinst|arch=sparc)_ZNSt8_Rb_treeISbIcSt11char_traitsIcE14pool_allocatorIcEES4_St9_IdentityIS4_ESt4lessIS4_ESaIS4_EE16_M_insert_uniqueIRKS4_EESt4pairISt17_Rb_tree_iteratorIS4_EbEOT_@Base 5.2.1
 (optional=templinst|arch=sparc)_ZNSt8_Rb_treeISbIcSt11char_traitsIcE14pool_allocatorIcEES4_St9_IdentityIS4_ESt4lessIS4_ESaIS4_EE16_M_insert_uniqueIS4_EESt4pairISt17_Rb_tree_iteratorIS4_EbEOT_@Base 5.2.1
 (optional=templinst|arch=sparc)_ZNSt8_Rb_treeISbIcSt11char_traitsIcE14pool_allocatorIcEES4_St9_IdentityIS4_ESt4lessIS4_ESaIS4_EE8_M_eraseEPSt13_Rb_tree_nodeIS4_E@Base 5.2.1
 (optional=templinst|arch=sparc)_ZNSt8_Rb_treeISbIcSt11char_traitsIcE14pool_allocatorIcEESt4pairIKS4_P13TIntermSymbolESt10_Select1stIS9_ESt4lessIS4_ESaIS9_EE10_M_insert_IS9_EESt17_Rb_tree_iteratorIS9_EPKSt18_Rb_tree_node_baseSL_OT_@Base 5.2.1
 (optional=templinst|arch=sparc)_ZNSt8_Rb_treeISbIcSt11char_traitsIcE14pool_allocatorIcEESt4pairIKS4_P13TIntermSymbolESt10_Select1stIS9_ESt4lessIS4_ESaIS9_EE16_M_insert_uniqueIS9_EES5_ISt17_Rb_tree_iteratorIS9_EbEOT_@Base 5.2.1
 (optional=templinst|arch=sparc)_ZNSt8_Rb_treeISbIcSt11char_traitsIcE14pool_allocatorIcEESt4pairIKS4_P13TIntermSymbolESt10_Select1stIS9_ESt4lessIS4_ESaIS9_EE17_M_insert_unique_IS9_EESt17_Rb_tree_iteratorIS9_ESt23_Rb_tree_const_iteratorIS9_EOT_@Base 5.2.1
 (optional=templinst|arch=sparc)_ZNSt8_Rb_treeISbIcSt11char_traitsIcE14pool_allocatorIcEESt4pairIKS4_P13TIntermSymbolESt10_Select1stIS9_ESt4lessIS4_ESaIS9_EE8_M_eraseEPSt13_Rb_tree_nodeIS9_E@Base 5.2.1
 (optional=templinst|arch=sparc)_ZNSt8_Rb_treeISbIcSt11char_traitsIcE14pool_allocatorIcEESt4pairIKS4_P7TSymbolESt10_Select1stIS9_ESt4lessIS4_ES2_IS9_EE10_M_insert_IKS9_EESt17_Rb_tree_iteratorIS9_EPKSt18_Rb_tree_node_baseSM_OT_@Base 5.2.1
 (optional=templinst|arch=sparc)_ZNSt8_Rb_treeISbIcSt11char_traitsIcE14pool_allocatorIcEESt4pairIKS4_P7TSymbolESt10_Select1stIS9_ESt4lessIS4_ES2_IS9_EE16_M_insert_uniqueIKS9_EES5_ISt17_Rb_tree_iteratorIS9_EbEOT_@Base 5.2.1
 (optional=templinst|arch=sparc)_ZNSt8_Rb_treeISbIcSt11char_traitsIcE14pool_allocatorIcEESt4pairIKS4_P7TSymbolESt10_Select1stIS9_ESt4lessIS4_ES2_IS9_EE8_M_eraseEPSt13_Rb_tree_nodeIS9_E@Base 5.2.1
 (optional=templinst|arch=sparc)_ZNSt8_Rb_treeISsSt4pairIKSs9TBehaviorESt10_Select1stIS3_ESt4lessISsESaIS3_EE10_M_insert_IS0_ISsS2_EEESt17_Rb_tree_iteratorIS3_EPKSt18_Rb_tree_node_baseSG_OT_@Base 5.2.1
 (optional=templinst|arch=sparc)_ZNSt8_Rb_treeISsSt4pairIKSs9TBehaviorESt10_Select1stIS3_ESt4lessISsESaIS3_EE16_M_insert_uniqueIS0_ISsS2_EEES0_ISt17_Rb_tree_iteratorIS3_EbEOT_@Base 5.2.1
 (optional=templinst|arch=sparc)_ZNSt8_Rb_treeISsSt4pairIKSs9TBehaviorESt10_Select1stIS3_ESt4lessISsESaIS3_EE17_M_insert_unique_IS0_ISsS2_EEESt17_Rb_tree_iteratorIS3_ESt23_Rb_tree_const_iteratorIS3_EOT_@Base 5.2.1
 (optional=templinst|arch=armel armhf hurd-i386 i386 kfreebsd-i386 mips mipsel powerpc ppc64 s390x)_ZNSt8_Rb_treeISsSt4pairIKSs9TBehaviorESt10_Select1stIS3_ESt4lessISsESaIS3_EE22_M_emplace_hint_uniqueIIRKSt21piecewise_construct_tSt5tupleIIOSsEESE_IIEEEEESt17_Rb_tree_iteratorIS3_ESt23_Rb_tree_const_iteratorIS3_EDpOT_@Base 5.2.0
 (optional=templinst|arch=armel armhf hurd-i386 i386 kfreebsd-i386 mips mipsel powerpc ppc64 s390x)_ZNSt8_Rb_treeISsSt4pairIKSs9TBehaviorESt10_Select1stIS3_ESt4lessISsESaIS3_EE22_M_emplace_hint_uniqueIJRKSt21piecewise_construct_tSt5tupleIJOSsEESE_IJEEEEESt17_Rb_tree_iteratorIS3_ESt23_Rb_tree_const_iteratorIS3_EDpOT_@Base 5.2.0
 (optional=templinst|arch=!sparc)_ZNSt8_Rb_treeISsSt4pairIKSs9TBehaviorESt10_Select1stIS3_ESt4lessISsESaIS3_EE24_M_get_insert_unique_posERS1_@Base 5.0.2
 (optional=templinst|arch=amd64 arm64 kfreebsd-amd64 mips64el ppc64el sparc64)_ZNSt8_Rb_treeISsSt4pairIKSs9TBehaviorESt10_Select1stIS3_ESt4lessISsESaIS3_EE29_M_get_insert_hint_unique_posESt23_Rb_tree_const_iteratorIS3_ERS1_@Base 5.2.0
 (optional=templinst|arch=amd64 arm64 armel armhf kfreebsd-amd64 mips64el ppc64el sparc64)_ZNSt8_Rb_treeISsSt4pairIKSs9TBehaviorESt10_Select1stIS3_ESt4lessISsESaIS3_EE4findERS1_@Base 5.2.0
 (optional=templinst)_ZNSt8_Rb_treeISsSt4pairIKSs9TBehaviorESt10_Select1stIS3_ESt4lessISsESaIS3_EE8_M_eraseEPSt13_Rb_tree_nodeIS3_E@Base 5.0.2
 (optional=templinst|arch=sparc)_ZNSt8_Rb_treeISsSt4pairIKSsN2pp5MacroEESt10_Select1stIS4_ESt4lessISsESaIS4_EE10_M_insert_IS0_ISsS3_EEESt17_Rb_tree_iteratorIS4_EPKSt18_Rb_tree_node_baseSH_OT_@Base 5.2.1
 (optional=templinst|arch=sparc)_ZNSt8_Rb_treeISsSt4pairIKSsN2pp5MacroEESt10_Select1stIS4_ESt4lessISsESaIS4_EE16_M_insert_uniqueIS0_ISsS3_EEES0_ISt17_Rb_tree_iteratorIS4_EbEOT_@Base 5.2.1
 (optional=templinst|arch=sparc)_ZNSt8_Rb_treeISsSt4pairIKSsN2pp5MacroEESt10_Select1stIS4_ESt4lessISsESaIS4_EE17_M_insert_unique_IS0_ISsS3_EEESt17_Rb_tree_iteratorIS4_ESt23_Rb_tree_const_iteratorIS4_EOT_@Base 5.2.1
 (optional=templinst|arch=sparc)_ZNSt8_Rb_treeISsSt4pairIKSsN2pp5MacroEESt10_Select1stIS4_ESt4lessISsESaIS4_EE8_M_eraseEPSt13_Rb_tree_nodeIS4_E@Base 5.2.1
 (optional=templinst|arch=sparc)_ZNSt8_Rb_treeISsSt4pairIKSsSsESt10_Select1stIS2_ESt4lessISsESaIS2_EE10_M_insert_IS0_ISsSsEEESt17_Rb_tree_iteratorIS2_EPKSt18_Rb_tree_node_baseSF_OT_@Base 5.2.1
 (optional=templinst|arch=sparc)_ZNSt8_Rb_treeISsSt4pairIKSsSsESt10_Select1stIS2_ESt4lessISsESaIS2_EE10_M_insert_IS2_EESt17_Rb_tree_iteratorIS2_EPKSt18_Rb_tree_node_baseSE_OT_@Base 5.2.1
 (optional=templinst|arch=sparc)_ZNSt8_Rb_treeISsSt4pairIKSsSsESt10_Select1stIS2_ESt4lessISsESaIS2_EE16_M_insert_uniqueIS0_ISsSsEEES0_ISt17_Rb_tree_iteratorIS2_EbEOT_@Base 5.2.1
 (optional=templinst|arch=sparc)_ZNSt8_Rb_treeISsSt4pairIKSsSsESt10_Select1stIS2_ESt4lessISsESaIS2_EE16_M_insert_uniqueIS2_EES0_ISt17_Rb_tree_iteratorIS2_EbEOT_@Base 5.2.1
 (optional=templinst|arch=sparc)_ZNSt8_Rb_treeISsSt4pairIKSsSsESt10_Select1stIS2_ESt4lessISsESaIS2_EE17_M_insert_unique_IS0_ISsSsEEESt17_Rb_tree_iteratorIS2_ESt23_Rb_tree_const_iteratorIS2_EOT_@Base 5.2.1
 (optional=templinst|arch=!sparc)_ZNSt8_Rb_treeISsSt4pairIKSsSsESt10_Select1stIS2_ESt4lessISsESaIS2_EE22_M_emplace_hint_uniqueIIRKSt21piecewise_construct_tSt5tupleIIOSsEESD_IIEEEEESt17_Rb_tree_iteratorIS2_ESt23_Rb_tree_const_iteratorIS2_EDpOT_@Base 5.2.0
 (optional=templinst|arch=!sparc)_ZNSt8_Rb_treeISsSt4pairIKSsSsESt10_Select1stIS2_ESt4lessISsESaIS2_EE22_M_emplace_hint_uniqueIJRKSt21piecewise_construct_tSt5tupleIJOSsEESD_IJEEEEESt17_Rb_tree_iteratorIS2_ESt23_Rb_tree_const_iteratorIS2_EDpOT_@Base 5.2.0
 (optional=templinst|arch=!sparc)_ZNSt8_Rb_treeISsSt4pairIKSsSsESt10_Select1stIS2_ESt4lessISsESaIS2_EE24_M_get_insert_unique_posERS1_@Base 5.2.0
 (optional=templinst|arch=amd64 arm64 kfreebsd-amd64 mips64el ppc64el sparc64)_ZNSt8_Rb_treeISsSt4pairIKSsSsESt10_Select1stIS2_ESt4lessISsESaIS2_EE29_M_get_insert_hint_unique_posESt23_Rb_tree_const_iteratorIS2_ERS1_@Base 5.2.0
 (optional=templinst)_ZNSt8_Rb_treeISsSt4pairIKSsSsESt10_Select1stIS2_ESt4lessISsESaIS2_EE8_M_eraseEPSt13_Rb_tree_nodeIS2_E@Base 5.0.2
 (optional=templinst)_ZNSt8_Rb_treeISt4pairIimES1_St9_IdentityIS1_ESt4lessIS1_ESaIS1_EE16_M_insert_uniqueIS1_EES0_ISt17_Rb_tree_iteratorIS1_EbEOT_@Base 5.3.0
 (optional=templinst)_ZNSt8_Rb_treeISt4pairIimES1_St9_IdentityIS1_ESt4lessIS1_ESaIS1_EE8_M_eraseEPSt13_Rb_tree_nodeIS1_E@Base 5.3.0
 (optional=templinst|arch=sparc)_ZNSt8_Rb_treeIiSt4pairIKiP12TGraphSymbolESt10_Select1stIS4_ESt4lessIiE14pool_allocatorIS4_EE10_M_insert_IRS0_IiS3_EEESt17_Rb_tree_iteratorIS4_EPKSt18_Rb_tree_node_baseSJ_OT_@Base 5.2.1
 (optional=templinst|arch=sparc)_ZNSt8_Rb_treeIiSt4pairIKiP12TGraphSymbolESt10_Select1stIS4_ESt4lessIiE14pool_allocatorIS4_EE16_M_insert_uniqueIRS0_IiS3_EEES0_ISt17_Rb_tree_iteratorIS4_EbEOT_@Base 5.2.1
 (optional=templinst|arch=sparc)_ZNSt8_Rb_treeIiSt4pairIKiP12TGraphSymbolESt10_Select1stIS4_ESt4lessIiE14pool_allocatorIS4_EE8_M_eraseEPSt13_Rb_tree_nodeIS4_E@Base 5.2.1
 (optional=templinst)_ZNSt8_Rb_treeImmSt9_IdentityImESt4lessImESaImEE16_M_insert_uniqueIRKmEESt4pairISt17_Rb_tree_iteratorImEbEOT_@Base 5.3.0
 (optional=templinst|arch=amd64 arm64 kfreebsd-amd64 mips64el ppc64el sparc64)_ZNSt8_Rb_treeImmSt9_IdentityImESt4lessImESaImEE4findERKm@Base 5.3.0
 (optional=templinst)_ZNSt8_Rb_treeImmSt9_IdentityImESt4lessImESaImEE5eraseERKm@Base 5.3.0
 (optional=templinst)_ZNSt8_Rb_treeImmSt9_IdentityImESt4lessImESaImEE7_M_copyEPKSt13_Rb_tree_nodeImEPS7_@Base 5.3.0
 (optional=templinst)_ZNSt8_Rb_treeImmSt9_IdentityImESt4lessImESaImEE8_M_eraseEPSt13_Rb_tree_nodeImE@Base 5.3.0
 (optional=templinst|arch=sparc)_ZSt10__pop_heapIPN3WTF6RefPtrIN7WebCore21CustomFilterParameterEEEPFbRKS4_S7_EEvT_SA_SA_T0_@Base 5.2.1
 (optional=templinst|arch=sparc)_ZSt10__pop_heapIPN3WTF6StringEPFbRKS1_S4_EEvT_S7_S7_T0_@Base 5.2.1
 (optional=templinst|arch=sparc)_ZSt11__push_heapIN7WebCore17TimerHeapIteratorEiPNS0_9TimerBaseENS0_25TimerHeapLessThanFunctionEEvT_T0_S6_T1_T2_@Base 5.2.1
 (optional=templinst|arch=sparc)_ZSt11__push_heapIPN7WebCore16CSSImageSetValue14ImageWithScaleEiS2_PFbS2_S2_EEvT_T0_S7_T1_T2_@Base 5.2.1
 (optional=templinst|arch=sparc)_ZSt12__move_mergeIPN7WebCore20CSSGradientColorStopES2_S2_PFbRKS1_S4_EET1_T_S8_T0_S9_S7_T2_@Base 5.2.1
 (optional=templinst|arch=sparc)_ZSt12__move_mergeIPN7WebCore8Gradient9ColorStopES3_S3_PFbRKS2_S5_EET1_T_S9_T0_SA_S8_T2_@Base 5.2.1
 (optional=templinst|arch=sparc)_ZSt12__move_mergeIPPN7WebCore11CSSFontFaceES3_S3_PFbS2_S2_EET1_T_S7_T0_S8_S6_T2_@Base 5.2.1
 (optional=templinst|arch=sparc)_ZSt12__move_mergeIPPN7WebCore11RenderLayerES3_S3_PFbS2_S2_EET1_T_S7_T0_S8_S6_T2_@Base 5.2.1
 (optional=templinst|arch=sparc)_ZSt12__move_mergeIPPN7WebCore13StyleRulePageES3_S3_PFbPKS1_S5_EET1_T_S9_T0_SA_S8_T2_@Base 5.2.1
 (optional=templinst|arch=sparc)_ZSt12__move_mergeIPPN7WebCore15RenderTableCellES3_S3_PFbS2_S2_EET1_T_S7_T0_S8_S6_T2_@Base 5.2.1
 (optional=templinst|arch=sparc)_ZSt12__move_mergeIPSt4pairIN7WebCore4KURLES2_ES4_S4_PFbRKS3_S6_EET1_T_SA_T0_SB_S9_T2_@Base 5.2.1
 (optional=templinst|arch=sparc)_ZSt12partial_sortIPjEvT_S1_S1_@Base 5.2.1
 (optional=templinst|arch=sparc)_ZSt13__adjust_heapIN7WebCore17TimerHeapIteratorEiPNS0_9TimerBaseENS0_25TimerHeapLessThanFunctionEEvT_T0_S6_T1_T2_@Base 5.2.1
 (optional=templinst|arch=sparc)_ZSt13__adjust_heapIN9__gnu_cxx17__normal_iteratorIP13TVariableInfoSt6vectorIS2_SaIS2_EEEEiS2_21TVariableInfoComparerEvT_T0_SA_T1_T2_@Base 5.2.1
 (optional=templinst|arch=sparc)_ZSt13__adjust_heapIPN3WTF6RefPtrIN7WebCore16MutationObserverEEEiS4_NS3_16ObserverLessThanEEvT_T0_S8_T1_T2_@Base 5.2.1
 (optional=templinst|arch=sparc)_ZSt13__adjust_heapIPN3WTF6RefPtrIN7WebCore21CustomFilterParameterEEEiS4_PFbRKS4_S7_EEvT_T0_SB_T1_T2_@Base 5.2.1
 (optional=templinst|arch=sparc)_ZSt13__adjust_heapIPN3WTF6StringEiS1_PFbRKS1_S4_EEvT_T0_S8_T1_T2_@Base 5.2.1
 (optional=templinst|arch=sparc)_ZSt13__adjust_heapIPN3WTF8SpectrumIPvE11KeyAndCountEiS4_EvT_T0_S7_T1_@Base 5.2.1
 (optional=templinst|arch=sparc)_ZSt13__adjust_heapIPN7WebCore13ShapeIntervalEiS1_NS0_20IntervalX1ComparatorEEvT_T0_S5_T1_T2_@Base 5.2.1
 (optional=templinst|arch=sparc)_ZSt13__adjust_heapIPN7WebCore15ICOImageDecoder18IconDirectoryEntryEiS2_PFbRKS2_S5_EEvT_T0_S9_T1_T2_@Base 5.2.1
 (optional=templinst|arch=sparc)_ZSt13__adjust_heapIPN7WebCore16CSSImageSetValue14ImageWithScaleEiS2_PFbS2_S2_EEvT_T0_S7_T1_T2_@Base 5.2.1
 (optional=templinst|arch=sparc)_ZSt13__adjust_heapIPN7WebCore16EdgeIntersectionEiS1_PFbRKS1_S4_EEvT_T0_S8_T1_T2_@Base 5.2.1
 (optional=templinst|arch=sparc)_ZSt13__adjust_heapIPN7WebCore18SMILTimeWithOriginEiS1_EvT_T0_S4_T1_@Base 5.2.1
 (optional=templinst|arch=sparc)_ZSt13__adjust_heapIPN7WebCore8SVGGlyphEiS1_PFbRKS1_S4_EEvT_T0_S8_T1_T2_@Base 5.2.1
 (optional=templinst|arch=sparc)_ZSt13__adjust_heapIPPKN7WebCore8RuleDataEiS3_PFbS3_S3_EEvT_T0_S8_T1_T2_@Base 5.2.1
 (optional=templinst|arch=sparc)_ZSt13__adjust_heapIPPN7WebCore13InlineTextBoxEiS2_PFbPKS1_S5_EEvT_T0_S9_T1_T2_@Base 5.2.1
 (optional=templinst|arch=sparc)_ZSt13__adjust_heapIPPN7WebCore14SVGSMILElementEiS2_NS0_15PriorityCompareEEvT_T0_S6_T1_T2_@Base 5.2.1
 (optional=templinst|arch=sparc)_ZSt13__adjust_heapIPPN7WebCore15RenderTableCellEiS2_PFbS2_S2_EEvT_T0_S7_T1_T2_@Base 5.2.1
 (optional=templinst|arch=sparc)_ZSt13__adjust_heapIPPN7WebCore9GridTrackEiS2_PFbPKS1_S5_EEvT_T0_S9_T1_T2_@Base 5.2.1
 (optional=templinst|arch=sparc)_ZSt13__adjust_heapIPSt4pairIPN3WTF16AtomicStringImplENS1_12AtomicStringEEiS5_PFbRKS5_S8_EEvT_T0_SC_T1_T2_@Base 5.2.1
 (optional=templinst|arch=sparc)_ZSt13__heap_selectIPN3WTF8SpectrumIPvE11KeyAndCountEEvT_S6_S6_@Base 5.2.1
 (optional=templinst|arch=sparc)_ZSt13__heap_selectIPN7WebCore13ShapeIntervalENS0_20IntervalX1ComparatorEEvT_S4_S4_T0_@Base 5.2.1
 (optional=templinst|arch=sparc)_ZSt13__heap_selectIPN7WebCore15ICOImageDecoder18IconDirectoryEntryEPFbRKS2_S5_EEvT_S8_S8_T0_@Base 5.2.1
 (optional=templinst|arch=sparc)_ZSt13__heap_selectIPN7WebCore16CSSImageSetValue14ImageWithScaleEPFbS2_S2_EEvT_S6_S6_T0_@Base 5.2.1
 (optional=templinst|arch=sparc)_ZSt13__heap_selectIPN7WebCore16EdgeIntersectionEPFbRKS1_S4_EEvT_S7_S7_T0_@Base 5.2.1
 (optional=templinst|arch=sparc)_ZSt13__heap_selectIPN7WebCore8SVGGlyphEPFbRKS1_S4_EEvT_S7_S7_T0_@Base 5.2.1
 (optional=templinst|arch=sparc)_ZSt13__heap_selectIPPKN7WebCore8RuleDataEPFbS3_S3_EEvT_S7_S7_T0_@Base 5.2.1
 (optional=templinst|arch=sparc)_ZSt13__heap_selectIPPN7WebCore13InlineTextBoxEPFbPKS1_S5_EEvT_S8_S8_T0_@Base 5.2.1
 (optional=templinst|arch=sparc)_ZSt13__heap_selectIPPN7WebCore14SVGSMILElementENS0_15PriorityCompareEEvT_S5_S5_T0_@Base 5.2.1
 (optional=templinst|arch=sparc)_ZSt13__heap_selectIPPN7WebCore15RenderTableCellEPFbS2_S2_EEvT_S6_S6_T0_@Base 5.2.1
 (optional=templinst|arch=sparc)_ZSt13__heap_selectIPPN7WebCore9GridTrackEPFbPKS1_S5_EEvT_S8_S8_T0_@Base 5.2.1
 (optional=templinst|arch=sparc)_ZSt13__heap_selectIPSt4pairIPN3WTF16AtomicStringImplENS1_12AtomicStringEEPFbRKS5_S8_EEvT_SB_SB_T0_@Base 5.2.1
 (optional=templinst|arch=sparc)_ZSt13move_backwardIPN7WebCore20CSSGradientColorStopES2_ET0_T_S4_S3_@Base 5.2.1
 (optional=templinst|arch=sparc)_ZSt13move_backwardIPSt4pairIN7WebCore4KURLES2_ES4_ET0_T_S6_S5_@Base 5.2.1
 (optional=templinst|arch=sparc)_ZSt16__insertion_sortIN9__gnu_cxx17__normal_iteratorIP13TVariableInfoSt6vectorIS2_SaIS2_EEEE21TVariableInfoComparerEvT_S9_T0_@Base 5.2.1
 (optional=templinst|arch=sparc)_ZSt16__insertion_sortIPN3WTF6RefPtrIN7WebCore16MutationObserverEEENS3_16ObserverLessThanEEvT_S7_T0_@Base 5.2.1
 (optional=templinst|arch=sparc)_ZSt16__insertion_sortIPN3WTF6RefPtrIN7WebCore21CustomFilterParameterEEEPFbRKS4_S7_EEvT_SA_T0_@Base 5.2.1
 (optional=templinst|arch=sparc)_ZSt16__insertion_sortIPN3WTF6StringEPFbRKS1_S4_EEvT_S7_T0_@Base 5.2.1
 (optional=templinst|arch=sparc)_ZSt16__insertion_sortIPN3WTF8SpectrumIPvE11KeyAndCountEEvT_S6_@Base 5.2.1
 (optional=templinst|arch=sparc)_ZSt16__insertion_sortIPN7WebCore13ShapeIntervalENS0_20IntervalX1ComparatorEEvT_S4_T0_@Base 5.2.1
 (optional=templinst|arch=sparc)_ZSt16__insertion_sortIPN7WebCore15ICOImageDecoder18IconDirectoryEntryEPFbRKS2_S5_EEvT_S8_T0_@Base 5.2.1
 (optional=templinst|arch=sparc)_ZSt16__insertion_sortIPN7WebCore16CSSImageSetValue14ImageWithScaleEPFbS2_S2_EEvT_S6_T0_@Base 5.2.1
 (optional=templinst|arch=sparc)_ZSt16__insertion_sortIPN7WebCore16EdgeIntersectionEPFbRKS1_S4_EEvT_S7_T0_@Base 5.2.1
 (optional=templinst|arch=sparc)_ZSt16__insertion_sortIPN7WebCore18SMILTimeWithOriginEEvT_S3_@Base 5.2.1
 (optional=templinst|arch=sparc)_ZSt16__insertion_sortIPN7WebCore20CSSGradientColorStopEPFbRKS1_S4_EEvT_S7_T0_@Base 5.2.1
 (optional=templinst|arch=sparc)_ZSt16__insertion_sortIPN7WebCore8Gradient9ColorStopEPFbRKS2_S5_EEvT_S8_T0_@Base 5.2.1
 (optional=templinst|arch=sparc)_ZSt16__insertion_sortIPN7WebCore8SVGGlyphEPFbRKS1_S4_EEvT_S7_T0_@Base 5.2.1
 (optional=templinst|arch=sparc)_ZSt16__insertion_sortIPPKN7WebCore8RuleDataEPFbS3_S3_EEvT_S7_T0_@Base 5.2.1
 (optional=templinst|arch=sparc)_ZSt16__insertion_sortIPPN7WebCore11CSSFontFaceEPFbS2_S2_EEvT_S6_T0_@Base 5.2.1
 (optional=templinst|arch=sparc)_ZSt16__insertion_sortIPPN7WebCore11RenderLayerEPFbS2_S2_EEvT_S6_T0_@Base 5.2.1
 (optional=templinst|arch=sparc)_ZSt16__insertion_sortIPPN7WebCore13InlineTextBoxEPFbPKS1_S5_EEvT_S8_T0_@Base 5.2.1
 (optional=templinst|arch=sparc)_ZSt16__insertion_sortIPPN7WebCore13StyleRulePageEPFbPKS1_S5_EEvT_S8_T0_@Base 5.2.1
 (optional=templinst|arch=sparc)_ZSt16__insertion_sortIPPN7WebCore14SVGSMILElementENS0_15PriorityCompareEEvT_S5_T0_@Base 5.2.1
 (optional=templinst|arch=sparc)_ZSt16__insertion_sortIPPN7WebCore15RenderTableCellEPFbS2_S2_EEvT_S6_T0_@Base 5.2.1
 (optional=templinst|arch=sparc)_ZSt16__insertion_sortIPPN7WebCore9GridTrackEPFbPKS1_S5_EEvT_S8_T0_@Base 5.2.1
 (optional=templinst|arch=sparc)_ZSt16__insertion_sortIPSt4pairIN7WebCore4KURLES2_EPFbRKS3_S6_EEvT_S9_T0_@Base 5.2.1
 (optional=templinst|arch=sparc)_ZSt16__insertion_sortIPSt4pairIPN3WTF16AtomicStringImplENS1_12AtomicStringEEPFbRKS5_S8_EEvT_SB_T0_@Base 5.2.1
 (optional=templinst|arch=sparc)_ZSt16__introsort_loopIN9__gnu_cxx17__normal_iteratorIP13TVariableInfoSt6vectorIS2_SaIS2_EEEEi21TVariableInfoComparerEvT_S9_T0_T1_@Base 5.2.1
 (optional=templinst|arch=sparc)_ZSt16__introsort_loopIPN3WTF6RefPtrIN7WebCore16MutationObserverEEEiNS3_16ObserverLessThanEEvT_S7_T0_T1_@Base 5.2.1
 (optional=templinst|arch=sparc)_ZSt16__introsort_loopIPN3WTF6RefPtrIN7WebCore21CustomFilterParameterEEEiPFbRKS4_S7_EEvT_SA_T0_T1_@Base 5.2.1
 (optional=templinst|arch=sparc)_ZSt16__introsort_loopIPN3WTF6StringEiPFbRKS1_S4_EEvT_S7_T0_T1_@Base 5.2.1
 (optional=templinst|arch=sparc)_ZSt16__introsort_loopIPN3WTF8SpectrumIPvE11KeyAndCountEiEvT_S6_T0_@Base 5.2.1
 (optional=templinst|arch=sparc)_ZSt16__introsort_loopIPN7WebCore13ShapeIntervalEiNS0_20IntervalX1ComparatorEEvT_S4_T0_T1_@Base 5.2.1
 (optional=templinst|arch=sparc)_ZSt16__introsort_loopIPN7WebCore15ICOImageDecoder18IconDirectoryEntryEiPFbRKS2_S5_EEvT_S8_T0_T1_@Base 5.2.1
 (optional=templinst|arch=sparc)_ZSt16__introsort_loopIPN7WebCore16CSSImageSetValue14ImageWithScaleEiPFbS2_S2_EEvT_S6_T0_T1_@Base 5.2.1
 (optional=templinst|arch=sparc)_ZSt16__introsort_loopIPN7WebCore16EdgeIntersectionEiPFbRKS1_S4_EEvT_S7_T0_T1_@Base 5.2.1
 (optional=templinst|arch=sparc)_ZSt16__introsort_loopIPN7WebCore18SMILTimeWithOriginEiEvT_S3_T0_@Base 5.2.1
 (optional=templinst|arch=sparc)_ZSt16__introsort_loopIPN7WebCore8SVGGlyphEiPFbRKS1_S4_EEvT_S7_T0_T1_@Base 5.2.1
 (optional=templinst|arch=sparc)_ZSt16__introsort_loopIPPKN7WebCore8RuleDataEiPFbS3_S3_EEvT_S7_T0_T1_@Base 5.2.1
 (optional=templinst|arch=sparc)_ZSt16__introsort_loopIPPN7WebCore13InlineTextBoxEiPFbPKS1_S5_EEvT_S8_T0_T1_@Base 5.2.1
 (optional=templinst|arch=sparc)_ZSt16__introsort_loopIPPN7WebCore14SVGSMILElementEiNS0_15PriorityCompareEEvT_S5_T0_T1_@Base 5.2.1
 (optional=templinst|arch=sparc)_ZSt16__introsort_loopIPPN7WebCore15RenderTableCellEiPFbS2_S2_EEvT_S6_T0_T1_@Base 5.2.1
 (optional=templinst|arch=sparc)_ZSt16__introsort_loopIPPN7WebCore9GridTrackEiPFbPKS1_S5_EEvT_S8_T0_T1_@Base 5.2.1
 (optional=templinst|arch=sparc)_ZSt16__introsort_loopIPSt4pairIPN3WTF16AtomicStringImplENS1_12AtomicStringEEiPFbRKS5_S8_EEvT_SB_T0_T1_@Base 5.2.1
 (optional=templinst|arch=sparc)_ZSt16__merge_adaptiveIPN7WebCore20CSSGradientColorStopEiS2_PFbRKS1_S4_EEvT_S7_S7_T0_S8_T1_S8_T2_@Base 5.2.1
 (optional=templinst|arch=sparc)_ZSt16__merge_adaptiveIPN7WebCore8Gradient9ColorStopEiS3_PFbRKS2_S5_EEvT_S8_S8_T0_S9_T1_S9_T2_@Base 5.2.1
 (optional=templinst|arch=sparc)_ZSt16__merge_adaptiveIPPN7WebCore11CSSFontFaceEiS3_PFbS2_S2_EEvT_S6_S6_T0_S7_T1_S7_T2_@Base 5.2.1
 (optional=templinst|arch=sparc)_ZSt16__merge_adaptiveIPPN7WebCore11RenderLayerEiS3_PFbS2_S2_EEvT_S6_S6_T0_S7_T1_S7_T2_@Base 5.2.1
 (optional=templinst|arch=sparc)_ZSt16__merge_adaptiveIPPN7WebCore13StyleRulePageEiS3_PFbPKS1_S5_EEvT_S8_S8_T0_S9_T1_S9_T2_@Base 5.2.1
 (optional=templinst|arch=sparc)_ZSt16__merge_adaptiveIPPN7WebCore15RenderTableCellEiS3_PFbS2_S2_EEvT_S6_S6_T0_S7_T1_S7_T2_@Base 5.2.1
 (optional=templinst|arch=sparc)_ZSt16__merge_adaptiveIPSt4pairIN7WebCore4KURLES2_EiS4_PFbRKS3_S6_EEvT_S9_S9_T0_SA_T1_SA_T2_@Base 5.2.1
 (optional=templinst|arch=sparc)_ZSt17__merge_sort_loopIPN7WebCore20CSSGradientColorStopES2_iPFbRKS1_S4_EEvT_S7_T0_T1_T2_@Base 5.2.1
 (optional=templinst|arch=sparc)_ZSt17__merge_sort_loopIPN7WebCore8Gradient9ColorStopES3_iPFbRKS2_S5_EEvT_S8_T0_T1_T2_@Base 5.2.1
 (optional=templinst|arch=sparc)_ZSt17__merge_sort_loopIPPN7WebCore11CSSFontFaceES3_iPFbS2_S2_EEvT_S6_T0_T1_T2_@Base 5.2.1
 (optional=templinst|arch=sparc)_ZSt17__merge_sort_loopIPPN7WebCore11RenderLayerES3_iPFbS2_S2_EEvT_S6_T0_T1_T2_@Base 5.2.1
 (optional=templinst|arch=sparc)_ZSt17__merge_sort_loopIPPN7WebCore13StyleRulePageES3_iPFbPKS1_S5_EEvT_S8_T0_T1_T2_@Base 5.2.1
 (optional=templinst|arch=sparc)_ZSt17__merge_sort_loopIPPN7WebCore15RenderTableCellES3_iPFbS2_S2_EEvT_S6_T0_T1_T2_@Base 5.2.1
 (optional=templinst|arch=sparc)_ZSt17__merge_sort_loopIPSt4pairIN7WebCore4KURLES2_ES4_iPFbRKS3_S6_EEvT_S9_T0_T1_T2_@Base 5.2.1
 (optional=templinst|arch=sparc)_ZSt17__rotate_adaptiveIPN7WebCore20CSSGradientColorStopES2_iET_S3_S3_S3_T1_S4_T0_S4_@Base 5.2.1
 (optional=templinst|arch=sparc)_ZSt17__rotate_adaptiveIPN7WebCore8Gradient9ColorStopES3_iET_S4_S4_S4_T1_S5_T0_S5_@Base 5.2.1
 (optional=templinst|arch=sparc)_ZSt17__rotate_adaptiveIPPN7WebCore11CSSFontFaceES3_iET_S4_S4_S4_T1_S5_T0_S5_@Base 5.2.1
 (optional=templinst|arch=sparc)_ZSt17__rotate_adaptiveIPPN7WebCore11RenderLayerES3_iET_S4_S4_S4_T1_S5_T0_S5_@Base 5.2.1
 (optional=templinst|arch=sparc)_ZSt17__rotate_adaptiveIPPN7WebCore13StyleRulePageES3_iET_S4_S4_S4_T1_S5_T0_S5_@Base 5.2.1
 (optional=templinst|arch=sparc)_ZSt17__rotate_adaptiveIPPN7WebCore15RenderTableCellES3_iET_S4_S4_S4_T1_S5_T0_S5_@Base 5.2.1
 (optional=templinst|arch=sparc)_ZSt17__rotate_adaptiveIPSt4pairIN7WebCore4KURLES2_ES4_iET_S5_S5_S5_T1_S6_T0_S6_@Base 5.2.1
 (optional=templinst|arch=sparc)_ZSt19__move_median_firstIN9__gnu_cxx17__normal_iteratorIP13TVariableInfoSt6vectorIS2_SaIS2_EEEE21TVariableInfoComparerEvT_S9_S9_T0_@Base 5.2.1
 (optional=templinst|arch=sparc)_ZSt19__move_median_firstIPN3WTF6RefPtrIN7WebCore16MutationObserverEEENS3_16ObserverLessThanEEvT_S7_S7_T0_@Base 5.2.1
 (optional=templinst|arch=sparc)_ZSt19__move_median_firstIPN3WTF6RefPtrIN7WebCore21CustomFilterParameterEEEPFbRKS4_S7_EEvT_SA_SA_T0_@Base 5.2.1
 (optional=templinst|arch=sparc)_ZSt19__move_median_firstIPN3WTF6StringEPFbRKS1_S4_EEvT_S7_S7_T0_@Base 5.2.1
 (optional=templinst|arch=sparc)_ZSt19__move_median_firstIPN3WTF8SpectrumIPvE11KeyAndCountEEvT_S6_S6_@Base 5.2.1
 (optional=templinst|arch=sparc)_ZSt19__move_median_firstIPN7WebCore13ShapeIntervalENS0_20IntervalX1ComparatorEEvT_S4_S4_T0_@Base 5.2.1
 (optional=templinst|arch=sparc)_ZSt19__move_median_firstIPN7WebCore15ICOImageDecoder18IconDirectoryEntryEPFbRKS2_S5_EEvT_S8_S8_T0_@Base 5.2.1
 (optional=templinst|arch=sparc)_ZSt19__move_median_firstIPN7WebCore16CSSImageSetValue14ImageWithScaleEPFbS2_S2_EEvT_S6_S6_T0_@Base 5.2.1
 (optional=templinst|arch=sparc)_ZSt19__move_median_firstIPN7WebCore16EdgeIntersectionEPFbRKS1_S4_EEvT_S7_S7_T0_@Base 5.2.1
 (optional=templinst|arch=sparc)_ZSt19__move_median_firstIPN7WebCore18SMILTimeWithOriginEEvT_S3_S3_@Base 5.2.1
 (optional=templinst|arch=sparc)_ZSt19__move_median_firstIPN7WebCore8SVGGlyphEPFbRKS1_S4_EEvT_S7_S7_T0_@Base 5.2.1
 (optional=templinst|arch=sparc)_ZSt19__move_median_firstIPPKN7WebCore8RuleDataEPFbS3_S3_EEvT_S7_S7_T0_@Base 5.2.1
 (optional=templinst|arch=sparc)_ZSt19__move_median_firstIPPN7WebCore13InlineTextBoxEPFbPKS1_S5_EEvT_S8_S8_T0_@Base 5.2.1
 (optional=templinst|arch=sparc)_ZSt19__move_median_firstIPPN7WebCore14SVGSMILElementENS0_15PriorityCompareEEvT_S5_S5_T0_@Base 5.2.1
 (optional=templinst|arch=sparc)_ZSt19__move_median_firstIPPN7WebCore15RenderTableCellEPFbS2_S2_EEvT_S6_S6_T0_@Base 5.2.1
 (optional=templinst|arch=sparc)_ZSt19__move_median_firstIPPN7WebCore9GridTrackEPFbPKS1_S5_EEvT_S8_S8_T0_@Base 5.2.1
 (optional=templinst|arch=sparc)_ZSt19__move_median_firstIPSt4pairIPN3WTF16AtomicStringImplENS1_12AtomicStringEEPFbRKS5_S8_EEvT_SB_SB_T0_@Base 5.2.1
 (optional=templinst|arch=sparc)_ZSt21__inplace_stable_sortIPN7WebCore20CSSGradientColorStopEPFbRKS1_S4_EEvT_S7_T0_@Base 5.2.1
 (optional=templinst|arch=sparc)_ZSt21__inplace_stable_sortIPN7WebCore8Gradient9ColorStopEPFbRKS2_S5_EEvT_S8_T0_@Base 5.2.1
 (optional=templinst|arch=sparc)_ZSt21__inplace_stable_sortIPPN7WebCore11CSSFontFaceEPFbS2_S2_EEvT_S6_T0_@Base 5.2.1
 (optional=templinst|arch=sparc)_ZSt21__inplace_stable_sortIPPN7WebCore11RenderLayerEPFbS2_S2_EEvT_S6_T0_@Base 5.2.1
 (optional=templinst|arch=sparc)_ZSt21__inplace_stable_sortIPPN7WebCore13StyleRulePageEPFbPKS1_S5_EEvT_S8_T0_@Base 5.2.1
 (optional=templinst|arch=sparc)_ZSt21__inplace_stable_sortIPPN7WebCore15RenderTableCellEPFbS2_S2_EEvT_S6_T0_@Base 5.2.1
 (optional=templinst|arch=sparc)_ZSt21__inplace_stable_sortIPSt4pairIN7WebCore4KURLES2_EPFbRKS3_S6_EEvT_S9_T0_@Base 5.2.1
 (optional=templinst|arch=sparc)_ZSt21__move_merge_adaptiveIPN7WebCore8Gradient9ColorStopES3_S3_PFbRKS2_S5_EEvT_S8_T0_S9_T1_T2_@Base 5.2.1
 (optional=templinst|arch=sparc)_ZSt21__unguarded_partitionIPN7WebCore16CSSImageSetValue14ImageWithScaleES2_PFbS2_S2_EET_S6_S6_RKT0_T1_@Base 5.2.1
 (optional=templinst|arch=sparc)_ZSt22__merge_without_bufferIPN7WebCore20CSSGradientColorStopEiPFbRKS1_S4_EEvT_S7_S7_T0_S8_T1_@Base 5.2.1
 (optional=templinst|arch=sparc)_ZSt22__merge_without_bufferIPN7WebCore8Gradient9ColorStopEiPFbRKS2_S5_EEvT_S8_S8_T0_S9_T1_@Base 5.2.1
 (optional=templinst|arch=sparc)_ZSt22__merge_without_bufferIPPN7WebCore11CSSFontFaceEiPFbS2_S2_EEvT_S6_S6_T0_S7_T1_@Base 5.2.1
 (optional=templinst|arch=sparc)_ZSt22__merge_without_bufferIPPN7WebCore11RenderLayerEiPFbS2_S2_EEvT_S6_S6_T0_S7_T1_@Base 5.2.1
 (optional=templinst|arch=sparc)_ZSt22__merge_without_bufferIPPN7WebCore13StyleRulePageEiPFbPKS1_S5_EEvT_S8_S8_T0_S9_T1_@Base 5.2.1
 (optional=templinst|arch=sparc)_ZSt22__merge_without_bufferIPPN7WebCore15RenderTableCellEiPFbS2_S2_EEvT_S6_S6_T0_S7_T1_@Base 5.2.1
 (optional=templinst|arch=sparc)_ZSt22__merge_without_bufferIPSt4pairIN7WebCore4KURLES2_EiPFbRKS3_S6_EEvT_S9_S9_T0_SA_T1_@Base 5.2.1
 (optional=templinst|arch=sparc)_ZSt22__stable_sort_adaptiveIPN7WebCore20CSSGradientColorStopES2_iPFbRKS1_S4_EEvT_S7_T0_T1_T2_@Base 5.2.1
 (optional=templinst|arch=sparc)_ZSt22__stable_sort_adaptiveIPN7WebCore8Gradient9ColorStopES3_iPFbRKS2_S5_EEvT_S8_T0_T1_T2_@Base 5.2.1
 (optional=templinst|arch=sparc)_ZSt22__stable_sort_adaptiveIPPN7WebCore11CSSFontFaceES3_iPFbS2_S2_EEvT_S6_T0_T1_T2_@Base 5.2.1
 (optional=templinst|arch=sparc)_ZSt22__stable_sort_adaptiveIPPN7WebCore11RenderLayerES3_iPFbS2_S2_EEvT_S6_T0_T1_T2_@Base 5.2.1
 (optional=templinst|arch=sparc)_ZSt22__stable_sort_adaptiveIPPN7WebCore13StyleRulePageES3_iPFbPKS1_S5_EEvT_S8_T0_T1_T2_@Base 5.2.1
 (optional=templinst|arch=sparc)_ZSt22__stable_sort_adaptiveIPPN7WebCore15RenderTableCellES3_iPFbS2_S2_EEvT_S6_T0_T1_T2_@Base 5.2.1
 (optional=templinst|arch=sparc)_ZSt22__stable_sort_adaptiveIPSt4pairIN7WebCore4KURLES2_ES4_iPFbRKS3_S6_EEvT_S9_T0_T1_T2_@Base 5.2.1
 (optional=templinst|arch=sparc)_ZSt24__merge_sort_with_bufferIPN7WebCore20CSSGradientColorStopES2_PFbRKS1_S4_EEvT_S7_T0_T1_@Base 5.2.1
 (optional=templinst|arch=sparc)_ZSt24__merge_sort_with_bufferIPN7WebCore8Gradient9ColorStopES3_PFbRKS2_S5_EEvT_S8_T0_T1_@Base 5.2.1
 (optional=templinst|arch=sparc)_ZSt24__merge_sort_with_bufferIPPN7WebCore11CSSFontFaceES3_PFbS2_S2_EEvT_S6_T0_T1_@Base 5.2.1
 (optional=templinst|arch=sparc)_ZSt24__merge_sort_with_bufferIPPN7WebCore11RenderLayerES3_PFbS2_S2_EEvT_S6_T0_T1_@Base 5.2.1
 (optional=templinst|arch=sparc)_ZSt24__merge_sort_with_bufferIPPN7WebCore13StyleRulePageES3_PFbPKS1_S5_EEvT_S8_T0_T1_@Base 5.2.1
 (optional=templinst|arch=sparc)_ZSt24__merge_sort_with_bufferIPPN7WebCore15RenderTableCellES3_PFbS2_S2_EEvT_S6_T0_T1_@Base 5.2.1
 (optional=templinst|arch=sparc)_ZSt24__merge_sort_with_bufferIPSt4pairIN7WebCore4KURLES2_ES4_PFbRKS3_S6_EEvT_S9_T0_T1_@Base 5.2.1
 (optional=templinst|arch=sparc)_ZSt25__unguarded_linear_insertIN9__gnu_cxx17__normal_iteratorIP13TVariableInfoSt6vectorIS2_SaIS2_EEEE21TVariableInfoComparerEvT_T0_@Base 5.2.1
 (optional=templinst|arch=sparc)_ZSt25__unguarded_linear_insertIPN3WTF6RefPtrIN7WebCore16MutationObserverEEENS3_16ObserverLessThanEEvT_T0_@Base 5.2.1
 (optional=templinst|arch=sparc)_ZSt25__unguarded_linear_insertIPN3WTF6RefPtrIN7WebCore21CustomFilterParameterEEEPFbRKS4_S7_EEvT_T0_@Base 5.2.1
 (optional=templinst|arch=sparc)_ZSt25__unguarded_linear_insertIPN3WTF6StringEPFbRKS1_S4_EEvT_T0_@Base 5.2.1
 (optional=templinst|arch=sparc)_ZSt25__unguarded_linear_insertIPN7WebCore15ICOImageDecoder18IconDirectoryEntryEPFbRKS2_S5_EEvT_T0_@Base 5.2.1
 (optional=templinst|arch=sparc)_ZSt25__unguarded_linear_insertIPN7WebCore16CSSImageSetValue14ImageWithScaleEPFbS2_S2_EEvT_T0_@Base 5.2.1
 (optional=templinst|arch=sparc)_ZSt25__unguarded_linear_insertIPN7WebCore16EdgeIntersectionEPFbRKS1_S4_EEvT_T0_@Base 5.2.1
 (optional=templinst|arch=sparc)_ZSt25__unguarded_linear_insertIPN7WebCore8SVGGlyphEPFbRKS1_S4_EEvT_T0_@Base 5.2.1
 (optional=templinst|arch=sparc)_ZSt25__unguarded_linear_insertIPPN7WebCore14SVGSMILElementENS0_15PriorityCompareEEvT_T0_@Base 5.2.1
 (optional=templinst|arch=sparc)_ZSt25__unguarded_linear_insertIPSt4pairIPN3WTF16AtomicStringImplENS1_12AtomicStringEEPFbRKS5_S8_EEvT_T0_@Base 5.2.1
 (optional=templinst|arch=sparc)_ZSt30__move_merge_adaptive_backwardIPN7WebCore20CSSGradientColorStopES2_S2_PFbRKS1_S4_EEvT_S7_T0_S8_T1_T2_@Base 5.2.1
 (optional=templinst|arch=sparc)_ZSt30__move_merge_adaptive_backwardIPN7WebCore8Gradient9ColorStopES3_S3_PFbRKS2_S5_EEvT_S8_T0_S9_T1_T2_@Base 5.2.1
 (optional=templinst|arch=sparc)_ZSt30__move_merge_adaptive_backwardIPPN7WebCore11CSSFontFaceES3_S3_PFbS2_S2_EEvT_S6_T0_S7_T1_T2_@Base 5.2.1
 (optional=templinst|arch=sparc)_ZSt30__move_merge_adaptive_backwardIPPN7WebCore11RenderLayerES3_S3_PFbS2_S2_EEvT_S6_T0_S7_T1_T2_@Base 5.2.1
 (optional=templinst|arch=sparc)_ZSt30__move_merge_adaptive_backwardIPPN7WebCore13StyleRulePageES3_S3_PFbPKS1_S5_EEvT_S8_T0_S9_T1_T2_@Base 5.2.1
 (optional=templinst|arch=sparc)_ZSt30__move_merge_adaptive_backwardIPPN7WebCore15RenderTableCellES3_S3_PFbS2_S2_EEvT_S6_T0_S7_T1_T2_@Base 5.2.1
 (optional=templinst|arch=sparc)_ZSt30__move_merge_adaptive_backwardIPSt4pairIN7WebCore4KURLES2_ES4_S4_PFbRKS3_S6_EEvT_S9_T0_SA_T1_T2_@Base 5.2.1
 (optional=templinst|arch=sparc)_ZSt4moveIPSt4pairIN7WebCore4KURLES2_ES4_ET0_T_S6_S5_@Base 5.2.1
 (optional=templinst|arch=sparc)_ZSt4sortIPPKN7WebCore8RuleDataEPFbS3_S3_EEvT_S7_T0_@Base 5.2.1
 (optional=templinst|arch=sparc)_ZSt4sortIPPN7WebCore15RenderTableCellEPFbS2_S2_EEvT_S6_T0_@Base 5.2.1
 (optional=templinst|arch=sparc)_ZSt4sortIPjEvT_S1_@Base 5.2.1
 (optional=templinst|arch=sparc)_ZSt4swapIN3WTF12AtomicStringEEvRT_S3_@Base 5.2.1
 (optional=templinst|arch=armel armhf hurd-i386 i386 kfreebsd-i386 mips mipsel powerpc)_ZSt4swapIN8QVariant7PrivateEEvRT_S3_@Base 5.2.0
 (optional=templinst|arch=sparc)_ZSt6__findIPKN3WTF6StringES1_ET_S4_S4_RKT0_St26random_access_iterator_tag@Base 5.2.1
 (optional=templinst|arch=sparc)_ZSt8__rotateIPN7WebCore20CSSGradientColorStopEEvT_S3_S3_St26random_access_iterator_tag@Base 5.2.1
 (optional=templinst|arch=sparc)_ZSt8__rotateIPN7WebCore8Gradient9ColorStopEEvT_S4_S4_St26random_access_iterator_tag@Base 5.2.1
 (optional=templinst|arch=sparc)_ZSt8__rotateIPPN7WebCore11CSSFontFaceEEvT_S4_S4_St26random_access_iterator_tag@Base 5.2.1
 (optional=templinst|arch=sparc)_ZSt8__rotateIPPN7WebCore11RenderLayerEEvT_S4_S4_St26random_access_iterator_tag@Base 5.2.1
 (optional=templinst|arch=sparc)_ZSt8__rotateIPPN7WebCore13StyleRulePageEEvT_S4_S4_St26random_access_iterator_tag@Base 5.2.1
 (optional=templinst|arch=sparc)_ZSt8__rotateIPPN7WebCore15RenderTableCellEEvT_S4_S4_St26random_access_iterator_tag@Base 5.2.1
 (optional=templinst|arch=sparc)_ZSt8__rotateIPSt4pairIN7WebCore4KURLES2_EEvT_S5_S5_St26random_access_iterator_tag@Base 5.2.1
 (optional=templinst|arch=sparc)_ZSt9iter_swapIPN7WebCore20CSSGradientColorStopES2_EvT_T0_@Base 5.2.1
 (optional=templinst|arch=sparc)_ZSt9iter_swapIPN7WebCore8SVGGlyphES2_EvT_T0_@Base 5.2.1
 (optional=templinst|arch=sparc)_ZSt9make_heapIN9__gnu_cxx17__normal_iteratorIP13TVariableInfoSt6vectorIS2_SaIS2_EEEE21TVariableInfoComparerEvT_S9_T0_@Base 5.2.1
 (optional=templinst|arch=sparc)_ZSt9make_heapIPN3WTF6RefPtrIN7WebCore16MutationObserverEEENS3_16ObserverLessThanEEvT_S7_T0_@Base 5.2.1
 (optional=templinst|arch=sparc)_ZSt9make_heapIPN3WTF6RefPtrIN7WebCore21CustomFilterParameterEEEPFbRKS4_S7_EEvT_SA_T0_@Base 5.2.1
 (optional=templinst|arch=sparc)_ZSt9make_heapIPN3WTF6StringEPFbRKS1_S4_EEvT_S7_T0_@Base 5.2.1
 (optional=templinst)_ZSteqIcEN9__gnu_cxx11__enable_ifIXsrSt9__is_charIT_E7__valueEbE6__typeERKSbIS3_St11char_traitsIS3_ESaIS3_EESC_@Base 5.0.2
 (optional=templinst|arch=sparc)_ZSteqIcSt11char_traitsIcE14pool_allocatorIcEEbRKSbIT_T0_T1_EPKS4_@Base 5.2.1
 (optional=templinst|arch=sparc)_ZStplIcSt11char_traitsIcE14pool_allocatorIcEESbIT_T0_T1_EOS7_S8_@Base 5.2.1
 (optional=templinst|arch=sparc)_ZStplIcSt11char_traitsIcE14pool_allocatorIcEESbIT_T0_T1_EPKS4_RKS7_@Base 5.2.1
 (optional=templinst|arch=sparc)_ZStplIcSt11char_traitsIcE14pool_allocatorIcEESbIT_T0_T1_ERKS7_S9_@Base 5.2.1
 _ZTI11QWebKitTest@Base 5.0.2
 _ZTI13QQuickWebPage@Base 5.0.2
 _ZTI13QQuickWebView@Base 5.0.2
 _ZTI13QSGRenderNode@Base 5.0.2
 _ZTI15QWebLoadRequest@Base 5.0.2
 _ZTI15QWebPageAdapter@Base 5.0.2
 _ZTI15QWebPreferences@Base 5.0.2
 _ZTI16QOpenGLFunctions@Base 5.4.0
 _ZTI16QWebDownloadItem@Base 5.0.2
 _ZTI16QWebFrameAdapter@Base 5.0.2
 _ZTI17QOpenGLExtensions@Base 5.4.0
 _ZTI17QWebPluginFactory@Base 5.0.2
 _ZTI18QQuickNetworkReply@Base 5.0.2
 _ZTI18QWebPluginDatabase@Base 5.0.2
 _ZTI19QtWebSecurityOrigin@Base 5.0.2
 _ZTI20QQuickNetworkRequest@Base 5.0.2
 _ZTI20QWebHistoryInterface@Base 5.0.2
 _ZTI21QQuickWebViewAttached@Base 5.0.2
 _ZTI21QWebIconImageProvider@Base 5.0.2
 _ZTI21QWebNavigationHistory@Base 5.0.2
 _ZTI21QWebNavigationRequest@Base 5.0.2
 _ZTI21QWebPermissionRequest@Base 5.0.2
 _ZTI21QtPluginWidgetAdapter@Base 5.0.2
 _ZTI23QQuickUrlSchemeDelegate@Base 5.0.2
 _ZTI23QWebNavigationListModel@Base 5.0.2
 _ZTI25QQuickWebViewExperimental@Base 5.0.2
 _ZTIN3JSC15WeakHandleOwnerE@Base 5.0.2
 _ZTIN3JSC8DebuggerE@Base 5.0.2
 (arch=sparc)_ZTISt15basic_stringbufIcSt11char_traitsIcE14pool_allocatorIcEE@Base 5.2.1
 (arch=sparc)_ZTISt19basic_ostringstreamIcSt11char_traitsIcE14pool_allocatorIcEE@Base 5.2.1
 _ZTIZ26leveldb_writebatch_iterateE1H@Base 5.3.0
 _ZTIZ33leveldb_filterpolicy_create_bloomE7Wrapper@Base 5.3.0
 _ZTS11QWebKitTest@Base 5.0.2
 _ZTS13QQuickWebPage@Base 5.0.2
 _ZTS13QQuickWebView@Base 5.0.2
 _ZTS13QSGRenderNode@Base 5.0.2
 _ZTS15QWebLoadRequest@Base 5.0.2
 _ZTS15QWebPageAdapter@Base 5.0.2
 _ZTS15QWebPreferences@Base 5.0.2
 _ZTS16QOpenGLFunctions@Base 5.4.0
 _ZTS16QWebDownloadItem@Base 5.0.2
 _ZTS16QWebFrameAdapter@Base 5.0.2
 _ZTS17QOpenGLExtensions@Base 5.4.0
 _ZTS17QWebPluginFactory@Base 5.0.2
 _ZTS18QQuickNetworkReply@Base 5.0.2
 _ZTS18QWebPluginDatabase@Base 5.0.2
 _ZTS19QtWebSecurityOrigin@Base 5.0.2
 _ZTS20QQuickNetworkRequest@Base 5.0.2
 _ZTS20QWebHistoryInterface@Base 5.0.2
 _ZTS21QQuickWebViewAttached@Base 5.0.2
 _ZTS21QWebIconImageProvider@Base 5.0.2
 _ZTS21QWebNavigationHistory@Base 5.0.2
 _ZTS21QWebNavigationRequest@Base 5.0.2
 _ZTS21QWebPermissionRequest@Base 5.0.2
 _ZTS21QtPluginWidgetAdapter@Base 5.0.2
 _ZTS23QQuickUrlSchemeDelegate@Base 5.0.2
 _ZTS23QWebNavigationListModel@Base 5.0.2
 _ZTS25QQuickWebViewExperimental@Base 5.0.2
 _ZTSN3JSC15WeakHandleOwnerE@Base 5.0.2
 _ZTSN3JSC8DebuggerE@Base 5.0.2
 (arch=sparc)_ZTSSt15basic_stringbufIcSt11char_traitsIcE14pool_allocatorIcEE@Base 5.2.1
 (arch=sparc)_ZTSSt19basic_ostringstreamIcSt11char_traitsIcE14pool_allocatorIcEE@Base 5.2.1
 (arch=sparc)_ZTTSt19basic_ostringstreamIcSt11char_traitsIcE14pool_allocatorIcEE@Base 5.2.1
 _ZTV11QWebKitTest@Base 5.0.2
 _ZTV13QQuickWebPage@Base 5.0.2
 _ZTV13QQuickWebView@Base 5.0.2
 _ZTV13QSGRenderNode@Base 5.0.2
 _ZTV15QWebLoadRequest@Base 5.0.2
 _ZTV15QWebPageAdapter@Base 5.0.2
 _ZTV15QWebPreferences@Base 5.0.2
 _ZTV16QWebDownloadItem@Base 5.0.2
 _ZTV16QWebFrameAdapter@Base 5.0.2
 _ZTV17QWebPluginFactory@Base 5.0.2
 _ZTV18QQuickNetworkReply@Base 5.0.2
 _ZTV18QWebPluginDatabase@Base 5.0.2
 _ZTV19QtWebSecurityOrigin@Base 5.0.2
 _ZTV20QQuickNetworkRequest@Base 5.0.2
 _ZTV20QWebHistoryInterface@Base 5.0.2
 _ZTV21QQuickWebViewAttached@Base 5.0.2
 _ZTV21QWebIconImageProvider@Base 5.0.2
 _ZTV21QWebNavigationHistory@Base 5.0.2
 _ZTV21QWebNavigationRequest@Base 5.0.2
 _ZTV21QWebPermissionRequest@Base 5.0.2
 _ZTV21QtPluginWidgetAdapter@Base 5.0.2
 _ZTV23QQuickUrlSchemeDelegate@Base 5.0.2
 _ZTV23QWebNavigationListModel@Base 5.0.2
 _ZTV25QQuickWebViewExperimental@Base 5.0.2
 _ZTVN3JSC15WeakHandleOwnerE@Base 5.0.2
 _ZTVN3JSC8DebuggerE@Base 5.0.2
 (arch=sparc)_ZTVSt15basic_stringbufIcSt11char_traitsIcE14pool_allocatorIcEE@Base 5.2.1
 (arch=sparc)_ZTVSt19basic_ostringstreamIcSt11char_traitsIcE14pool_allocatorIcEE@Base 5.2.1
 _ZZZN21QWebIconImageProvider10identifierEvENKUlvE_clEvE15qstring_literal@Base 5.2.0
 _ZlsR11QDataStreamRK11QWebHistory@Base 5.0.2
 _ZrsR11QDataStreamR11QWebHistory@Base 5.0.2
 (c++|arch=sparc)"construction vtable for std::basic_ostream<char, std::char_traits<char> >-in-std::basic_ostringstream<char, std::char_traits<char>, pool_allocator<char> >@Base" 5.2.1
 (arch=hurd-i386)ctiOpThrowNotCaught@Base 5.2.1
 (arch=hurd-i386)ctiTrampoline@Base 5.2.1
 (arch=hurd-i386)ctiTrampolineEnd@Base 5.2.1
 (arch=hurd-i386)ctiVMThrowTrampoline@Base 5.2.1
 (arch=hurd-i386)getHostCallReturnValue@Base 5.2.1
 kJSClassDefinitionEmpty@Base 5.0.2
 (c++)"non-virtual thunk to JSC::CodeBlock::~CodeBlock()@Base" 5.0.2
 (c++)"non-virtual thunk to QQuickWebPage::~QQuickWebPage()@Base" 5.0.2
 (c++)"non-virtual thunk to QQuickWebView::componentComplete()@Base" 5.0.2
 (c++)"non-virtual thunk to QQuickWebView::~QQuickWebView()@Base" 5.0.2
 (c++|arch=sparc)"virtual thunk to std::basic_ostringstream<char, std::char_traits<char>, pool_allocator<char> >::~basic_ostringstream()@Base" 5.2.1
# SymbolsHelper-Confirmed: 5.4.0 amd64
libQt5WebKitWidgets.so.5 libqt5webkit5 #MINVER#
 _ZN13QWebInspector10closeEventEP11QCloseEvent@Base 5.0.2
 _ZN13QWebInspector11qt_metacallEN11QMetaObject4CallEiPPv@Base 5.0.2
 _ZN13QWebInspector11qt_metacastEPKc@Base 5.0.2
 _ZN13QWebInspector11resizeEventEP12QResizeEvent@Base 5.0.2
 _ZN13QWebInspector16staticMetaObjectE@Base 5.0.2
 _ZN13QWebInspector5eventEP6QEvent@Base 5.0.2
 _ZN13QWebInspector7setPageEP8QWebPage@Base 5.0.2
 _ZN13QWebInspector9hideEventEP10QHideEvent@Base 5.0.2
 _ZN13QWebInspector9showEventEP10QShowEvent@Base 5.0.2
 _ZN13QWebInspectorC1EP7QWidget@Base 5.0.2
 _ZN13QWebInspectorC2EP7QWidget@Base 5.0.2
 _ZN13QWebInspectorD0Ev@Base 5.0.2
 _ZN13QWebInspectorD1Ev@Base 5.0.2
 _ZN13QWebInspectorD2Ev@Base 5.0.2
 _ZN16QGraphicsWebView10itemChangeEN13QGraphicsItem18GraphicsItemChangeERK8QVariant@Base 5.0.2
 _ZN16QGraphicsWebView10sceneEventEP6QEvent@Base 5.0.2
 _ZN16QGraphicsWebView10setContentERK10QByteArrayRK7QStringRK4QUrl@Base 5.0.2
 _ZN16QGraphicsWebView10urlChangedERK4QUrl@Base 5.0.2
 _ZN16QGraphicsWebView10wheelEventEP24QGraphicsSceneWheelEvent@Base 5.0.2
 _ZN16QGraphicsWebView11iconChangedEv@Base 5.0.2
 _ZN16QGraphicsWebView11linkClickedERK4QUrl@Base 5.0.2
 _ZN16QGraphicsWebView11loadStartedEv@Base 5.0.2
 _ZN16QGraphicsWebView11qt_metacallEN11QMetaObject4CallEiPPv@Base 5.0.2
 _ZN16QGraphicsWebView11qt_metacastEPKc@Base 5.0.2
 _ZN16QGraphicsWebView11setGeometryERK6QRectF@Base 5.0.2
 _ZN16QGraphicsWebView12focusInEventEP11QFocusEvent@Base 5.0.2
 _ZN16QGraphicsWebView12loadFinishedEb@Base 5.0.2
 _ZN16QGraphicsWebView12loadProgressEi@Base 5.0.2
 _ZN16QGraphicsWebView12titleChangedERK7QString@Base 5.0.2
 _ZN16QGraphicsWebView13dragMoveEventEP27QGraphicsSceneDragDropEvent@Base 5.0.2
 _ZN16QGraphicsWebView13focusOutEventEP11QFocusEvent@Base 5.0.2
 _ZN16QGraphicsWebView13keyPressEventEP9QKeyEvent@Base 5.0.2
 _ZN16QGraphicsWebView13setRenderHintEN8QPainter10RenderHintEb@Base 5.0.2
 _ZN16QGraphicsWebView13setZoomFactorEd@Base 5.2.0
 _ZN16QGraphicsWebView14dragEnterEventEP27QGraphicsSceneDragDropEvent@Base 5.0.2
 _ZN16QGraphicsWebView14dragLeaveEventEP27QGraphicsSceneDragDropEvent@Base 5.0.2
 _ZN16QGraphicsWebView14hoverMoveEventEP24QGraphicsSceneHoverEvent@Base 5.0.2
 _ZN16QGraphicsWebView14mouseMoveEventEP24QGraphicsSceneMouseEvent@Base 5.0.2
 _ZN16QGraphicsWebView14setRenderHintsE6QFlagsIN8QPainter10RenderHintEE@Base 5.0.2
 _ZN16QGraphicsWebView14updateGeometryEv@Base 5.0.2
 _ZN16QGraphicsWebView15hoverLeaveEventEP24QGraphicsSceneHoverEvent@Base 5.0.2
 _ZN16QGraphicsWebView15keyReleaseEventEP9QKeyEvent@Base 5.0.2
 _ZN16QGraphicsWebView15mousePressEventEP24QGraphicsSceneMouseEvent@Base 5.0.2
 _ZN16QGraphicsWebView16contextMenuEventEP30QGraphicsSceneContextMenuEvent@Base 5.0.2
 _ZN16QGraphicsWebView16inputMethodEventEP17QInputMethodEvent@Base 5.0.2
 _ZN16QGraphicsWebView16staticMetaObjectE@Base 5.0.2
 _ZN16QGraphicsWebView16statusBarMessageERK7QString@Base 5.0.2
 _ZN16QGraphicsWebView17mouseReleaseEventEP24QGraphicsSceneMouseEvent@Base 5.0.2
 _ZN16QGraphicsWebView17triggerPageActionEN8QWebPage9WebActionEb@Base 5.0.2
 _ZN16QGraphicsWebView18focusNextPrevChildEb@Base 5.0.2
 _ZN16QGraphicsWebView20setResizesToContentsEb@Base 5.0.2
 _ZN16QGraphicsWebView21mouseDoubleClickEventEP24QGraphicsSceneMouseEvent@Base 5.0.2
 _ZN16QGraphicsWebView26setTiledBackingStoreFrozenEb@Base 5.0.2
 _ZN16QGraphicsWebView4backEv@Base 5.0.2
 _ZN16QGraphicsWebView4loadERK15QNetworkRequestN21QNetworkAccessManager9OperationERK10QByteArray@Base 5.0.2
 _ZN16QGraphicsWebView4loadERK4QUrl@Base 5.0.2
 _ZN16QGraphicsWebView4stopEv@Base 5.0.2
 _ZN16QGraphicsWebView5eventEP6QEvent@Base 5.0.2
 _ZN16QGraphicsWebView5paintEP8QPainterPK24QStyleOptionGraphicsItemP7QWidget@Base 5.0.2
 _ZN16QGraphicsWebView6reloadEv@Base 5.0.2
 _ZN16QGraphicsWebView6setUrlERK4QUrl@Base 5.0.2
 _ZN16QGraphicsWebView7forwardEv@Base 5.0.2
 _ZN16QGraphicsWebView7setHtmlERK7QStringRK4QUrl@Base 5.0.2
 _ZN16QGraphicsWebView7setPageEP8QWebPage@Base 5.0.2
 _ZN16QGraphicsWebView8findTextERK7QString6QFlagsIN8QWebPage8FindFlagEE@Base 5.0.2
 _ZN16QGraphicsWebView9dropEventEP27QGraphicsSceneDragDropEvent@Base 5.0.2
 _ZN16QGraphicsWebViewC1EP13QGraphicsItem@Base 5.0.2
 _ZN16QGraphicsWebViewC2EP13QGraphicsItem@Base 5.0.2
 _ZN16QGraphicsWebViewD0Ev@Base 5.0.2
 _ZN16QGraphicsWebViewD1Ev@Base 5.0.2
 _ZN16QGraphicsWebViewD2Ev@Base 5.0.2
 _ZN17QWebHitTestResultC1EP24QWebHitTestResultPrivate@Base 5.0.2
 _ZN17QWebHitTestResultC1ERKS_@Base 5.0.2
 _ZN17QWebHitTestResultC1Ev@Base 5.0.2
 _ZN17QWebHitTestResultC2EP24QWebHitTestResultPrivate@Base 5.0.2
 _ZN17QWebHitTestResultC2ERKS_@Base 5.0.2
 _ZN17QWebHitTestResultC2Ev@Base 5.0.2
 _ZN17QWebHitTestResultD1Ev@Base 5.0.2
 _ZN17QWebHitTestResultD2Ev@Base 5.0.2
 _ZN17QWebHitTestResultaSERKS_@Base 5.0.2
 _ZN6WebKit23initializeWebKitWidgetsEv@Base 5.0.2
 _ZN8QWebPage10chooseFileEP9QWebFrameRK7QString@Base 5.0.2
 _ZN8QWebPage10setPaletteERK8QPalette@Base 5.0.2
 _ZN8QWebPage11linkClickedERK4QUrl@Base 5.0.2
 _ZN8QWebPage11linkHoveredERK7QStringS2_S2_@Base 5.0.2
 _ZN8QWebPage11loadStartedEv@Base 5.0.2
 _ZN8QWebPage11qt_metacallEN11QMetaObject4CallEiPPv@Base 5.0.2
 _ZN8QWebPage11qt_metacastEPKc@Base 5.0.2
 _ZN8QWebPage12createPluginERK7QStringRK4QUrlRK11QStringListS8_@Base 5.0.2
 _ZN8QWebPage12createWindowENS_13WebWindowTypeE@Base 5.0.2
 _ZN8QWebPage12frameCreatedEP9QWebFrame@Base 5.0.2
 _ZN8QWebPage12loadFinishedEb@Base 5.0.2
 _ZN8QWebPage12loadProgressEi@Base 5.0.2
 _ZN8QWebPage13triggerActionENS_9WebActionEb@Base 5.0.2
 _ZN8QWebPage14printRequestedEP9QWebFrame@Base 5.0.2
 _ZN8QWebPage15contentsChangedEv@Base 5.0.2
 _ZN8QWebPage15javaScriptAlertEP9QWebFrameRK7QString@Base 5.0.2
 _ZN8QWebPage15scrollRequestedEiiRK5QRect@Base 5.0.2
 _ZN8QWebPage16javaScriptPromptEP9QWebFrameRK7QStringS4_PS2_@Base 5.0.2
 _ZN8QWebPage16repaintRequestedERK5QRect@Base 5.0.2
 _ZN8QWebPage16selectionChangedEv@Base 5.0.2
 _ZN8QWebPage16setPluginFactoryEP17QWebPluginFactory@Base 5.0.2
 _ZN8QWebPage16staticMetaObjectE@Base 5.0.2
 _ZN8QWebPage16statusBarMessageERK7QString@Base 5.0.2
 _ZN8QWebPage17downloadRequestedERK15QNetworkRequest@Base 5.0.2
 _ZN8QWebPage17javaScriptConfirmEP9QWebFrameRK7QString@Base 5.0.2
 _ZN8QWebPage17microFocusChangedEv@Base 5.0.2
 _ZN8QWebPage18ViewportAttributesC1ERKS0_@Base 5.0.2
 _ZN8QWebPage18ViewportAttributesC1Ev@Base 5.0.2
 _ZN8QWebPage18ViewportAttributesC2ERKS0_@Base 5.0.2
 _ZN8QWebPage18ViewportAttributesC2Ev@Base 5.0.2
 _ZN8QWebPage18ViewportAttributesD1Ev@Base 5.0.2
 _ZN8QWebPage18ViewportAttributesD2Ev@Base 5.0.2
 _ZN8QWebPage18ViewportAttributesaSERKS0_@Base 5.0.2
 _ZN8QWebPage18focusNextPrevChildEb@Base 5.0.2
 _ZN8QWebPage18setContentEditableEb@Base 5.0.2
 _ZN8QWebPage18setVisibilityStateENS_15VisibilityStateE@Base 5.2.0
 _ZN8QWebPage18unsupportedContentEP13QNetworkReply@Base 5.0.2
 _ZN8QWebPage20setFeaturePermissionEP9QWebFrameNS_7FeatureENS_16PermissionPolicyE@Base 5.0.2
 _ZN8QWebPage20windowCloseRequestedEv@Base 5.0.2
 _ZN8QWebPage21databaseQuotaExceededEP9QWebFrame7QString@Base 5.0.2
 _ZN8QWebPage23acceptNavigationRequestEP9QWebFrameRK15QNetworkRequestNS_14NavigationTypeE@Base 5.0.2
 _ZN8QWebPage23geometryChangeRequestedERK5QRect@Base 5.0.2
 _ZN8QWebPage23saveFrameStateRequestedEP9QWebFrameP15QWebHistoryItem@Base 5.0.2
 _ZN8QWebPage23setLinkDelegationPolicyENS_20LinkDelegationPolicyE@Base 5.0.2
 _ZN8QWebPage23setNetworkAccessManagerEP21QNetworkAccessManager@Base 5.0.2
 _ZN8QWebPage23swallowContextMenuEventEP17QContextMenuEvent@Base 5.0.2
 _ZN8QWebPage23viewportChangeRequestedEv@Base 5.0.2
 _ZN8QWebPage24javaScriptConsoleMessageERK7QStringiS2_@Base 5.0.2
 _ZN8QWebPage25createStandardContextMenuEv@Base 5.0.2
 _ZN8QWebPage25shouldInterruptJavaScriptEv@Base 5.0.2
 _ZN8QWebPage26featurePermissionRequestedEP9QWebFrameNS_7FeatureE@Base 5.0.2
 _ZN8QWebPage26restoreFrameStateRequestedEP9QWebFrame@Base 5.0.2
 _ZN8QWebPage28setForwardUnsupportedContentEb@Base 5.0.2
 _ZN8QWebPage29applicationCacheQuotaExceededEP18QWebSecurityOriginyy@Base 5.0.2
 _ZN8QWebPage30updatePositionDependentActionsERK6QPoint@Base 5.0.2
 _ZN8QWebPage32featurePermissionRequestCanceledEP9QWebFrameNS_7FeatureE@Base 5.0.2
 _ZN8QWebPage32menuBarVisibilityChangeRequestedEb@Base 5.0.2
 _ZN8QWebPage32toolBarVisibilityChangeRequestedEb@Base 5.0.2
 _ZN8QWebPage34statusBarVisibilityChangeRequestedEb@Base 5.0.2
 _ZN8QWebPage5eventEP6QEvent@Base 5.0.2
 _ZN8QWebPage7setViewEP7QWidget@Base 5.0.2
 _ZN8QWebPage8findTextERK7QString6QFlagsINS_8FindFlagEE@Base 5.0.2
 _ZN8QWebPage9extensionENS_9ExtensionEPKNS_15ExtensionOptionEPNS_15ExtensionReturnE@Base 5.0.2
 _ZN8QWebPageC1EP7QObject@Base 5.0.2
 _ZN8QWebPageC2EP7QObject@Base 5.0.2
 _ZN8QWebPageD0Ev@Base 5.0.2
 _ZN8QWebPageD1Ev@Base 5.0.2
 _ZN8QWebPageD2Ev@Base 5.0.2
 _ZN8QWebView10paintEventEP11QPaintEvent@Base 5.0.2
 _ZN8QWebView10setContentERK10QByteArrayRK7QStringRK4QUrl@Base 5.0.2
 _ZN8QWebView10urlChangedERK4QUrl@Base 5.0.2
 _ZN8QWebView10wheelEventEP11QWheelEvent@Base 5.0.2
 _ZN8QWebView11changeEventEP6QEvent@Base 5.0.2
 _ZN8QWebView11iconChangedEv@Base 5.0.2
 _ZN8QWebView11linkClickedERK4QUrl@Base 5.0.2
 _ZN8QWebView11loadStartedEv@Base 5.0.2
 _ZN8QWebView11qt_metacallEN11QMetaObject4CallEiPPv@Base 5.0.2
 _ZN8QWebView11qt_metacastEPKc@Base 5.0.2
 _ZN8QWebView11resizeEventEP12QResizeEvent@Base 5.0.2
 _ZN8QWebView12createWindowEN8QWebPage13WebWindowTypeE@Base 5.0.2
 _ZN8QWebView12focusInEventEP11QFocusEvent@Base 5.0.2
 _ZN8QWebView12loadFinishedEb@Base 5.0.2
 _ZN8QWebView12loadProgressEi@Base 5.0.2
 _ZN8QWebView12titleChangedERK7QString@Base 5.0.2
 _ZN8QWebView13dragMoveEventEP14QDragMoveEvent@Base 5.0.2
 _ZN8QWebView13focusOutEventEP11QFocusEvent@Base 5.0.2
 _ZN8QWebView13keyPressEventEP9QKeyEvent@Base 5.0.2
 _ZN8QWebView13setRenderHintEN8QPainter10RenderHintEb@Base 5.0.2
 _ZN8QWebView13setZoomFactorEd@Base 5.2.0
 _ZN8QWebView14dragEnterEventEP15QDragEnterEvent@Base 5.0.2
 _ZN8QWebView14dragLeaveEventEP15QDragLeaveEvent@Base 5.0.2
 _ZN8QWebView14mouseMoveEventEP11QMouseEvent@Base 5.0.2
 _ZN8QWebView14setRenderHintsE6QFlagsIN8QPainter10RenderHintEE@Base 5.0.2
 _ZN8QWebView15keyReleaseEventEP9QKeyEvent@Base 5.0.2
 _ZN8QWebView15mousePressEventEP11QMouseEvent@Base 5.0.2
 _ZN8QWebView16contextMenuEventEP17QContextMenuEvent@Base 5.0.2
 _ZN8QWebView16inputMethodEventEP17QInputMethodEvent@Base 5.0.2
 _ZN8QWebView16selectionChangedEv@Base 5.0.2
 _ZN8QWebView16staticMetaObjectE@Base 5.0.2
 _ZN8QWebView16statusBarMessageERK7QString@Base 5.0.2
 _ZN8QWebView17mouseReleaseEventEP11QMouseEvent@Base 5.0.2
 _ZN8QWebView17triggerPageActionEN8QWebPage9WebActionEb@Base 5.0.2
 _ZN8QWebView18focusNextPrevChildEb@Base 5.0.2
 _ZN8QWebView21mouseDoubleClickEventEP11QMouseEvent@Base 5.0.2
 _ZN8QWebView21setTextSizeMultiplierEd@Base 5.2.0
 _ZN8QWebView4backEv@Base 5.0.2
 _ZN8QWebView4loadERK15QNetworkRequestN21QNetworkAccessManager9OperationERK10QByteArray@Base 5.0.2
 _ZN8QWebView4loadERK4QUrl@Base 5.0.2
 _ZN8QWebView4stopEv@Base 5.0.2
 _ZN8QWebView5eventEP6QEvent@Base 5.0.2
 _ZN8QWebView6reloadEv@Base 5.0.2
 _ZN8QWebView6setUrlERK4QUrl@Base 5.0.2
 _ZN8QWebView7forwardEv@Base 5.0.2
 _ZN8QWebView7setHtmlERK7QStringRK4QUrl@Base 5.0.2
 _ZN8QWebView7setPageEP8QWebPage@Base 5.0.2
 _ZN8QWebView8findTextERK7QString6QFlagsIN8QWebPage8FindFlagEE@Base 5.0.2
 _ZN8QWebView9dropEventEP10QDropEvent@Base 5.0.2
 _ZN8QWebViewC1EP7QWidget@Base 5.0.2
 _ZN8QWebViewC2EP7QWidget@Base 5.0.2
 _ZN8QWebViewD0Ev@Base 5.0.2
 _ZN8QWebViewD1Ev@Base 5.0.2
 _ZN8QWebViewD2Ev@Base 5.0.2
 _ZN9QWebFrame10setContentERK10QByteArrayRK7QStringRK4QUrl@Base 5.0.2
 _ZN9QWebFrame10urlChangedERK4QUrl@Base 5.0.2
 _ZN9QWebFrame11iconChangedEv@Base 5.0.2
 _ZN9QWebFrame11loadStartedEv@Base 5.0.2
 _ZN9QWebFrame11pageChangedEv@Base 5.0.2
 _ZN9QWebFrame11qt_metacallEN11QMetaObject4CallEiPPv@Base 5.0.2
 _ZN9QWebFrame11qt_metacastEPKc@Base 5.0.2
 _ZN9QWebFrame12loadFinishedEb@Base 5.0.2
 _ZN9QWebFrame12titleChangedERK7QString@Base 5.0.2
 _ZN9QWebFrame13setZoomFactorEd@Base 5.2.0
 _ZN9QWebFrame14scrollToAnchorERK7QString@Base 5.0.2
 _ZN9QWebFrame15provisionalLoadEv@Base 5.0.2
 _ZN9QWebFrame16staticMetaObjectE@Base 5.0.2
 _ZN9QWebFrame17setScrollBarValueEN2Qt11OrientationEi@Base 5.0.2
 _ZN9QWebFrame17setScrollPositionERK6QPoint@Base 5.0.2
 _ZN9QWebFrame18evaluateJavaScriptERK7QString@Base 5.0.2
 _ZN9QWebFrame18setScrollBarPolicyEN2Qt11OrientationENS0_15ScrollBarPolicyE@Base 5.0.2
 _ZN9QWebFrame19contentsSizeChangedERK5QSize@Base 5.0.2
 _ZN9QWebFrame21setTextSizeMultiplierEd@Base 5.2.0
 _ZN9QWebFrame22initialLayoutCompletedEv@Base 5.0.2
 _ZN9QWebFrame27addToJavaScriptWindowObjectERK7QStringP7QObjectNS_14ValueOwnershipE@Base 5.0.2
 _ZN9QWebFrame29javaScriptWindowObjectClearedEv@Base 5.0.2
 _ZN9QWebFrame4loadERK15QNetworkRequestN21QNetworkAccessManager9OperationERK10QByteArray@Base 5.0.2
 _ZN9QWebFrame4loadERK4QUrl@Base 5.0.2
 _ZN9QWebFrame5eventEP6QEvent@Base 5.0.2
 _ZN9QWebFrame6renderEP8QPainter6QFlagsINS_11RenderLayerEERK7QRegion@Base 5.0.2
 _ZN9QWebFrame6renderEP8QPainterRK7QRegion@Base 5.0.2
 _ZN9QWebFrame6scrollEii@Base 5.0.2
 _ZN9QWebFrame6setUrlERK4QUrl@Base 5.0.2
 _ZN9QWebFrame7setHtmlERK7QStringRK4QUrl@Base 5.0.2
 _ZN9QWebFrame8setFocusEv@Base 5.0.2
 _ZN9QWebFrameC1EP8QWebPage@Base 5.0.2
 _ZN9QWebFrameC1EPS_P13QWebFrameData@Base 5.0.2
 _ZN9QWebFrameC2EP8QWebPage@Base 5.0.2
 _ZN9QWebFrameC2EPS_P13QWebFrameData@Base 5.0.2
 _ZN9QWebFrameD0Ev@Base 5.0.2
 _ZN9QWebFrameD1Ev@Base 5.0.2
 _ZN9QWebFrameD2Ev@Base 5.0.2
 _ZNK13QWebInspector10metaObjectEv@Base 5.0.2
 _ZNK13QWebInspector4pageEv@Base 5.0.2
 _ZNK13QWebInspector8sizeHintEv@Base 5.0.2
 _ZNK16QGraphicsWebView10isModifiedEv@Base 5.0.2
 _ZNK16QGraphicsWebView10metaObjectEv@Base 5.0.2
 _ZNK16QGraphicsWebView10pageActionEN8QWebPage9WebActionE@Base 5.0.2
 _ZNK16QGraphicsWebView10zoomFactorEv@Base 5.0.2
 _ZNK16QGraphicsWebView11renderHintsEv@Base 5.0.2
 _ZNK16QGraphicsWebView16inputMethodQueryEN2Qt16InputMethodQueryE@Base 5.0.2
 _ZNK16QGraphicsWebView17resizesToContentsEv@Base 5.0.2
 _ZNK16QGraphicsWebView25isTiledBackingStoreFrozenEv@Base 5.0.2
 _ZNK16QGraphicsWebView3urlEv@Base 5.0.2
 _ZNK16QGraphicsWebView4iconEv@Base 5.0.2
 _ZNK16QGraphicsWebView4pageEv@Base 5.0.2
 _ZNK16QGraphicsWebView5titleEv@Base 5.0.2
 _ZNK16QGraphicsWebView7historyEv@Base 5.0.2
 _ZNK16QGraphicsWebView8settingsEv@Base 5.0.2
 _ZNK16QGraphicsWebView8sizeHintEN2Qt8SizeHintERK6QSizeF@Base 5.0.2
 _ZNK17QWebHitTestResult11linkElementEv@Base 5.0.2
 _ZNK17QWebHitTestResult12boundingRectEv@Base 5.0.2
 _ZNK17QWebHitTestResult13alternateTextEv@Base 5.0.2
 _ZNK17QWebHitTestResult15linkTargetFrameEv@Base 5.0.2
 _ZNK17QWebHitTestResult17isContentEditableEv@Base 5.0.2
 _ZNK17QWebHitTestResult17isContentSelectedEv@Base 5.0.2
 _ZNK17QWebHitTestResult21enclosingBlockElementEv@Base 5.0.2
 _ZNK17QWebHitTestResult3posEv@Base 5.0.2
 _ZNK17QWebHitTestResult5frameEv@Base 5.0.2
 _ZNK17QWebHitTestResult5titleEv@Base 5.0.2
 _ZNK17QWebHitTestResult6isNullEv@Base 5.0.2
 _ZNK17QWebHitTestResult6pixmapEv@Base 5.0.2
 _ZNK17QWebHitTestResult7elementEv@Base 5.0.2
 _ZNK17QWebHitTestResult7linkUrlEv@Base 5.0.2
 _ZNK17QWebHitTestResult8imageUrlEv@Base 5.0.2
 _ZNK17QWebHitTestResult8linkTextEv@Base 5.0.2
 _ZNK17QWebHitTestResult8mediaUrlEv@Base 5.2.0
 _ZNK17QWebHitTestResult9linkTitleEv@Base 5.0.2
 _ZNK8QWebPage10isModifiedEv@Base 5.0.2
 _ZNK8QWebPage10metaObjectEv@Base 5.0.2
 _ZNK8QWebPage10totalBytesEv@Base 5.0.2
 _ZNK8QWebPage12currentFrameEv@Base 5.0.2
 _ZNK8QWebPage12hasSelectionEv@Base 5.0.2
 _ZNK8QWebPage12selectedHtmlEv@Base 5.0.2
 _ZNK8QWebPage12selectedTextEv@Base 5.0.2
 _ZNK8QWebPage12viewportSizeEv@Base 5.0.2
 _ZNK8QWebPage13bytesReceivedEv@Base 5.0.2
 _ZNK8QWebPage13pluginFactoryEv@Base 5.0.2
 _ZNK8QWebPage15setViewportSizeERK5QSize@Base 5.0.2
 _ZNK8QWebPage15userAgentForUrlERK4QUrl@Base 5.0.2
 _ZNK8QWebPage15visibilityStateEv@Base 5.2.0
 _ZNK8QWebPage16inputMethodQueryEN2Qt16InputMethodQueryE@Base 5.0.2
 _ZNK8QWebPage17isContentEditableEv@Base 5.0.2
 _ZNK8QWebPage17supportsExtensionENS_9ExtensionE@Base 5.0.2
 _ZNK8QWebPage19supportsContentTypeERK7QString@Base 5.0.2
 _ZNK8QWebPage20linkDelegationPolicyEv@Base 5.0.2
 _ZNK8QWebPage20networkAccessManagerEv@Base 5.0.2
 _ZNK8QWebPage21preferredContentsSizeEv@Base 5.0.2
 _ZNK8QWebPage21supportedContentTypesEv@Base 5.0.2
 _ZNK8QWebPage24setPreferredContentsSizeERK5QSize@Base 5.0.2
 _ZNK8QWebPage25forwardUnsupportedContentEv@Base 5.0.2
 _ZNK8QWebPage25viewportAttributesForSizeERK5QSize@Base 5.0.2
 _ZNK8QWebPage27setActualVisibleContentRectERK5QRect@Base 5.0.2
 _ZNK8QWebPage4viewEv@Base 5.0.2
 _ZNK8QWebPage6actionENS_9WebActionE@Base 5.0.2
 _ZNK8QWebPage6handleEv@Base 5.0.2
 _ZNK8QWebPage7frameAtERK6QPoint@Base 5.0.2
 _ZNK8QWebPage7historyEv@Base 5.0.2
 _ZNK8QWebPage7paletteEv@Base 5.0.2
 _ZNK8QWebPage8settingsEv@Base 5.0.2
 _ZNK8QWebPage9mainFrameEv@Base 5.0.2
 _ZNK8QWebPage9undoStackEv@Base 5.0.2
 _ZNK8QWebView10isModifiedEv@Base 5.0.2
 _ZNK8QWebView10metaObjectEv@Base 5.0.2
 _ZNK8QWebView10pageActionEN8QWebPage9WebActionE@Base 5.0.2
 _ZNK8QWebView10zoomFactorEv@Base 5.0.2
 _ZNK8QWebView11renderHintsEv@Base 5.0.2
 _ZNK8QWebView12hasSelectionEv@Base 5.0.2
 _ZNK8QWebView12selectedHtmlEv@Base 5.0.2
 _ZNK8QWebView12selectedTextEv@Base 5.0.2
 _ZNK8QWebView16inputMethodQueryEN2Qt16InputMethodQueryE@Base 5.0.2
 _ZNK8QWebView18textSizeMultiplierEv@Base 5.0.2
 _ZNK8QWebView3urlEv@Base 5.0.2
 _ZNK8QWebView4iconEv@Base 5.0.2
 _ZNK8QWebView4pageEv@Base 5.0.2
 _ZNK8QWebView5printEP8QPrinter@Base 5.0.2
 _ZNK8QWebView5titleEv@Base 5.0.2
 _ZNK8QWebView7historyEv@Base 5.0.2
 _ZNK8QWebView8settingsEv@Base 5.0.2
 _ZNK8QWebView8sizeHintEv@Base 5.0.2
 _ZNK9QWebFrame10metaObjectEv@Base 5.0.2
 _ZNK9QWebFrame10zoomFactorEv@Base 5.0.2
 _ZNK9QWebFrame11childFramesEv@Base 5.0.2
 _ZNK9QWebFrame11parentFrameEv@Base 5.0.2
 _ZNK9QWebFrame11toPlainTextEv@Base 5.0.2
 _ZNK9QWebFrame12contentsSizeEv@Base 5.0.2
 _ZNK9QWebFrame12requestedUrlEv@Base 5.0.2
 _ZNK9QWebFrame14hitTestContentERK6QPoint@Base 5.0.2
 _ZNK9QWebFrame14scrollBarValueEN2Qt11OrientationE@Base 5.0.2
 _ZNK9QWebFrame14scrollPositionEv@Base 5.0.2
 _ZNK9QWebFrame14securityOriginEv@Base 5.0.2
 _ZNK9QWebFrame15documentElementEv@Base 5.0.2
 _ZNK9QWebFrame15findAllElementsERK7QString@Base 5.0.2
 _ZNK9QWebFrame15scrollBarPolicyEN2Qt11OrientationE@Base 5.0.2
 _ZNK9QWebFrame16findFirstElementERK7QString@Base 5.0.2
 _ZNK9QWebFrame16scrollBarMaximumEN2Qt11OrientationE@Base 5.0.2
 _ZNK9QWebFrame16scrollBarMinimumEN2Qt11OrientationE@Base 5.0.2
 _ZNK9QWebFrame17scrollBarGeometryEN2Qt11OrientationE@Base 5.0.2
 _ZNK9QWebFrame18textSizeMultiplierEv@Base 5.0.2
 _ZNK9QWebFrame3posEv@Base 5.0.2
 _ZNK9QWebFrame3urlEv@Base 5.0.2
 _ZNK9QWebFrame4iconEv@Base 5.0.2
 _ZNK9QWebFrame4pageEv@Base 5.0.2
 _ZNK9QWebFrame5printEP8QPrinter@Base 5.0.2
 _ZNK9QWebFrame5titleEv@Base 5.0.2
 _ZNK9QWebFrame6handleEv@Base 5.0.2
 _ZNK9QWebFrame6toHtmlEv@Base 5.0.2
 _ZNK9QWebFrame7baseUrlEv@Base 5.0.2
 _ZNK9QWebFrame8geometryEv@Base 5.0.2
 _ZNK9QWebFrame8hasFocusEv@Base 5.0.2
 _ZNK9QWebFrame8metaDataEv@Base 5.0.2
 _ZNK9QWebFrame9frameNameEv@Base 5.0.2
 _ZTI13QWebInspector@Base 5.0.2
 _ZTI16QGraphicsWebView@Base 5.0.2
 _ZTI8QWebPage@Base 5.0.2
 _ZTI8QWebView@Base 5.0.2
 _ZTI9QWebFrame@Base 5.0.2
 _ZTS13QWebInspector@Base 5.0.2
 _ZTS16QGraphicsWebView@Base 5.0.2
 _ZTS8QWebPage@Base 5.0.2
 _ZTS8QWebView@Base 5.0.2
 _ZTS9QWebFrame@Base 5.0.2
 _ZTV13QWebInspector@Base 5.0.2
 _ZTV16QGraphicsWebView@Base 5.0.2
 _ZTV8QWebPage@Base 5.0.2
 _ZTV8QWebView@Base 5.0.2
 _ZTV9QWebFrame@Base 5.0.2
 (c++)"non-virtual thunk to QGraphicsWebView::contextMenuEvent(QGraphicsSceneContextMenuEvent*)@Base" 5.0.2
 (c++)"non-virtual thunk to QGraphicsWebView::dragEnterEvent(QGraphicsSceneDragDropEvent*)@Base" 5.0.2
 (c++)"non-virtual thunk to QGraphicsWebView::dragLeaveEvent(QGraphicsSceneDragDropEvent*)@Base" 5.0.2
 (c++)"non-virtual thunk to QGraphicsWebView::dragMoveEvent(QGraphicsSceneDragDropEvent*)@Base" 5.0.2
 (c++)"non-virtual thunk to QGraphicsWebView::dropEvent(QGraphicsSceneDragDropEvent*)@Base" 5.0.2
 (c++)"non-virtual thunk to QGraphicsWebView::focusInEvent(QFocusEvent*)@Base" 5.0.2
 (c++)"non-virtual thunk to QGraphicsWebView::focusOutEvent(QFocusEvent*)@Base" 5.0.2
 (c++)"non-virtual thunk to QGraphicsWebView::hoverLeaveEvent(QGraphicsSceneHoverEvent*)@Base" 5.0.2
 (c++)"non-virtual thunk to QGraphicsWebView::hoverMoveEvent(QGraphicsSceneHoverEvent*)@Base" 5.0.2
 (c++)"non-virtual thunk to QGraphicsWebView::inputMethodEvent(QInputMethodEvent*)@Base" 5.0.2
 (c++)"non-virtual thunk to QGraphicsWebView::inputMethodQuery(Qt::InputMethodQuery) const@Base" 5.0.2
 (c++)"non-virtual thunk to QGraphicsWebView::itemChange(QGraphicsItem::GraphicsItemChange, QVariant const&)@Base" 5.0.2
 (c++)"non-virtual thunk to QGraphicsWebView::keyPressEvent(QKeyEvent*)@Base" 5.0.2
 (c++)"non-virtual thunk to QGraphicsWebView::keyReleaseEvent(QKeyEvent*)@Base" 5.0.2
 (c++)"non-virtual thunk to QGraphicsWebView::mouseDoubleClickEvent(QGraphicsSceneMouseEvent*)@Base" 5.0.2
 (c++)"non-virtual thunk to QGraphicsWebView::mouseMoveEvent(QGraphicsSceneMouseEvent*)@Base" 5.0.2
 (c++)"non-virtual thunk to QGraphicsWebView::mousePressEvent(QGraphicsSceneMouseEvent*)@Base" 5.0.2
 (c++)"non-virtual thunk to QGraphicsWebView::mouseReleaseEvent(QGraphicsSceneMouseEvent*)@Base" 5.0.2
 (c++)"non-virtual thunk to QGraphicsWebView::paint(QPainter*, QStyleOptionGraphicsItem const*, QWidget*)@Base" 5.0.2
 (c++)"non-virtual thunk to QGraphicsWebView::sceneEvent(QEvent*)@Base" 5.0.2
 (c++)"non-virtual thunk to QGraphicsWebView::setGeometry(QRectF const&)@Base" 5.0.2
 (c++)"non-virtual thunk to QGraphicsWebView::sizeHint(Qt::SizeHint, QSizeF const&) const@Base" 5.0.2
 (c++)"non-virtual thunk to QGraphicsWebView::updateGeometry()@Base" 5.0.2
 (c++)"non-virtual thunk to QGraphicsWebView::wheelEvent(QGraphicsSceneWheelEvent*)@Base" 5.0.2
 (c++)"non-virtual thunk to QGraphicsWebView::~QGraphicsWebView()@Base" 5.0.2
 (c++)"non-virtual thunk to QWebInspector::~QWebInspector()@Base" 5.0.2
 (c++)"non-virtual thunk to QWebView::~QWebView()@Base" 5.0.2
