# SymbolsHelper-Confirmed: 5.3.1 sparc
libQt5Test.so.5 libqt5test5 #MINVER#
| libqt5test5 #MINVER#, qtbase-abi-5-3-2
 _ZN10QTestTable15globalTestTableEv@Base 5.0.2 1
 _ZN10QTestTable16currentTestTableEv@Base 5.0.2 1
 _ZN10QTestTable20clearGlobalTestTableEv@Base 5.0.2 1
 _ZN10QTestTable7newDataEPKc@Base 5.0.2 1
 _ZN10QTestTable9addColumnEiPKc@Base 5.0.2 1
 _ZN10QTestTableC1Ev@Base 5.0.2 1
 _ZN10QTestTableC2Ev@Base 5.0.2 1
 _ZN10QTestTableD1Ev@Base 5.0.2 1
 _ZN10QTestTableD2Ev@Base 5.0.2 1
 _ZN11QTestResult10addFailureEPKcS1_i@Base 5.0.2 1
 _ZN11QTestResult10expectFailEPKcS1_N5QTest12TestFailModeES1_i@Base 5.0.2 1
 _ZN11QTestResult14currentAppNameEv@Base 5.2.0~beta1 1
 _ZN11QTestResult14currentDataTagEv@Base 5.0.2 1
 _ZN11QTestResult15currentTestDataEv@Base 5.0.2 1
 _ZN11QTestResult15skipCurrentTestEv@Base 5.0.2 1
 _ZN11QTestResult17currentTestFailedEv@Base 5.0.2 1
 _ZN11QTestResult17setCurrentAppNameEPKc@Base 5.2.0~beta1 1
 _ZN11QTestResult18setCurrentTestDataEP9QTestData@Base 5.0.2 1
 _ZN11QTestResult18setSkipCurrentTestEb@Base 5.0.2 1
 _ZN11QTestResult19currentTestFunctionEv@Base 5.0.2 1
 _ZN11QTestResult20currentGlobalDataTagEv@Base 5.0.2 1
 _ZN11QTestResult20setCurrentTestObjectEPKc@Base 5.0.2 1
 _ZN11QTestResult21currentGlobalTestDataEv@Base 5.0.2 1
 _ZN11QTestResult21currentTestObjectNameEv@Base 5.0.2 1
 _ZN11QTestResult22setCurrentTestFunctionEPKc@Base 5.0.2 1
 _ZN11QTestResult23finishedCurrentTestDataEv@Base 5.0.2 1
 _ZN11QTestResult24setCurrentGlobalTestDataEP9QTestData@Base 5.0.2 1
 _ZN11QTestResult27finishedCurrentTestFunctionEv@Base 5.0.2 1
 _ZN11QTestResult30finishedCurrentTestDataCleanupEv@Base 5.0.2 1
 _ZN11QTestResult5resetEv@Base 5.0.2 1
 _ZN11QTestResult6verifyEbPKcS1_S1_i@Base 5.0.2 1
 _ZN11QTestResult7addSkipEPKcS1_i@Base 5.0.2 1
 _ZN11QTestResult7compareEbPKcPcS2_S1_S1_S1_i@Base 5.0.2 1
 _ZN14QTestEventLoop11qt_metacallEN11QMetaObject4CallEiPPv@Base 5.0.2
 _ZN14QTestEventLoop11qt_metacastEPKc@Base 5.0.2
 _ZN14QTestEventLoop16staticMetaObjectE@Base 5.0.2
 _ZN14QTestEventLoopD0Ev@Base 5.0.2
 _ZN14QTestEventLoopD1Ev@Base 5.0.2
 _ZN14QTestEventLoopD2Ev@Base 5.0.2
 _ZN20QBenchmarkGlobalData14createMeasurerEv@Base 5.0.2 1
 _ZN20QBenchmarkGlobalData26adjustMedianIterationCountEv@Base 5.0.2 1
 _ZN20QBenchmarkGlobalData7currentE@Base 5.0.2 1
 _ZN20QBenchmarkGlobalData7setModeENS_4ModeE@Base 5.0.2 1
 _ZN20QBenchmarkGlobalDataC1Ev@Base 5.0.2 1
 _ZN20QBenchmarkGlobalDataC2Ev@Base 5.0.2 1
 _ZN20QBenchmarkGlobalDataD1Ev@Base 5.0.2 1
 _ZN20QBenchmarkGlobalDataD2Ev@Base 5.0.2 1
 _ZN24QBenchmarkTestMethodData10endDataRunEv@Base 5.0.2 1
 _ZN24QBenchmarkTestMethodData12beginDataRunEv@Base 5.0.2 1
 _ZN24QBenchmarkTestMethodData20adjustIterationCountEi@Base 5.0.2 1
 _ZN24QBenchmarkTestMethodData7currentE@Base 5.0.2 1
 _ZN24QBenchmarkTestMethodData9setResultEdN5QTest16QBenchmarkMetricEb@Base 5.2.0 1
 _ZN24QBenchmarkTestMethodDataC1Ev@Base 5.0.2 1
 _ZN24QBenchmarkTestMethodDataC2Ev@Base 5.0.2 1
 _ZN24QBenchmarkTestMethodDataD1Ev@Base 5.0.2 1
 _ZN24QBenchmarkTestMethodDataD2Ev@Base 5.0.2 1
 _ZN5QTest10asciiToKeyEc@Base 5.0.2
 _ZN5QTest10keyToAsciiEN2Qt3KeyE@Base 5.0.2
 _ZN5QTest10testObjectEv@Base 5.0.2
 _ZN5QTest11qExpectFailEPKcS1_NS_12TestFailModeES1_i@Base 5.0.2
 _ZN5QTest11qGlobalDataEPKci@Base 5.0.2
 _ZN5QTest12qElementDataEPKci@Base 5.0.2
 _ZN5QTest13ignoreMessageE9QtMsgTypePKc@Base 5.0.2
 _ZN5QTest13ignoreMessageE9QtMsgTypeRK18QRegularExpression@Base 5.3.0
 _ZN5QTest13qFindTestDataEPKcS1_iS1_@Base 5.0.2
 _ZN5QTest13qFindTestDataERK7QStringPKciS4_@Base 5.0.2
 _ZN5QTest13testFunctionsE@Base 5.0.2
 _ZN5QTest14compare_helperEbPKcPcS2_S1_S1_S1_i@Base 5.0.2
 _ZN5QTest14currentAppNameEv@Base 5.2.0~beta1
 _ZN5QTest14currentDataTagEv@Base 5.0.2
 _ZN5QTest15defaultKeyDelayEv@Base 5.0.2
 _ZN5QTest15toPrettyUnicodeEPKti@Base 5.3.0
 _ZN5QTest16qtest_qParseArgsEiPPcb@Base 5.0.2
 _ZN5QTest17addColumnInternalEiPKc@Base 5.0.2
 _ZN5QTest17currentTestFailedEv@Base 5.0.2
 _ZN5QTest17defaultMouseDelayEv@Base 5.0.2
 _ZN5QTest18setBenchmarkResultEdNS_16QBenchmarkMetricE@Base 5.2.0
 _ZN5QTest19currentTestFunctionEv@Base 5.0.2
 _ZN5QTest19toHexRepresentationEPKci@Base 5.0.2
 _ZN5QTest21compare_string_helperEPKcS1_S1_S1_S1_i@Base 5.0.2
 _ZN5QTest23endBenchmarkMeasurementEv@Base 5.0.2
 _ZN5QTest23printAvailableFunctionsE@Base 5.0.2
 _ZN5QTest25beginBenchmarkMeasurementEv@Base 5.0.2
 _ZN5QTest29QBenchmarkIterationController4nextEv@Base 5.0.2
 _ZN5QTest29QBenchmarkIterationController6isDoneEv@Base 5.0.2
 _ZN5QTest29QBenchmarkIterationControllerC1ENS0_7RunModeE@Base 5.0.2
 _ZN5QTest29QBenchmarkIterationControllerC1Ev@Base 5.0.2
 _ZN5QTest29QBenchmarkIterationControllerC2ENS0_7RunModeE@Base 5.0.2
 _ZN5QTest29QBenchmarkIterationControllerC2Ev@Base 5.0.2
 _ZN5QTest29QBenchmarkIterationControllerD1Ev@Base 5.0.2
 _ZN5QTest29QBenchmarkIterationControllerD2Ev@Base 5.0.2
 _ZN5QTest5qDataEPKci@Base 5.0.2
 _ZN5QTest5qExecEP7QObjectRK11QStringList@Base 5.0.2
 _ZN5QTest5qExecEP7QObjectiPPc@Base 5.0.2
 _ZN5QTest5qFailEPKcS1_i@Base 5.0.2
 _ZN5QTest5qSkipEPKcS1_i@Base 5.0.2
 _ZN5QTest5qWarnEPKcS1_i@Base 5.0.2
 _ZN5QTest6newRowEPKc@Base 5.0.2
 _ZN5QTest6qSleepEi@Base 5.0.2
 _ZN5QTest7qVerifyEbPKcS1_S1_i@Base 5.0.2
 _ZN5QTest8qCompareERKdS1_PKcS3_S3_i@Base 5.0.2
 _ZN5QTest8qCompareERKfS1_PKcS3_S3_i@Base 5.0.2
 _ZN5QTest8testTagsE@Base 5.0.2
 _ZN5QTest8toStringEPKc@Base 5.0.2
 _ZN5QTest8toStringEPKv@Base 5.0.2
 (optional=templinst)_ZN5QTest8toStringIbEEPcRKT_@Base 5.0.2
 (optional=templinst)_ZN5QTest8toStringIcEEPcRKT_@Base 5.0.2
 (optional=templinst)_ZN5QTest8toStringIdEEPcRKT_@Base 5.0.2
 (optional=templinst)_ZN5QTest8toStringIfEEPcRKT_@Base 5.0.2
 (optional=templinst)_ZN5QTest8toStringIiEEPcRKT_@Base 5.0.2
 (optional=templinst)_ZN5QTest8toStringIjEEPcRKT_@Base 5.0.2
 (optional=templinst)_ZN5QTest8toStringIlEEPcRKT_@Base 5.0.2
 (optional=templinst)_ZN5QTest8toStringImEEPcRKT_@Base 5.0.2
 (optional=templinst)_ZN5QTest8toStringIsEEPcRKT_@Base 5.0.2
 (optional=templinst)_ZN5QTest8toStringItEEPcRKT_@Base 5.0.2
 (optional=templinst)_ZN5QTest8toStringIxEEPcRKT_@Base 5.0.2
 (optional=templinst)_ZN5QTest8toStringIyEEPcRKT_@Base 5.0.2
 _ZN8QTestLog11loggerCountEv@Base 5.0.2 1
 _ZN8QTestLog11stopLoggingEv@Base 5.0.2 1
 _ZN8QTestLog12startLoggingEv@Base 5.0.2 1
 _ZN8QTestLog12verboseLevelEv@Base 5.0.2 1
 _ZN8QTestLog13ignoreMessageE9QtMsgTypePKc@Base 5.0.2 1
 _ZN8QTestLog13ignoreMessageE9QtMsgTypeRK18QRegularExpression@Base 5.3.0 1
 _ZN8QTestLog13resetCountersEv@Base 5.0.2 1
 _ZN8QTestLog14setMaxWarningsEi@Base 5.0.2 1
 _ZN8QTestLog15setVerboseLevelEi@Base 5.0.2 1
 _ZN8QTestLog17enterTestFunctionEPKc@Base 5.0.2 1
 _ZN8QTestLog17leaveTestFunctionEv@Base 5.0.2 1
 _ZN8QTestLog17loggerUsingStdoutEv@Base 5.0.2 1
 _ZN8QTestLog18addBenchmarkResultERK16QBenchmarkResult@Base 5.0.2 1
 _ZN8QTestLog18printAvailableTagsE@Base 5.0.2 1
 _ZN8QTestLog19clearIgnoreMessagesEv@Base 5.0.2 1
 _ZN8QTestLog21installedTestCoverageEv@Base 5.0.2 1
 _ZN8QTestLog23unhandledIgnoreMessagesEv@Base 5.0.2 1
 _ZN8QTestLog24setInstalledTestCoverageEb@Base 5.0.2 1
 _ZN8QTestLog25setPrintAvailableTagsModeEv@Base 5.0.2 1
 _ZN8QTestLog28printUnhandledIgnoreMessagesEv@Base 5.0.2 1
 _ZN8QTestLog4infoEPKcS1_i@Base 5.0.2 1
 _ZN8QTestLog4warnEPKcS1_i@Base 5.0.2 1
 _ZN8QTestLog7addFailEPKcS1_i@Base 5.0.2 1
 _ZN8QTestLog7addPassEPKc@Base 5.0.2 1
 _ZN8QTestLog7addSkipEPKcS1_i@Base 5.0.2 1
 _ZN8QTestLog8addXFailEPKcS1_i@Base 5.0.2 1
 _ZN8QTestLog8addXPassEPKcS1_i@Base 5.0.2 1
 _ZN8QTestLog9addLoggerENS_7LogModeEPKc@Base 5.0.2 1
 _ZN8QTestLog9failCountEv@Base 5.0.2 1
 _ZN8QTestLog9passCountEv@Base 5.0.2 1
 _ZN8QTestLog9skipCountEv@Base 5.0.2 1
 _ZN9QTestData6appendEiPKv@Base 5.0.2
 _ZN9QTestDataC1EPKcP10QTestTable@Base 5.0.2 1
 _ZN9QTestDataC2EPKcP10QTestTable@Base 5.0.2 1
 _ZN9QTestDataD1Ev@Base 5.0.2
 _ZN9QTestDataD2Ev@Base 5.0.2
 _ZNK10QTestTable12elementCountEv@Base 5.0.2 1
 _ZNK10QTestTable13elementTypeIdEi@Base 5.0.2 1
 _ZNK10QTestTable7dataTagEi@Base 5.0.2 1
 _ZNK10QTestTable7indexOfEPKc@Base 5.0.2 1
 _ZNK10QTestTable7isEmptyEv@Base 5.0.2 1
 _ZNK10QTestTable8testDataEi@Base 5.0.2 1
 _ZNK10QTestTable9dataCountEv@Base 5.0.2 1
 _ZNK14QTestEventLoop10metaObjectEv@Base 5.0.2
 _ZNK9QTestData4dataEi@Base 5.0.2
 _ZNK9QTestData6parentEv@Base 5.0.2
 _ZNK9QTestData7dataTagEv@Base 5.0.2
 _ZNK9QTestData9dataCountEv@Base 5.0.2
 (optional=templinst|arch=ia64)_ZSt11__push_heapIN5QListI16QBenchmarkResultE8iteratorExS1_EvT_T0_S5_T1_@Base 5.2.0
 (optional=templinst|arch=ia64)_ZSt13__adjust_heapIN5QListI16QBenchmarkResultE8iteratorExS1_EvT_T0_S5_T1_@Base 5.2.0
 _ZTI14QTestEventLoop@Base 5.0.2
 _ZTS14QTestEventLoop@Base 5.0.2
 _ZTV14QTestEventLoop@Base 5.0.2
