# SymbolsHelper-Confirmed: 5.3.2 amd64
libQt5Gui.so.5 libqt5gui5 #MINVER#
| libqt5gui5 #MINVER#, qtbase-abi-5-3-2
 _Z11qDrawBorderP8QPainterRK5QRectPKN4QCss11BorderStyleEPKiPK6QBrushPK5QSize@Base 5.0.2
 _Z12qTriangulatePKdijRK10QTransform@Base 5.2.0
 _Z12qTriangulateRK11QVectorPathRK10QTransformd@Base 5.2.0 1
 _Z12qTriangulateRK12QPainterPathRK10QTransformd@Base 5.2.0
 _Z13qt_defaultDpiv@Base 5.0.2
 _Z14qt_defaultDpiXv@Base 5.0.2
 _Z14qt_defaultDpiYv@Base 5.0.2
 _Z14qt_draw_helperP15QPainterPrivateRK12QPainterPathNS_13DrawOperationE@Base 5.0.2
 _Z14qt_memrotate90PK7quint24iiiPS_i@Base 5.0.2
 _Z14qt_memrotate90PKhiiiPhi@Base 5.0.2
 _Z14qt_memrotate90PKjiiiPji@Base 5.0.2
 _Z14qt_memrotate90PKtiiiPti@Base 5.0.2
 _Z15qNormalizeRadiiRK5QRectPK5QSizePS2_S5_S5_S5_@Base 5.0.2
 _Z15qt_memrotate180PK7quint24iiiPS_i@Base 5.0.2
 _Z15qt_memrotate180PKhiiiPhi@Base 5.0.2
 _Z15qt_memrotate180PKjiiiPji@Base 5.0.2
 _Z15qt_memrotate180PKtiiiPti@Base 5.0.2
 _Z15qt_memrotate270PK7quint24iiiPS_i@Base 5.0.2
 _Z15qt_memrotate270PKhiiiPhi@Base 5.0.2
 _Z15qt_memrotate270PKjiiiPji@Base 5.0.2
 _Z15qt_memrotate270PKtiiiPti@Base 5.0.2
 _Z15qt_regionToPathRK7QRegion@Base 5.0.2
 _Z16qt_fusionPalettev@Base 5.1.0
 _Z16qt_imageForBrushib@Base 5.0.2
 _Z17qHasPixmapTextureRK6QBrush@Base 5.0.2
 _Z17qt_convertMarginsRK9QMarginsFN11QPageLayout4UnitES3_@Base 5.3.0
 _Z17qt_handleKeyEventP7QWindowN6QEvent4TypeEi6QFlagsIN2Qt16KeyboardModifierEERK7QStringbt@Base 5.0.2
 _Z17qt_window_privateP7QWindow@Base 5.0.2
 _Z18qt_addBitmapToPathddPKhiiiP12QPainterPath@Base 5.2.0
 _Z18qt_pixelMultiplieri@Base 5.3.0
 _Z18qt_pointMultiplierN11QPageLayout4UnitE@Base 5.3.0
 _Z19qtVectorPathForPathRK12QPainterPath@Base 5.0.2
 _Z19qt_handleMouseEventP7QWindowRK7QPointFS3_6QFlagsIN2Qt11MouseButtonEES4_INS5_16KeyboardModifierEE@Base 5.0.2
 _Z19qt_handleTouchEventP7QWindowP12QTouchDeviceRK5QListIN11QTouchEvent10TouchPointEE6QFlagsIN2Qt16KeyboardModifierEE@Base 5.0.2
 _Z20hb_qt_get_font_funcsv@Base 5.2.0
 _Z20qt_scaleForTransformRK10QTransformPd@Base 5.2.0
 _Z20qt_scrollRectInImageR6QImageRK5QRectRK6QPoint@Base 5.0.2
 _Z21qAccessibleRoleStringN11QAccessible4RoleE@Base 5.0.2
 _Z22hb_qt_script_to_scriptN5QChar6ScriptE@Base 5.2.0
 _Z22qAccessibleEventStringN11QAccessible5EventE@Base 5.0.2
 _Z22qt_find_ellipse_coordsRK6QRectFddP7QPointFS3_@Base 5.2.0
 _Z22qt_fontdata_from_indexi@Base 5.0.2
 _Z22qt_gl_read_framebufferRK5QSizebb@Base 5.0.2
 _Z22qt_paint_device_metricPK12QPaintDeviceNS_17PaintDeviceMetricE@Base 5.0.2
 _Z23hb_qt_get_unicode_funcsv@Base 5.2.0
 _Z24hb_qt_script_from_script11hb_script_t@Base 5.2.0
 _Z24qt_fontHasNarrowOutlinesP11QFontEngine@Base 5.0.2 1
 _Z24qt_fontHasNarrowOutlinesRK8QRawFont@Base 5.0.2
 _Z24qt_region_strictContainsRK7QRegionRK5QRect@Base 5.0.2
 _Z25hb_qt_face_get_for_engineP11QFontEngine@Base 5.2.0 1
 _Z25hb_qt_font_get_for_engineP11QFontEngine@Base 5.2.0 1
 _Z27qt_isExtendedRadialGradientRK6QBrush@Base 5.0.2
 _Z28qt_painterPathFromVectorPathRK11QVectorPath@Base 5.0.2 1
 _Z28qt_script_for_writing_systemN13QFontDatabase13WritingSystemE@Base 5.3.0
 _Z29qt_draw_decoration_for_glyphsP8QPainterPKjPK11QFixedPointiP11QFontEngineRK5QFontRK15QTextCharFormat@Base 5.0.2 1
 _Z29qt_set_sequence_auto_mnemonicb@Base 5.0.2
 _Z32qGamma_correct_back_to_linear_csP6QImage@Base 5.0.2
 (optional=gccinternal|arch=amd64 kfreebsd-amd64 powerpcspe x32)_Z32qt_convert_rgb888_to_rgb32_ssse3PjPKhi@Base 5.0.2
 _Z33hb_qt_font_get_use_design_metricsP9hb_font_t@Base 5.2.0
 _Z33hb_qt_font_set_use_design_metricsP9hb_font_tj@Base 5.2.0
 _Z5qHashRK5QFontj@Base 5.3.0
 _Z5qHashRKN22QGuiApplicationPrivate20ActiveTouchPointsKeyE@Base 5.0.2 1
 _Z9qPolylineRK12QPainterPathRK10QTransformd@Base 5.2.0
 _ZN10QBasicDrag11eventFilterEP7QObjectP6QEvent@Base 5.1.0 1
 _ZN10QBasicDrag12updateCursorEN2Qt10DropActionE@Base 5.1.0 1
 _ZN10QBasicDrag13restoreCursorEv@Base 5.1.0 1
 _ZN10QBasicDrag16exitDndEventLoopEv@Base 5.1.0 1
 _ZN10QBasicDrag17enableEventFilterEv@Base 5.1.0 1
 _ZN10QBasicDrag18disableEventFilterEv@Base 5.1.0 1
 _ZN10QBasicDrag4dragEP5QDrag@Base 5.1.0 1
 _ZN10QBasicDrag4dropEPK11QMouseEvent@Base 5.1.0 1
 _ZN10QBasicDrag4moveEPK11QMouseEvent@Base 5.1.0 1
 _ZN10QBasicDrag6cancelEv@Base 5.1.0 1
 _ZN10QBasicDrag7endDragEv@Base 5.1.0 1
 _ZN10QBasicDrag9startDragEv@Base 5.1.0 1
 _ZN10QBasicDragC1Ev@Base 5.1.0 1
 _ZN10QBasicDragC2Ev@Base 5.1.0 1
 _ZN10QBasicDragD0Ev@Base 5.1.0 1
 _ZN10QBasicDragD1Ev@Base 5.1.0 1
 _ZN10QBasicDragD2Ev@Base 5.1.0 1
 _ZN10QBlittable4lockEv@Base 5.0.2 1
 _ZN10QBlittable6unlockEv@Base 5.0.2 1
 _ZN10QBlittableC1ERK5QSize6QFlagsINS_10CapabilityEE@Base 5.0.2 1
 _ZN10QBlittableC2ERK5QSize6QFlagsINS_10CapabilityEE@Base 5.0.2 1
 _ZN10QBlittableD0Ev@Base 5.0.2 1
 _ZN10QBlittableD1Ev@Base 5.0.2 1
 _ZN10QBlittableD2Ev@Base 5.0.2 1
 _ZN10QClipboard11dataChangedEv@Base 5.0.2
 _ZN10QClipboard11emitChangedENS_4ModeE@Base 5.0.2
 _ZN10QClipboard11qt_metacallEN11QMetaObject4CallEiPPv@Base 5.0.2
 _ZN10QClipboard11qt_metacastEPKc@Base 5.0.2
 _ZN10QClipboard11setMimeDataEP9QMimeDataNS_4ModeE@Base 5.0.2
 _ZN10QClipboard16selectionChangedEv@Base 5.0.2
 _ZN10QClipboard16staticMetaObjectE@Base 5.0.2
 _ZN10QClipboard17findBufferChangedEv@Base 5.0.2
 _ZN10QClipboard5clearENS_4ModeE@Base 5.0.2
 _ZN10QClipboard7changedENS_4ModeE@Base 5.0.2
 _ZN10QClipboard7setTextERK7QStringNS_4ModeE@Base 5.0.2
 _ZN10QClipboard8setImageERK6QImageNS_4ModeE@Base 5.0.2
 _ZN10QClipboard9setPixmapERK7QPixmapNS_4ModeE@Base 5.0.2
 _ZN10QClipboardC1EP7QObject@Base 5.0.2
 _ZN10QClipboardC2EP7QObject@Base 5.0.2
 _ZN10QClipboardD0Ev@Base 5.0.2
 _ZN10QClipboardD1Ev@Base 5.0.2
 _ZN10QClipboardD2Ev@Base 5.0.2
 _ZN10QDropEvent13setDropActionEN2Qt10DropActionE@Base 5.0.2
 _ZN10QDropEventC1ERK7QPointF6QFlagsIN2Qt10DropActionEEPK9QMimeDataS3_INS4_11MouseButtonEES3_INS4_16KeyboardModifierEEN6QEvent4TypeE@Base 5.0.2
 _ZN10QDropEventC2ERK7QPointF6QFlagsIN2Qt10DropActionEEPK9QMimeDataS3_INS4_11MouseButtonEES3_INS4_16KeyboardModifierEEN6QEvent4TypeE@Base 5.0.2
 _ZN10QDropEventD0Ev@Base 5.0.2
 _ZN10QDropEventD1Ev@Base 5.0.2
 _ZN10QDropEventD2Ev@Base 5.0.2
 _ZN10QHelpEventC1EN6QEvent4TypeERK6QPointS4_@Base 5.0.2
 _ZN10QHelpEventC2EN6QEvent4TypeERK6QPointS4_@Base 5.0.2
 _ZN10QHelpEventD0Ev@Base 5.0.2
 _ZN10QHelpEventD1Ev@Base 5.0.2
 _ZN10QHelpEventD2Ev@Base 5.0.2
 _ZN10QHideEventC1Ev@Base 5.0.2
 _ZN10QHideEventC2Ev@Base 5.0.2
 _ZN10QHideEventD0Ev@Base 5.0.2
 _ZN10QHideEventD1Ev@Base 5.0.2
 _ZN10QHideEventD2Ev@Base 5.0.2
 _ZN10QImageData14convertInPlaceEN6QImage6FormatE6QFlagsIN2Qt19ImageConversionFlagEE@Base 5.0.2
 _ZN10QImageData6createEPhiiiN6QImage6FormatEbPFvPvES3_@Base 5.0.2
 _ZN10QImageData6createERK5QSizeN6QImage6FormatEi@Base 5.0.2
 _ZN10QImageDataC1Ev@Base 5.0.2
 _ZN10QImageDataC2Ev@Base 5.0.2
 _ZN10QImageDataD1Ev@Base 5.0.2
 _ZN10QImageDataD2Ev@Base 5.0.2
 _ZN10QKeyMapper11qt_metacallEN11QMetaObject4CallEiPPv@Base 5.0.2 1
 _ZN10QKeyMapper11qt_metacastEPKc@Base 5.0.2 1
 _ZN10QKeyMapper12possibleKeysEP9QKeyEvent@Base 5.0.2 1
 _ZN10QKeyMapper14changeKeyboardEv@Base 5.0.2 1
 _ZN10QKeyMapper16staticMetaObjectE@Base 5.0.2 1
 _ZN10QKeyMapper8instanceEv@Base 5.0.2 1
 _ZN10QKeyMapperC1Ev@Base 5.0.2 1
 _ZN10QKeyMapperC2Ev@Base 5.0.2 1
 _ZN10QKeyMapperD0Ev@Base 5.0.2 1
 _ZN10QKeyMapperD1Ev@Base 5.0.2 1
 _ZN10QKeyMapperD2Ev@Base 5.0.2 1
 _ZN10QMatrix4x411perspectiveEffff@Base 5.0.2
 _ZN10QMatrix4x415flipCoordinatesEv@Base 5.0.2
 _ZN10QMatrix4x415projectedRotateEffff@Base 5.0.2
 _ZN10QMatrix4x45orthoERK5QRect@Base 5.0.2
 _ZN10QMatrix4x45orthoERK6QRectF@Base 5.0.2
 _ZN10QMatrix4x45orthoEffffff@Base 5.0.2
 _ZN10QMatrix4x45scaleERK9QVector3D@Base 5.0.2
 _ZN10QMatrix4x45scaleEf@Base 5.0.2
 _ZN10QMatrix4x45scaleEff@Base 5.0.2
 _ZN10QMatrix4x45scaleEfff@Base 5.0.2
 _ZN10QMatrix4x46lookAtERK9QVector3DS2_S2_@Base 5.0.2
 _ZN10QMatrix4x46rotateERK11QQuaternion@Base 5.0.2
 _ZN10QMatrix4x46rotateEfRK9QVector3D@Base 5.0.2
 _ZN10QMatrix4x46rotateEffff@Base 5.0.2
 _ZN10QMatrix4x47frustumEffffff@Base 5.0.2
 _ZN10QMatrix4x48optimizeEv@Base 5.0.2
 _ZN10QMatrix4x49translateERK9QVector3D@Base 5.0.2
 _ZN10QMatrix4x49translateEff@Base 5.0.2
 _ZN10QMatrix4x49translateEfff@Base 5.0.2
 _ZN10QMatrix4x4C1EPKf@Base 5.0.2
 _ZN10QMatrix4x4C1EPKfii@Base 5.0.2
 _ZN10QMatrix4x4C1ERK10QTransform@Base 5.0.2
 _ZN10QMatrix4x4C1ERK7QMatrix@Base 5.0.2
 _ZN10QMatrix4x4C2EPKf@Base 5.0.2
 _ZN10QMatrix4x4C2EPKfii@Base 5.0.2
 _ZN10QMatrix4x4C2ERK10QTransform@Base 5.0.2
 _ZN10QMatrix4x4C2ERK7QMatrix@Base 5.0.2
 _ZN10QMatrix4x4dVEf@Base 5.0.2
 _ZN10QMoveEventC1ERK6QPointS2_@Base 5.0.2
 _ZN10QMoveEventC2ERK6QPointS2_@Base 5.0.2
 _ZN10QMoveEventD0Ev@Base 5.0.2
 _ZN10QMoveEventD1Ev@Base 5.0.2
 _ZN10QMoveEventD2Ev@Base 5.0.2
 _ZN10QPdfEngine10drawPixmapERK6QRectFRK7QPixmapS2_@Base 5.0.2 1
 _ZN10QPdfEngine10drawPointsEPK7QPointFi@Base 5.0.2 1
 _ZN10QPdfEngine11drawPolygonEPK7QPointFiN12QPaintEngine15PolygonDrawModeE@Base 5.0.2 1
 _ZN10QPdfEngine11setPageSizeERK9QPageSize@Base 5.3.0 1
 _ZN10QPdfEngine11updateStateERK17QPaintEngineState@Base 5.0.2 1
 _ZN10QPdfEngine12drawTextItemERK7QPointFRK9QTextItem@Base 5.0.2 1
 _ZN10QPdfEngine13setPageLayoutERK11QPageLayout@Base 5.3.0 1
 _ZN10QPdfEngine13setResolutionEi@Base 5.3.0 1
 _ZN10QPdfEngine14setPageMarginsERK9QMarginsFN11QPageLayout4UnitE@Base 5.3.0 1
 _ZN10QPdfEngine14updateClipPathERK12QPainterPathN2Qt13ClipOperationE@Base 5.0.2 1
 _ZN10QPdfEngine15drawTiledPixmapERK6QRectFRK7QPixmapRK7QPointF@Base 5.0.2 1
 _ZN10QPdfEngine17setOutputFilenameERK7QString@Base 5.0.2 1
 _ZN10QPdfEngine18setPageOrientationEN11QPageLayout11OrientationE@Base 5.3.0 1
 _ZN10QPdfEngine18setupGraphicsStateE6QFlagsIN12QPaintEngine9DirtyFlagEE@Base 5.0.2 1
 _ZN10QPdfEngine3endEv@Base 5.0.2 1
 _ZN10QPdfEngine5beginEP12QPaintDevice@Base 5.0.2 1
 _ZN10QPdfEngine6setPenEv@Base 5.0.2 1
 _ZN10QPdfEngine7newPageEv@Base 5.0.2 1
 _ZN10QPdfEngine8drawPathERK12QPainterPath@Base 5.0.2 1
 _ZN10QPdfEngine8setBrushEv@Base 5.0.2 1
 _ZN10QPdfEngine9drawImageERK6QRectFRK6QImageS2_6QFlagsIN2Qt19ImageConversionFlagEE@Base 5.0.2 1
 _ZN10QPdfEngine9drawLinesEPK6QLineFi@Base 5.0.2 1
 _ZN10QPdfEngine9drawRectsEPK6QRectFi@Base 5.0.2 1
 _ZN10QPdfEngineC1ER17QPdfEnginePrivate@Base 5.0.2 1
 _ZN10QPdfEngineC1Ev@Base 5.0.2 1
 _ZN10QPdfEngineC2ER17QPdfEnginePrivate@Base 5.0.2 1
 _ZN10QPdfEngineC2Ev@Base 5.0.2 1
 _ZN10QPdfWriter10setCreatorERK7QString@Base 5.0.2
 _ZN10QPdfWriter10setMarginsERKN17QPagedPaintDevice7MarginsE@Base 5.0.2
 _ZN10QPdfWriter11qt_metacallEN11QMetaObject4CallEiPPv@Base 5.0.2
 _ZN10QPdfWriter11qt_metacastEPKc@Base 5.0.2
 _ZN10QPdfWriter11setPageSizeEN17QPagedPaintDevice8PageSizeE@Base 5.0.2
 _ZN10QPdfWriter13setPageSizeMMERK6QSizeF@Base 5.0.2
 _ZN10QPdfWriter13setResolutionEi@Base 5.3.0
 _ZN10QPdfWriter16staticMetaObjectE@Base 5.0.2
 _ZN10QPdfWriter7newPageEv@Base 5.0.2
 _ZN10QPdfWriter8setTitleERK7QString@Base 5.0.2
 _ZN10QPdfWriterC1EP9QIODevice@Base 5.0.2
 _ZN10QPdfWriterC1ERK7QString@Base 5.0.2
 _ZN10QPdfWriterC2EP9QIODevice@Base 5.0.2
 _ZN10QPdfWriterC2ERK7QString@Base 5.0.2
 _ZN10QPdfWriterD0Ev@Base 5.0.2
 _ZN10QPdfWriterD1Ev@Base 5.0.2
 _ZN10QPdfWriterD2Ev@Base 5.0.2
 _ZN10QPictureIO10setPictureERK8QPicture@Base 5.0.2
 _ZN10QPictureIO10setQualityEi@Base 5.0.2
 _ZN10QPictureIO11setFileNameERK7QString@Base 5.0.2
 _ZN10QPictureIO11setIODeviceEP9QIODevice@Base 5.0.2
 _ZN10QPictureIO12inputFormatsEv@Base 5.0.2
 _ZN10QPictureIO13outputFormatsEv@Base 5.0.2
 _ZN10QPictureIO13pictureFormatEP9QIODevice@Base 5.0.2
 _ZN10QPictureIO13pictureFormatERK7QString@Base 5.0.2
 _ZN10QPictureIO13setParametersEPKc@Base 5.0.2
 _ZN10QPictureIO14setDescriptionERK7QString@Base 5.0.2
 _ZN10QPictureIO15defineIOHandlerEPKcS1_S1_PFvPS_ES4_@Base 5.0.2
 _ZN10QPictureIO4initEv@Base 5.0.2
 _ZN10QPictureIO4readEv@Base 5.0.2
 _ZN10QPictureIO5writeEv@Base 5.0.2
 _ZN10QPictureIO8setGammaEf@Base 5.0.2
 _ZN10QPictureIO9setFormatEPKc@Base 5.0.2
 _ZN10QPictureIO9setStatusEi@Base 5.0.2
 _ZN10QPictureIOC1EP9QIODevicePKc@Base 5.0.2
 _ZN10QPictureIOC1ERK7QStringPKc@Base 5.0.2
 _ZN10QPictureIOC1Ev@Base 5.0.2
 _ZN10QPictureIOC2EP9QIODevicePKc@Base 5.0.2
 _ZN10QPictureIOC2ERK7QStringPKc@Base 5.0.2
 _ZN10QPictureIOC2Ev@Base 5.0.2
 _ZN10QPictureIOD1Ev@Base 5.0.2
 _ZN10QPictureIOD2Ev@Base 5.0.2
 _ZN10QShowEventC1Ev@Base 5.0.2
 _ZN10QShowEventC2Ev@Base 5.0.2
 _ZN10QShowEventD0Ev@Base 5.0.2
 _ZN10QShowEventD1Ev@Base 5.0.2
 _ZN10QShowEventD2Ev@Base 5.0.2
 _ZN10QTextBlock10setVisibleEb@Base 5.0.2
 _ZN10QTextBlock11clearLayoutEv@Base 5.0.2
 _ZN10QTextBlock11setRevisionEi@Base 5.0.2
 _ZN10QTextBlock11setUserDataEP18QTextBlockUserData@Base 5.0.2
 _ZN10QTextBlock12setLineCountEi@Base 5.0.2
 _ZN10QTextBlock12setUserStateEi@Base 5.0.2
 _ZN10QTextBlock8iteratormmEv@Base 5.0.2
 _ZN10QTextBlock8iteratorppEv@Base 5.0.2
 _ZN10QTextFrame11qt_metacallEN11QMetaObject4CallEiPPv@Base 5.0.2
 _ZN10QTextFrame11qt_metacastEPKc@Base 5.0.2
 _ZN10QTextFrame13setLayoutDataEP20QTextFrameLayoutData@Base 5.0.2
 _ZN10QTextFrame16staticMetaObjectE@Base 5.0.2
 _ZN10QTextFrame8iteratorC1EPS_iii@Base 5.0.2
 _ZN10QTextFrame8iteratorC1ERKS0_@Base 5.0.2
 _ZN10QTextFrame8iteratorC1Ev@Base 5.0.2
 _ZN10QTextFrame8iteratorC2EPS_iii@Base 5.0.2
 _ZN10QTextFrame8iteratorC2ERKS0_@Base 5.0.2
 _ZN10QTextFrame8iteratorC2Ev@Base 5.0.2
 _ZN10QTextFrame8iteratoraSERKS0_@Base 5.0.2
 _ZN10QTextFrame8iteratormmEv@Base 5.0.2
 _ZN10QTextFrame8iteratorppEv@Base 5.0.2
 _ZN10QTextFrameC1EP13QTextDocument@Base 5.0.2
 _ZN10QTextFrameC1ER17QTextFramePrivateP13QTextDocument@Base 5.0.2
 _ZN10QTextFrameC2EP13QTextDocument@Base 5.0.2
 _ZN10QTextFrameC2ER17QTextFramePrivateP13QTextDocument@Base 5.0.2
 _ZN10QTextFrameD0Ev@Base 5.0.2
 _ZN10QTextFrameD1Ev@Base 5.0.2
 _ZN10QTextFrameD2Ev@Base 5.0.2
 _ZN10QTextTable10appendRowsEi@Base 5.0.2
 _ZN10QTextTable10insertRowsEii@Base 5.0.2
 _ZN10QTextTable10mergeCellsERK11QTextCursor@Base 5.0.2
 _ZN10QTextTable10mergeCellsEiiii@Base 5.0.2
 _ZN10QTextTable10removeRowsEii@Base 5.0.2
 _ZN10QTextTable11qt_metacallEN11QMetaObject4CallEiPPv@Base 5.0.2
 _ZN10QTextTable11qt_metacastEPKc@Base 5.0.2
 _ZN10QTextTable13appendColumnsEi@Base 5.0.2
 _ZN10QTextTable13insertColumnsEii@Base 5.0.2
 _ZN10QTextTable13removeColumnsEii@Base 5.0.2
 _ZN10QTextTable16staticMetaObjectE@Base 5.0.2
 _ZN10QTextTable6resizeEii@Base 5.0.2
 _ZN10QTextTable9setFormatERK16QTextTableFormat@Base 5.0.2
 _ZN10QTextTable9splitCellEiiii@Base 5.0.2
 _ZN10QTextTableC1EP13QTextDocument@Base 5.0.2
 _ZN10QTextTableC2EP13QTextDocument@Base 5.0.2
 _ZN10QTextTableD0Ev@Base 5.0.2
 _ZN10QTextTableD1Ev@Base 5.0.2
 _ZN10QTextTableD2Ev@Base 5.0.2
 _ZN10QTransform10quadToQuadERK9QPolygonFS2_RS_@Base 5.0.2
 _ZN10QTransform12quadToSquareERK9QPolygonFRS_@Base 5.0.2
 _ZN10QTransform12squareToQuadERK9QPolygonFRS_@Base 5.0.2
 _ZN10QTransform13fromTranslateEdd@Base 5.2.0
 _ZN10QTransform13rotateRadiansEdN2Qt4AxisE@Base 5.2.0
 _ZN10QTransform5resetEv@Base 5.0.2
 _ZN10QTransform5scaleEdd@Base 5.2.0
 _ZN10QTransform5shearEdd@Base 5.2.0
 _ZN10QTransform6rotateEdN2Qt4AxisE@Base 5.2.0
 _ZN10QTransform9fromScaleEdd@Base 5.2.0
 _ZN10QTransform9setMatrixEddddddddd@Base 5.2.0
 _ZN10QTransform9translateEdd@Base 5.2.0
 _ZN10QTransformC1ERK7QMatrix@Base 5.0.2
 _ZN10QTransformC1Edddddd@Base 5.2.0
 _ZN10QTransformC1Eddddddddd@Base 5.2.0
 _ZN10QTransformC1Ev@Base 5.0.2
 _ZN10QTransformC2ERK7QMatrix@Base 5.0.2
 _ZN10QTransformC2Edddddd@Base 5.2.0
 _ZN10QTransformC2Eddddddddd@Base 5.2.0
 _ZN10QTransformC2Ev@Base 5.0.2
 _ZN10QTransformaSERKS_@Base 5.0.2
 _ZN10QTransformmLERKS_@Base 5.0.2
 _ZN10QValidator11qt_metacallEN11QMetaObject4CallEiPPv@Base 5.0.2
 _ZN10QValidator11qt_metacastEPKc@Base 5.0.2
 _ZN10QValidator16staticMetaObjectE@Base 5.0.2
 _ZN10QValidator7changedEv@Base 5.0.2
 _ZN10QValidator9setLocaleERK7QLocale@Base 5.0.2
 _ZN10QValidatorC1EP7QObject@Base 5.0.2
 _ZN10QValidatorC1ER14QObjectPrivateP7QObject@Base 5.0.2 1
 _ZN10QValidatorC1ER17QValidatorPrivateP7QObject@Base 5.0.2
 _ZN10QValidatorC2EP7QObject@Base 5.0.2
 _ZN10QValidatorC2ER14QObjectPrivateP7QObject@Base 5.0.2 1
 _ZN10QValidatorC2ER17QValidatorPrivateP7QObject@Base 5.0.2
 _ZN10QValidatorD0Ev@Base 5.0.2
 _ZN10QValidatorD1Ev@Base 5.0.2
 _ZN10QValidatorD2Ev@Base 5.0.2
 _ZN10QZipReader5closeEv@Base 5.0.2 1
 _ZN10QZipReader8FileInfoC1ERKS0_@Base 5.0.2 1
 _ZN10QZipReader8FileInfoC1Ev@Base 5.0.2 1
 _ZN10QZipReader8FileInfoC2ERKS0_@Base 5.0.2 1
 _ZN10QZipReader8FileInfoC2Ev@Base 5.0.2 1
 _ZN10QZipReader8FileInfoD1Ev@Base 5.0.2 1
 _ZN10QZipReader8FileInfoD2Ev@Base 5.0.2 1
 _ZN10QZipReader8FileInfoaSERKS0_@Base 5.0.2 1
 _ZN10QZipReaderC1EP9QIODevice@Base 5.0.2 1
 _ZN10QZipReaderC1ERK7QString6QFlagsIN9QIODevice12OpenModeFlagEE@Base 5.0.2 1
 _ZN10QZipReaderC2EP9QIODevice@Base 5.0.2 1
 _ZN10QZipReaderC2ERK7QString6QFlagsIN9QIODevice12OpenModeFlagEE@Base 5.0.2 1
 _ZN10QZipReaderD1Ev@Base 5.0.2 1
 _ZN10QZipReaderD2Ev@Base 5.0.2 1
 _ZN10QZipWriter10addSymLinkERK7QStringS2_@Base 5.0.2 1
 _ZN10QZipWriter12addDirectoryERK7QString@Base 5.0.2 1
 _ZN10QZipWriter20setCompressionPolicyENS_17CompressionPolicyE@Base 5.0.2 1
 _ZN10QZipWriter22setCreationPermissionsE6QFlagsIN11QFileDevice10PermissionEE@Base 5.0.2 1
 _ZN10QZipWriter5closeEv@Base 5.0.2 1
 _ZN10QZipWriter7addFileERK7QStringP9QIODevice@Base 5.0.2 1
 _ZN10QZipWriter7addFileERK7QStringRK10QByteArray@Base 5.0.2 1
 _ZN10QZipWriterC1EP9QIODevice@Base 5.0.2 1
 _ZN10QZipWriterC1ERK7QString6QFlagsIN9QIODevice12OpenModeFlagEE@Base 5.0.2 1
 _ZN10QZipWriterC2EP9QIODevice@Base 5.0.2 1
 _ZN10QZipWriterC2ERK7QString6QFlagsIN9QIODevice12OpenModeFlagEE@Base 5.0.2 1
 _ZN10QZipWriterD1Ev@Base 5.0.2 1
 _ZN10QZipWriterD2Ev@Base 5.0.2 1
 _ZN11QAccessible13removeFactoryEPFP20QAccessibleInterfaceRK7QStringP7QObjectE@Base 5.0.2
 _ZN11QAccessible13setRootObjectEP7QObject@Base 5.0.2
 _ZN11QAccessible13updateHandlerE@Base 5.0.2
 _ZN11QAccessible14installFactoryEPFP20QAccessibleInterfaceRK7QStringP7QObjectE@Base 5.0.2
 _ZN11QAccessible16staticMetaObjectE@Base 5.0.2
 _ZN11QAccessible17rootObjectHandlerE@Base 5.0.2
 _ZN11QAccessible19accessibleInterfaceEj@Base 5.1.0
 _ZN11QAccessible19updateAccessibilityEP16QAccessibleEvent@Base 5.0.2
 _ZN11QAccessible20installUpdateHandlerEPFvP16QAccessibleEventE@Base 5.0.2
 _ZN11QAccessible24installRootObjectHandlerEPFvP7QObjectE@Base 5.0.2
 _ZN11QAccessible24queryAccessibleInterfaceEP7QObject@Base 5.0.2
 _ZN11QAccessible25deleteAccessibleInterfaceEj@Base 5.1.0
 _ZN11QAccessible27registerAccessibleInterfaceEP20QAccessibleInterface@Base 5.1.0
 _ZN11QAccessible29qAccessibleTextBoundaryHelperERK11QTextCursorNS_16TextBoundaryTypeE@Base 5.1.0
 _ZN11QAccessible7cleanupEv@Base 5.0.2
 _ZN11QAccessible8isActiveEv@Base 5.0.2
 _ZN11QAccessible8uniqueIdEP20QAccessibleInterface@Base 5.1.0
 _ZN11QCloseEventC1Ev@Base 5.0.2
 _ZN11QCloseEventC2Ev@Base 5.0.2
 _ZN11QCloseEventD0Ev@Base 5.0.2
 _ZN11QCloseEventD1Ev@Base 5.0.2
 _ZN11QCloseEventD2Ev@Base 5.0.2
 _ZN11QEnterEventC1ERK7QPointFS2_S2_@Base 5.0.2
 _ZN11QEnterEventC2ERK7QPointFS2_S2_@Base 5.0.2
 _ZN11QEnterEventD0Ev@Base 5.0.2
 _ZN11QEnterEventD1Ev@Base 5.0.2
 _ZN11QEnterEventD2Ev@Base 5.0.2
 _ZN11QFocusEventC1EN6QEvent4TypeEN2Qt11FocusReasonE@Base 5.0.2
 _ZN11QFocusEventC2EN6QEvent4TypeEN2Qt11FocusReasonE@Base 5.0.2
 _ZN11QFocusEventD0Ev@Base 5.0.2
 _ZN11QFocusEventD1Ev@Base 5.0.2
 _ZN11QFocusEventD2Ev@Base 5.0.2
 _ZN11QFontEngine11boundingBoxEjRK10QTransform@Base 5.0.2 1
 _ZN11QFontEngine13setGlyphCacheEPKvP21QFontEngineGlyphCache@Base 5.0.2 1
 _ZN11QFontEngine14bitmapForGlyphEj6QFixedRK10QTransform@Base 5.1.0 1
 _ZN11QFontEngine15GlyphCacheEntryC1ERKS0_@Base 5.3.0 1
 _ZN11QFontEngine15GlyphCacheEntryC1Ev@Base 5.3.0 1
 _ZN11QFontEngine15GlyphCacheEntryC2ERKS0_@Base 5.3.0 1
 _ZN11QFontEngine15GlyphCacheEntryC2Ev@Base 5.3.0 1
 _ZN11QFontEngine15GlyphCacheEntryD1Ev@Base 5.3.0 1
 _ZN11QFontEngine15GlyphCacheEntryD2Ev@Base 5.3.0 1
 _ZN11QFontEngine15GlyphCacheEntryaSERKS0_@Base 5.3.0 1
 _ZN11QFontEngine15addGlyphsToPathEPjP11QFixedPointiP12QPainterPath6QFlagsIN9QTextItem10RenderFlagEE@Base 5.0.2 1
 _ZN11QFontEngine15clearGlyphCacheEPKv@Base 5.2.0~beta1 1
 _ZN11QFontEngine16addOutlineToPathEddRK12QGlyphLayoutP12QPainterPath6QFlagsIN9QTextItem10RenderFlagEE@Base 5.2.0 1
 _ZN11QFontEngine16alphaMapForGlyphEj6QFixed@Base 5.0.2 1
 _ZN11QFontEngine16alphaMapForGlyphEj6QFixedRK10QTransform@Base 5.0.2 1
 _ZN11QFontEngine16alphaMapForGlyphEj@Base 5.0.2 1
 _ZN11QFontEngine16alphaMapForGlyphEjRK10QTransform@Base 5.0.2 1
 _ZN11QFontEngine16getGlyphBearingsEjPdS0_@Base 5.2.0 1
 _ZN11QFontEngine16getUnscaledGlyphEjP12QPainterPathP15glyph_metrics_t@Base 5.0.2 1
 _ZN11QFontEngine16lastRightBearingERK12QGlyphLayoutb@Base 5.0.2 1
 _ZN11QFontEngine16loadKerningPairsE6QFixed@Base 5.0.2 1
 _ZN11QFontEngine16tightBoundingBoxERK12QGlyphLayout@Base 5.0.2 1
 _ZN11QFontEngine17getGlyphPositionsERK12QGlyphLayoutRK10QTransform6QFlagsIN9QTextItem10RenderFlagEER15QVarLengthArrayIjLi256EERSA_I11QFixedPointLi256EE@Base 5.0.2 1
 _ZN11QFontEngine17getPointInOutlineEjijP6QFixedS1_Pj@Base 5.1.0 1
 _ZN11QFontEngine19addBitmapFontToPathEddRK12QGlyphLayoutP12QPainterPath6QFlagsIN9QTextItem10RenderFlagEE@Base 5.2.0 1
 _ZN11QFontEngine19alphaRGBMapForGlyphEj6QFixedRK10QTransform@Base 5.0.2 1
 _ZN11QFontEngine20removeGlyphFromCacheEj@Base 5.0.2 1
 _ZN11QFontEngine21getTrueTypeGlyphIndexEPKhj@Base 5.0.2 1
 _ZN11QFontEngine22lockedAlphaMapForGlyphEj6QFixedNS_11GlyphFormatERK10QTransformP6QPoint@Base 5.0.2 1
 _ZN11QFontEngine22unlockAlphaMapForGlyphEv@Base 5.0.2 1
 _ZN11QFontEngine33convertToPostscriptFontFamilyNameERK10QByteArray@Base 5.0.2 1
 _ZN11QFontEngine7getCMapEPKhjPbPi@Base 5.0.2 1
 _ZN11QFontEngineC1ENS_4TypeE@Base 5.3.0 1
 _ZN11QFontEngineC2ENS_4TypeE@Base 5.3.0 1
 _ZN11QFontEngineD0Ev@Base 5.0.2 1
 _ZN11QFontEngineD1Ev@Base 5.0.2 1
 _ZN11QFontEngineD2Ev@Base 5.0.2 1
 _ZN11QHoverEventC1EN6QEvent4TypeERK7QPointFS4_6QFlagsIN2Qt16KeyboardModifierEE@Base 5.0.2
 _ZN11QHoverEventC2EN6QEvent4TypeERK7QPointFS4_6QFlagsIN2Qt16KeyboardModifierEE@Base 5.0.2
 _ZN11QHoverEventD0Ev@Base 5.0.2
 _ZN11QHoverEventD1Ev@Base 5.0.2
 _ZN11QHoverEventD2Ev@Base 5.0.2
 _ZN11QIconEngine10actualSizeERK5QSizeN5QIcon4ModeENS3_5StateE@Base 5.0.2
 _ZN11QIconEngine12virtual_hookEiPv@Base 5.0.2
 _ZN11QIconEngine4readER11QDataStream@Base 5.0.2
 _ZN11QIconEngine6pixmapERK5QSizeN5QIcon4ModeENS3_5StateE@Base 5.0.2
 _ZN11QIconEngine7addFileERK7QStringRK5QSizeN5QIcon4ModeENS6_5StateE@Base 5.0.2
 _ZN11QIconEngine9addPixmapERK7QPixmapN5QIcon4ModeENS3_5StateE@Base 5.0.2
 _ZN11QIconEngineD0Ev@Base 5.0.2
 _ZN11QIconEngineD1Ev@Base 5.0.2
 _ZN11QIconEngineD2Ev@Base 5.0.2
 _ZN11QIconLoader12setThemeNameERK7QString@Base 5.0.2 1
 _ZN11QIconLoader17ensureInitializedEv@Base 5.0.2 1
 _ZN11QIconLoader17updateSystemThemeEv@Base 5.0.2 1
 _ZN11QIconLoader18setThemeSearchPathERK11QStringList@Base 5.0.2 1
 _ZN11QIconLoader8instanceEv@Base 5.0.2 1
 _ZN11QIconLoaderC1Ev@Base 5.0.2 1
 _ZN11QIconLoaderC2Ev@Base 5.0.2 1
 _ZN11QIconLoaderD0Ev@Base 5.0.2 1
 _ZN11QIconLoaderD1Ev@Base 5.0.2 1
 _ZN11QIconLoaderD2Ev@Base 5.0.2 1
 _ZN11QInputEventC1EN6QEvent4TypeE6QFlagsIN2Qt16KeyboardModifierEE@Base 5.0.2
 _ZN11QInputEventC2EN6QEvent4TypeE6QFlagsIN2Qt16KeyboardModifierEE@Base 5.0.2
 _ZN11QInputEventD0Ev@Base 5.0.2
 _ZN11QInputEventD1Ev@Base 5.0.2
 _ZN11QInputEventD2Ev@Base 5.0.2
 _ZN11QMouseEventC1EN6QEvent4TypeERK7QPointFN2Qt11MouseButtonE6QFlagsIS6_ES7_INS5_16KeyboardModifierEE@Base 5.0.2
 _ZN11QMouseEventC1EN6QEvent4TypeERK7QPointFS4_N2Qt11MouseButtonE6QFlagsIS6_ES7_INS5_16KeyboardModifierEE@Base 5.0.2
 _ZN11QMouseEventC1EN6QEvent4TypeERK7QPointFS4_S4_N2Qt11MouseButtonE6QFlagsIS6_ES7_INS5_16KeyboardModifierEE@Base 5.0.2
 _ZN11QMouseEventC2EN6QEvent4TypeERK7QPointFN2Qt11MouseButtonE6QFlagsIS6_ES7_INS5_16KeyboardModifierEE@Base 5.0.2
 _ZN11QMouseEventC2EN6QEvent4TypeERK7QPointFS4_N2Qt11MouseButtonE6QFlagsIS6_ES7_INS5_16KeyboardModifierEE@Base 5.0.2
 _ZN11QMouseEventC2EN6QEvent4TypeERK7QPointFS4_S4_N2Qt11MouseButtonE6QFlagsIS6_ES7_INS5_16KeyboardModifierEE@Base 5.0.2
 _ZN11QMouseEventD0Ev@Base 5.0.2
 _ZN11QMouseEventD1Ev@Base 5.0.2
 _ZN11QMouseEventD2Ev@Base 5.0.2
 _ZN11QPageLayout10setMarginsERK9QMarginsF@Base 5.3.0
 _ZN11QPageLayout11setPageSizeERK9QPageSizeRK9QMarginsF@Base 5.3.0
 _ZN11QPageLayout12setTopMarginEd@Base 5.3.0
 _ZN11QPageLayout13setLeftMarginEd@Base 5.3.0
 _ZN11QPageLayout14setOrientationENS_11OrientationE@Base 5.3.0
 _ZN11QPageLayout14setRightMarginEd@Base 5.3.0
 _ZN11QPageLayout15setBottomMarginEd@Base 5.3.0
 _ZN11QPageLayout17setMinimumMarginsERK9QMarginsF@Base 5.3.0
 _ZN11QPageLayout7setModeENS_4ModeE@Base 5.3.0
 _ZN11QPageLayout8setUnitsENS_4UnitE@Base 5.3.0
 _ZN11QPageLayoutC1ERK9QPageSizeNS_11OrientationERK9QMarginsFNS_4UnitES6_@Base 5.3.0
 _ZN11QPageLayoutC1ERKS_@Base 5.3.0
 _ZN11QPageLayoutC1Ev@Base 5.3.0
 _ZN11QPageLayoutC2ERK9QPageSizeNS_11OrientationERK9QMarginsFNS_4UnitES6_@Base 5.3.0
 _ZN11QPageLayoutC2ERKS_@Base 5.3.0
 _ZN11QPageLayoutC2Ev@Base 5.3.0
 _ZN11QPageLayoutD1Ev@Base 5.3.0
 _ZN11QPageLayoutD2Ev@Base 5.3.0
 _ZN11QPageLayoutaSERKS_@Base 5.3.0
 _ZN11QPaintEventC1ERK5QRect@Base 5.0.2
 _ZN11QPaintEventC1ERK7QRegion@Base 5.0.2
 _ZN11QPaintEventC2ERK5QRect@Base 5.0.2
 _ZN11QPaintEventC2ERK7QRegion@Base 5.0.2
 _ZN11QPaintEventD0Ev@Base 5.0.2
 _ZN11QPaintEventD1Ev@Base 5.0.2
 _ZN11QPaintEventD2Ev@Base 5.0.2
 _ZN11QQuaternion16fromAxisAndAngleERK9QVector3Df@Base 5.0.2
 _ZN11QQuaternion16fromAxisAndAngleEffff@Base 5.0.2
 _ZN11QQuaternion5nlerpERKS_S1_f@Base 5.0.2
 _ZN11QQuaternion5slerpERKS_S1_f@Base 5.0.2
 _ZN11QQuaternion9normalizeEv@Base 5.0.2
 _ZN11QSimpleDrag16platformDropDataEv@Base 5.1.0 1
 _ZN11QSimpleDrag4dropEPK11QMouseEvent@Base 5.1.0 1
 _ZN11QSimpleDrag4moveEPK11QMouseEvent@Base 5.1.0 1
 _ZN11QSimpleDrag6cancelEv@Base 5.1.0 1
 _ZN11QSimpleDrag9startDragEv@Base 5.1.0 1
 _ZN11QSimpleDragC1Ev@Base 5.1.0 1
 _ZN11QSimpleDragC2Ev@Base 5.1.0 1
 _ZN11QSimpleDragD0Ev@Base 5.1.0 1
 _ZN11QSimpleDragD1Ev@Base 5.1.0 1
 _ZN11QSimpleDragD2Ev@Base 5.1.0 1
 _ZN11QStaticText12setTextWidthEd@Base 5.2.0
 _ZN11QStaticText13setTextFormatEN2Qt10TextFormatE@Base 5.0.2
 _ZN11QStaticText13setTextOptionERK11QTextOption@Base 5.0.2
 _ZN11QStaticText18setPerformanceHintENS_15PerformanceHintE@Base 5.0.2
 _ZN11QStaticText6detachEv@Base 5.0.2
 _ZN11QStaticText7prepareERK10QTransformRK5QFont@Base 5.0.2
 _ZN11QStaticText7setTextERK7QString@Base 5.0.2
 _ZN11QStaticTextC1ERK7QString@Base 5.0.2
 _ZN11QStaticTextC1ERKS_@Base 5.0.2
 _ZN11QStaticTextC1Ev@Base 5.0.2
 _ZN11QStaticTextC2ERK7QString@Base 5.0.2
 _ZN11QStaticTextC2ERKS_@Base 5.0.2
 _ZN11QStaticTextC2Ev@Base 5.0.2
 _ZN11QStaticTextD1Ev@Base 5.0.2
 _ZN11QStaticTextD2Ev@Base 5.0.2
 _ZN11QStaticTextaSERKS_@Base 5.0.2
 _ZN11QStrokerOps10strokePathERK12QPainterPathPvRK10QTransform@Base 5.0.2 1
 _ZN11QStrokerOps13strokeEllipseERK6QRectFPvRK10QTransform@Base 5.0.2 1
 _ZN11QStrokerOps13strokePolygonEPK7QPointFibPvRK10QTransform@Base 5.0.2 1
 _ZN11QStrokerOps3endEv@Base 5.0.2 1
 _ZN11QStrokerOps5beginEPv@Base 5.0.2 1
 _ZN11QStrokerOpsC1Ev@Base 5.0.2 1
 _ZN11QStrokerOpsC2Ev@Base 5.0.2 1
 _ZN11QStrokerOpsD0Ev@Base 5.0.2 1
 _ZN11QStrokerOpsD1Ev@Base 5.0.2 1
 _ZN11QStrokerOpsD2Ev@Base 5.0.2 1
 _ZN11QStyleHints11qt_metacallEN11QMetaObject4CallEiPPv@Base 5.0.2
 _ZN11QStyleHints11qt_metacastEPKc@Base 5.0.2
 _ZN11QStyleHints16setStartDragTimeEi@Base 5.3.0
 _ZN11QStyleHints16staticMetaObjectE@Base 5.0.2
 _ZN11QStyleHints18setCursorFlashTimeEi@Base 5.3.0
 _ZN11QStyleHints20setStartDragDistanceEi@Base 5.3.0
 _ZN11QStyleHints24setKeyboardInputIntervalEi@Base 5.3.0
 _ZN11QStyleHints27setMouseDoubleClickIntervalEi@Base 5.3.0
 _ZN11QStyleHintsC1Ev@Base 5.0.2
 _ZN11QStyleHintsC2Ev@Base 5.0.2
 _ZN11QStyleHintsD0Ev@Base 5.0.2
 _ZN11QStyleHintsD1Ev@Base 5.0.2
 _ZN11QStyleHintsD2Ev@Base 5.0.2
 _ZN11QTextCursor10createListEN15QTextListFormat5StyleE@Base 5.0.2
 _ZN11QTextCursor10createListERK15QTextListFormat@Base 5.0.2
 _ZN11QTextCursor10deleteCharEv@Base 5.0.2
 _ZN11QTextCursor10insertHtmlERK7QString@Base 5.0.2
 _ZN11QTextCursor10insertListEN15QTextListFormat5StyleE@Base 5.0.2
 _ZN11QTextCursor10insertListERK15QTextListFormat@Base 5.0.2
 _ZN11QTextCursor10insertTextERK7QString@Base 5.0.2
 _ZN11QTextCursor10insertTextERK7QStringRK15QTextCharFormat@Base 5.0.2
 _ZN11QTextCursor11insertBlockERK16QTextBlockFormat@Base 5.0.2
 _ZN11QTextCursor11insertBlockERK16QTextBlockFormatRK15QTextCharFormat@Base 5.0.2
 _ZN11QTextCursor11insertBlockEv@Base 5.0.2
 _ZN11QTextCursor11insertFrameERK16QTextFrameFormat@Base 5.0.2
 _ZN11QTextCursor11insertImageERK16QTextImageFormat@Base 5.0.2
 _ZN11QTextCursor11insertImageERK16QTextImageFormatN16QTextFrameFormat8PositionE@Base 5.0.2
 _ZN11QTextCursor11insertImageERK6QImageRK7QString@Base 5.0.2
 _ZN11QTextCursor11insertImageERK7QString@Base 5.0.2
 _ZN11QTextCursor11insertTableEii@Base 5.0.2
 _ZN11QTextCursor11insertTableEiiRK16QTextTableFormat@Base 5.0.2
 _ZN11QTextCursor11setPositionEiNS_8MoveModeE@Base 5.0.2
 _ZN11QTextCursor12endEditBlockEv@Base 5.0.2
 _ZN11QTextCursor12movePositionENS_13MoveOperationENS_8MoveModeEi@Base 5.0.2
 _ZN11QTextCursor13setCharFormatERK15QTextCharFormat@Base 5.0.2
 _ZN11QTextCursor14beginEditBlockEv@Base 5.0.2
 _ZN11QTextCursor14clearSelectionEv@Base 5.0.2
 _ZN11QTextCursor14insertFragmentERK21QTextDocumentFragment@Base 5.0.2
 _ZN11QTextCursor14setBlockFormatERK16QTextBlockFormat@Base 5.0.2
 _ZN11QTextCursor15mergeCharFormatERK15QTextCharFormat@Base 5.0.2
 _ZN11QTextCursor16mergeBlockFormatERK16QTextBlockFormat@Base 5.0.2
 _ZN11QTextCursor18deletePreviousCharEv@Base 5.0.2
 _ZN11QTextCursor18removeSelectedTextEv@Base 5.0.2
 _ZN11QTextCursor18setBlockCharFormatERK15QTextCharFormat@Base 5.0.2
 _ZN11QTextCursor19setVisualNavigationEb@Base 5.0.2
 _ZN11QTextCursor20mergeBlockCharFormatERK15QTextCharFormat@Base 5.0.2
 _ZN11QTextCursor20setVerticalMovementXEi@Base 5.0.2
 _ZN11QTextCursor21joinPreviousEditBlockEv@Base 5.0.2
 _ZN11QTextCursor23setKeepPositionOnInsertEb@Base 5.0.2
 _ZN11QTextCursor6selectENS_13SelectionTypeE@Base 5.0.2
 _ZN11QTextCursorC1EP10QTextFrame@Base 5.0.2
 _ZN11QTextCursorC1EP13QTextDocument@Base 5.0.2
 _ZN11QTextCursorC1EP18QTextCursorPrivate@Base 5.0.2 1
 _ZN11QTextCursorC1EP20QTextDocumentPrivatei@Base 5.0.2 1
 _ZN11QTextCursorC1ERK10QTextBlock@Base 5.0.2
 _ZN11QTextCursorC1ERKS_@Base 5.0.2
 _ZN11QTextCursorC1Ev@Base 5.0.2
 _ZN11QTextCursorC2EP10QTextFrame@Base 5.0.2
 _ZN11QTextCursorC2EP13QTextDocument@Base 5.0.2
 _ZN11QTextCursorC2EP18QTextCursorPrivate@Base 5.0.2 1
 _ZN11QTextCursorC2EP20QTextDocumentPrivatei@Base 5.0.2 1
 _ZN11QTextCursorC2ERK10QTextBlock@Base 5.0.2
 _ZN11QTextCursorC2ERKS_@Base 5.0.2
 _ZN11QTextCursorC2Ev@Base 5.0.2
 _ZN11QTextCursorD1Ev@Base 5.0.2
 _ZN11QTextCursorD2Ev@Base 5.0.2
 _ZN11QTextCursoraSERKS_@Base 5.0.2
 _ZN11QTextEngine10LayoutData10reallocateEi@Base 5.0.2 1
 _ZN11QTextEngine10LayoutDataC1ERK7QStringPPvi@Base 5.0.2 1
 _ZN11QTextEngine10LayoutDataC1Ev@Base 5.0.2 1
 _ZN11QTextEngine10LayoutDataC2ERK7QStringPPvi@Base 5.0.2 1
 _ZN11QTextEngine10LayoutDataC2Ev@Base 5.0.2 1
 _ZN11QTextEngine10LayoutDataD1Ev@Base 5.0.2 1
 _ZN11QTextEngine10LayoutDataD2Ev@Base 5.0.2 1
 _ZN11QTextEngine10freeMemoryEv@Base 5.0.2 1
 _ZN11QTextEngine10invalidateEv@Base 5.0.2 1
 _ZN11QTextEngine11addOverlineEP8QPainterRK6QLineF@Base 5.0.2 1
 _ZN11QTextEngine11bidiReorderEiPKhPi@Base 5.0.2 1
 _ZN11QTextEngine12addStrikeOutEP8QPainterRK6QLineF@Base 5.0.2 1
 _ZN11QTextEngine12addUnderlineEP8QPainterRK6QLineF@Base 5.0.2 1
 _ZN11QTextEngine13clearLineDataEv@Base 5.0.2 1
 _ZN11QTextEngine14setPreeditAreaEiRK7QString@Base 5.1.0 1
 _ZN11QTextEngine15FontEngineCacheC1Ev@Base 5.0.2 1
 _ZN11QTextEngine15FontEngineCacheC2Ev@Base 5.0.2 1
 _ZN11QTextEngine15beginningOfLineEi@Base 5.0.2 1
 _ZN11QTextEngine15drawDecorationsEP8QPainter@Base 5.0.2 1
 _ZN11QTextEngine16adjustUnderlinesEN5QListINS_14ItemDecorationEE8iteratorES3_dd@Base 5.2.0 1
 _ZN11QTextEngine16adjustUnderlinesEv@Base 5.0.2 1
 _ZN11QTextEngine16clearDecorationsEv@Base 5.0.2 1
 _ZN11QTextEngine16getClusterLengthEPtPK15QCharAttributesiiiPi@Base 5.0.2 1
 _ZN11QTextEngine16offsetInLigatureEPK11QScriptItemiii@Base 5.0.2 1
 _ZN11QTextEngine17addItemDecorationEP8QPainterRK6QLineFP5QListINS_14ItemDecorationEE@Base 5.0.2 1
 _ZN11QTextEngine17leadingSpaceWidthERK11QScriptLine@Base 5.0.2 1
 _ZN11QTextEngine18positionInLigatureEPK11QScriptItemi6QFixedS3_ib@Base 5.0.2 1
 _ZN11QTextEngine20resetFontEngineCacheEv@Base 5.0.2 1
 _ZN11QTextEngine20setAdditionalFormatsERK5QListIN11QTextLayout11FormatRangeEE@Base 5.1.0 1
 _ZN11QTextEngine22drawItemDecorationListEP8QPainterRK5QListINS_14ItemDecorationEE@Base 5.0.2 1
 _ZN11QTextEngine22indexAdditionalFormatsEv@Base 5.0.2 1
 _ZN11QTextEngine22insertionPointsForLineEiR7QVectorIiE@Base 5.0.2 1
 _ZN11QTextEngine25lineNumberForTextPositionEi@Base 5.0.2 1
 _ZN11QTextEngine27positionAfterVisualMovementEiN11QTextCursor13MoveOperationE@Base 5.0.2 1
 _ZN11QTextEngine4initEPS_@Base 5.1.0 1
 _ZN11QTextEngine7justifyERK11QScriptLine@Base 5.0.2 1
 _ZN11QTextEngine9alignLineERK11QScriptLine@Base 5.0.2 1
 _ZN11QTextEngine9endOfLineEi@Base 5.0.2 1
 _ZN11QTextEngine9shapeLineERK11QScriptLine@Base 5.0.2 1
 _ZN11QTextEngineC1ERK7QStringRK5QFont@Base 5.0.2 1
 _ZN11QTextEngineC1Ev@Base 5.0.2 1
 _ZN11QTextEngineC2ERK7QStringRK5QFont@Base 5.0.2 1
 _ZN11QTextEngineC2Ev@Base 5.0.2 1
 _ZN11QTextEngineD1Ev@Base 5.0.2 1
 _ZN11QTextEngineD2Ev@Base 5.0.2 1
 _ZN11QTextFormat11setPropertyEiRK7QVectorI11QTextLengthE@Base 5.0.2
 _ZN11QTextFormat11setPropertyEiRK8QVariant@Base 5.0.2
 _ZN11QTextFormat13clearPropertyEi@Base 5.0.2
 _ZN11QTextFormat14setObjectIndexEi@Base 5.0.2
 _ZN11QTextFormat16staticMetaObjectE@Base 5.0.2
 _ZN11QTextFormat5mergeERKS_@Base 5.0.2
 _ZN11QTextFormatC1ERKS_@Base 5.0.2
 _ZN11QTextFormatC1Ei@Base 5.0.2
 _ZN11QTextFormatC1Ev@Base 5.0.2
 _ZN11QTextFormatC2ERKS_@Base 5.0.2
 _ZN11QTextFormatC2Ei@Base 5.0.2
 _ZN11QTextFormatC2Ev@Base 5.0.2
 _ZN11QTextFormatD1Ev@Base 5.0.2
 _ZN11QTextFormatD2Ev@Base 5.0.2
 _ZN11QTextFormataSERKS_@Base 5.0.2
 _ZN11QTextLayout10createLineEv@Base 5.0.2
 _ZN11QTextLayout10setRawFontERK8QRawFont@Base 5.0.2
 _ZN11QTextLayout11beginLayoutEv@Base 5.0.2
 _ZN11QTextLayout11clearLayoutEv@Base 5.0.2
 _ZN11QTextLayout11setPositionERK7QPointF@Base 5.0.2
 _ZN11QTextLayout13setTextOptionERK11QTextOption@Base 5.0.2
 _ZN11QTextLayout14setPreeditAreaEiRK7QString@Base 5.0.2
 _ZN11QTextLayout15setCacheEnabledEb@Base 5.0.2
 _ZN11QTextLayout18setCursorMoveStyleEN2Qt15CursorMoveStyleE@Base 5.0.2
 _ZN11QTextLayout20setAdditionalFormatsERK5QListINS_11FormatRangeEE@Base 5.0.2
 _ZN11QTextLayout22clearAdditionalFormatsEv@Base 5.0.2
 _ZN11QTextLayout7setFontERK5QFont@Base 5.0.2
 _ZN11QTextLayout7setTextERK7QString@Base 5.0.2
 _ZN11QTextLayout8setFlagsEi@Base 5.0.2
 _ZN11QTextLayout9endLayoutEv@Base 5.0.2
 _ZN11QTextLayoutC1ERK10QTextBlock@Base 5.0.2
 _ZN11QTextLayoutC1ERK7QString@Base 5.0.2
 _ZN11QTextLayoutC1ERK7QStringRK5QFontP12QPaintDevice@Base 5.0.2
 _ZN11QTextLayoutC1Ev@Base 5.0.2
 _ZN11QTextLayoutC2ERK10QTextBlock@Base 5.0.2
 _ZN11QTextLayoutC2ERK7QString@Base 5.0.2
 _ZN11QTextLayoutC2ERK7QStringRK5QFontP12QPaintDevice@Base 5.0.2
 _ZN11QTextLayoutC2Ev@Base 5.0.2
 _ZN11QTextLayoutD1Ev@Base 5.0.2
 _ZN11QTextLayoutD2Ev@Base 5.0.2
 _ZN11QTextObject11qt_metacallEN11QMetaObject4CallEiPPv@Base 5.0.2
 _ZN11QTextObject11qt_metacastEPKc@Base 5.0.2
 _ZN11QTextObject16staticMetaObjectE@Base 5.0.2
 _ZN11QTextObject9setFormatERK11QTextFormat@Base 5.0.2
 _ZN11QTextObjectC1EP13QTextDocument@Base 5.0.2
 _ZN11QTextObjectC1ER18QTextObjectPrivateP13QTextDocument@Base 5.0.2
 _ZN11QTextObjectC2EP13QTextDocument@Base 5.0.2
 _ZN11QTextObjectC2ER18QTextObjectPrivateP13QTextDocument@Base 5.0.2
 _ZN11QTextObjectD0Ev@Base 5.0.2
 _ZN11QTextObjectD1Ev@Base 5.0.2
 _ZN11QTextObjectD2Ev@Base 5.0.2
 _ZN11QTextOption11setTabArrayERK5QListIdE@Base 5.2.0
 _ZN11QTextOption7setTabsERK5QListINS_3TabEE@Base 5.0.2
 _ZN11QTextOptionC1E6QFlagsIN2Qt13AlignmentFlagEE@Base 5.0.2
 _ZN11QTextOptionC1ERKS_@Base 5.0.2
 _ZN11QTextOptionC1Ev@Base 5.0.2
 _ZN11QTextOptionC2E6QFlagsIN2Qt13AlignmentFlagEE@Base 5.0.2
 _ZN11QTextOptionC2ERKS_@Base 5.0.2
 _ZN11QTextOptionC2Ev@Base 5.0.2
 _ZN11QTextOptionD1Ev@Base 5.0.2
 _ZN11QTextOptionD2Ev@Base 5.0.2
 _ZN11QTextOptionaSERKS_@Base 5.0.2
 _ZN11QTouchEvent10TouchPoint10setLastPosERK7QPointF@Base 5.0.2
 _ZN11QTouchEvent10TouchPoint11setPressureEd@Base 5.2.0
 _ZN11QTouchEvent10TouchPoint11setScenePosERK7QPointF@Base 5.0.2
 _ZN11QTouchEvent10TouchPoint11setStartPosERK7QPointF@Base 5.0.2
 _ZN11QTouchEvent10TouchPoint11setVelocityERK9QVector2D@Base 5.0.2
 _ZN11QTouchEvent10TouchPoint12setSceneRectERK6QRectF@Base 5.0.2
 _ZN11QTouchEvent10TouchPoint12setScreenPosERK7QPointF@Base 5.0.2
 _ZN11QTouchEvent10TouchPoint13setScreenRectERK6QRectF@Base 5.0.2
 _ZN11QTouchEvent10TouchPoint15setLastScenePosERK7QPointF@Base 5.0.2
 _ZN11QTouchEvent10TouchPoint16setLastScreenPosERK7QPointF@Base 5.0.2
 _ZN11QTouchEvent10TouchPoint16setNormalizedPosERK7QPointF@Base 5.0.2
 _ZN11QTouchEvent10TouchPoint16setStartScenePosERK7QPointF@Base 5.0.2
 _ZN11QTouchEvent10TouchPoint17setStartScreenPosERK7QPointF@Base 5.0.2
 _ZN11QTouchEvent10TouchPoint20setLastNormalizedPosERK7QPointF@Base 5.0.2
 _ZN11QTouchEvent10TouchPoint21setRawScreenPositionsERK7QVectorI7QPointFE@Base 5.0.2
 _ZN11QTouchEvent10TouchPoint21setStartNormalizedPosERK7QPointF@Base 5.0.2
 _ZN11QTouchEvent10TouchPoint5setIdEi@Base 5.0.2
 _ZN11QTouchEvent10TouchPoint6setPosERK7QPointF@Base 5.0.2
 _ZN11QTouchEvent10TouchPoint7setRectERK6QRectF@Base 5.0.2
 _ZN11QTouchEvent10TouchPoint8setFlagsE6QFlagsINS0_8InfoFlagEE@Base 5.0.2
 _ZN11QTouchEvent10TouchPoint8setStateE6QFlagsIN2Qt15TouchPointStateEE@Base 5.0.2
 _ZN11QTouchEvent10TouchPointC1ERKS0_@Base 5.0.2
 _ZN11QTouchEvent10TouchPointC1Ei@Base 5.0.2
 _ZN11QTouchEvent10TouchPointC2ERKS0_@Base 5.0.2
 _ZN11QTouchEvent10TouchPointC2Ei@Base 5.0.2
 _ZN11QTouchEvent10TouchPointD1Ev@Base 5.0.2
 _ZN11QTouchEvent10TouchPointD2Ev@Base 5.0.2
 _ZN11QTouchEventC1EN6QEvent4TypeEP12QTouchDevice6QFlagsIN2Qt16KeyboardModifierEES4_INS5_15TouchPointStateEERK5QListINS_10TouchPointEE@Base 5.0.2
 _ZN11QTouchEventC2EN6QEvent4TypeEP12QTouchDevice6QFlagsIN2Qt16KeyboardModifierEES4_INS5_15TouchPointStateEERK5QListINS_10TouchPointEE@Base 5.0.2
 _ZN11QTouchEventD0Ev@Base 5.0.2
 _ZN11QTouchEventD1Ev@Base 5.0.2
 _ZN11QTouchEventD2Ev@Base 5.0.2
 _ZN11QVectorPathD1Ev@Base 5.0.2 1
 _ZN11QVectorPathD2Ev@Base 5.0.2 1
 _ZN11QWheelEventC1ERK7QPointFS2_6QPointS3_iN2Qt11OrientationE6QFlagsINS4_11MouseButtonEES6_INS4_16KeyboardModifierEE@Base 5.0.2
 _ZN11QWheelEventC1ERK7QPointFS2_6QPointS3_iN2Qt11OrientationE6QFlagsINS4_11MouseButtonEES6_INS4_16KeyboardModifierEENS4_11ScrollPhaseE@Base 5.2.0~alpha1
 _ZN11QWheelEventC1ERK7QPointFS2_i6QFlagsIN2Qt11MouseButtonEES3_INS4_16KeyboardModifierEENS4_11OrientationE@Base 5.0.2
 _ZN11QWheelEventC1ERK7QPointFi6QFlagsIN2Qt11MouseButtonEES3_INS4_16KeyboardModifierEENS4_11OrientationE@Base 5.0.2
 _ZN11QWheelEventC2ERK7QPointFS2_6QPointS3_iN2Qt11OrientationE6QFlagsINS4_11MouseButtonEES6_INS4_16KeyboardModifierEE@Base 5.0.2
 _ZN11QWheelEventC2ERK7QPointFS2_6QPointS3_iN2Qt11OrientationE6QFlagsINS4_11MouseButtonEES6_INS4_16KeyboardModifierEENS4_11ScrollPhaseE@Base 5.2.0~alpha1
 _ZN11QWheelEventC2ERK7QPointFS2_i6QFlagsIN2Qt11MouseButtonEES3_INS4_16KeyboardModifierEENS4_11OrientationE@Base 5.0.2
 _ZN11QWheelEventC2ERK7QPointFi6QFlagsIN2Qt11MouseButtonEES3_INS4_16KeyboardModifierEENS4_11OrientationE@Base 5.0.2
 _ZN11QWheelEventD0Ev@Base 5.0.2
 _ZN11QWheelEventD1Ev@Base 5.0.2
 _ZN11QWheelEventD2Ev@Base 5.0.2
 _ZN12QActionEventC1EiP7QActionS1_@Base 5.0.2
 _ZN12QActionEventC2EiP7QActionS1_@Base 5.0.2
 _ZN12QActionEventD0Ev@Base 5.0.2
 _ZN12QActionEventD1Ev@Base 5.0.2
 _ZN12QActionEventD2Ev@Base 5.0.2
 _ZN12QDashStroker15patternForStyleEN2Qt8PenStyleE@Base 5.0.2 1
 _ZN12QDashStroker21processCurrentSubpathEv@Base 5.0.2 1
 _ZN12QDashStroker3endEv@Base 5.0.2 1
 _ZN12QDashStroker5beginEPv@Base 5.0.2 1
 _ZN12QDashStrokerC1EP8QStroker@Base 5.0.2 1
 _ZN12QDashStrokerC2EP8QStroker@Base 5.0.2 1
 _ZN12QDashStrokerD0Ev@Base 5.0.2 1
 _ZN12QDashStrokerD1Ev@Base 5.0.2 1
 _ZN12QDashStrokerD2Ev@Base 5.0.2 1
 _ZN12QDragManager10m_instanceE@Base 5.0.2 1
 _ZN12QDragManager11qt_metacallEN11QMetaObject4CallEiPPv@Base 5.0.2 1
 _ZN12QDragManager11qt_metacastEPKc@Base 5.0.2 1
 _ZN12QDragManager16setCurrentTargetEP7QObjectb@Base 5.0.2 1
 _ZN12QDragManager16staticMetaObjectE@Base 5.0.2 1
 _ZN12QDragManager4dragEP5QDrag@Base 5.0.2 1
 _ZN12QDragManager4selfEv@Base 5.0.2 1
 _ZN12QDragManagerC1Ev@Base 5.0.2 1
 _ZN12QDragManagerC2Ev@Base 5.0.2 1
 _ZN12QDragManagerD0Ev@Base 5.0.2 1
 _ZN12QDragManagerD1Ev@Base 5.0.2 1
 _ZN12QDragManagerD2Ev@Base 5.0.2 1
 _ZN12QExposeEventC1ERK7QRegion@Base 5.0.2
 _ZN12QExposeEventC2ERK7QRegion@Base 5.0.2
 _ZN12QExposeEventD0Ev@Base 5.0.2
 _ZN12QExposeEventD1Ev@Base 5.0.2
 _ZN12QExposeEventD2Ev@Base 5.0.2
 _ZN12QFontMetricsC1ERK5QFont@Base 5.0.2
 _ZN12QFontMetricsC1ERK5QFontP12QPaintDevice@Base 5.0.2
 _ZN12QFontMetricsC1ERKS_@Base 5.0.2
 _ZN12QFontMetricsC2ERK5QFont@Base 5.0.2
 _ZN12QFontMetricsC2ERK5QFontP12QPaintDevice@Base 5.0.2
 _ZN12QFontMetricsC2ERKS_@Base 5.0.2
 _ZN12QFontMetricsD1Ev@Base 5.0.2
 _ZN12QFontMetricsD2Ev@Base 5.0.2
 _ZN12QFontMetricsaSERKS_@Base 5.0.2
 _ZN12QFontPrivate23detachButKeepEngineDataEP5QFont@Base 5.0.2 1
 _ZN12QFontPrivate7resolveEjPKS_@Base 5.0.2 1
 _ZN12QFontPrivateC1ERKS_@Base 5.0.2 1
 _ZN12QFontPrivateC1Ev@Base 5.0.2 1
 _ZN12QFontPrivateC2ERKS_@Base 5.0.2 1
 _ZN12QFontPrivateC2Ev@Base 5.0.2 1
 _ZN12QFontPrivateD1Ev@Base 5.0.2 1
 _ZN12QFontPrivateD2Ev@Base 5.0.2 1
 _ZN12QImageReader10setQualityEi@Base 5.0.2
 _ZN12QImageReader11imageFormatEP9QIODevice@Base 5.0.2
 _ZN12QImageReader11imageFormatERK7QString@Base 5.0.2
 _ZN12QImageReader11jumpToImageEi@Base 5.0.2
 _ZN12QImageReader11setClipRectERK5QRect@Base 5.0.2
 _ZN12QImageReader11setFileNameERK7QString@Base 5.0.2
 _ZN12QImageReader13setScaledSizeERK5QSize@Base 5.0.2
 _ZN12QImageReader15jumpToNextImageEv@Base 5.0.2
 _ZN12QImageReader17setScaledClipRectERK5QRect@Base 5.0.2
 _ZN12QImageReader18setBackgroundColorERK6QColor@Base 5.0.2
 _ZN12QImageReader18supportedMimeTypesEv@Base 5.1.0
 _ZN12QImageReader21supportedImageFormatsEv@Base 5.0.2
 _ZN12QImageReader24setAutoDetectImageFormatEb@Base 5.0.2
 _ZN12QImageReader26setDecideFormatFromContentEb@Base 5.0.2
 _ZN12QImageReader4readEP6QImage@Base 5.0.2
 _ZN12QImageReader4readEv@Base 5.0.2
 _ZN12QImageReader9setDeviceEP9QIODevice@Base 5.0.2
 _ZN12QImageReader9setFormatERK10QByteArray@Base 5.0.2
 _ZN12QImageReaderC1EP9QIODeviceRK10QByteArray@Base 5.0.2
 _ZN12QImageReaderC1ERK7QStringRK10QByteArray@Base 5.0.2
 _ZN12QImageReaderC1Ev@Base 5.0.2
 _ZN12QImageReaderC2EP9QIODeviceRK10QByteArray@Base 5.0.2
 _ZN12QImageReaderC2ERK7QStringRK10QByteArray@Base 5.0.2
 _ZN12QImageReaderC2Ev@Base 5.0.2
 _ZN12QImageReaderD1Ev@Base 5.0.2
 _ZN12QImageReaderD2Ev@Base 5.0.2
 _ZN12QImageWriter10setQualityEi@Base 5.0.2
 _ZN12QImageWriter11setFileNameERK7QString@Base 5.0.2
 _ZN12QImageWriter14setCompressionEi@Base 5.0.2
 _ZN12QImageWriter14setDescriptionERK7QString@Base 5.0.2
 _ZN12QImageWriter18supportedMimeTypesEv@Base 5.1.0
 _ZN12QImageWriter21supportedImageFormatsEv@Base 5.0.2
 _ZN12QImageWriter5writeERK6QImage@Base 5.0.2
 _ZN12QImageWriter7setTextERK7QStringS2_@Base 5.0.2
 _ZN12QImageWriter8setGammaEf@Base 5.0.2
 _ZN12QImageWriter9setDeviceEP9QIODevice@Base 5.0.2
 _ZN12QImageWriter9setFormatERK10QByteArray@Base 5.0.2
 _ZN12QImageWriterC1EP9QIODeviceRK10QByteArray@Base 5.0.2
 _ZN12QImageWriterC1ERK7QStringRK10QByteArray@Base 5.0.2
 _ZN12QImageWriterC1Ev@Base 5.0.2
 _ZN12QImageWriterC2EP9QIODeviceRK10QByteArray@Base 5.0.2
 _ZN12QImageWriterC2ERK7QStringRK10QByteArray@Base 5.0.2
 _ZN12QImageWriterC2Ev@Base 5.0.2
 _ZN12QImageWriterD1Ev@Base 5.0.2
 _ZN12QImageWriterD2Ev@Base 5.0.2
 _ZN12QInputMethod10setVisibleEb@Base 5.0.2
 _ZN12QInputMethod11qt_metacallEN11QMetaObject4CallEiPPv@Base 5.0.2
 _ZN12QInputMethod11qt_metacastEPKc@Base 5.0.2
 _ZN12QInputMethod12invokeActionENS_6ActionEi@Base 5.0.2
 _ZN12QInputMethod13localeChangedEv@Base 5.0.2
 _ZN12QInputMethod14visibleChangedEv@Base 5.0.2
 _ZN12QInputMethod16animatingChangedEv@Base 5.0.2
 _ZN12QInputMethod16queryFocusObjectEN2Qt16InputMethodQueryE8QVariant@Base 5.3.0
 _ZN12QInputMethod16staticMetaObjectE@Base 5.0.2
 _ZN12QInputMethod21inputDirectionChangedEN2Qt15LayoutDirectionE@Base 5.0.2
 _ZN12QInputMethod21setInputItemRectangleERK6QRectF@Base 5.1.0
 _ZN12QInputMethod21setInputItemTransformERK10QTransform@Base 5.0.2
 _ZN12QInputMethod22cursorRectangleChangedEv@Base 5.0.2
 _ZN12QInputMethod24keyboardRectangleChangedEv@Base 5.0.2
 _ZN12QInputMethod4hideEv@Base 5.0.2
 _ZN12QInputMethod4showEv@Base 5.0.2
 _ZN12QInputMethod5resetEv@Base 5.0.2
 _ZN12QInputMethod6commitEv@Base 5.0.2
 _ZN12QInputMethod6updateE6QFlagsIN2Qt16InputMethodQueryEE@Base 5.0.2
 _ZN12QInputMethodC1Ev@Base 5.0.2
 _ZN12QInputMethodC2Ev@Base 5.0.2
 _ZN12QInputMethodD0Ev@Base 5.0.2
 _ZN12QInputMethodD1Ev@Base 5.0.2
 _ZN12QInputMethodD2Ev@Base 5.0.2
 _ZN12QKeySequence10fromStringERK7QStringNS_14SequenceFormatE@Base 5.0.2
 _ZN12QKeySequence11keyBindingsENS_11StandardKeyE@Base 5.0.2
 _ZN12QKeySequence12decodeStringERK7QString@Base 5.0.2
 _ZN12QKeySequence12encodeStringEi@Base 5.0.2
 _ZN12QKeySequence12listToStringERK5QListIS_ENS_14SequenceFormatE@Base 5.1.0
 _ZN12QKeySequence14listFromStringERK7QStringNS_14SequenceFormatE@Base 5.1.0
 _ZN12QKeySequence16staticMetaObjectE@Base 5.2.0~alpha1
 _ZN12QKeySequence6assignERK7QString@Base 5.0.2
 _ZN12QKeySequence6assignERK7QStringNS_14SequenceFormatE@Base 5.0.2
 _ZN12QKeySequence6setKeyEii@Base 5.0.2
 _ZN12QKeySequence8mnemonicERK7QString@Base 5.0.2
 _ZN12QKeySequenceC1ENS_11StandardKeyE@Base 5.0.2
 _ZN12QKeySequenceC1ERK7QStringNS_14SequenceFormatE@Base 5.0.2
 _ZN12QKeySequenceC1ERKS_@Base 5.0.2
 _ZN12QKeySequenceC1Eiiii@Base 5.0.2
 _ZN12QKeySequenceC1Ev@Base 5.0.2
 _ZN12QKeySequenceC2ENS_11StandardKeyE@Base 5.0.2
 _ZN12QKeySequenceC2ERK7QStringNS_14SequenceFormatE@Base 5.0.2
 _ZN12QKeySequenceC2ERKS_@Base 5.0.2
 _ZN12QKeySequenceC2Eiiii@Base 5.0.2
 _ZN12QKeySequenceC2Ev@Base 5.0.2
 _ZN12QKeySequenceD1Ev@Base 5.0.2
 _ZN12QKeySequenceD2Ev@Base 5.0.2
 _ZN12QKeySequenceaSERKS_@Base 5.0.2
 _ZN12QPaintBuffer13beginNewFrameEv@Base 5.0.2 1
 _ZN12QPaintBuffer15setBoundingRectERK6QRectF@Base 5.0.2 1
 _ZN12QPaintBufferC1ERKS_@Base 5.0.2 1
 _ZN12QPaintBufferC1Ev@Base 5.0.2 1
 _ZN12QPaintBufferC2ERKS_@Base 5.0.2 1
 _ZN12QPaintBufferC2Ev@Base 5.0.2 1
 _ZN12QPaintBufferD0Ev@Base 5.0.2 1
 _ZN12QPaintBufferD1Ev@Base 5.0.2 1
 _ZN12QPaintBufferD2Ev@Base 5.0.2 1
 _ZN12QPaintBufferaSERKS_@Base 5.0.2 1
 _ZN12QPaintDeviceC1Ev@Base 5.0.2
 _ZN12QPaintDeviceC2Ev@Base 5.0.2
 _ZN12QPaintDeviceD0Ev@Base 5.0.2
 _ZN12QPaintDeviceD1Ev@Base 5.0.2
 _ZN12QPaintDeviceD2Ev@Base 5.0.2
 _ZN12QPaintEngine10drawPointsEPK6QPointi@Base 5.0.2
 _ZN12QPaintEngine10drawPointsEPK7QPointFi@Base 5.0.2
 _ZN12QPaintEngine11drawEllipseERK5QRect@Base 5.0.2
 _ZN12QPaintEngine11drawEllipseERK6QRectF@Base 5.0.2
 _ZN12QPaintEngine11drawPolygonEPK6QPointiNS_15PolygonDrawModeE@Base 5.0.2
 _ZN12QPaintEngine11drawPolygonEPK7QPointFiNS_15PolygonDrawModeE@Base 5.0.2
 _ZN12QPaintEngine12drawTextItemERK7QPointFRK9QTextItem@Base 5.0.2
 _ZN12QPaintEngine13setSystemClipERK7QRegion@Base 5.0.2
 _ZN12QPaintEngine13setSystemRectERK5QRect@Base 5.0.2
 _ZN12QPaintEngine14setPaintDeviceEP12QPaintDevice@Base 5.0.2
 _ZN12QPaintEngine15drawTiledPixmapERK6QRectFRK7QPixmapRK7QPointF@Base 5.0.2
 _ZN12QPaintEngine8drawPathERK12QPainterPath@Base 5.0.2
 _ZN12QPaintEngine9drawImageERK6QRectFRK6QImageS2_6QFlagsIN2Qt19ImageConversionFlagEE@Base 5.0.2
 _ZN12QPaintEngine9drawLinesEPK5QLinei@Base 5.0.2
 _ZN12QPaintEngine9drawLinesEPK6QLineFi@Base 5.0.2
 _ZN12QPaintEngine9drawRectsEPK5QRecti@Base 5.0.2
 _ZN12QPaintEngine9drawRectsEPK6QRectFi@Base 5.0.2
 _ZN12QPaintEngine9syncStateEv@Base 5.0.2
 _ZN12QPaintEngineC1E6QFlagsINS_18PaintEngineFeatureEE@Base 5.0.2
 _ZN12QPaintEngineC1ER19QPaintEnginePrivate6QFlagsINS_18PaintEngineFeatureEE@Base 5.0.2 1
 _ZN12QPaintEngineC2E6QFlagsINS_18PaintEngineFeatureEE@Base 5.0.2
 _ZN12QPaintEngineC2ER19QPaintEnginePrivate6QFlagsINS_18PaintEngineFeatureEE@Base 5.0.2 1
 _ZN12QPaintEngineD0Ev@Base 5.0.2
 _ZN12QPaintEngineD1Ev@Base 5.0.2
 _ZN12QPaintEngineD2Ev@Base 5.0.2
 _ZN12QPainterPath10addEllipseERK6QRectF@Base 5.0.2
 _ZN12QPainterPath10addPolygonERK9QPolygonF@Base 5.0.2
 _ZN12QPainterPath11connectPathERKS_@Base 5.0.2
 _ZN12QPainterPath11setFillRuleEN2Qt8FillRuleE@Base 5.0.2
 _ZN12QPainterPath12addRoundRectERK6QRectFii@Base 5.0.2
 _ZN12QPainterPath12closeSubpathEv@Base 5.0.2
 _ZN12QPainterPath13detach_helperEv@Base 5.0.2
 _ZN12QPainterPath14addRoundedRectERK6QRectFddN2Qt8SizeModeE@Base 5.2.0
 _ZN12QPainterPath17ensureData_helperEv@Base 5.0.2
 _ZN12QPainterPath20setElementPositionAtEidd@Base 5.2.0
 _ZN12QPainterPath5arcToERK6QRectFdd@Base 5.2.0
 _ZN12QPainterPath6detachEv@Base 5.0.2
 _ZN12QPainterPath6lineToERK7QPointF@Base 5.0.2
 _ZN12QPainterPath6moveToERK7QPointF@Base 5.0.2
 _ZN12QPainterPath6quadToERK7QPointFS2_@Base 5.0.2
 _ZN12QPainterPath7addPathERKS_@Base 5.0.2
 _ZN12QPainterPath7addRectERK6QRectF@Base 5.0.2
 _ZN12QPainterPath7addTextERK7QPointFRK5QFontRK7QString@Base 5.0.2
 _ZN12QPainterPath7cubicToERK7QPointFS2_S2_@Base 5.0.2
 _ZN12QPainterPath8setDirtyEb@Base 5.0.2
 _ZN12QPainterPath9addRegionERK7QRegion@Base 5.0.2
 _ZN12QPainterPath9arcMoveToERK6QRectFd@Base 5.2.0
 _ZN12QPainterPath9translateEdd@Base 5.2.0
 _ZN12QPainterPathC1ERK7QPointF@Base 5.0.2
 _ZN12QPainterPathC1ERKS_@Base 5.0.2
 _ZN12QPainterPathC1Ev@Base 5.0.2
 _ZN12QPainterPathC2ERK7QPointF@Base 5.0.2
 _ZN12QPainterPathC2ERKS_@Base 5.0.2
 _ZN12QPainterPathC2Ev@Base 5.0.2
 _ZN12QPainterPathD1Ev@Base 5.0.2
 _ZN12QPainterPathD2Ev@Base 5.0.2
 _ZN12QPainterPathaNERKS_@Base 5.0.2
 _ZN12QPainterPathaSERKS_@Base 5.0.2
 _ZN12QPainterPathmIERKS_@Base 5.0.2
 _ZN12QPainterPathoRERKS_@Base 5.0.2
 _ZN12QPainterPathpLERKS_@Base 5.0.2
 _ZN12QPathClipper10pathToRectERK12QPainterPathP6QRectF@Base 5.0.2 1
 _ZN12QPathClipper19handleCrossingEdgesER11QWingedEdgedNS_11ClipperModeE@Base 5.2.0 1
 _ZN12QPathClipper4clipENS_9OperationE@Base 5.0.2 1
 _ZN12QPathClipper6doClipER11QWingedEdgeNS_11ClipperModeE@Base 5.0.2 1
 _ZN12QPathClipper8containsEv@Base 5.0.2 1
 _ZN12QPathClipper9intersectERK12QPainterPathRK6QRectF@Base 5.0.2 1
 _ZN12QPathClipper9intersectEv@Base 5.0.2 1
 _ZN12QPathClipperC1ERK12QPainterPathS2_@Base 5.0.2 1
 _ZN12QPathClipperC2ERK12QPainterPathS2_@Base 5.0.2 1
 _ZN12QPixmapCache10allPixmapsEv@Base 5.0.2
 _ZN12QPixmapCache10cacheLimitEv@Base 5.0.2
 _ZN12QPixmapCache13setCacheLimitEi@Base 5.0.2
 _ZN12QPixmapCache20flushDetachedPixmapsEv@Base 5.0.2
 _ZN12QPixmapCache3KeyC1ERKS0_@Base 5.0.2
 _ZN12QPixmapCache3KeyC1Ev@Base 5.0.2
 _ZN12QPixmapCache3KeyC2ERKS0_@Base 5.0.2
 _ZN12QPixmapCache3KeyC2Ev@Base 5.0.2
 _ZN12QPixmapCache3KeyD1Ev@Base 5.0.2
 _ZN12QPixmapCache3KeyD2Ev@Base 5.0.2
 _ZN12QPixmapCache3KeyaSERKS0_@Base 5.0.2
 _ZN12QPixmapCache4findERK7QString@Base 5.0.2
 _ZN12QPixmapCache4findERK7QStringP7QPixmap@Base 5.0.2
 _ZN12QPixmapCache4findERK7QStringR7QPixmap@Base 5.0.2
 _ZN12QPixmapCache4findERKNS_3KeyEP7QPixmap@Base 5.0.2
 _ZN12QPixmapCache5clearEv@Base 5.0.2
 _ZN12QPixmapCache6insertERK7QPixmap@Base 5.0.2
 _ZN12QPixmapCache6insertERK7QStringRK7QPixmap@Base 5.0.2
 _ZN12QPixmapCache6removeERK7QString@Base 5.0.2
 _ZN12QPixmapCache6removeERKNS_3KeyE@Base 5.0.2
 _ZN12QPixmapCache7replaceERKNS_3KeyERK7QPixmap@Base 5.0.2
 _ZN12QPixmapCache9totalUsedEv@Base 5.0.2
 _ZN12QResizeEventC1ERK5QSizeS2_@Base 5.0.2
 _ZN12QResizeEventC2ERK5QSizeS2_@Base 5.0.2
 _ZN12QResizeEventD0Ev@Base 5.0.2
 _ZN12QResizeEventD1Ev@Base 5.0.2
 _ZN12QResizeEventD2Ev@Base 5.0.2
 _ZN12QScrollEventC1ERK7QPointFS2_NS_11ScrollStateE@Base 5.0.2
 _ZN12QScrollEventC2ERK7QPointFS2_NS_11ScrollStateE@Base 5.0.2
 _ZN12QScrollEventD0Ev@Base 5.0.2
 _ZN12QScrollEventD1Ev@Base 5.0.2
 _ZN12QScrollEventD2Ev@Base 5.0.2
 _ZN12QShortcutMap10resetStateEv@Base 5.0.2 1
 _ZN12QShortcutMap11addShortcutEP7QObjectRK12QKeySequenceN2Qt15ShortcutContextEPFbS1_S6_E@Base 5.0.2 1
 _ZN12QShortcutMap13clearSequenceER7QVectorI12QKeySequenceE@Base 5.0.2 1
 _ZN12QShortcutMap13dispatchEventEP9QKeyEvent@Base 5.0.2 1
 _ZN12QShortcutMap14removeShortcutEiP7QObjectRK12QKeySequence@Base 5.0.2 1
 _ZN12QShortcutMap16tryShortcutEventEP7QObjectP9QKeyEvent@Base 5.0.2 1
 _ZN12QShortcutMap18createNewSequencesEP9QKeyEventR7QVectorI12QKeySequenceE@Base 5.0.2 1
 _ZN12QShortcutMap18setShortcutEnabledEbiP7QObjectRK12QKeySequence@Base 5.0.2 1
 _ZN12QShortcutMap18translateModifiersE6QFlagsIN2Qt16KeyboardModifierEE@Base 5.0.2 1
 _ZN12QShortcutMap21setShortcutAutoRepeatEbiP7QObjectRK12QKeySequence@Base 5.0.2 1
 _ZN12QShortcutMap4findEP9QKeyEvent@Base 5.0.2 1
 _ZN12QShortcutMap5stateEv@Base 5.0.2 1
 _ZN12QShortcutMap9nextStateEP9QKeyEvent@Base 5.0.2 1
 _ZN12QShortcutMapC1Ev@Base 5.0.2 1
 _ZN12QShortcutMapC2Ev@Base 5.0.2 1
 _ZN12QShortcutMapD1Ev@Base 5.0.2 1
 _ZN12QShortcutMapD2Ev@Base 5.0.2 1
 _ZN12QTabletEventC1EN6QEvent4TypeERK7QPointFS4_iidiiddi6QFlagsIN2Qt16KeyboardModifierEEx@Base 5.2.0
 _ZN12QTabletEventC2EN6QEvent4TypeERK7QPointFS4_iidiiddi6QFlagsIN2Qt16KeyboardModifierEEx@Base 5.2.0
 _ZN12QTabletEventD0Ev@Base 5.0.2
 _ZN12QTabletEventD1Ev@Base 5.0.2
 _ZN12QTabletEventD2Ev@Base 5.0.2
 _ZN12QTouchDevice15setCapabilitiesE6QFlagsINS_14CapabilityFlagEE@Base 5.0.2
 _ZN12QTouchDevice21setMaximumTouchPointsEi@Base 5.2.0~alpha1
 _ZN12QTouchDevice7devicesEv@Base 5.0.2
 _ZN12QTouchDevice7setNameERK7QString@Base 5.0.2
 _ZN12QTouchDevice7setTypeENS_10DeviceTypeE@Base 5.0.2
 _ZN12QTouchDeviceC1Ev@Base 5.0.2
 _ZN12QTouchDeviceC2Ev@Base 5.0.2
 _ZN12QTouchDeviceD1Ev@Base 5.0.2
 _ZN12QTouchDeviceD2Ev@Base 5.0.2
 _ZN13QBackingStore10beginPaintERK7QRegion@Base 5.0.2
 _ZN13QBackingStore11paintDeviceEv@Base 5.0.2
 _ZN13QBackingStore17setStaticContentsERK7QRegion@Base 5.0.2
 _ZN13QBackingStore5flushERK7QRegionP7QWindowRK6QPoint@Base 5.0.2
 _ZN13QBackingStore6resizeERK5QSize@Base 5.0.2
 _ZN13QBackingStore6scrollERK7QRegionii@Base 5.0.2
 _ZN13QBackingStore8endPaintEv@Base 5.0.2
 _ZN13QBackingStoreC1EP7QWindow@Base 5.0.2
 _ZN13QBackingStoreC2EP7QWindow@Base 5.0.2
 _ZN13QBackingStoreD1Ev@Base 5.0.2
 _ZN13QBackingStoreD2Ev@Base 5.0.2
 _ZN13QFontDatabase10pointSizesERK7QStringS2_@Base 5.0.2
 _ZN13QFontDatabase10systemFontENS_10SystemFontE@Base 5.2.0~alpha1
 _ZN13QFontDatabase11smoothSizesERK7QStringS2_@Base 5.0.2
 _ZN13QFontDatabase11styleStringERK5QFont@Base 5.0.2
 _ZN13QFontDatabase11styleStringERK9QFontInfo@Base 5.0.2
 _ZN13QFontDatabase13parseFontNameERK7QStringRS0_S3_@Base 5.0.2
 _ZN13QFontDatabase13standardSizesEv@Base 5.0.2
 _ZN13QFontDatabase14createDatabaseEv@Base 5.0.2
 _ZN13QFontDatabase16staticMetaObjectE@Base 5.0.2
 _ZN13QFontDatabase17writingSystemNameENS_13WritingSystemE@Base 5.0.2
 _ZN13QFontDatabase18addApplicationFontERK7QString@Base 5.0.2
 _ZN13QFontDatabase19writingSystemSampleENS_13WritingSystemE@Base 5.0.2
 _ZN13QFontDatabase21removeApplicationFontEi@Base 5.0.2
 _ZN13QFontDatabase22resolveFontFamilyAliasERK7QString@Base 5.0.2
 _ZN13QFontDatabase23applicationFontFamiliesEi@Base 5.0.2
 _ZN13QFontDatabase25removeAllApplicationFontsEv@Base 5.0.2
 _ZN13QFontDatabase26addApplicationFontFromDataERK10QByteArray@Base 5.0.2
 _ZN13QFontDatabase29supportsThreadedFontRenderingEv@Base 5.2.0~beta1
 _ZN13QFontDatabase4loadEPK12QFontPrivatei@Base 5.0.2 1
 _ZN13QFontDatabase8findFontEiPK12QFontPrivateRK8QFontDefbb@Base 5.3.2 1
 _ZN13QFontDatabaseC1Ev@Base 5.0.2
 _ZN13QFontDatabaseC2Ev@Base 5.0.2
 _ZN13QFontMetricsFC1ERK12QFontMetrics@Base 5.0.2
 _ZN13QFontMetricsFC1ERK5QFont@Base 5.0.2
 _ZN13QFontMetricsFC1ERK5QFontP12QPaintDevice@Base 5.0.2
 _ZN13QFontMetricsFC1ERKS_@Base 5.0.2
 _ZN13QFontMetricsFC2ERK12QFontMetrics@Base 5.0.2
 _ZN13QFontMetricsFC2ERK5QFont@Base 5.0.2
 _ZN13QFontMetricsFC2ERK5QFontP12QPaintDevice@Base 5.0.2
 _ZN13QFontMetricsFC2ERKS_@Base 5.0.2
 _ZN13QFontMetricsFD1Ev@Base 5.0.2
 _ZN13QFontMetricsFD2Ev@Base 5.0.2
 _ZN13QFontMetricsFaSERK12QFontMetrics@Base 5.0.2
 _ZN13QFontMetricsFaSERKS_@Base 5.0.2
 _ZN13QIntValidator10topChangedEi@Base 5.0.2
 _ZN13QIntValidator11qt_metacallEN11QMetaObject4CallEiPPv@Base 5.0.2
 _ZN13QIntValidator11qt_metacastEPKc@Base 5.0.2
 _ZN13QIntValidator13bottomChangedEi@Base 5.0.2
 _ZN13QIntValidator16staticMetaObjectE@Base 5.0.2
 _ZN13QIntValidator6setTopEi@Base 5.0.2
 _ZN13QIntValidator8setRangeEii@Base 5.0.2
 _ZN13QIntValidator9setBottomEi@Base 5.0.2
 _ZN13QIntValidatorC1EP7QObject@Base 5.0.2
 _ZN13QIntValidatorC1EiiP7QObject@Base 5.0.2
 _ZN13QIntValidatorC2EP7QObject@Base 5.0.2
 _ZN13QIntValidatorC2EiiP7QObject@Base 5.0.2
 _ZN13QIntValidatorD0Ev@Base 5.0.2
 _ZN13QIntValidatorD1Ev@Base 5.0.2
 _ZN13QIntValidatorD2Ev@Base 5.0.2
 _ZN13QLayoutPolicy14setControlTypeENS_11ControlTypeE@Base 5.3.0 1
 _ZN13QOpenGLBuffer15setUsagePatternENS_12UsagePatternE@Base 5.0.2
 _ZN13QOpenGLBuffer3mapENS_6AccessE@Base 5.0.2
 _ZN13QOpenGLBuffer4bindEv@Base 5.0.2
 _ZN13QOpenGLBuffer4readEiPvi@Base 5.0.2
 _ZN13QOpenGLBuffer5unmapEv@Base 5.0.2
 _ZN13QOpenGLBuffer5writeEiPKvi@Base 5.0.2
 _ZN13QOpenGLBuffer6createEv@Base 5.0.2
 _ZN13QOpenGLBuffer7destroyEv@Base 5.0.2
 _ZN13QOpenGLBuffer7releaseENS_4TypeE@Base 5.0.2
 _ZN13QOpenGLBuffer7releaseEv@Base 5.0.2
 _ZN13QOpenGLBuffer8allocateEPKvi@Base 5.0.2
 _ZN13QOpenGLBufferC1ENS_4TypeE@Base 5.0.2
 _ZN13QOpenGLBufferC1ERKS_@Base 5.0.2
 _ZN13QOpenGLBufferC1Ev@Base 5.0.2
 _ZN13QOpenGLBufferC2ENS_4TypeE@Base 5.0.2
 _ZN13QOpenGLBufferC2ERKS_@Base 5.0.2
 _ZN13QOpenGLBufferC2Ev@Base 5.0.2
 _ZN13QOpenGLBufferD1Ev@Base 5.0.2
 _ZN13QOpenGLBufferD2Ev@Base 5.0.2
 _ZN13QOpenGLBufferaSERKS_@Base 5.0.2
 _ZN13QOpenGLShader11qt_metacallEN11QMetaObject4CallEiPPv@Base 5.0.2
 _ZN13QOpenGLShader11qt_metacastEPKc@Base 5.0.2
 _ZN13QOpenGLShader16hasOpenGLShadersE6QFlagsINS_13ShaderTypeBitEEP14QOpenGLContext@Base 5.0.2
 _ZN13QOpenGLShader16staticMetaObjectE@Base 5.0.2
 _ZN13QOpenGLShader17compileSourceCodeEPKc@Base 5.0.2
 _ZN13QOpenGLShader17compileSourceCodeERK10QByteArray@Base 5.0.2
 _ZN13QOpenGLShader17compileSourceCodeERK7QString@Base 5.0.2
 _ZN13QOpenGLShader17compileSourceFileERK7QString@Base 5.0.2
 _ZN13QOpenGLShaderC1E6QFlagsINS_13ShaderTypeBitEEP7QObject@Base 5.0.2
 _ZN13QOpenGLShaderC2E6QFlagsINS_13ShaderTypeBitEEP7QObject@Base 5.0.2
 _ZN13QOpenGLShaderD0Ev@Base 5.0.2
 _ZN13QOpenGLShaderD1Ev@Base 5.0.2
 _ZN13QOpenGLShaderD2Ev@Base 5.0.2
 _ZN13QPainterState4initEP8QPainter@Base 5.0.2 1
 _ZN13QPainterStateC1EPKS_@Base 5.0.2 1
 _ZN13QPainterStateC1Ev@Base 5.0.2 1
 _ZN13QPainterStateC2EPKS_@Base 5.0.2 1
 _ZN13QPainterStateC2Ev@Base 5.0.2 1
 _ZN13QPainterStateD0Ev@Base 5.0.2 1
 _ZN13QPainterStateD1Ev@Base 5.0.2 1
 _ZN13QPainterStateD2Ev@Base 5.0.2 1
 _ZN13QPlatformDrag12updateActionEN2Qt10DropActionE@Base 5.0.2 1
 _ZN13QPlatformDrag13defaultPixmapEv@Base 5.0.2 1
 _ZN13QPlatformDragC1Ev@Base 5.0.2 1
 _ZN13QPlatformDragC2Ev@Base 5.0.2 1
 _ZN13QPlatformDragD0Ev@Base 5.0.2 1
 _ZN13QPlatformDragD1Ev@Base 5.0.2 1
 _ZN13QPlatformDragD2Ev@Base 5.0.2 1
 _ZN13QPlatformMenu11aboutToHideEv@Base 5.0.2 1
 _ZN13QPlatformMenu11aboutToShowEv@Base 5.0.2 1
 _ZN13QPlatformMenu11qt_metacallEN11QMetaObject4CallEiPPv@Base 5.0.2 1
 _ZN13QPlatformMenu11qt_metacastEPKc@Base 5.0.2 1
 _ZN13QPlatformMenu16staticMetaObjectE@Base 5.0.2 1
 _ZN13QStandardItem10insertRowsEiRK5QListIPS_E@Base 5.0.2
 _ZN13QStandardItem10insertRowsEii@Base 5.0.2
 _ZN13QStandardItem10removeRowsEii@Base 5.0.2
 _ZN13QStandardItem10setEnabledEb@Base 5.0.2
 _ZN13QStandardItem10takeColumnEi@Base 5.0.2
 _ZN13QStandardItem11setEditableEb@Base 5.0.2
 _ZN13QStandardItem11setRowCountEi@Base 5.0.2
 _ZN13QStandardItem11setTristateEb@Base 5.0.2
 _ZN13QStandardItem12insertColumnEiRK5QListIPS_E@Base 5.0.2
 _ZN13QStandardItem12removeColumnEi@Base 5.0.2
 _ZN13QStandardItem12setCheckableEb@Base 5.0.2
 _ZN13QStandardItem12sortChildrenEiN2Qt9SortOrderE@Base 5.0.2
 _ZN13QStandardItem13insertColumnsEii@Base 5.0.2
 _ZN13QStandardItem13removeColumnsEii@Base 5.0.2
 _ZN13QStandardItem13setSelectableEb@Base 5.0.2
 _ZN13QStandardItem14setColumnCountEi@Base 5.0.2
 _ZN13QStandardItem14setDragEnabledEb@Base 5.0.2
 _ZN13QStandardItem14setDropEnabledEb@Base 5.0.2
 _ZN13QStandardItem15emitDataChangedEv@Base 5.0.2
 _ZN13QStandardItem4readER11QDataStream@Base 5.0.2
 _ZN13QStandardItem7setDataERK8QVarianti@Base 5.0.2
 _ZN13QStandardItem7takeRowEi@Base 5.0.2
 _ZN13QStandardItem8setChildEiiPS_@Base 5.0.2
 _ZN13QStandardItem8setFlagsE6QFlagsIN2Qt8ItemFlagEE@Base 5.0.2
 _ZN13QStandardItem9insertRowEiRK5QListIPS_E@Base 5.0.2
 _ZN13QStandardItem9removeRowEi@Base 5.0.2
 _ZN13QStandardItem9takeChildEii@Base 5.0.2
 _ZN13QStandardItemC1ER20QStandardItemPrivate@Base 5.0.2
 _ZN13QStandardItemC1ERK5QIconRK7QString@Base 5.0.2
 _ZN13QStandardItemC1ERK7QString@Base 5.0.2
 _ZN13QStandardItemC1ERKS_@Base 5.0.2
 _ZN13QStandardItemC1Eii@Base 5.0.2
 _ZN13QStandardItemC1Ev@Base 5.0.2
 _ZN13QStandardItemC2ER20QStandardItemPrivate@Base 5.0.2
 _ZN13QStandardItemC2ERK5QIconRK7QString@Base 5.0.2
 _ZN13QStandardItemC2ERK7QString@Base 5.0.2
 _ZN13QStandardItemC2ERKS_@Base 5.0.2
 _ZN13QStandardItemC2Eii@Base 5.0.2
 _ZN13QStandardItemC2Ev@Base 5.0.2
 _ZN13QStandardItemD0Ev@Base 5.0.2
 _ZN13QStandardItemD1Ev@Base 5.0.2
 _ZN13QStandardItemD2Ev@Base 5.0.2
 _ZN13QStandardItemaSERKS_@Base 5.0.2
 _ZN13QTextDocument10adjustSizeEv@Base 5.0.2
 _ZN13QTextDocument10setBaseUrlERK4QUrl@Base 5.3.0
 _ZN13QTextDocument11addResourceEiRK4QUrlRK8QVariant@Base 5.0.2
 _ZN13QTextDocument11qt_metacallEN11QMetaObject4CallEiPPv@Base 5.0.2
 _ZN13QTextDocument11qt_metacastEPKc@Base 5.0.2
 _ZN13QTextDocument11setModifiedEb@Base 5.0.2
 _ZN13QTextDocument11setPageSizeERK6QSizeF@Base 5.0.2
 _ZN13QTextDocument12createObjectERK11QTextFormat@Base 5.0.2
 _ZN13QTextDocument12drawContentsEP8QPainterRK6QRectF@Base 5.0.2
 _ZN13QTextDocument12loadResourceEiRK4QUrl@Base 5.0.2
 _ZN13QTextDocument12setPlainTextERK7QString@Base 5.0.2
 _ZN13QTextDocument12setTextWidthEd@Base 5.2.0
 _ZN13QTextDocument13redoAvailableEb@Base 5.0.2
 _ZN13QTextDocument13undoAvailableEb@Base 5.0.2
 _ZN13QTextDocument14appendUndoItemEP17QAbstractUndoItem@Base 5.0.2
 _ZN13QTextDocument14baseUrlChangedERK4QUrl@Base 5.3.0
 _ZN13QTextDocument14contentsChangeEiii@Base 5.0.2
 _ZN13QTextDocument14setDefaultFontERK5QFont@Base 5.0.2
 _ZN13QTextDocument14setIndentWidthEd@Base 5.2.0
 _ZN13QTextDocument15contentsChangedEv@Base 5.0.2
 _ZN13QTextDocument16staticMetaObjectE@Base 5.0.2
 _ZN13QTextDocument16undoCommandAddedEv@Base 5.0.2
 _ZN13QTextDocument17blockCountChangedEi@Base 5.0.2
 _ZN13QTextDocument17markContentsDirtyEii@Base 5.0.2
 _ZN13QTextDocument17setDocumentLayoutEP27QAbstractTextDocumentLayout@Base 5.0.2
 _ZN13QTextDocument17setDocumentMarginEd@Base 5.2.0
 _ZN13QTextDocument18setMetaInformationENS_15MetaInformationERK7QString@Base 5.0.2
 _ZN13QTextDocument18setUndoRedoEnabledEb@Base 5.0.2
 _ZN13QTextDocument19clearUndoRedoStacksENS_6StacksE@Base 5.0.2
 _ZN13QTextDocument19modificationChangedEb@Base 5.0.2
 _ZN13QTextDocument19setUseDesignMetricsEb@Base 5.0.2
 _ZN13QTextDocument20setDefaultStyleSheetERK7QString@Base 5.0.2
 _ZN13QTextDocument20setDefaultTextOptionERK11QTextOption@Base 5.0.2
 _ZN13QTextDocument20setMaximumBlockCountEi@Base 5.0.2
 _ZN13QTextDocument21cursorPositionChangedERK11QTextCursor@Base 5.0.2
 _ZN13QTextDocument21documentLayoutChangedEv@Base 5.0.2
 _ZN13QTextDocument25setDefaultCursorMoveStyleEN2Qt15CursorMoveStyleE@Base 5.0.2
 _ZN13QTextDocument4redoEP11QTextCursor@Base 5.0.2
 _ZN13QTextDocument4redoEv@Base 5.0.2
 _ZN13QTextDocument4undoEP11QTextCursor@Base 5.0.2
 _ZN13QTextDocument4undoEv@Base 5.0.2
 _ZN13QTextDocument5clearEv@Base 5.0.2
 _ZN13QTextDocument7setHtmlERK7QString@Base 5.0.2
 _ZN13QTextDocumentC1EP7QObject@Base 5.0.2
 _ZN13QTextDocumentC1ER20QTextDocumentPrivateP7QObject@Base 5.0.2 1
 _ZN13QTextDocumentC1ERK7QStringP7QObject@Base 5.0.2
 _ZN13QTextDocumentC2EP7QObject@Base 5.0.2
 _ZN13QTextDocumentC2ER20QTextDocumentPrivateP7QObject@Base 5.0.2 1
 _ZN13QTextDocumentC2ERK7QStringP7QObject@Base 5.0.2
 _ZN13QTextDocumentD0Ev@Base 5.0.2
 _ZN13QTextDocumentD1Ev@Base 5.0.2
 _ZN13QTextDocumentD2Ev@Base 5.0.2
 _ZN14QDistanceField4bitsEv@Base 5.2.0~alpha1 1
 _ZN14QDistanceField8scanLineEi@Base 5.2.0~alpha1 1
 _ZN14QDistanceField8setGlyphEP11QFontEnginejb@Base 5.2.0~alpha1 1
 _ZN14QDistanceField8setGlyphERK8QRawFontjb@Base 5.2.0~alpha1 1
 _ZN14QDistanceFieldC1EP11QFontEnginejb@Base 5.2.0~alpha1 1
 _ZN14QDistanceFieldC1EP18QDistanceFieldData@Base 5.2.0~alpha1 1
 _ZN14QDistanceFieldC1ERK8QRawFontjb@Base 5.2.0~alpha1 1
 _ZN14QDistanceFieldC1ERKS_@Base 5.2.0~alpha1 1
 _ZN14QDistanceFieldC1Eii@Base 5.2.0~alpha1 1
 _ZN14QDistanceFieldC1Ev@Base 5.2.0~alpha1 1
 _ZN14QDistanceFieldC2EP11QFontEnginejb@Base 5.2.0~alpha1 1
 _ZN14QDistanceFieldC2EP18QDistanceFieldData@Base 5.2.0~alpha1 1
 _ZN14QDistanceFieldC2ERK8QRawFontjb@Base 5.2.0~alpha1 1
 _ZN14QDistanceFieldC2ERKS_@Base 5.2.0~alpha1 1
 _ZN14QDistanceFieldC2Eii@Base 5.2.0~alpha1 1
 _ZN14QDistanceFieldC2Ev@Base 5.2.0~alpha1 1
 _ZN14QDragMoveEventC1ERK6QPoint6QFlagsIN2Qt10DropActionEEPK9QMimeDataS3_INS4_11MouseButtonEES3_INS4_16KeyboardModifierEEN6QEvent4TypeE@Base 5.0.2
 _ZN14QDragMoveEventC2ERK6QPoint6QFlagsIN2Qt10DropActionEEPK9QMimeDataS3_INS4_11MouseButtonEES3_INS4_16KeyboardModifierEEN6QEvent4TypeE@Base 5.0.2
 _ZN14QDragMoveEventD0Ev@Base 5.0.2
 _ZN14QDragMoveEventD1Ev@Base 5.0.2
 _ZN14QDragMoveEventD2Ev@Base 5.0.2
 _ZN14QFileOpenEventC1ERK4QUrl@Base 5.0.2
 _ZN14QFileOpenEventC1ERK7QString@Base 5.0.2
 _ZN14QFileOpenEventC2ERK4QUrl@Base 5.0.2
 _ZN14QFileOpenEventC2ERK7QString@Base 5.0.2
 _ZN14QFileOpenEventD0Ev@Base 5.0.2
 _ZN14QFileOpenEventD1Ev@Base 5.0.2
 _ZN14QFileOpenEventD2Ev@Base 5.0.2
 _ZN14QFontEngineQPA11boundingBoxERK12QGlyphLayout@Base 5.0.2 1
 _ZN14QFontEngineQPA11boundingBoxEj@Base 5.0.2 1
 _ZN14QFontEngineQPA12verifyHeaderEPKhi@Base 5.0.2 1
 _ZN14QFontEngineQPA16addOutlineToPathEddRK12QGlyphLayoutP12QPainterPath6QFlagsIN9QTextItem10RenderFlagEE@Base 5.2.0 1
 _ZN14QFontEngineQPA16alphaMapForGlyphEj@Base 5.0.2 1
 _ZN14QFontEngineQPA18extractHeaderFieldEPKhNS_9HeaderTagE@Base 5.0.2 1
 _ZN14QFontEngineQPAC1ERK8QFontDefRK10QByteArray@Base 5.0.2 1
 _ZN14QFontEngineQPAC2ERK8QFontDefRK10QByteArray@Base 5.0.2 1
 _ZN14QFontEngineQPAD0Ev@Base 5.0.2 1
 _ZN14QFontEngineQPAD1Ev@Base 5.0.2 1
 _ZN14QFontEngineQPAD2Ev@Base 5.0.2 1
 _ZN14QGenericPlugin11qt_metacallEN11QMetaObject4CallEiPPv@Base 5.0.2
 _ZN14QGenericPlugin11qt_metacastEPKc@Base 5.0.2
 _ZN14QGenericPlugin16staticMetaObjectE@Base 5.0.2
 _ZN14QGenericPluginC1EP7QObject@Base 5.0.2
 _ZN14QGenericPluginC2EP7QObject@Base 5.0.2
 _ZN14QGenericPluginD0Ev@Base 5.0.2
 _ZN14QGenericPluginD1Ev@Base 5.0.2
 _ZN14QGenericPluginD2Ev@Base 5.0.2
 _ZN14QGridLayoutBox3addERKS_id@Base 5.3.0 1
 _ZN14QGridLayoutBox7combineERKS_@Base 5.3.0 1
 _ZN14QGridLayoutBox9normalizeEv@Base 5.3.0 1
 _ZN14QIconDragEventC1Ev@Base 5.0.2
 _ZN14QIconDragEventC2Ev@Base 5.0.2
 _ZN14QIconDragEventD0Ev@Base 5.0.2
 _ZN14QIconDragEventD1Ev@Base 5.0.2
 _ZN14QIconDragEventD2Ev@Base 5.0.2
 _ZN14QImageIOPlugin11qt_metacallEN11QMetaObject4CallEiPPv@Base 5.0.2
 _ZN14QImageIOPlugin11qt_metacastEPKc@Base 5.0.2
 _ZN14QImageIOPlugin16staticMetaObjectE@Base 5.0.2
 _ZN14QImageIOPluginC1EP7QObject@Base 5.0.2
 _ZN14QImageIOPluginC2EP7QObject@Base 5.0.2
 _ZN14QImageIOPluginD0Ev@Base 5.0.2
 _ZN14QImageIOPluginD1Ev@Base 5.0.2
 _ZN14QImageIOPluginD2Ev@Base 5.0.2
 _ZN14QOpenGLContext10areSharingEPS_S0_@Base 5.0.2
 _ZN14QOpenGLContext11doneCurrentEv@Base 5.0.2
 _ZN14QOpenGLContext11makeCurrentEP8QSurface@Base 5.0.2
 _ZN14QOpenGLContext11qt_metacallEN11QMetaObject4CallEiPPv@Base 5.0.2
 _ZN14QOpenGLContext11qt_metacastEPKc@Base 5.0.2
 _ZN14QOpenGLContext11swapBuffersEP8QSurface@Base 5.0.2
 _ZN14QOpenGLContext14currentContextEv@Base 5.0.2
 _ZN14QOpenGLContext15setShareContextEPS_@Base 5.0.2
 _ZN14QOpenGLContext16deleteQGLContextEv@Base 5.0.2
 _ZN14QOpenGLContext16openGLModuleTypeEv@Base 5.3.0
 _ZN14QOpenGLContext16staticMetaObjectE@Base 5.0.2
 _ZN14QOpenGLContext18aboutToBeDestroyedEv@Base 5.0.2
 _ZN14QOpenGLContext18openGLModuleHandleEv@Base 5.3.0
 _ZN14QOpenGLContext19setQGLContextHandleEPvPFvS0_E@Base 5.0.2
 _ZN14QOpenGLContext19setTextureFunctionsEP20QOpenGLTextureHelper@Base 5.2.0~alpha1
 _ZN14QOpenGLContext22insertFunctionsBackendERK20QOpenGLVersionStatusP30QOpenGLVersionFunctionsBackend@Base 5.1.0
 _ZN14QOpenGLContext22removeFunctionsBackendERK20QOpenGLVersionStatus@Base 5.1.0
 _ZN14QOpenGLContext6createEv@Base 5.0.2
 _ZN14QOpenGLContext7destroyEv@Base 5.0.2
 _ZN14QOpenGLContext9setFormatERK14QSurfaceFormat@Base 5.0.2
 _ZN14QOpenGLContext9setScreenEP7QScreen@Base 5.0.2
 _ZN14QOpenGLContextC1EP7QObject@Base 5.0.2
 _ZN14QOpenGLContextC2EP7QObject@Base 5.0.2
 _ZN14QOpenGLContextD0Ev@Base 5.0.2
 _ZN14QOpenGLContextD1Ev@Base 5.0.2
 _ZN14QOpenGLContextD2Ev@Base 5.0.2
 _ZN14QOpenGLTexture10hasFeatureENS_7FeatureE@Base 5.2.0~alpha1
 _ZN14QOpenGLTexture11setWrapModeENS_19CoordinateDirectionENS_8WrapModeE@Base 5.2.0~alpha1
 _ZN14QOpenGLTexture11setWrapModeENS_8WrapModeE@Base 5.2.0~alpha1
 _ZN14QOpenGLTexture12setMipLevelsEi@Base 5.2.0~alpha1
 _ZN14QOpenGLTexture14boundTextureIdENS_13BindingTargetE@Base 5.2.0~alpha1
 _ZN14QOpenGLTexture14boundTextureIdEjNS_13BindingTargetE@Base 5.2.0~alpha1
 _ZN14QOpenGLTexture14setBorderColorE6QColor@Base 5.2.0~alpha1
 _ZN14QOpenGLTexture14setBorderColorEffff@Base 5.2.0~alpha1
 _ZN14QOpenGLTexture14setBorderColorEiiii@Base 5.2.0~alpha1
 _ZN14QOpenGLTexture14setBorderColorEjjjj@Base 5.2.0~alpha1
 _ZN14QOpenGLTexture14setMipMaxLevelEi@Base 5.2.0~alpha1
 _ZN14QOpenGLTexture14setSwizzleMaskENS_12SwizzleValueES0_S0_S0_@Base 5.2.0~alpha1
 _ZN14QOpenGLTexture14setSwizzleMaskENS_16SwizzleComponentENS_12SwizzleValueE@Base 5.2.0~alpha1
 _ZN14QOpenGLTexture15allocateStorageEv@Base 5.2.0~alpha1
 _ZN14QOpenGLTexture15generateMipMapsEib@Base 5.2.0~alpha1
 _ZN14QOpenGLTexture15generateMipMapsEv@Base 5.2.0~alpha1
 _ZN14QOpenGLTexture15setMipBaseLevelEi@Base 5.2.0~alpha1
 _ZN14QOpenGLTexture16setMinMagFiltersENS_6FilterES0_@Base 5.2.0~alpha1
 _ZN14QOpenGLTexture16setMipLevelRangeEii@Base 5.2.0~alpha1
 _ZN14QOpenGLTexture17setCompressedDataEiPKvPK27QOpenGLPixelTransferOptions@Base 5.3.0
 _ZN14QOpenGLTexture17setCompressedDataEiPvPK27QOpenGLPixelTransferOptions@Base 5.2.0~alpha1
 _ZN14QOpenGLTexture17setCompressedDataEiiNS_11CubeMapFaceEiPKvPK27QOpenGLPixelTransferOptions@Base 5.3.0
 _ZN14QOpenGLTexture17setCompressedDataEiiNS_11CubeMapFaceEiPvPK27QOpenGLPixelTransferOptions@Base 5.2.0~alpha1
 _ZN14QOpenGLTexture17setCompressedDataEiiPKvPK27QOpenGLPixelTransferOptions@Base 5.3.0
 _ZN14QOpenGLTexture17setCompressedDataEiiPvPK27QOpenGLPixelTransferOptions@Base 5.2.0~alpha1
 _ZN14QOpenGLTexture17setCompressedDataEiiiPKvPK27QOpenGLPixelTransferOptions@Base 5.3.0
 _ZN14QOpenGLTexture17setCompressedDataEiiiPvPK27QOpenGLPixelTransferOptions@Base 5.2.0~alpha1
 _ZN14QOpenGLTexture19setDepthStencilModeENS_16DepthStencilModeE@Base 5.2.0~alpha1
 _ZN14QOpenGLTexture20setLevelofDetailBiasEf@Base 5.2.0~alpha1
 _ZN14QOpenGLTexture20setMaximumAnisotropyEf@Base 5.2.0~alpha1
 _ZN14QOpenGLTexture21setLevelOfDetailRangeEff@Base 5.2.0~alpha1
 _ZN14QOpenGLTexture21setMinificationFilterENS_6FilterE@Base 5.2.0~alpha1
 _ZN14QOpenGLTexture22setMagnificationFilterENS_6FilterE@Base 5.2.0~alpha1
 _ZN14QOpenGLTexture23setMaximumLevelOfDetailEf@Base 5.2.0~alpha1
 _ZN14QOpenGLTexture23setMinimumLevelOfDetailEf@Base 5.2.0~alpha1
 _ZN14QOpenGLTexture30setAutoMipMapGenerationEnabledEb@Base 5.2.0~alpha1
 _ZN14QOpenGLTexture4bindEjNS_16TextureUnitResetE@Base 5.2.0~alpha1
 _ZN14QOpenGLTexture4bindEv@Base 5.2.0~alpha1
 _ZN14QOpenGLTexture6createEv@Base 5.2.0~alpha1
 _ZN14QOpenGLTexture7destroyEv@Base 5.2.0~alpha1
 _ZN14QOpenGLTexture7isBoundEj@Base 5.2.0~alpha1
 _ZN14QOpenGLTexture7releaseEjNS_16TextureUnitResetE@Base 5.2.0~alpha1
 _ZN14QOpenGLTexture7releaseEv@Base 5.2.0~alpha1
 _ZN14QOpenGLTexture7setDataENS_11PixelFormatENS_9PixelTypeEPKvPK27QOpenGLPixelTransferOptions@Base 5.3.0
 _ZN14QOpenGLTexture7setDataENS_11PixelFormatENS_9PixelTypeEPvPK27QOpenGLPixelTransferOptions@Base 5.2.0~alpha1
 _ZN14QOpenGLTexture7setDataERK6QImageNS_16MipMapGenerationE@Base 5.2.0~alpha1
 _ZN14QOpenGLTexture7setDataEiNS_11PixelFormatENS_9PixelTypeEPKvPK27QOpenGLPixelTransferOptions@Base 5.3.0
 _ZN14QOpenGLTexture7setDataEiNS_11PixelFormatENS_9PixelTypeEPvPK27QOpenGLPixelTransferOptions@Base 5.2.0~alpha1
 _ZN14QOpenGLTexture7setDataEiiNS_11CubeMapFaceENS_11PixelFormatENS_9PixelTypeEPKvPK27QOpenGLPixelTransferOptions@Base 5.3.0
 _ZN14QOpenGLTexture7setDataEiiNS_11CubeMapFaceENS_11PixelFormatENS_9PixelTypeEPvPK27QOpenGLPixelTransferOptions@Base 5.2.0~alpha1
 _ZN14QOpenGLTexture7setDataEiiNS_11PixelFormatENS_9PixelTypeEPKvPK27QOpenGLPixelTransferOptions@Base 5.3.0
 _ZN14QOpenGLTexture7setDataEiiNS_11PixelFormatENS_9PixelTypeEPvPK27QOpenGLPixelTransferOptions@Base 5.2.0~alpha1
 _ZN14QOpenGLTexture7setSizeEiii@Base 5.2.0~alpha1
 _ZN14QOpenGLTexture9setFormatENS_13TextureFormatE@Base 5.2.0~alpha1
 _ZN14QOpenGLTexture9setLayersEi@Base 5.2.0~alpha1
 _ZN14QOpenGLTextureC1ENS_6TargetE@Base 5.2.0~alpha1
 _ZN14QOpenGLTextureC1ERK6QImageNS_16MipMapGenerationE@Base 5.2.0~alpha1
 _ZN14QOpenGLTextureC2ENS_6TargetE@Base 5.2.0~alpha1
 _ZN14QOpenGLTextureC2ERK6QImageNS_16MipMapGenerationE@Base 5.2.0~alpha1
 _ZN14QOpenGLTextureD1Ev@Base 5.2.0~alpha1
 _ZN14QOpenGLTextureD2Ev@Base 5.2.0~alpha1
 _ZN14QPaintEngineEx10drawPixmapERK7QPointFRK7QPixmap@Base 5.0.2 1
 _ZN14QPaintEngineEx10drawPointsEPK6QPointi@Base 5.0.2 1
 _ZN14QPaintEngineEx10drawPointsEPK7QPointFi@Base 5.0.2 1
 _ZN14QPaintEngineEx11drawEllipseERK5QRect@Base 5.0.2 1
 _ZN14QPaintEngineEx11drawEllipseERK6QRectF@Base 5.0.2 1
 _ZN14QPaintEngineEx11drawPolygonEPK6QPointiN12QPaintEngine15PolygonDrawModeE@Base 5.0.2 1
 _ZN14QPaintEngineEx11drawPolygonEPK7QPointFiN12QPaintEngine15PolygonDrawModeE@Base 5.0.2 1
 _ZN14QPaintEngineEx11updateStateERK17QPaintEngineState@Base 5.0.2 1
 _ZN14QPaintEngineEx15drawRoundedRectERK6QRectFddN2Qt8SizeModeE@Base 5.2.0 1
 _ZN14QPaintEngineEx15drawTiledPixmapERK6QRectFRK7QPixmapRK7QPointF@Base 5.0.2 1
 _ZN14QPaintEngineEx18drawStaticTextItemEP15QStaticTextItem@Base 5.0.2 1
 _ZN14QPaintEngineEx19drawPixmapFragmentsEPKN8QPainter14PixmapFragmentEiRK7QPixmap6QFlagsINS0_18PixmapFragmentHintEE@Base 5.0.2 1
 _ZN14QPaintEngineEx4clipERK12QPainterPathN2Qt13ClipOperationE@Base 5.0.2 1
 _ZN14QPaintEngineEx4clipERK5QRectN2Qt13ClipOperationE@Base 5.0.2 1
 _ZN14QPaintEngineEx4clipERK7QRegionN2Qt13ClipOperationE@Base 5.0.2 1
 _ZN14QPaintEngineEx4drawERK11QVectorPath@Base 5.0.2 1
 _ZN14QPaintEngineEx6strokeERK11QVectorPathRK4QPen@Base 5.0.2 1
 _ZN14QPaintEngineEx8drawPathERK12QPainterPath@Base 5.0.2 1
 _ZN14QPaintEngineEx8fillRectERK6QRectFRK6QBrush@Base 5.0.2 1
 _ZN14QPaintEngineEx8fillRectERK6QRectFRK6QColor@Base 5.0.2 1
 _ZN14QPaintEngineEx8setStateEP13QPainterState@Base 5.0.2 1
 _ZN14QPaintEngineEx9drawImageERK7QPointFRK6QImage@Base 5.0.2 1
 _ZN14QPaintEngineEx9drawLinesEPK5QLinei@Base 5.0.2 1
 _ZN14QPaintEngineEx9drawLinesEPK6QLineFi@Base 5.0.2 1
 _ZN14QPaintEngineEx9drawRectsEPK5QRecti@Base 5.0.2 1
 _ZN14QPaintEngineEx9drawRectsEPK6QRectFi@Base 5.0.2 1
 _ZN14QPaintEngineExC1ER21QPaintEngineExPrivate@Base 5.0.2 1
 _ZN14QPaintEngineExC1Ev@Base 5.0.2 1
 _ZN14QPaintEngineExC2ER21QPaintEngineExPrivate@Base 5.0.2 1
 _ZN14QPaintEngineExC2Ev@Base 5.0.2 1
 _ZN14QPlatformTheme16defaultThemeHintENS_9ThemeHintE@Base 5.0.2 1
 _ZN14QPlatformTheme25defaultStandardButtonTextEi@Base 5.3.0 1
 _ZN14QPlatformThemeC1EP21QPlatformThemePrivate@Base 5.1.0 1
 _ZN14QPlatformThemeC1Ev@Base 5.1.0 1
 _ZN14QPlatformThemeC2EP21QPlatformThemePrivate@Base 5.1.0 1
 _ZN14QPlatformThemeC2Ev@Base 5.1.0 1
 _ZN14QPlatformThemeD0Ev@Base 5.0.2 1
 _ZN14QPlatformThemeD1Ev@Base 5.0.2 1
 _ZN14QPlatformThemeD2Ev@Base 5.0.2 1
 _ZN14QShortcutEventC1ERK12QKeySequenceib@Base 5.0.2
 _ZN14QShortcutEventC2ERK12QKeySequenceib@Base 5.0.2
 _ZN14QShortcutEventD0Ev@Base 5.0.2
 _ZN14QShortcutEventD1Ev@Base 5.0.2
 _ZN14QShortcutEventD2Ev@Base 5.0.2
 _ZN14QSurfaceFormat10setOptionsE6QFlagsINS_12FormatOptionEE@Base 5.3.0
 _ZN14QSurfaceFormat10setProfileENS_20OpenGLContextProfileE@Base 5.0.2
 _ZN14QSurfaceFormat10setSamplesEi@Base 5.0.2
 _ZN14QSurfaceFormat10setVersionEii@Base 5.1.0
 _ZN14QSurfaceFormat15setMajorVersionEi@Base 5.0.2
 _ZN14QSurfaceFormat15setMinorVersionEi@Base 5.0.2
 _ZN14QSurfaceFormat15setSwapBehaviorENS_12SwapBehaviorE@Base 5.0.2
 _ZN14QSurfaceFormat15setSwapIntervalEi@Base 5.3.0
 _ZN14QSurfaceFormat16setRedBufferSizeEi@Base 5.0.2
 _ZN14QSurfaceFormat17setBlueBufferSizeEi@Base 5.0.2
 _ZN14QSurfaceFormat17setRenderableTypeENS_14RenderableTypeE@Base 5.0.2
 _ZN14QSurfaceFormat18setAlphaBufferSizeEi@Base 5.0.2
 _ZN14QSurfaceFormat18setDepthBufferSizeEi@Base 5.0.2
 _ZN14QSurfaceFormat18setGreenBufferSizeEi@Base 5.0.2
 _ZN14QSurfaceFormat20setStencilBufferSizeEi@Base 5.0.2
 _ZN14QSurfaceFormat6detachEv@Base 5.0.2
 _ZN14QSurfaceFormat9setOptionE6QFlagsINS_12FormatOptionEE@Base 5.0.2
 _ZN14QSurfaceFormat9setOptionENS_12FormatOptionEb@Base 5.3.0
 _ZN14QSurfaceFormat9setStereoEb@Base 5.0.2
 _ZN14QSurfaceFormatC1E6QFlagsINS_12FormatOptionEE@Base 5.0.2
 _ZN14QSurfaceFormatC1ERKS_@Base 5.0.2
 _ZN14QSurfaceFormatC1Ev@Base 5.0.2
 _ZN14QSurfaceFormatC2E6QFlagsINS_12FormatOptionEE@Base 5.0.2
 _ZN14QSurfaceFormatC2ERKS_@Base 5.0.2
 _ZN14QSurfaceFormatC2Ev@Base 5.0.2
 _ZN14QSurfaceFormatD1Ev@Base 5.0.2
 _ZN14QSurfaceFormatD2Ev@Base 5.0.2
 _ZN14QSurfaceFormataSERKS_@Base 5.0.2
 _ZN14QTextTableCell9setFormatERK15QTextCharFormat@Base 5.0.2
 _ZN14QWindowPrivate11applyCursorEv@Base 5.0.2 1
 _ZN14QWindowPrivate13_q_clearAlertEv@Base 5.1.0 1
 _ZN14QWindowPrivate16clearFocusObjectEv@Base 5.2.0~rc1 1
 _ZN14QWindowPrivate16updateVisibilityEv@Base 5.1.0 1
 _ZN14QWindowPrivate27maybeQuitOnLastWindowClosedEv@Base 5.0.2 1
 _ZN14QWindowPrivate4initEv@Base 5.3.0 1
 _ZN14QWindowPrivate6createEb@Base 5.3.2 1
 _ZN14QWindowPrivate9setCursorEPK7QCursor@Base 5.1.0 1
 _ZN14QWindowPrivate9setScreenEP7QScreenb@Base 5.1.0 1
 _ZN15QDragEnterEventC1ERK6QPoint6QFlagsIN2Qt10DropActionEEPK9QMimeDataS3_INS4_11MouseButtonEES3_INS4_16KeyboardModifierEE@Base 5.0.2
 _ZN15QDragEnterEventC2ERK6QPoint6QFlagsIN2Qt10DropActionEEPK9QMimeDataS3_INS4_11MouseButtonEES3_INS4_16KeyboardModifierEE@Base 5.0.2
 _ZN15QDragEnterEventD0Ev@Base 5.0.2
 _ZN15QDragEnterEventD1Ev@Base 5.0.2
 _ZN15QDragEnterEventD2Ev@Base 5.0.2
 _ZN15QDragLeaveEventC1Ev@Base 5.0.2
 _ZN15QDragLeaveEventC2Ev@Base 5.0.2
 _ZN15QDragLeaveEventD0Ev@Base 5.0.2
 _ZN15QDragLeaveEventD1Ev@Base 5.0.2
 _ZN15QDragLeaveEventD2Ev@Base 5.0.2
 _ZN15QGridLayoutItem10setRowSpanEiN2Qt11OrientationE@Base 5.3.0 1
 _ZN15QGridLayoutItem11setFirstRowEiN2Qt11OrientationE@Base 5.3.0 1
 _ZN15QGridLayoutItem16setStretchFactorEiN2Qt11OrientationE@Base 5.3.0 1
 _ZN15QGridLayoutItem18insertOrRemoveRowsEiiN2Qt11OrientationE@Base 5.3.0 1
 _ZN15QGridLayoutItem9transposeEv@Base 5.3.0 1
 _ZN15QGridLayoutItemC1Eiiii6QFlagsIN2Qt13AlignmentFlagEE@Base 5.3.0 1
 _ZN15QGridLayoutItemC2Eiiii6QFlagsIN2Qt13AlignmentFlagEE@Base 5.3.0 1
 _ZN15QGuiApplication10allWindowsEv@Base 5.0.2
 _ZN15QGuiApplication10setPaletteERK8QPalette@Base 5.0.2
 _ZN15QGuiApplication10styleHintsEv@Base 5.0.2
 _ZN15QGuiApplication10topLevelAtERK6QPoint@Base 5.0.2
 _ZN15QGuiApplication10windowIconEv@Base 5.3.0
 _ZN15QGuiApplication11focusObjectEv@Base 5.0.2
 _ZN15QGuiApplication11focusWindowEv@Base 5.0.2
 _ZN15QGuiApplication11inputMethodEv@Base 5.0.2
 _ZN15QGuiApplication11modalWindowEv@Base 5.0.2
 _ZN15QGuiApplication11qt_metacallEN11QMetaObject4CallEiPPv@Base 5.0.2
 _ZN15QGuiApplication11qt_metacastEPKc@Base 5.0.2
 _ZN15QGuiApplication11screenAddedEP7QScreen@Base 5.0.2
 _ZN15QGuiApplication12mouseButtonsEv@Base 5.0.2
 _ZN15QGuiApplication12platformNameEv@Base 5.0.2
 _ZN15QGuiApplication13compressEventEP6QEventP7QObjectP14QPostEventList@Base 5.0.2
 _ZN15QGuiApplication13primaryScreenEv@Base 5.0.2
 _ZN15QGuiApplication13setWindowIconERK5QIcon@Base 5.3.0
 _ZN15QGuiApplication14overrideCursorEv@Base 5.0.2
 _ZN15QGuiApplication15layoutDirectionEv@Base 5.0.2
 _ZN15QGuiApplication15topLevelWindowsEv@Base 5.0.2
 _ZN15QGuiApplication16applicationStateEv@Base 5.2.0~alpha1
 _ZN15QGuiApplication16lastWindowClosedEv@Base 5.0.2
 _ZN15QGuiApplication16saveStateRequestER15QSessionManager@Base 5.0.2
 _ZN15QGuiApplication16staticMetaObjectE@Base 5.0.2
 _ZN15QGuiApplication17commitDataRequestER15QSessionManager@Base 5.0.2
 _ZN15QGuiApplication17keyboardModifiersEv@Base 5.0.2
 _ZN15QGuiApplication17setOverrideCursorERK7QCursor@Base 5.0.2
 _ZN15QGuiApplication18focusObjectChangedEP7QObject@Base 5.0.2
 _ZN15QGuiApplication18focusWindowChangedEP7QWindow@Base 5.0.2
 _ZN15QGuiApplication18setLayoutDirectionEN2Qt15LayoutDirectionE@Base 5.0.2
 _ZN15QGuiApplication19fontDatabaseChangedEv@Base 5.0.2
 _ZN15QGuiApplication20changeOverrideCursorERK7QCursor@Base 5.0.2
 _ZN15QGuiApplication20desktopSettingsAwareEv@Base 5.0.2
 _ZN15QGuiApplication21restoreOverrideCursorEv@Base 5.0.2
 _ZN15QGuiApplication22applicationDisplayNameEv@Base 5.0.2
 _ZN15QGuiApplication22queryKeyboardModifiersEv@Base 5.0.2
 _ZN15QGuiApplication22quitOnLastWindowClosedEv@Base 5.0.2
 _ZN15QGuiApplication23applicationStateChangedEN2Qt16ApplicationStateE@Base 5.2.0~alpha1
 _ZN15QGuiApplication23platformNativeInterfaceEv@Base 5.0.2
 _ZN15QGuiApplication23setDesktopSettingsAwareEb@Base 5.0.2
 _ZN15QGuiApplication25setApplicationDisplayNameERK7QString@Base 5.0.2
 _ZN15QGuiApplication25setQuitOnLastWindowClosedEb@Base 5.0.2
 _ZN15QGuiApplication4execEv@Base 5.0.2
 _ZN15QGuiApplication4fontEv@Base 5.0.2
 _ZN15QGuiApplication4syncEv@Base 5.2.0~rc1
 _ZN15QGuiApplication5eventEP6QEvent@Base 5.0.2
 _ZN15QGuiApplication6notifyEP7QObjectP6QEvent@Base 5.0.2
 _ZN15QGuiApplication7paletteEv@Base 5.0.2
 _ZN15QGuiApplication7screensEv@Base 5.0.2
 _ZN15QGuiApplication7setFontERK5QFont@Base 5.0.2
 _ZN15QGuiApplication9clipboardEv@Base 5.0.2
 _ZN15QGuiApplicationC1ER22QGuiApplicationPrivate@Base 5.0.2 1
 _ZN15QGuiApplicationC1ERiPPci@Base 5.0.2
 _ZN15QGuiApplicationC2ER22QGuiApplicationPrivate@Base 5.0.2 1
 _ZN15QGuiApplicationC2ERiPPci@Base 5.0.2
 _ZN15QGuiApplicationD0Ev@Base 5.0.2
 _ZN15QGuiApplicationD1Ev@Base 5.0.2
 _ZN15QGuiApplicationD2Ev@Base 5.0.2
 _ZN15QImageIOHandler11jumpToImageEi@Base 5.0.2
 _ZN15QImageIOHandler15jumpToNextImageEv@Base 5.0.2
 _ZN15QImageIOHandler5writeERK6QImage@Base 5.0.2
 _ZN15QImageIOHandler9setDeviceEP9QIODevice@Base 5.0.2
 _ZN15QImageIOHandler9setFormatERK10QByteArray@Base 5.0.2
 _ZN15QImageIOHandler9setOptionENS_11ImageOptionERK8QVariant@Base 5.0.2
 _ZN15QImageIOHandlerC1ER22QImageIOHandlerPrivate@Base 5.0.2
 _ZN15QImageIOHandlerC1Ev@Base 5.0.2
 _ZN15QImageIOHandlerC2ER22QImageIOHandlerPrivate@Base 5.0.2
 _ZN15QImageIOHandlerC2Ev@Base 5.0.2
 _ZN15QImageIOHandlerD0Ev@Base 5.0.2
 _ZN15QImageIOHandlerD1Ev@Base 5.0.2
 _ZN15QImageIOHandlerD2Ev@Base 5.0.2
 _ZN15QLinearGradient12setFinalStopERK7QPointF@Base 5.0.2
 _ZN15QLinearGradient8setStartERK7QPointF@Base 5.0.2
 _ZN15QLinearGradientC1ERK7QPointFS2_@Base 5.0.2
 _ZN15QLinearGradientC1Edddd@Base 5.2.0
 _ZN15QLinearGradientC1Ev@Base 5.0.2
 _ZN15QLinearGradientC2ERK7QPointFS2_@Base 5.0.2
 _ZN15QLinearGradientC2Edddd@Base 5.2.0
 _ZN15QLinearGradientC2Ev@Base 5.0.2
 _ZN15QPlatformCursor6setPosERK6QPoint@Base 5.0.2 1
 _ZN15QPlatformCursorC1Ev@Base 5.0.2 1
 _ZN15QPlatformCursorC2Ev@Base 5.0.2 1
 _ZN15QPlatformPixmap15fromImageReaderEP12QImageReader6QFlagsIN2Qt19ImageConversionFlagEE@Base 5.0.2 1
 _ZN15QPlatformPixmap15setDetachNumberEi@Base 5.1.0 1
 _ZN15QPlatformPixmap15setSerialNumberEi@Base 5.0.2 1
 _ZN15QPlatformPixmap4copyEPKS_RK5QRect@Base 5.0.2 1
 _ZN15QPlatformPixmap6bufferEv@Base 5.0.2 1
 _ZN15QPlatformPixmap6createEiiNS_9PixelTypeE@Base 5.0.2 1
 _ZN15QPlatformPixmap6scrollEiiRK5QRect@Base 5.0.2 1
 _ZN15QPlatformPixmap8fromDataEPKhjPKc6QFlagsIN2Qt19ImageConversionFlagEE@Base 5.0.2 1
 _ZN15QPlatformPixmap8fromFileERK7QStringPKc6QFlagsIN2Qt19ImageConversionFlagEE@Base 5.0.2 1
 _ZN15QPlatformPixmapC1ENS_9PixelTypeEi@Base 5.0.2 1
 _ZN15QPlatformPixmapC2ENS_9PixelTypeEi@Base 5.0.2 1
 _ZN15QPlatformPixmapD0Ev@Base 5.0.2 1
 _ZN15QPlatformPixmapD1Ev@Base 5.0.2 1
 _ZN15QPlatformPixmapD2Ev@Base 5.0.2 1
 _ZN15QPlatformScreen22resizeMaximizedWindowsEv@Base 5.0.2 1
 _ZN15QPlatformScreen23platformScreenForWindowEPK7QWindow@Base 5.0.2 1
 _ZN15QPlatformScreen24setOrientationUpdateMaskE6QFlagsIN2Qt17ScreenOrientationEE@Base 5.0.2 1
 _ZN15QPlatformScreenC1Ev@Base 5.0.2 1
 _ZN15QPlatformScreenC2Ev@Base 5.0.2 1
 _ZN15QPlatformScreenD0Ev@Base 5.0.2 1
 _ZN15QPlatformScreenD1Ev@Base 5.0.2 1
 _ZN15QPlatformScreenD2Ev@Base 5.0.2 1
 _ZN15QPlatformWindow10setOpacityEd@Base 5.2.0 1
 _ZN15QPlatformWindow10setVisibleEb@Base 5.0.2 1
 _ZN15QPlatformWindow11setGeometryERK5QRect@Base 5.0.2 1
 _ZN15QPlatformWindow11windowEventEP6QEvent@Base 5.0.2 1
 _ZN15QPlatformWindow13setAlertStateEb@Base 5.1.0 1
 _ZN15QPlatformWindow13setWindowIconERK5QIcon@Base 5.0.2 1
 _ZN15QPlatformWindow14setWindowFlagsE6QFlagsIN2Qt10WindowTypeEE@Base 5.0.2 1
 _ZN15QPlatformWindow14setWindowStateEN2Qt11WindowStateE@Base 5.0.2 1
 _ZN15QPlatformWindow14setWindowTitleERK7QString@Base 5.0.2 1
 _ZN15QPlatformWindow15initialGeometryEPK7QWindowRK5QRectii@Base 5.1.0 1
 _ZN15QPlatformWindow17formatWindowTitleERK7QStringS2_@Base 5.0.2 1
 _ZN15QPlatformWindow17invalidateSurfaceEv@Base 5.3.0 1
 _ZN15QPlatformWindow17setWindowFilePathERK7QString@Base 5.0.2 1
 _ZN15QPlatformWindow17setWindowModifiedEb@Base 5.0.2 1
 _ZN15QPlatformWindow17startSystemResizeERK6QPointN2Qt6CornerE@Base 5.0.2 1
 _ZN15QPlatformWindow18propagateSizeHintsEv@Base 5.0.2 1
 _ZN15QPlatformWindow19setMouseGrabEnabledEb@Base 5.0.2 1
 _ZN15QPlatformWindow21requestActivateWindowEv@Base 5.0.2 1
 _ZN15QPlatformWindow22setKeyboardGrabEnabledEb@Base 5.0.2 1
 _ZN15QPlatformWindow26setFrameStrutEventsEnabledEb@Base 5.0.2 1
 _ZN15QPlatformWindow30handleContentOrientationChangeEN2Qt17ScreenOrientationE@Base 5.0.2 1
 _ZN15QPlatformWindow5lowerEv@Base 5.0.2 1
 _ZN15QPlatformWindow5raiseEv@Base 5.0.2 1
 _ZN15QPlatformWindow7setMaskERK7QRegion@Base 5.0.2 1
 _ZN15QPlatformWindow9setParentEPKS_@Base 5.0.2 1
 _ZN15QPlatformWindowC1EP7QWindow@Base 5.0.2 1
 _ZN15QPlatformWindowC2EP7QWindow@Base 5.0.2 1
 _ZN15QPlatformWindowD0Ev@Base 5.0.2 1
 _ZN15QPlatformWindowD1Ev@Base 5.0.2 1
 _ZN15QPlatformWindowD2Ev@Base 5.0.2 1
 _ZN15QRadialGradient13setFocalPointERK7QPointF@Base 5.0.2
 _ZN15QRadialGradient14setFocalRadiusEd@Base 5.2.0
 _ZN15QRadialGradient15setCenterRadiusEd@Base 5.2.0
 _ZN15QRadialGradient9setCenterERK7QPointF@Base 5.0.2
 _ZN15QRadialGradient9setRadiusEd@Base 5.2.0
 _ZN15QRadialGradientC1ERK7QPointFd@Base 5.2.0
 _ZN15QRadialGradientC1ERK7QPointFdS2_@Base 5.2.0
 _ZN15QRadialGradientC1ERK7QPointFdS2_d@Base 5.2.0
 _ZN15QRadialGradientC1Eddd@Base 5.2.0
 _ZN15QRadialGradientC1Eddddd@Base 5.2.0
 _ZN15QRadialGradientC1Edddddd@Base 5.2.0
 _ZN15QRadialGradientC1Ev@Base 5.0.2
 _ZN15QRadialGradientC2ERK7QPointFd@Base 5.2.0
 _ZN15QRadialGradientC2ERK7QPointFdS2_@Base 5.2.0
 _ZN15QRadialGradientC2ERK7QPointFdS2_d@Base 5.2.0
 _ZN15QRadialGradientC2Eddd@Base 5.2.0
 _ZN15QRadialGradientC2Eddddd@Base 5.2.0
 _ZN15QRadialGradientC2Edddddd@Base 5.2.0
 _ZN15QRadialGradientC2Ev@Base 5.0.2
 _ZN15QRawFontPrivate15platformCleanUpEv@Base 5.0.2 1
 _ZN15QRawFontPrivate20platformLoadFromDataERK10QByteArraydN5QFont17HintingPreferenceE@Base 5.2.0 1
 _ZN15QRawFontPrivate7cleanUpEv@Base 5.0.2 1
 _ZN15QSessionManager11qt_metacallEN11QMetaObject4CallEiPPv@Base 5.0.2
 _ZN15QSessionManager11qt_metacastEPKc@Base 5.0.2
 _ZN15QSessionManager13requestPhase2Ev@Base 5.0.2
 _ZN15QSessionManager14setRestartHintENS_11RestartHintE@Base 5.0.2
 _ZN15QSessionManager16staticMetaObjectE@Base 5.0.2
 _ZN15QSessionManager17allowsInteractionEv@Base 5.0.2
 _ZN15QSessionManager17setDiscardCommandERK11QStringList@Base 5.0.2
 _ZN15QSessionManager17setRestartCommandERK11QStringList@Base 5.0.2
 _ZN15QSessionManager18setManagerPropertyERK7QStringRK11QStringList@Base 5.0.2
 _ZN15QSessionManager18setManagerPropertyERK7QStringS2_@Base 5.0.2
 _ZN15QSessionManager22allowsErrorInteractionEv@Base 5.0.2
 _ZN15QSessionManager6cancelEv@Base 5.0.2
 _ZN15QSessionManager7releaseEv@Base 5.0.2
 _ZN15QSessionManagerC1EP15QGuiApplicationR7QStringS3_@Base 5.0.2
 _ZN15QSessionManagerC2EP15QGuiApplicationR7QStringS3_@Base 5.0.2
 _ZN15QSessionManagerD0Ev@Base 5.0.2
 _ZN15QSessionManagerD1Ev@Base 5.0.2
 _ZN15QSessionManagerD2Ev@Base 5.0.2
 _ZN15QStaticTextItem13setFontEngineEP11QFontEngine@Base 5.0.2 1
 _ZN15QStaticTextItemD1Ev@Base 5.0.2 1
 _ZN15QStaticTextItemD2Ev@Base 5.0.2 1
 _ZN15QStatusTipEventC1ERK7QString@Base 5.0.2
 _ZN15QStatusTipEventC2ERK7QString@Base 5.0.2
 _ZN15QStatusTipEventD0Ev@Base 5.0.2
 _ZN15QStatusTipEventD1Ev@Base 5.0.2
 _ZN15QStatusTipEventD2Ev@Base 5.0.2
 _ZN15QTextBlockGroup11qt_metacallEN11QMetaObject4CallEiPPv@Base 5.0.2
 _ZN15QTextBlockGroup11qt_metacastEPKc@Base 5.0.2
 _ZN15QTextBlockGroup12blockRemovedERK10QTextBlock@Base 5.0.2
 _ZN15QTextBlockGroup13blockInsertedERK10QTextBlock@Base 5.0.2
 _ZN15QTextBlockGroup16staticMetaObjectE@Base 5.0.2
 _ZN15QTextBlockGroup18blockFormatChangedERK10QTextBlock@Base 5.0.2
 _ZN15QTextBlockGroupC1EP13QTextDocument@Base 5.0.2
 _ZN15QTextBlockGroupC1ER22QTextBlockGroupPrivateP13QTextDocument@Base 5.0.2
 _ZN15QTextBlockGroupC2EP13QTextDocument@Base 5.0.2
 _ZN15QTextBlockGroupC2ER22QTextBlockGroupPrivateP13QTextDocument@Base 5.0.2
 _ZN15QTextBlockGroupD0Ev@Base 5.0.2
 _ZN15QTextBlockGroupD1Ev@Base 5.0.2
 _ZN15QTextBlockGroupD2Ev@Base 5.0.2
 _ZN15QTextCharFormat17setUnderlineStyleENS_14UnderlineStyleE@Base 5.0.2
 _ZN15QTextCharFormat7setFontERK5QFont@Base 5.0.2
 _ZN15QTextCharFormat7setFontERK5QFontNS_33FontPropertiesInheritanceBehaviorE@Base 5.3.0
 _ZN15QTextCharFormatC1ERK11QTextFormat@Base 5.0.2
 _ZN15QTextCharFormatC1Ev@Base 5.0.2
 _ZN15QTextCharFormatC2ERK11QTextFormat@Base 5.0.2
 _ZN15QTextCharFormatC2Ev@Base 5.0.2
 _ZN15QTextListFormatC1ERK11QTextFormat@Base 5.0.2
 _ZN15QTextListFormatC1Ev@Base 5.0.2
 _ZN15QTextListFormatC2ERK11QTextFormat@Base 5.0.2
 _ZN15QTextListFormatC2Ev@Base 5.0.2
 _ZN16QAccessibleCache11qt_metacallEN11QMetaObject4CallEiPPv@Base 5.3.0 1
 _ZN16QAccessibleCache11qt_metacastEPKc@Base 5.3.0 1
 _ZN16QAccessibleCache15deleteInterfaceEjP7QObject@Base 5.3.0 1
 _ZN16QAccessibleCache15objectDestroyedEP7QObject@Base 5.3.0 1
 _ZN16QAccessibleCache16staticMetaObjectE@Base 5.3.0 1
 _ZN16QAccessibleCache8instanceEv@Base 5.3.0 1
 _ZN16QAccessibleCacheD0Ev@Base 5.3.0 1
 _ZN16QAccessibleCacheD1Ev@Base 5.3.0 1
 _ZN16QAccessibleCacheD2Ev@Base 5.3.0 1
 _ZN16QConicalGradient8setAngleEd@Base 5.2.0
 _ZN16QConicalGradient9setCenterERK7QPointF@Base 5.0.2
 _ZN16QConicalGradientC1ERK7QPointFd@Base 5.2.0
 _ZN16QConicalGradientC1Eddd@Base 5.2.0
 _ZN16QConicalGradientC1Ev@Base 5.0.2
 _ZN16QConicalGradientC2ERK7QPointFd@Base 5.2.0
 _ZN16QConicalGradientC2Eddd@Base 5.2.0
 _ZN16QConicalGradientC2Ev@Base 5.0.2
 (optional=gccinternal)_ZN16QCoreApplication20sendSpontaneousEventEP7QObjectP6QEvent@Base 5.3.0
 _ZN16QDesktopServices13setUrlHandlerERK7QStringP7QObjectPKc@Base 5.0.2
 _ZN16QDesktopServices15unsetUrlHandlerERK7QString@Base 5.0.2
 _ZN16QDesktopServices19storageLocationImplEN14QStandardPaths16StandardLocationE@Base 5.0.2
 _ZN16QDesktopServices7openUrlERK4QUrl@Base 5.0.2
 _ZN16QDoubleValidator10topChangedEd@Base 5.0.2
 _ZN16QDoubleValidator11qt_metacallEN11QMetaObject4CallEiPPv@Base 5.0.2
 _ZN16QDoubleValidator11qt_metacastEPKc@Base 5.0.2
 _ZN16QDoubleValidator11setDecimalsEi@Base 5.0.2
 _ZN16QDoubleValidator11setNotationENS_8NotationE@Base 5.0.2
 _ZN16QDoubleValidator13bottomChangedEd@Base 5.0.2
 _ZN16QDoubleValidator15decimalsChangedEi@Base 5.0.2
 _ZN16QDoubleValidator15notationChangedENS_8NotationE@Base 5.0.2
 _ZN16QDoubleValidator16staticMetaObjectE@Base 5.0.2
 _ZN16QDoubleValidator6setTopEd@Base 5.0.2
 _ZN16QDoubleValidator8setRangeEddi@Base 5.0.2
 _ZN16QDoubleValidator9setBottomEd@Base 5.0.2
 _ZN16QDoubleValidatorC1EP7QObject@Base 5.0.2
 _ZN16QDoubleValidatorC1EddiP7QObject@Base 5.0.2
 _ZN16QDoubleValidatorC2EP7QObject@Base 5.0.2
 _ZN16QDoubleValidatorC2EddiP7QObject@Base 5.0.2
 _ZN16QDoubleValidatorD0Ev@Base 5.0.2
 _ZN16QDoubleValidatorD1Ev@Base 5.0.2
 _ZN16QDoubleValidatorD2Ev@Base 5.0.2
 _ZN16QFontEngineMulti11boundingBoxERK12QGlyphLayout@Base 5.0.2 1
 _ZN16QFontEngineMulti11boundingBoxEj@Base 5.0.2 1
 _ZN16QFontEngineMulti16addOutlineToPathEddRK12QGlyphLayoutP12QPainterPath6QFlagsIN9QTextItem10RenderFlagEE@Base 5.2.0 1
 _ZN16QFontEngineMulti16alphaMapForGlyphEj6QFixed@Base 5.0.2 1
 _ZN16QFontEngineMulti16alphaMapForGlyphEj6QFixedRK10QTransform@Base 5.0.2 1
 _ZN16QFontEngineMulti16alphaMapForGlyphEj@Base 5.0.2 1
 _ZN16QFontEngineMulti16alphaMapForGlyphEjRK10QTransform@Base 5.0.2 1
 _ZN16QFontEngineMulti16getGlyphBearingsEjPdS0_@Base 5.2.0 1
 _ZN16QFontEngineMulti19alphaRGBMapForGlyphEj6QFixedRK10QTransform@Base 5.0.2 1
 _ZN16QFontEngineMultiC1Ei@Base 5.0.2 1
 _ZN16QFontEngineMultiC2Ei@Base 5.0.2 1
 _ZN16QFontEngineMultiD0Ev@Base 5.0.2 1
 _ZN16QFontEngineMultiD1Ev@Base 5.0.2 1
 _ZN16QFontEngineMultiD2Ev@Base 5.0.2 1
 _ZN16QOpenGLFunctions25initializeOpenGLFunctionsEv@Base 5.0.2
 _ZN16QOpenGLFunctionsC1EP14QOpenGLContext@Base 5.0.2
 _ZN16QOpenGLFunctionsC1Ev@Base 5.0.2
 _ZN16QOpenGLFunctionsC2EP14QOpenGLContext@Base 5.0.2
 _ZN16QOpenGLFunctionsC2Ev@Base 5.0.2
 _ZN16QPainterReplayer14setupTransformEP8QPainter@Base 5.0.2 1
 _ZN16QPainterReplayer15processCommandsERK12QPaintBufferP8QPainterii@Base 5.0.2 1
 _ZN16QPainterReplayer7processERK19QPaintBufferCommand@Base 5.0.2 1
 _ZN16QPlatformMenuBar11qt_metacallEN11QMetaObject4CallEiPPv@Base 5.0.2 1
 _ZN16QPlatformMenuBar11qt_metacastEPKc@Base 5.0.2 1
 _ZN16QPlatformMenuBar16staticMetaObjectE@Base 5.0.2 1
 _ZN16QPlatformSurfaceC1EP8QSurface@Base 5.0.2 1
 _ZN16QPlatformSurfaceC2EP8QSurface@Base 5.0.2 1
 _ZN16QPlatformSurfaceD0Ev@Base 5.0.2 1
 _ZN16QPlatformSurfaceD1Ev@Base 5.0.2 1
 _ZN16QPlatformSurfaceD2Ev@Base 5.0.2 1
 _ZN16QRegExpValidator11qt_metacallEN11QMetaObject4CallEiPPv@Base 5.0.2
 _ZN16QRegExpValidator11qt_metacastEPKc@Base 5.0.2
 _ZN16QRegExpValidator13regExpChangedERK7QRegExp@Base 5.0.2
 _ZN16QRegExpValidator16staticMetaObjectE@Base 5.0.2
 _ZN16QRegExpValidator9setRegExpERK7QRegExp@Base 5.0.2
 _ZN16QRegExpValidatorC1EP7QObject@Base 5.0.2
 _ZN16QRegExpValidatorC1ERK7QRegExpP7QObject@Base 5.0.2
 _ZN16QRegExpValidatorC2EP7QObject@Base 5.0.2
 _ZN16QRegExpValidatorC2ERK7QRegExpP7QObject@Base 5.0.2
 _ZN16QRegExpValidatorD0Ev@Base 5.0.2
 _ZN16QRegExpValidatorD1Ev@Base 5.0.2
 _ZN16QRegExpValidatorD2Ev@Base 5.0.2
 _ZN16QStackTextEngineC1ERK7QStringRK5QFont@Base 5.0.2 1
 _ZN16QStackTextEngineC2ERK7QStringRK5QFont@Base 5.0.2 1
 _ZN16QTextBlockFormat15setTabPositionsERK5QListIN11QTextOption3TabEE@Base 5.0.2
 _ZN16QTextBlockFormatC1ERK11QTextFormat@Base 5.0.2
 _ZN16QTextBlockFormatC1Ev@Base 5.0.2
 _ZN16QTextBlockFormatC2ERK11QTextFormat@Base 5.0.2
 _ZN16QTextBlockFormatC2Ev@Base 5.0.2
 _ZN16QTextFrameFormat9setMarginEd@Base 5.2.0
 _ZN16QTextFrameFormatC1ERK11QTextFormat@Base 5.0.2
 _ZN16QTextFrameFormatC1Ev@Base 5.0.2
 _ZN16QTextFrameFormatC2ERK11QTextFormat@Base 5.0.2
 _ZN16QTextFrameFormatC2Ev@Base 5.0.2
 _ZN16QTextImageFormatC1ERK11QTextFormat@Base 5.0.2
 _ZN16QTextImageFormatC1Ev@Base 5.0.2
 _ZN16QTextImageFormatC2ERK11QTextFormat@Base 5.0.2
 _ZN16QTextImageFormatC2Ev@Base 5.0.2
 _ZN16QTextTableFormatC1ERK11QTextFormat@Base 5.0.2
 _ZN16QTextTableFormatC1Ev@Base 5.0.2
 _ZN16QTextTableFormatC2ERK11QTextFormat@Base 5.0.2
 _ZN16QTextTableFormatC2Ev@Base 5.0.2
 _ZN17QAccessibleObject7setTextEN11QAccessible4TextERK7QString@Base 5.0.2
 _ZN17QAccessibleObjectC1EP7QObject@Base 5.0.2
 _ZN17QAccessibleObjectC2EP7QObject@Base 5.0.2
 _ZN17QAccessibleObjectD0Ev@Base 5.0.2
 _ZN17QAccessibleObjectD1Ev@Base 5.0.2
 _ZN17QAccessibleObjectD2Ev@Base 5.0.2
 _ZN17QAccessiblePlugin11qt_metacallEN11QMetaObject4CallEiPPv@Base 5.0.2
 _ZN17QAccessiblePlugin11qt_metacastEPKc@Base 5.0.2
 _ZN17QAccessiblePlugin16staticMetaObjectE@Base 5.0.2
 _ZN17QAccessiblePluginC1EP7QObject@Base 5.0.2
 _ZN17QAccessiblePluginC2EP7QObject@Base 5.0.2
 _ZN17QAccessiblePluginD0Ev@Base 5.0.2
 _ZN17QAccessiblePluginD1Ev@Base 5.0.2
 _ZN17QAccessiblePluginD2Ev@Base 5.0.2
 _ZN17QContextMenuEventC1ENS_6ReasonERK6QPoint@Base 5.0.2
 _ZN17QContextMenuEventC1ENS_6ReasonERK6QPointS3_6QFlagsIN2Qt16KeyboardModifierEE@Base 5.0.2
 _ZN17QContextMenuEventC1ENS_6ReasonERK6QPointS3_@Base 5.0.2
 _ZN17QContextMenuEventC2ENS_6ReasonERK6QPoint@Base 5.0.2
 _ZN17QContextMenuEventC2ENS_6ReasonERK6QPointS3_6QFlagsIN2Qt16KeyboardModifierEE@Base 5.0.2
 _ZN17QContextMenuEventC2ENS_6ReasonERK6QPointS3_@Base 5.0.2
 _ZN17QContextMenuEventD0Ev@Base 5.0.2
 _ZN17QContextMenuEventD1Ev@Base 5.0.2
 _ZN17QContextMenuEventD2Ev@Base 5.0.2
 _ZN17QGridLayoutEngine10insertItemEP15QGridLayoutItemi@Base 5.3.0 1
 _ZN17QGridLayoutEngine10invalidateEv@Base 5.3.0 1
 _ZN17QGridLayoutEngine10removeItemEP15QGridLayoutItem@Base 5.3.0 1
 _ZN17QGridLayoutEngine10setSpacingEd6QFlagsIN2Qt11OrientationEE@Base 5.3.0 1
 _ZN17QGridLayoutEngine13setGeometriesERK6QRectFPK24QAbstractLayoutStyleInfo@Base 5.3.0 1
 _ZN17QGridLayoutEngine13setRowSpacingEidN2Qt11OrientationE@Base 5.3.0 1
 _ZN17QGridLayoutEngine14regenerateGridEv@Base 5.3.0 1
 _ZN17QGridLayoutEngine14setRowSizeHintEN2Qt8SizeHintEidNS0_11OrientationE@Base 5.3.0 1
 _ZN17QGridLayoutEngine15maybeExpandGridEiiN2Qt11OrientationE@Base 5.3.0 1
 _ZN17QGridLayoutEngine15setRowAlignmentEi6QFlagsIN2Qt13AlignmentFlagEENS1_11OrientationE@Base 5.3.0 1
 _ZN17QGridLayoutEngine18insertOrRemoveRowsEiiN2Qt11OrientationE@Base 5.3.0 1
 _ZN17QGridLayoutEngine18setVisualDirectionEN2Qt15LayoutDirectionE@Base 5.3.0 1
 _ZN17QGridLayoutEngine19setRowStretchFactorEiiN2Qt11OrientationE@Base 5.3.0 1
 _ZN17QGridLayoutEngine7addItemEP15QGridLayoutItem@Base 5.3.0 1
 _ZN17QGridLayoutEngine9setItemAtEiiP15QGridLayoutItem@Base 5.3.0 1
 _ZN17QGridLayoutEngine9transposeEv@Base 5.3.0 1
 _ZN17QGridLayoutEngineC1E6QFlagsIN2Qt13AlignmentFlagEE@Base 5.3.0 1
 _ZN17QGridLayoutEngineC2E6QFlagsIN2Qt13AlignmentFlagEE@Base 5.3.0 1
 _ZN17QIconEnginePlugin11qt_metacallEN11QMetaObject4CallEiPPv@Base 5.0.2
 _ZN17QIconEnginePlugin11qt_metacastEPKc@Base 5.0.2
 _ZN17QIconEnginePlugin16staticMetaObjectE@Base 5.0.2
 _ZN17QIconEnginePluginC1EP7QObject@Base 5.0.2
 _ZN17QIconEnginePluginC2EP7QObject@Base 5.0.2
 _ZN17QIconEnginePluginD0Ev@Base 5.0.2
 _ZN17QIconEnginePluginD1Ev@Base 5.0.2
 _ZN17QIconEnginePluginD2Ev@Base 5.0.2
 _ZN17QInputMethodEvent15setCommitStringERK7QStringii@Base 5.0.2
 _ZN17QInputMethodEventC1ERK7QStringRK5QListINS_9AttributeEE@Base 5.0.2
 _ZN17QInputMethodEventC1ERKS_@Base 5.0.2
 _ZN17QInputMethodEventC1Ev@Base 5.0.2
 _ZN17QInputMethodEventC2ERK7QStringRK5QListINS_9AttributeEE@Base 5.0.2
 _ZN17QInputMethodEventC2ERKS_@Base 5.0.2
 _ZN17QInputMethodEventC2Ev@Base 5.0.2
 _ZN17QInputMethodEventD0Ev@Base 5.0.2
 _ZN17QInputMethodEventD1Ev@Base 5.0.2
 _ZN17QInputMethodEventD2Ev@Base 5.0.2
 _ZN17QInternalMimeData11canReadDataERK7QString@Base 5.0.2 1
 _ZN17QInternalMimeData11qt_metacallEN11QMetaObject4CallEiPPv@Base 5.0.2 1
 _ZN17QInternalMimeData11qt_metacastEPKc@Base 5.0.2 1
 _ZN17QInternalMimeData13formatsHelperEPK9QMimeData@Base 5.0.2 1
 _ZN17QInternalMimeData15hasFormatHelperERK7QStringPK9QMimeData@Base 5.0.2 1
 _ZN17QInternalMimeData16renderDataHelperERK7QStringPK9QMimeData@Base 5.0.2 1
 _ZN17QInternalMimeData16staticMetaObjectE@Base 5.0.2 1
 _ZN17QInternalMimeDataC1Ev@Base 5.0.2 1
 _ZN17QInternalMimeDataC2Ev@Base 5.0.2 1
 _ZN17QInternalMimeDataD0Ev@Base 5.0.2 1
 _ZN17QInternalMimeDataD1Ev@Base 5.0.2 1
 _ZN17QInternalMimeDataD2Ev@Base 5.0.2 1
 _ZN17QOffscreenSurface11qt_metacallEN11QMetaObject4CallEiPPv@Base 5.1.0
 _ZN17QOffscreenSurface11qt_metacastEPKc@Base 5.1.0
 _ZN17QOffscreenSurface13screenChangedEP7QScreen@Base 5.1.0
 _ZN17QOffscreenSurface15screenDestroyedEP7QObject@Base 5.1.0
 _ZN17QOffscreenSurface16staticMetaObjectE@Base 5.1.0
 _ZN17QOffscreenSurface6createEv@Base 5.1.0
 _ZN17QOffscreenSurface7destroyEv@Base 5.1.0
 _ZN17QOffscreenSurface9setFormatERK14QSurfaceFormat@Base 5.1.0
 _ZN17QOffscreenSurface9setScreenEP7QScreen@Base 5.1.0
 _ZN17QOffscreenSurfaceC1EP7QScreen@Base 5.1.0
 _ZN17QOffscreenSurfaceC2EP7QScreen@Base 5.1.0
 _ZN17QOffscreenSurfaceD0Ev@Base 5.1.0
 _ZN17QOffscreenSurfaceD1Ev@Base 5.1.0
 _ZN17QOffscreenSurfaceD2Ev@Base 5.1.0
 _ZN17QOpenGLExtensions16openGLExtensionsEv@Base 5.0.2 1
 _ZN17QOpenGLExtensionsC1EP14QOpenGLContext@Base 5.0.2 1
 _ZN17QOpenGLExtensionsC1Ev@Base 5.0.2 1
 _ZN17QOpenGLExtensionsC2EP14QOpenGLContext@Base 5.0.2 1
 _ZN17QOpenGLExtensionsC2Ev@Base 5.0.2 1
 (arch=!armel !armhf)_ZN17QOpenGLTimerQuery11qt_metacallEN11QMetaObject4CallEiPPv@Base 5.1.0
 (arch=!armel !armhf)_ZN17QOpenGLTimerQuery11qt_metacastEPKc@Base 5.1.0
 (arch=!armel !armhf)_ZN17QOpenGLTimerQuery15recordTimestampEv@Base 5.1.0
 (arch=!armel !armhf)_ZN17QOpenGLTimerQuery16staticMetaObjectE@Base 5.1.0
 (arch=!armel !armhf)_ZN17QOpenGLTimerQuery3endEv@Base 5.1.0
 (arch=!armel !armhf)_ZN17QOpenGLTimerQuery5beginEv@Base 5.1.0
 (arch=!armel !armhf)_ZN17QOpenGLTimerQuery6createEv@Base 5.1.0
 (arch=!armel !armhf)_ZN17QOpenGLTimerQuery7destroyEv@Base 5.1.0
 (arch=!armel !armhf)_ZN17QOpenGLTimerQueryC1EP7QObject@Base 5.1.0
 (arch=!armel !armhf)_ZN17QOpenGLTimerQueryC2EP7QObject@Base 5.1.0
 (arch=!armel !armhf)_ZN17QOpenGLTimerQueryD0Ev@Base 5.1.0
 (arch=!armel !armhf)_ZN17QOpenGLTimerQueryD1Ev@Base 5.1.0
 (arch=!armel !armhf)_ZN17QOpenGLTimerQueryD2Ev@Base 5.1.0
 _ZN17QPagedPaintDevice10setMarginsERKNS_7MarginsE@Base 5.0.2
 _ZN17QPagedPaintDevice11setPageSizeENS_8PageSizeE@Base 5.0.2
 _ZN17QPagedPaintDevice11setPageSizeERK9QPageSize@Base 5.3.0
 _ZN17QPagedPaintDevice13setPageLayoutERK11QPageLayout@Base 5.3.0
 _ZN17QPagedPaintDevice13setPageSizeMMERK6QSizeF@Base 5.0.2
 _ZN17QPagedPaintDevice14setPageMarginsERK9QMarginsF@Base 5.3.0
 _ZN17QPagedPaintDevice14setPageMarginsERK9QMarginsFN11QPageLayout4UnitE@Base 5.3.0
 _ZN17QPagedPaintDevice16devicePageLayoutEv@Base 5.3.0
 _ZN17QPagedPaintDevice18setPageOrientationEN11QPageLayout11OrientationE@Base 5.3.0
 _ZN17QPagedPaintDevice2ddEv@Base 5.3.0
 _ZN17QPagedPaintDeviceC1EP24QPagedPaintDevicePrivate@Base 5.3.0 1
 _ZN17QPagedPaintDeviceC1Ev@Base 5.0.2
 _ZN17QPagedPaintDeviceC2EP24QPagedPaintDevicePrivate@Base 5.3.0 1
 _ZN17QPagedPaintDeviceC2Ev@Base 5.0.2
 _ZN17QPagedPaintDeviceD0Ev@Base 5.0.2
 _ZN17QPagedPaintDeviceD1Ev@Base 5.0.2
 _ZN17QPagedPaintDeviceD2Ev@Base 5.0.2
 _ZN17QPdfEnginePrivate10writeFontsEv@Base 5.0.2 1
 _ZN17QPdfEnginePrivate10writeImageERK10QByteArrayiiiiib@Base 5.0.2 1
 _ZN17QPdfEnginePrivate11printStringERK7QString@Base 5.0.2 1
 _ZN17QPdfEnginePrivate11writeHeaderEv@Base 5.0.2 1
 _ZN17QPdfEnginePrivate12addXrefEntryEib@Base 5.0.2 1
 _ZN17QPdfEnginePrivate12drawTextItemERK7QPointFRK12QTextItemInt@Base 5.0.2 1
 _ZN17QPdfEnginePrivate13writePageRootEv@Base 5.0.2 1
 _ZN17QPdfEnginePrivate15addBrushPatternERK10QTransformPbPi@Base 5.0.2 1
 _ZN17QPdfEnginePrivate15writeCompressedEP9QIODevice@Base 5.0.2 1
 _ZN17QPdfEnginePrivate15writeCompressedEPKci@Base 5.0.2 1
 _ZN17QPdfEnginePrivate22addConstantAlphaObjectEii@Base 5.0.2 1
 _ZN17QPdfEnginePrivate7newPageEv@Base 5.0.2 1
 _ZN17QPdfEnginePrivate7xprintfEPKcz@Base 5.0.2 1
 _ZN17QPdfEnginePrivate8addImageERK6QImagePbx@Base 5.0.2 1
 _ZN17QPdfEnginePrivate9embedFontEP11QFontSubset@Base 5.0.2 1
 _ZN17QPdfEnginePrivate9writeInfoEv@Base 5.0.2 1
 _ZN17QPdfEnginePrivate9writePageEv@Base 5.0.2 1
 _ZN17QPdfEnginePrivate9writeTailEv@Base 5.0.2 1
 _ZN17QPdfEnginePrivateC1Ev@Base 5.0.2 1
 _ZN17QPdfEnginePrivateC2Ev@Base 5.0.2 1
 _ZN17QPdfEnginePrivateD0Ev@Base 5.0.2 1
 _ZN17QPdfEnginePrivateD1Ev@Base 5.0.2 1
 _ZN17QPdfEnginePrivateD2Ev@Base 5.0.2 1
 _ZN17QPlatformMenuItem11qt_metacallEN11QMetaObject4CallEiPPv@Base 5.0.2 1
 _ZN17QPlatformMenuItem11qt_metacastEPKc@Base 5.0.2 1
 _ZN17QPlatformMenuItem16staticMetaObjectE@Base 5.0.2 1
 _ZN17QPlatformMenuItem7hoveredEv@Base 5.0.2 1
 _ZN17QPlatformMenuItem9activatedEv@Base 5.0.2 1
 _ZN17QPlatformServices12openDocumentERK4QUrl@Base 5.0.2 1
 _ZN17QPlatformServices7openUrlERK4QUrl@Base 5.0.2 1
 _ZN17QTextImageHandler10drawObjectEP8QPainterRK6QRectFP13QTextDocumentiRK11QTextFormat@Base 5.0.2 1
 _ZN17QTextImageHandler11qt_metacallEN11QMetaObject4CallEiPPv@Base 5.0.2 1
 _ZN17QTextImageHandler11qt_metacastEPKc@Base 5.0.2 1
 _ZN17QTextImageHandler13intrinsicSizeEP13QTextDocumentiRK11QTextFormat@Base 5.0.2 1
 _ZN17QTextImageHandler16staticMetaObjectE@Base 5.0.2 1
 _ZN17QTextImageHandler5imageEP13QTextDocumentRK16QTextImageFormat@Base 5.0.2 1
 _ZN17QTextImageHandlerC1EP7QObject@Base 5.0.2 1
 _ZN17QTextImageHandlerC2EP7QObject@Base 5.0.2 1
 _ZN17QTextImageHandlerD0Ev@Base 5.0.2 1
 _ZN17QTextImageHandlerD1Ev@Base 5.0.2 1
 _ZN17QTextImageHandlerD2Ev@Base 5.0.2 1
 _ZN17QTextInlineObject10setDescentEd@Base 5.2.0
 _ZN17QTextInlineObject8setWidthEd@Base 5.2.0
 _ZN17QTextInlineObject9setAscentEd@Base 5.2.0
 _ZN18QDistanceFieldData6createERK12QPainterPathb@Base 5.2.0~alpha1 1
 _ZN18QDistanceFieldData6createERK5QSize@Base 5.2.0~alpha1 1
 _ZN18QDistanceFieldDataC1ERKS_@Base 5.2.0~alpha1 1
 _ZN18QDistanceFieldDataC2ERKS_@Base 5.2.0~alpha1 1
 _ZN18QDistanceFieldDataD1Ev@Base 5.2.0~alpha1 1
 _ZN18QDistanceFieldDataD2Ev@Base 5.2.0~alpha1 1
 _ZN18QFileDialogOptions10setHistoryERK11QStringList@Base 5.0.2 1
 _ZN18QFileDialogOptions10setOptionsE6QFlagsINS_16FileDialogOptionEE@Base 5.0.2 1
 _ZN18QFileDialogOptions11setFileModeENS_8FileModeE@Base 5.0.2 1
 _ZN18QFileDialogOptions11setViewModeENS_8ViewModeE@Base 5.0.2 1
 _ZN18QFileDialogOptions12setLabelTextENS_11DialogLabelERK7QString@Base 5.0.2 1
 _ZN18QFileDialogOptions13setAcceptModeENS_10AcceptModeE@Base 5.0.2 1
 _ZN18QFileDialogOptions14setNameFiltersERK11QStringList@Base 5.0.2 1
 _ZN18QFileDialogOptions14setSidebarUrlsERK5QListI4QUrlE@Base 5.0.2 1
 _ZN18QFileDialogOptions14setWindowTitleERK7QString@Base 5.0.2 1
 _ZN18QFileDialogOptions16setDefaultSuffixERK7QString@Base 5.0.2 1
 _ZN18QFileDialogOptions18setMimeTypeFiltersERK11QStringList@Base 5.2.0~alpha1 1
 _ZN18QFileDialogOptions19setInitialDirectoryERK4QUrl@Base 5.2.0~alpha1 1
 _ZN18QFileDialogOptions20isLabelExplicitlySetENS_11DialogLabelE@Base 5.0.2 1
 _ZN18QFileDialogOptions25setInitiallySelectedFilesERK5QListI4QUrlE@Base 5.2.0~alpha1 1
 _ZN18QFileDialogOptions30setInitiallySelectedNameFilterERK7QString@Base 5.0.2 1
 _ZN18QFileDialogOptions9setFilterE6QFlagsIN4QDir6FilterEE@Base 5.0.2 1
 _ZN18QFileDialogOptions9setOptionENS_16FileDialogOptionEb@Base 5.0.2 1
 _ZN18QFileDialogOptionsC1ERKS_@Base 5.0.2 1
 _ZN18QFileDialogOptionsC1Ev@Base 5.0.2 1
 _ZN18QFileDialogOptionsC2ERKS_@Base 5.0.2 1
 _ZN18QFileDialogOptionsC2Ev@Base 5.0.2 1
 _ZN18QFileDialogOptionsD1Ev@Base 5.0.2 1
 _ZN18QFileDialogOptionsD2Ev@Base 5.0.2 1
 _ZN18QFileDialogOptionsaSERKS_@Base 5.0.2 1
 _ZN18QFontDialogOptions10setOptionsE6QFlagsINS_16FontDialogOptionEE@Base 5.0.2 1
 _ZN18QFontDialogOptions14setWindowTitleERK7QString@Base 5.0.2 1
 _ZN18QFontDialogOptions9setOptionENS_16FontDialogOptionEb@Base 5.0.2 1
 _ZN18QFontDialogOptionsC1ERKS_@Base 5.0.2 1
 _ZN18QFontDialogOptionsC1Ev@Base 5.0.2 1
 _ZN18QFontDialogOptionsC2ERKS_@Base 5.0.2 1
 _ZN18QFontDialogOptionsC2Ev@Base 5.0.2 1
 _ZN18QFontDialogOptionsD1Ev@Base 5.0.2 1
 _ZN18QFontDialogOptionsD2Ev@Base 5.0.2 1
 _ZN18QFontDialogOptionsaSERKS_@Base 5.0.2 1
 _ZN18QOpenGLDebugLogger10initializeEv@Base 5.1.0
 _ZN18QOpenGLDebugLogger10logMessageERK19QOpenGLDebugMessage@Base 5.1.0
 _ZN18QOpenGLDebugLogger11qt_metacallEN11QMetaObject4CallEiPPv@Base 5.1.0
 _ZN18QOpenGLDebugLogger11qt_metacastEPKc@Base 5.1.0
 _ZN18QOpenGLDebugLogger11stopLoggingEv@Base 5.1.0
 _ZN18QOpenGLDebugLogger12startLoggingENS_11LoggingModeE@Base 5.1.0
 _ZN18QOpenGLDebugLogger13messageLoggedERK19QOpenGLDebugMessage@Base 5.1.0
 _ZN18QOpenGLDebugLogger14enableMessagesE6QFlagsIN19QOpenGLDebugMessage6SourceEES0_INS1_4TypeEES0_INS1_8SeverityEE@Base 5.1.0
 _ZN18QOpenGLDebugLogger14enableMessagesERK7QVectorIjE6QFlagsIN19QOpenGLDebugMessage6SourceEES4_INS5_4TypeEE@Base 5.1.0
 _ZN18QOpenGLDebugLogger15disableMessagesE6QFlagsIN19QOpenGLDebugMessage6SourceEES0_INS1_4TypeEES0_INS1_8SeverityEE@Base 5.1.0
 _ZN18QOpenGLDebugLogger15disableMessagesERK7QVectorIjE6QFlagsIN19QOpenGLDebugMessage6SourceEES4_INS5_4TypeEE@Base 5.1.0
 _ZN18QOpenGLDebugLogger16staticMetaObjectE@Base 5.1.0
 _ZN18QOpenGLDebugLogger8popGroupEv@Base 5.1.0
 _ZN18QOpenGLDebugLogger9pushGroupERK7QStringjN19QOpenGLDebugMessage6SourceE@Base 5.1.0
 _ZN18QOpenGLDebugLoggerC1EP7QObject@Base 5.1.0
 _ZN18QOpenGLDebugLoggerC2EP7QObject@Base 5.1.0
 _ZN18QOpenGLDebugLoggerD0Ev@Base 5.1.0
 _ZN18QOpenGLDebugLoggerD1Ev@Base 5.1.0
 _ZN18QOpenGLDebugLoggerD2Ev@Base 5.1.0
 _ZN18QOpenGLPaintDevice15setPaintFlippedEb@Base 5.0.2
 _ZN18QOpenGLPaintDevice16setDotsPerMeterXEd@Base 5.2.0
 _ZN18QOpenGLPaintDevice16setDotsPerMeterYEd@Base 5.2.0
 _ZN18QOpenGLPaintDevice18ensureActiveTargetEv@Base 5.0.2
 _ZN18QOpenGLPaintDevice19setDevicePixelRatioEd@Base 5.2.0
 _ZN18QOpenGLPaintDevice7setSizeERK5QSize@Base 5.0.2
 _ZN18QOpenGLPaintDeviceC1ERK5QSize@Base 5.0.2
 _ZN18QOpenGLPaintDeviceC1Eii@Base 5.0.2
 _ZN18QOpenGLPaintDeviceC1Ev@Base 5.0.2
 _ZN18QOpenGLPaintDeviceC2ERK5QSize@Base 5.0.2
 _ZN18QOpenGLPaintDeviceC2Eii@Base 5.0.2
 _ZN18QOpenGLPaintDeviceC2Ev@Base 5.0.2
 _ZN18QOpenGLPaintDeviceD0Ev@Base 5.0.2
 _ZN18QOpenGLPaintDeviceD1Ev@Base 5.0.2
 _ZN18QOpenGLPaintDeviceD2Ev@Base 5.0.2
 (arch=!armel !armhf)_ZN18QOpenGLTimeMonitor11qt_metacallEN11QMetaObject4CallEiPPv@Base 5.1.0
 (arch=!armel !armhf)_ZN18QOpenGLTimeMonitor11qt_metacastEPKc@Base 5.1.0
 (arch=!armel !armhf)_ZN18QOpenGLTimeMonitor12recordSampleEv@Base 5.1.0
 (arch=!armel !armhf)_ZN18QOpenGLTimeMonitor14setSampleCountEi@Base 5.1.0
 (arch=!armel !armhf)_ZN18QOpenGLTimeMonitor16staticMetaObjectE@Base 5.1.0
 (arch=!armel !armhf)_ZN18QOpenGLTimeMonitor5resetEv@Base 5.1.0
 (arch=!armel !armhf)_ZN18QOpenGLTimeMonitor6createEv@Base 5.1.0
 (arch=!armel !armhf)_ZN18QOpenGLTimeMonitor7destroyEv@Base 5.1.0
 (arch=!armel !armhf)_ZN18QOpenGLTimeMonitorC1EP7QObject@Base 5.1.0
 (arch=!armel !armhf)_ZN18QOpenGLTimeMonitorC2EP7QObject@Base 5.1.0
 (arch=!armel !armhf)_ZN18QOpenGLTimeMonitorD0Ev@Base 5.1.0
 (arch=!armel !armhf)_ZN18QOpenGLTimeMonitorD1Ev@Base 5.1.0
 (arch=!armel !armhf)_ZN18QOpenGLTimeMonitorD2Ev@Base 5.1.0
 _ZN18QPlatformClipboard11emitChangedEN10QClipboard4ModeE@Base 5.0.2 1
 _ZN18QPlatformClipboard11setMimeDataEP9QMimeDataN10QClipboard4ModeE@Base 5.0.2 1
 _ZN18QPlatformClipboard8mimeDataEN10QClipboard4ModeE@Base 5.0.2 1
 _ZN18QPlatformClipboardD0Ev@Base 5.0.2 1
 _ZN18QPlatformClipboardD1Ev@Base 5.0.2 1
 _ZN18QPlatformClipboardD2Ev@Base 5.0.2 1
 _ZN18QRasterPaintEngine10drawBitmapERK7QPointFRK6QImageP9QSpanData@Base 5.0.2 1
 _ZN18QRasterPaintEngine10drawPixmapERK6QRectFRK7QPixmapS2_@Base 5.0.2 1
 _ZN18QRasterPaintEngine10drawPixmapERK7QPointFRK7QPixmap@Base 5.0.2 1
 _ZN18QRasterPaintEngine10drawPointsEPK6QPointi@Base 5.0.2 1
 _ZN18QRasterPaintEngine10drawPointsEPK7QPointFi@Base 5.0.2 1
 _ZN18QRasterPaintEngine10penChangedEv@Base 5.0.2 1
 _ZN18QRasterPaintEngine11alphaPenBltEPKviiiiii@Base 5.0.2 1
 _ZN18QRasterPaintEngine11drawEllipseERK6QRectF@Base 5.0.2 1
 _ZN18QRasterPaintEngine11drawPolygonEPK6QPointiN12QPaintEngine15PolygonDrawModeE@Base 5.0.2 1
 _ZN18QRasterPaintEngine11drawPolygonEPK7QPointFiN12QPaintEngine15PolygonDrawModeE@Base 5.0.2 1
 _ZN18QRasterPaintEngine11fillPolygonEPK7QPointFiN12QPaintEngine15PolygonDrawModeE@Base 5.0.2 1
 _ZN18QRasterPaintEngine11updateBrushERK6QBrush@Base 5.0.2 1
 _ZN18QRasterPaintEngine12brushChangedEv@Base 5.0.2 1
 _ZN18QRasterPaintEngine12drawTextItemERK7QPointFRK9QTextItem@Base 5.0.2 1
 _ZN18QRasterPaintEngine12rasterBufferEv@Base 5.0.2 1
 _ZN18QRasterPaintEngine12updateMatrixERK10QTransform@Base 5.0.2 1
 _ZN18QRasterPaintEngine13releaseBufferEv@Base 5.0.2 1
 _ZN18QRasterPaintEngine14opacityChangedEv@Base 5.0.2 1
 _ZN18QRasterPaintEngine15drawTiledPixmapERK6QRectFRK7QPixmapRK7QPointF@Base 5.0.2 1
 _ZN18QRasterPaintEngine16drawCachedGlyphsEiPKjPK11QFixedPointP11QFontEngine@Base 5.0.2 1
 _ZN18QRasterPaintEngine16transformChangedEv@Base 5.0.2 1
 _ZN18QRasterPaintEngine17updateRasterStateEv@Base 5.0.2 1
 _ZN18QRasterPaintEngine18brushOriginChangedEv@Base 5.0.2 1
 _ZN18QRasterPaintEngine18clipEnabledChangedEv@Base 5.0.2 1
 _ZN18QRasterPaintEngine18drawStaticTextItemEP15QStaticTextItem@Base 5.0.2 1
 _ZN18QRasterPaintEngine18renderHintsChangedEv@Base 5.0.2 1
 _ZN18QRasterPaintEngine19updateOutlineMapperEv@Base 5.0.2 1
 _ZN18QRasterPaintEngine20toNormalizedFillRectERK6QRectF@Base 5.0.2 1
 _ZN18QRasterPaintEngine22compositionModeChangedEv@Base 5.0.2 1
 _ZN18QRasterPaintEngine25setClipRectInDeviceCoordsERK5QRectN2Qt13ClipOperationE@Base 5.0.2 1
 _ZN18QRasterPaintEngine3endEv@Base 5.0.2 1
 _ZN18QRasterPaintEngine4clipERK11QVectorPathN2Qt13ClipOperationE@Base 5.0.2 1
 _ZN18QRasterPaintEngine4clipERK5QRectN2Qt13ClipOperationE@Base 5.0.2 1
 _ZN18QRasterPaintEngine4clipERK7QRegionN2Qt13ClipOperationE@Base 5.0.2 1
 _ZN18QRasterPaintEngine4fillERK11QVectorPathRK6QBrush@Base 5.0.2 1
 _ZN18QRasterPaintEngine4initEv@Base 5.0.2 1
 _ZN18QRasterPaintEngine5beginEP12QPaintDevice@Base 5.0.2 1
 _ZN18QRasterPaintEngine6strokeERK11QVectorPathRK4QPen@Base 5.0.2 1
 _ZN18QRasterPaintEngine8fillPathERK12QPainterPathP9QSpanData@Base 5.0.2 1
 _ZN18QRasterPaintEngine8fillRectERK6QRectFP9QSpanData@Base 5.0.2 1
 _ZN18QRasterPaintEngine8fillRectERK6QRectFRK6QBrush@Base 5.0.2 1
 _ZN18QRasterPaintEngine8fillRectERK6QRectFRK6QColor@Base 5.0.2 1
 _ZN18QRasterPaintEngine8setStateEP13QPainterState@Base 5.0.2 1
 _ZN18QRasterPaintEngine9drawImageERK6QRectFRK6QImageS2_6QFlagsIN2Qt19ImageConversionFlagEE@Base 5.0.2 1
 _ZN18QRasterPaintEngine9drawImageERK7QPointFRK6QImage@Base 5.0.2 1
 _ZN18QRasterPaintEngine9drawLinesEPK5QLinei@Base 5.0.2 1
 _ZN18QRasterPaintEngine9drawLinesEPK6QLineFi@Base 5.0.2 1
 _ZN18QRasterPaintEngine9drawRectsEPK5QRecti@Base 5.0.2 1
 _ZN18QRasterPaintEngine9drawRectsEPK6QRectFi@Base 5.0.2 1
 _ZN18QRasterPaintEngine9updatePenERK4QPen@Base 5.0.2 1
 _ZN18QRasterPaintEngineC1EP12QPaintDevice@Base 5.0.2 1
 _ZN18QRasterPaintEngineC1ER25QRasterPaintEnginePrivateP12QPaintDevice@Base 5.0.2 1
 _ZN18QRasterPaintEngineC2EP12QPaintDevice@Base 5.0.2 1
 _ZN18QRasterPaintEngineC2ER25QRasterPaintEnginePrivateP12QPaintDevice@Base 5.0.2 1
 _ZN18QRasterPaintEngineD0Ev@Base 5.0.2 1
 _ZN18QRasterPaintEngineD1Ev@Base 5.0.2 1
 _ZN18QRasterPaintEngineD2Ev@Base 5.0.2 1
 _ZN18QStandardItemModel10insertRowsEiiRK11QModelIndex@Base 5.0.2
 _ZN18QStandardItemModel10removeRowsEiiRK11QModelIndex@Base 5.0.2
 _ZN18QStandardItemModel10takeColumnEi@Base 5.0.2
 _ZN18QStandardItemModel11itemChangedEP13QStandardItem@Base 5.0.2
 _ZN18QStandardItemModel11qt_metacallEN11QMetaObject4CallEiPPv@Base 5.0.2
 _ZN18QStandardItemModel11qt_metacastEPKc@Base 5.0.2
 _ZN18QStandardItemModel11setItemDataERK11QModelIndexRK4QMapIi8QVariantE@Base 5.0.2
 _ZN18QStandardItemModel11setRowCountEi@Base 5.0.2
 _ZN18QStandardItemModel11setSortRoleEi@Base 5.0.2
 _ZN18QStandardItemModel12appendColumnERK5QListIP13QStandardItemE@Base 5.0.2
 _ZN18QStandardItemModel12dropMimeDataEPK9QMimeDataN2Qt10DropActionEiiRK11QModelIndex@Base 5.0.2
 _ZN18QStandardItemModel12insertColumnEiRK5QListIP13QStandardItemE@Base 5.0.2
 _ZN18QStandardItemModel13insertColumnsEiiRK11QModelIndex@Base 5.0.2
 _ZN18QStandardItemModel13removeColumnsEiiRK11QModelIndex@Base 5.0.2
 _ZN18QStandardItemModel13setHeaderDataEiN2Qt11OrientationERK8QVarianti@Base 5.0.2
 _ZN18QStandardItemModel14setColumnCountEi@Base 5.0.2
 _ZN18QStandardItemModel16setItemPrototypeEPK13QStandardItem@Base 5.0.2
 _ZN18QStandardItemModel16setItemRoleNamesERK5QHashIi10QByteArrayE@Base 5.0.2
 _ZN18QStandardItemModel16staticMetaObjectE@Base 5.0.2
 _ZN18QStandardItemModel21setVerticalHeaderItemEiP13QStandardItem@Base 5.0.2
 _ZN18QStandardItemModel22takeVerticalHeaderItemEi@Base 5.0.2
 _ZN18QStandardItemModel23setHorizontalHeaderItemEiP13QStandardItem@Base 5.0.2
 _ZN18QStandardItemModel23setVerticalHeaderLabelsERK11QStringList@Base 5.0.2
 _ZN18QStandardItemModel24takeHorizontalHeaderItemEi@Base 5.0.2
 _ZN18QStandardItemModel25setHorizontalHeaderLabelsERK11QStringList@Base 5.0.2
 _ZN18QStandardItemModel4sortEiN2Qt9SortOrderE@Base 5.0.2
 _ZN18QStandardItemModel5clearEv@Base 5.0.2
 _ZN18QStandardItemModel7setDataERK11QModelIndexRK8QVarianti@Base 5.0.2
 _ZN18QStandardItemModel7setItemEiiP13QStandardItem@Base 5.0.2
 _ZN18QStandardItemModel7takeRowEi@Base 5.0.2
 _ZN18QStandardItemModel8takeItemEii@Base 5.0.2
 _ZN18QStandardItemModel9appendRowERK5QListIP13QStandardItemE@Base 5.0.2
 _ZN18QStandardItemModel9insertRowEiRK5QListIP13QStandardItemE@Base 5.0.2
 _ZN18QStandardItemModelC1EP7QObject@Base 5.0.2
 _ZN18QStandardItemModelC1ER25QStandardItemModelPrivateP7QObject@Base 5.0.2
 _ZN18QStandardItemModelC1EiiP7QObject@Base 5.0.2
 _ZN18QStandardItemModelC2EP7QObject@Base 5.0.2
 _ZN18QStandardItemModelC2ER25QStandardItemModelPrivateP7QObject@Base 5.0.2
 _ZN18QStandardItemModelC2EiiP7QObject@Base 5.0.2
 _ZN18QStandardItemModelD0Ev@Base 5.0.2
 _ZN18QStandardItemModelD1Ev@Base 5.0.2
 _ZN18QStandardItemModelD2Ev@Base 5.0.2
 _ZN18QSyntaxHighlighter11qt_metacallEN11QMetaObject4CallEiPPv@Base 5.0.2
 _ZN18QSyntaxHighlighter11qt_metacastEPKc@Base 5.0.2
 _ZN18QSyntaxHighlighter11rehighlightEv@Base 5.0.2
 _ZN18QSyntaxHighlighter11setDocumentEP13QTextDocument@Base 5.0.2
 _ZN18QSyntaxHighlighter16rehighlightBlockERK10QTextBlock@Base 5.0.2
 _ZN18QSyntaxHighlighter16staticMetaObjectE@Base 5.0.2
 _ZN18QSyntaxHighlighter20setCurrentBlockStateEi@Base 5.0.2
 _ZN18QSyntaxHighlighter23setCurrentBlockUserDataEP18QTextBlockUserData@Base 5.0.2
 _ZN18QSyntaxHighlighter9setFormatEiiRK15QTextCharFormat@Base 5.0.2
 _ZN18QSyntaxHighlighter9setFormatEiiRK5QFont@Base 5.0.2
 _ZN18QSyntaxHighlighter9setFormatEiiRK6QColor@Base 5.0.2
 _ZN18QSyntaxHighlighterC1EP13QTextDocument@Base 5.0.2
 _ZN18QSyntaxHighlighterC1EP7QObject@Base 5.0.2
 _ZN18QSyntaxHighlighterC2EP13QTextDocument@Base 5.0.2
 _ZN18QSyntaxHighlighterC2EP7QObject@Base 5.0.2
 _ZN18QSyntaxHighlighterD0Ev@Base 5.0.2
 _ZN18QSyntaxHighlighterD1Ev@Base 5.0.2
 _ZN18QSyntaxHighlighterD2Ev@Base 5.0.2
 _ZN18QTextBlockUserDataD0Ev@Base 5.0.2
 _ZN18QTextBlockUserDataD1Ev@Base 5.0.2
 _ZN18QTextBlockUserDataD2Ev@Base 5.0.2
 _ZN18QTextCursorPrivate10clearCellsEP10QTextTableiiiiN16QTextUndoCommand9OperationE@Base 5.0.2 1
 _ZN18QTextCursorPrivate11insertBlockERK16QTextBlockFormatRK15QTextCharFormat@Base 5.0.2 1
 _ZN18QTextCursorPrivate12adjustCursorEN11QTextCursor13MoveOperationE@Base 5.0.2 1
 _ZN18QTextCursorPrivate12movePositionEN11QTextCursor13MoveOperationENS0_8MoveModeE@Base 5.0.2 1
 _ZN18QTextCursorPrivate13setCharFormatERK15QTextCharFormatN20QTextDocumentPrivate16FormatChangeModeE@Base 5.0.2 1
 _ZN18QTextCursorPrivate14adjustPositionEiiN16QTextUndoCommand9OperationE@Base 5.0.2 1
 _ZN18QTextCursorPrivate14setBlockFormatERK16QTextBlockFormatN20QTextDocumentPrivate16FormatChangeModeE@Base 5.0.2 1
 _ZN18QTextCursorPrivate17aboutToRemoveCellEii@Base 5.0.2 1
 _ZN18QTextCursorPrivate18setBlockCharFormatERK15QTextCharFormatN20QTextDocumentPrivate16FormatChangeModeE@Base 5.0.2 1
 _ZN18QTextCursorPrivate4setXEv@Base 5.0.2 1
 _ZN18QTextCursorPrivate6removeEv@Base 5.0.2 1
 _ZN18QTextCursorPrivateC1EP20QTextDocumentPrivate@Base 5.0.2 1
 _ZN18QTextCursorPrivateC1ERKS_@Base 5.0.2 1
 _ZN18QTextCursorPrivateC2EP20QTextDocumentPrivate@Base 5.0.2 1
 _ZN18QTextCursorPrivateC2ERKS_@Base 5.0.2 1
 _ZN18QTextCursorPrivateD1Ev@Base 5.0.2 1
 _ZN18QTextCursorPrivateD2Ev@Base 5.0.2 1
 _ZN18QTextureGlyphCache19fillInPendingGlyphsEv@Base 5.0.2 1
 _ZN18QTextureGlyphCache8populateEP11QFontEngineiPKjPK11QFixedPoint@Base 5.0.2 1
 _ZN19QBlitterPaintEngine10drawPixmapERK6QRectFRK7QPixmapS2_@Base 5.0.2 1
 _ZN19QBlitterPaintEngine10drawPixmapERK7QPointFRK7QPixmap@Base 5.0.2 1
 _ZN19QBlitterPaintEngine10drawPointsEPK6QPointi@Base 5.0.2 1
 _ZN19QBlitterPaintEngine10drawPointsEPK7QPointFi@Base 5.0.2 1
 _ZN19QBlitterPaintEngine10penChangedEv@Base 5.0.2 1
 _ZN19QBlitterPaintEngine11drawEllipseERK6QRectF@Base 5.0.2 1
 _ZN19QBlitterPaintEngine11drawPolygonEPK6QPointiN12QPaintEngine15PolygonDrawModeE@Base 5.0.2 1
 _ZN19QBlitterPaintEngine11drawPolygonEPK7QPointFiN12QPaintEngine15PolygonDrawModeE@Base 5.0.2 1
 _ZN19QBlitterPaintEngine11fillPolygonEPK7QPointFiN12QPaintEngine15PolygonDrawModeE@Base 5.0.2 1
 _ZN19QBlitterPaintEngine12brushChangedEv@Base 5.0.2 1
 _ZN19QBlitterPaintEngine12drawTextItemERK7QPointFRK9QTextItem@Base 5.0.2 1
 _ZN19QBlitterPaintEngine14opacityChangedEv@Base 5.0.2 1
 _ZN19QBlitterPaintEngine15drawTiledPixmapERK6QRectFRK7QPixmapRK7QPointF@Base 5.0.2 1
 _ZN19QBlitterPaintEngine16transformChangedEv@Base 5.0.2 1
 _ZN19QBlitterPaintEngine18clipEnabledChangedEv@Base 5.0.2 1
 _ZN19QBlitterPaintEngine18drawStaticTextItemEP15QStaticTextItem@Base 5.0.2 1
 _ZN19QBlitterPaintEngine18renderHintsChangedEv@Base 5.0.2 1
 _ZN19QBlitterPaintEngine22compositionModeChangedEv@Base 5.0.2 1
 _ZN19QBlitterPaintEngine3endEv@Base 5.0.2 1
 _ZN19QBlitterPaintEngine4fillERK11QVectorPathRK6QBrush@Base 5.0.2 1
 _ZN19QBlitterPaintEngine5beginEP12QPaintDevice@Base 5.0.2 1
 _ZN19QBlitterPaintEngine6strokeERK11QVectorPathRK4QPen@Base 5.0.2 1
 _ZN19QBlitterPaintEngine8fillPathERK12QPainterPathP9QSpanData@Base 5.0.2 1
 _ZN19QBlitterPaintEngine8fillRectERK6QRectFRK6QBrush@Base 5.0.2 1
 _ZN19QBlitterPaintEngine8fillRectERK6QRectFRK6QColor@Base 5.0.2 1
 _ZN19QBlitterPaintEngine8setStateEP13QPainterState@Base 5.0.2 1
 _ZN19QBlitterPaintEngine9drawImageERK6QRectFRK6QImageS2_6QFlagsIN2Qt19ImageConversionFlagEE@Base 5.0.2 1
 _ZN19QBlitterPaintEngine9drawImageERK7QPointFRK6QImage@Base 5.0.2 1
 _ZN19QBlitterPaintEngine9drawRectsEPK5QRecti@Base 5.0.2 1
 _ZN19QBlitterPaintEngine9drawRectsEPK6QRectFi@Base 5.0.2 1
 _ZN19QBlitterPaintEngineC1EP24QBlittablePlatformPixmap@Base 5.0.2 1
 _ZN19QBlitterPaintEngineC2EP24QBlittablePlatformPixmap@Base 5.0.2 1
 _ZN19QBlitterPaintEngineD0Ev@Base 5.0.2 1
 _ZN19QBlitterPaintEngineD1Ev@Base 5.0.2 1
 _ZN19QBlitterPaintEngineD2Ev@Base 5.0.2 1
 _ZN19QColorDialogOptions10setOptionsE6QFlagsINS_17ColorDialogOptionEE@Base 5.0.2 1
 _ZN19QColorDialogOptions11customColorEi@Base 5.0.2 1
 _ZN19QColorDialogOptions12customColorsEv@Base 5.0.2 1
 _ZN19QColorDialogOptions13standardColorEi@Base 5.0.2 1
 _ZN19QColorDialogOptions14setCustomColorEij@Base 5.0.2 1
 _ZN19QColorDialogOptions14setWindowTitleERK7QString@Base 5.0.2 1
 _ZN19QColorDialogOptions14standardColorsEv@Base 5.0.2 1
 _ZN19QColorDialogOptions16customColorCountEv@Base 5.0.2 1
 _ZN19QColorDialogOptions16setStandardColorEij@Base 5.0.2 1
 _ZN19QColorDialogOptions9setOptionENS_17ColorDialogOptionEb@Base 5.0.2 1
 _ZN19QColorDialogOptionsC1ERKS_@Base 5.0.2 1
 _ZN19QColorDialogOptionsC1Ev@Base 5.0.2 1
 _ZN19QColorDialogOptionsC2ERKS_@Base 5.0.2 1
 _ZN19QColorDialogOptionsC2Ev@Base 5.0.2 1
 _ZN19QColorDialogOptionsD1Ev@Base 5.0.2 1
 _ZN19QColorDialogOptionsD2Ev@Base 5.0.2 1
 _ZN19QColorDialogOptionsaSERKS_@Base 5.0.2 1
 _ZN19QFontEngineMultiQPA10loadEngineEi@Base 5.0.2 1
 _ZN19QFontEngineMultiQPA21createMultiFontEngineEP11QFontEnginei@Base 5.0.2 1
 _ZN19QFontEngineMultiQPA23setFallbackFamiliesListERK11QStringList@Base 5.0.2 1
 _ZN19QFontEngineMultiQPA29ensureFallbackFamiliesQueriedEv@Base 5.0.2 1
 _ZN19QFontEngineMultiQPA4initEP11QFontEngine@Base 5.0.2 1
 _ZN19QFontEngineMultiQPAC1EP11QFontEnginei@Base 5.0.2 1
 _ZN19QFontEngineMultiQPAC1EP11QFontEngineiRK11QStringList@Base 5.0.2 1
 _ZN19QFontEngineMultiQPAC2EP11QFontEnginei@Base 5.0.2 1
 _ZN19QFontEngineMultiQPAC2EP11QFontEngineiRK11QStringList@Base 5.0.2 1
 _ZN19QFontEngineMultiQPAD0Ev@Base 5.0.2 1
 _ZN19QFontEngineMultiQPAD1Ev@Base 5.0.2 1
 _ZN19QFontEngineMultiQPAD2Ev@Base 5.0.2 1
 _ZN19QNativeGestureEventC1EN2Qt17NativeGestureTypeERK7QPointFS4_S4_dmy@Base 5.2.0~beta1
 _ZN19QNativeGestureEventC2EN2Qt17NativeGestureTypeERK7QPointFS4_S4_dmy@Base 5.2.0~beta1
 _ZN19QNativeGestureEventD0Ev@Base 5.2.0~beta1
 _ZN19QNativeGestureEventD1Ev@Base 5.2.0~beta1
 _ZN19QNativeGestureEventD2Ev@Base 5.2.0~beta1
 _ZN19QOpenGLContextGroup11qt_metacallEN11QMetaObject4CallEiPPv@Base 5.0.2
 _ZN19QOpenGLContextGroup11qt_metacastEPKc@Base 5.0.2
 _ZN19QOpenGLContextGroup16staticMetaObjectE@Base 5.0.2
 _ZN19QOpenGLContextGroup19currentContextGroupEv@Base 5.0.2
 _ZN19QOpenGLContextGroupC1Ev@Base 5.0.2
 _ZN19QOpenGLContextGroupC2Ev@Base 5.0.2
 _ZN19QOpenGLContextGroupD0Ev@Base 5.0.2
 _ZN19QOpenGLContextGroupD1Ev@Base 5.0.2
 _ZN19QOpenGLContextGroupD2Ev@Base 5.0.2
 _ZN19QOpenGLDebugMessage23createThirdPartyMessageERK7QStringjNS_8SeverityENS_4TypeE@Base 5.1.0
 _ZN19QOpenGLDebugMessage24createApplicationMessageERK7QStringjNS_8SeverityENS_4TypeE@Base 5.1.0
 _ZN19QOpenGLDebugMessageC1ERKS_@Base 5.1.0
 _ZN19QOpenGLDebugMessageC1Ev@Base 5.1.0
 _ZN19QOpenGLDebugMessageC2ERKS_@Base 5.1.0
 _ZN19QOpenGLDebugMessageC2Ev@Base 5.1.0
 _ZN19QOpenGLDebugMessageD1Ev@Base 5.1.0
 _ZN19QOpenGLDebugMessageD2Ev@Base 5.1.0
 _ZN19QOpenGLDebugMessageaSERKS_@Base 5.1.0
 _ZN19QOpenGLTextureCache10invalidateEx@Base 5.0.2 1
 _ZN19QOpenGLTextureCache11bindTextureEP14QOpenGLContextRK6QImage@Base 5.0.2 1
 _ZN19QOpenGLTextureCache11bindTextureEP14QOpenGLContextRK7QPixmap@Base 5.0.2 1
 _ZN19QOpenGLTextureCache11bindTextureEP14QOpenGLContextxRK6QImage@Base 5.0.2 1
 _ZN19QOpenGLTextureCache12freeResourceEP14QOpenGLContext@Base 5.0.2 1
 _ZN19QOpenGLTextureCache15cacheForContextEP14QOpenGLContext@Base 5.0.2 1
 _ZN19QOpenGLTextureCache18invalidateResourceEv@Base 5.0.2 1
 _ZN19QOpenGLTextureCacheC1EP14QOpenGLContext@Base 5.2.0~rc1 1
 _ZN19QOpenGLTextureCacheC2EP14QOpenGLContext@Base 5.2.0~rc1 1
 _ZN19QOpenGLTextureCacheD0Ev@Base 5.0.2 1
 _ZN19QOpenGLTextureCacheD1Ev@Base 5.0.2 1
 _ZN19QOpenGLTextureCacheD2Ev@Base 5.0.2 1
 _ZN19QPaintEnginePrivate15drawBoxTextItemERK7QPointFRK12QTextItemInt@Base 5.0.2 1
 _ZN19QPainterPathStroker11setCapStyleEN2Qt11PenCapStyleE@Base 5.0.2
 _ZN19QPainterPathStroker12setJoinStyleEN2Qt12PenJoinStyleE@Base 5.0.2
 _ZN19QPainterPathStroker13setDashOffsetEd@Base 5.2.0
 _ZN19QPainterPathStroker13setMiterLimitEd@Base 5.2.0
 _ZN19QPainterPathStroker14setDashPatternEN2Qt8PenStyleE@Base 5.0.2
 _ZN19QPainterPathStroker14setDashPatternERK7QVectorIdE@Base 5.2.0
 _ZN19QPainterPathStroker17setCurveThresholdEd@Base 5.2.0
 _ZN19QPainterPathStroker8setWidthEd@Base 5.2.0
 _ZN19QPainterPathStrokerC1ERK4QPen@Base 5.3.0
 _ZN19QPainterPathStrokerC1Ev@Base 5.0.2
 _ZN19QPainterPathStrokerC2ERK4QPen@Base 5.3.0
 _ZN19QPainterPathStrokerC2Ev@Base 5.0.2
 _ZN19QPainterPathStrokerD1Ev@Base 5.0.2
 _ZN19QPainterPathStrokerD2Ev@Base 5.0.2
 _ZN19QScrollPrepareEvent13setContentPosERK7QPointF@Base 5.0.2
 _ZN19QScrollPrepareEvent15setViewportSizeERK6QSizeF@Base 5.0.2
 _ZN19QScrollPrepareEvent18setContentPosRangeERK6QRectF@Base 5.0.2
 _ZN19QScrollPrepareEventC1ERK7QPointF@Base 5.0.2
 _ZN19QScrollPrepareEventC2ERK7QPointF@Base 5.0.2
 _ZN19QScrollPrepareEventD0Ev@Base 5.0.2
 _ZN19QScrollPrepareEventD1Ev@Base 5.0.2
 _ZN19QScrollPrepareEventD2Ev@Base 5.0.2
 _ZN19QTextDocumentLayout10timerEventEP11QTimerEvent@Base 5.0.2 1
 _ZN19QTextDocumentLayout11qt_metacallEN11QMetaObject4CallEiPPv@Base 5.0.2 1
 _ZN19QTextDocumentLayout11qt_metacastEPKc@Base 5.0.2 1
 _ZN19QTextDocumentLayout11setViewportERK6QRectF@Base 5.0.2 1
 _ZN19QTextDocumentLayout14ensureLayoutedEd@Base 5.2.0 1
 _ZN19QTextDocumentLayout14layoutFinishedEv@Base 5.0.2 1
 _ZN19QTextDocumentLayout14setCursorWidthEi@Base 5.0.2 1
 _ZN19QTextDocumentLayout15documentChangedEiii@Base 5.0.2 1
 _ZN19QTextDocumentLayout16drawInlineObjectEP8QPainterRK6QRectF17QTextInlineObjectiRK11QTextFormat@Base 5.0.2 1
 _ZN19QTextDocumentLayout16staticMetaObjectE@Base 5.0.2 1
 _ZN19QTextDocumentLayout18resizeInlineObjectE17QTextInlineObjectiRK11QTextFormat@Base 5.0.2 1
 _ZN19QTextDocumentLayout19setFixedColumnWidthEi@Base 5.0.2 1
 _ZN19QTextDocumentLayout20positionInlineObjectE17QTextInlineObjectiRK11QTextFormat@Base 5.0.2 1
 _ZN19QTextDocumentLayout4drawEP8QPainterRKN27QAbstractTextDocumentLayout12PaintContextE@Base 5.0.2 1
 _ZN19QTextDocumentLayout8doLayoutEiii@Base 5.0.2 1
 _ZN19QTextDocumentLayoutC1EP13QTextDocument@Base 5.0.2 1
 _ZN19QTextDocumentLayoutC2EP13QTextDocument@Base 5.0.2 1
 _ZN19QTextDocumentLayoutD0Ev@Base 5.0.2 1
 _ZN19QTextDocumentLayoutD1Ev@Base 5.0.2 1
 _ZN19QTextDocumentLayoutD2Ev@Base 5.0.2 1
 _ZN19QTextDocumentWriter11setFileNameERK7QString@Base 5.0.2
 _ZN19QTextDocumentWriter24supportedDocumentFormatsEv@Base 5.0.2
 _ZN19QTextDocumentWriter5writeEPK13QTextDocument@Base 5.0.2
 _ZN19QTextDocumentWriter5writeERK21QTextDocumentFragment@Base 5.0.2
 _ZN19QTextDocumentWriter8setCodecEP10QTextCodec@Base 5.0.2
 _ZN19QTextDocumentWriter9setDeviceEP9QIODevice@Base 5.0.2
 _ZN19QTextDocumentWriter9setFormatERK10QByteArray@Base 5.0.2
 _ZN19QTextDocumentWriterC1EP9QIODeviceRK10QByteArray@Base 5.0.2
 _ZN19QTextDocumentWriterC1ERK7QStringRK10QByteArray@Base 5.0.2
 _ZN19QTextDocumentWriterC1Ev@Base 5.0.2
 _ZN19QTextDocumentWriterC2EP9QIODeviceRK10QByteArray@Base 5.0.2
 _ZN19QTextDocumentWriterC2ERK7QStringRK10QByteArray@Base 5.0.2
 _ZN19QTextDocumentWriterC2Ev@Base 5.0.2
 _ZN19QTextDocumentWriterD1Ev@Base 5.0.2
 _ZN19QTextDocumentWriterD2Ev@Base 5.0.2
 _ZN19QToolBarChangeEventC1Eb@Base 5.0.2
 _ZN19QToolBarChangeEventC2Eb@Base 5.0.2
 _ZN19QToolBarChangeEventD0Ev@Base 5.0.2
 _ZN19QToolBarChangeEventD1Ev@Base 5.0.2
 _ZN19QToolBarChangeEventD2Ev@Base 5.0.2
 _ZN20QAccessibleInterface12virtual_hookEiPv@Base 5.0.2
 _ZN20QAccessibleInterfaceD0Ev@Base 5.1.0
 _ZN20QAccessibleInterfaceD1Ev@Base 5.1.0
 _ZN20QAccessibleInterfaceD2Ev@Base 5.1.0
 (arch=!armel !armhf)_ZN20QOpenGLFunctions_1_014versionProfileEv@Base 5.1.0
 (arch=!armel !armhf)_ZN20QOpenGLFunctions_1_019isContextCompatibleEP14QOpenGLContext@Base 5.1.0
 (arch=!armel !armhf)_ZN20QOpenGLFunctions_1_025initializeOpenGLFunctionsEv@Base 5.1.0
 (arch=!armel !armhf)_ZN20QOpenGLFunctions_1_0C1Ev@Base 5.1.0
 (arch=!armel !armhf)_ZN20QOpenGLFunctions_1_0C2Ev@Base 5.1.0
 (arch=!armel !armhf)_ZN20QOpenGLFunctions_1_0D0Ev@Base 5.1.0
 (arch=!armel !armhf)_ZN20QOpenGLFunctions_1_0D1Ev@Base 5.1.0
 (arch=!armel !armhf)_ZN20QOpenGLFunctions_1_0D2Ev@Base 5.1.0
 (arch=!armel !armhf)_ZN20QOpenGLFunctions_1_114versionProfileEv@Base 5.1.0
 (arch=!armel !armhf)_ZN20QOpenGLFunctions_1_119isContextCompatibleEP14QOpenGLContext@Base 5.1.0
 (arch=!armel !armhf)_ZN20QOpenGLFunctions_1_125initializeOpenGLFunctionsEv@Base 5.1.0
 (arch=!armel !armhf)_ZN20QOpenGLFunctions_1_1C1Ev@Base 5.1.0
 (arch=!armel !armhf)_ZN20QOpenGLFunctions_1_1C2Ev@Base 5.1.0
 (arch=!armel !armhf)_ZN20QOpenGLFunctions_1_1D0Ev@Base 5.1.0
 (arch=!armel !armhf)_ZN20QOpenGLFunctions_1_1D1Ev@Base 5.1.0
 (arch=!armel !armhf)_ZN20QOpenGLFunctions_1_1D2Ev@Base 5.1.0
 (arch=!armel !armhf)_ZN20QOpenGLFunctions_1_214versionProfileEv@Base 5.1.0
 (arch=!armel !armhf)_ZN20QOpenGLFunctions_1_219isContextCompatibleEP14QOpenGLContext@Base 5.1.0
 (arch=!armel !armhf)_ZN20QOpenGLFunctions_1_225initializeOpenGLFunctionsEv@Base 5.1.0
 (arch=!armel !armhf)_ZN20QOpenGLFunctions_1_2C1Ev@Base 5.1.0
 (arch=!armel !armhf)_ZN20QOpenGLFunctions_1_2C2Ev@Base 5.1.0
 (arch=!armel !armhf)_ZN20QOpenGLFunctions_1_2D0Ev@Base 5.1.0
 (arch=!armel !armhf)_ZN20QOpenGLFunctions_1_2D1Ev@Base 5.1.0
 (arch=!armel !armhf)_ZN20QOpenGLFunctions_1_2D2Ev@Base 5.1.0
 (arch=!armel !armhf)_ZN20QOpenGLFunctions_1_314versionProfileEv@Base 5.1.0
 (arch=!armel !armhf)_ZN20QOpenGLFunctions_1_319isContextCompatibleEP14QOpenGLContext@Base 5.1.0
 (arch=!armel !armhf)_ZN20QOpenGLFunctions_1_325initializeOpenGLFunctionsEv@Base 5.1.0
 (arch=!armel !armhf)_ZN20QOpenGLFunctions_1_3C1Ev@Base 5.1.0
 (arch=!armel !armhf)_ZN20QOpenGLFunctions_1_3C2Ev@Base 5.1.0
 (arch=!armel !armhf)_ZN20QOpenGLFunctions_1_3D0Ev@Base 5.1.0
 (arch=!armel !armhf)_ZN20QOpenGLFunctions_1_3D1Ev@Base 5.1.0
 (arch=!armel !armhf)_ZN20QOpenGLFunctions_1_3D2Ev@Base 5.1.0
 (arch=!armel !armhf)_ZN20QOpenGLFunctions_1_414versionProfileEv@Base 5.1.0
 (arch=!armel !armhf)_ZN20QOpenGLFunctions_1_419isContextCompatibleEP14QOpenGLContext@Base 5.1.0
 (arch=!armel !armhf)_ZN20QOpenGLFunctions_1_425initializeOpenGLFunctionsEv@Base 5.1.0
 (arch=!armel !armhf)_ZN20QOpenGLFunctions_1_4C1Ev@Base 5.1.0
 (arch=!armel !armhf)_ZN20QOpenGLFunctions_1_4C2Ev@Base 5.1.0
 (arch=!armel !armhf)_ZN20QOpenGLFunctions_1_4D0Ev@Base 5.1.0
 (arch=!armel !armhf)_ZN20QOpenGLFunctions_1_4D1Ev@Base 5.1.0
 (arch=!armel !armhf)_ZN20QOpenGLFunctions_1_4D2Ev@Base 5.1.0
 (arch=!armel !armhf)_ZN20QOpenGLFunctions_1_514versionProfileEv@Base 5.1.0
 (arch=!armel !armhf)_ZN20QOpenGLFunctions_1_519isContextCompatibleEP14QOpenGLContext@Base 5.1.0
 (arch=!armel !armhf)_ZN20QOpenGLFunctions_1_525initializeOpenGLFunctionsEv@Base 5.1.0
 (arch=!armel !armhf)_ZN20QOpenGLFunctions_1_5C1Ev@Base 5.1.0
 (arch=!armel !armhf)_ZN20QOpenGLFunctions_1_5C2Ev@Base 5.1.0
 (arch=!armel !armhf)_ZN20QOpenGLFunctions_1_5D0Ev@Base 5.1.0
 (arch=!armel !armhf)_ZN20QOpenGLFunctions_1_5D1Ev@Base 5.1.0
 (arch=!armel !armhf)_ZN20QOpenGLFunctions_1_5D2Ev@Base 5.1.0
 (arch=!armel !armhf)_ZN20QOpenGLFunctions_2_014versionProfileEv@Base 5.1.0
 (arch=!armel !armhf)_ZN20QOpenGLFunctions_2_019isContextCompatibleEP14QOpenGLContext@Base 5.1.0
 (arch=!armel !armhf)_ZN20QOpenGLFunctions_2_025initializeOpenGLFunctionsEv@Base 5.1.0
 (arch=!armel !armhf)_ZN20QOpenGLFunctions_2_0C1Ev@Base 5.1.0
 (arch=!armel !armhf)_ZN20QOpenGLFunctions_2_0C2Ev@Base 5.1.0
 (arch=!armel !armhf)_ZN20QOpenGLFunctions_2_0D0Ev@Base 5.1.0
 (arch=!armel !armhf)_ZN20QOpenGLFunctions_2_0D1Ev@Base 5.1.0
 (arch=!armel !armhf)_ZN20QOpenGLFunctions_2_0D2Ev@Base 5.1.0
 (arch=!armel !armhf)_ZN20QOpenGLFunctions_2_114versionProfileEv@Base 5.1.0
 (arch=!armel !armhf)_ZN20QOpenGLFunctions_2_119isContextCompatibleEP14QOpenGLContext@Base 5.1.0
 (arch=!armel !armhf)_ZN20QOpenGLFunctions_2_125initializeOpenGLFunctionsEv@Base 5.1.0
 (arch=!armel !armhf)_ZN20QOpenGLFunctions_2_1C1Ev@Base 5.1.0
 (arch=!armel !armhf)_ZN20QOpenGLFunctions_2_1C2Ev@Base 5.1.0
 (arch=!armel !armhf)_ZN20QOpenGLFunctions_2_1D0Ev@Base 5.1.0
 (arch=!armel !armhf)_ZN20QOpenGLFunctions_2_1D1Ev@Base 5.1.0
 (arch=!armel !armhf)_ZN20QOpenGLFunctions_2_1D2Ev@Base 5.1.0
 (arch=!armel !armhf)_ZN20QOpenGLFunctions_3_014versionProfileEv@Base 5.1.0
 (arch=!armel !armhf)_ZN20QOpenGLFunctions_3_019isContextCompatibleEP14QOpenGLContext@Base 5.1.0
 (arch=!armel !armhf)_ZN20QOpenGLFunctions_3_025initializeOpenGLFunctionsEv@Base 5.1.0
 (arch=!armel !armhf)_ZN20QOpenGLFunctions_3_0C1Ev@Base 5.1.0
 (arch=!armel !armhf)_ZN20QOpenGLFunctions_3_0C2Ev@Base 5.1.0
 (arch=!armel !armhf)_ZN20QOpenGLFunctions_3_0D0Ev@Base 5.1.0
 (arch=!armel !armhf)_ZN20QOpenGLFunctions_3_0D1Ev@Base 5.1.0
 (arch=!armel !armhf)_ZN20QOpenGLFunctions_3_0D2Ev@Base 5.1.0
 (arch=!armel !armhf)_ZN20QOpenGLFunctions_3_114versionProfileEv@Base 5.1.0
 (arch=!armel !armhf)_ZN20QOpenGLFunctions_3_119isContextCompatibleEP14QOpenGLContext@Base 5.1.0
 (arch=!armel !armhf)_ZN20QOpenGLFunctions_3_125initializeOpenGLFunctionsEv@Base 5.1.0
 (arch=!armel !armhf)_ZN20QOpenGLFunctions_3_1C1Ev@Base 5.1.0
 (arch=!armel !armhf)_ZN20QOpenGLFunctions_3_1C2Ev@Base 5.1.0
 (arch=!armel !armhf)_ZN20QOpenGLFunctions_3_1D0Ev@Base 5.1.0
 (arch=!armel !armhf)_ZN20QOpenGLFunctions_3_1D1Ev@Base 5.1.0
 (arch=!armel !armhf)_ZN20QOpenGLFunctions_3_1D2Ev@Base 5.1.0
 (arch=armel armhf)_ZN20QOpenGLFunctions_ES214versionProfileEv@Base 5.2.0
 (arch=armel armhf)_ZN20QOpenGLFunctions_ES219isContextCompatibleEP14QOpenGLContext@Base 5.2.0
 (arch=armel armhf)_ZN20QOpenGLFunctions_ES225initializeOpenGLFunctionsEv@Base 5.2.0
 (arch=armel armhf)_ZN20QOpenGLFunctions_ES2C1Ev@Base 5.2.0
 (arch=armel armhf)_ZN20QOpenGLFunctions_ES2C2Ev@Base 5.2.0
 (arch=armel armhf)_ZN20QOpenGLFunctions_ES2D0Ev@Base 5.2.0
 (arch=armel armhf)_ZN20QOpenGLFunctions_ES2D1Ev@Base 5.2.0
 (arch=armel armhf)_ZN20QOpenGLFunctions_ES2D2Ev@Base 5.2.0
 _ZN20QOpenGLShaderProgram11qt_metacallEN11QMetaObject4CallEiPPv@Base 5.0.2
 _ZN20QOpenGLShaderProgram11qt_metacastEPKc@Base 5.0.2
 _ZN20QOpenGLShaderProgram12removeShaderEP13QOpenGLShader@Base 5.0.2
 _ZN20QOpenGLShaderProgram15setUniformValueEPKcPA2_Kf@Base 5.0.2
 _ZN20QOpenGLShaderProgram15setUniformValueEPKcPA3_Kf@Base 5.0.2
 _ZN20QOpenGLShaderProgram15setUniformValueEPKcPA4_Kf@Base 5.0.2
 _ZN20QOpenGLShaderProgram15setUniformValueEPKcRK10QMatrix4x4@Base 5.0.2
 _ZN20QOpenGLShaderProgram15setUniformValueEPKcRK10QTransform@Base 5.0.2
 _ZN20QOpenGLShaderProgram15setUniformValueEPKcRK14QGenericMatrixILi2ELi2EfE@Base 5.0.2
 _ZN20QOpenGLShaderProgram15setUniformValueEPKcRK14QGenericMatrixILi2ELi3EfE@Base 5.0.2
 _ZN20QOpenGLShaderProgram15setUniformValueEPKcRK14QGenericMatrixILi2ELi4EfE@Base 5.0.2
 _ZN20QOpenGLShaderProgram15setUniformValueEPKcRK14QGenericMatrixILi3ELi2EfE@Base 5.0.2
 _ZN20QOpenGLShaderProgram15setUniformValueEPKcRK14QGenericMatrixILi3ELi3EfE@Base 5.0.2
 _ZN20QOpenGLShaderProgram15setUniformValueEPKcRK14QGenericMatrixILi3ELi4EfE@Base 5.0.2
 _ZN20QOpenGLShaderProgram15setUniformValueEPKcRK14QGenericMatrixILi4ELi2EfE@Base 5.0.2
 _ZN20QOpenGLShaderProgram15setUniformValueEPKcRK14QGenericMatrixILi4ELi3EfE@Base 5.0.2
 _ZN20QOpenGLShaderProgram15setUniformValueEPKcRK5QSize@Base 5.0.2
 _ZN20QOpenGLShaderProgram15setUniformValueEPKcRK6QColor@Base 5.0.2
 _ZN20QOpenGLShaderProgram15setUniformValueEPKcRK6QPoint@Base 5.0.2
 _ZN20QOpenGLShaderProgram15setUniformValueEPKcRK6QSizeF@Base 5.0.2
 _ZN20QOpenGLShaderProgram15setUniformValueEPKcRK7QPointF@Base 5.0.2
 _ZN20QOpenGLShaderProgram15setUniformValueEPKcRK9QVector2D@Base 5.0.2
 _ZN20QOpenGLShaderProgram15setUniformValueEPKcRK9QVector3D@Base 5.0.2
 _ZN20QOpenGLShaderProgram15setUniformValueEPKcRK9QVector4D@Base 5.0.2
 _ZN20QOpenGLShaderProgram15setUniformValueEPKcf@Base 5.0.2
 _ZN20QOpenGLShaderProgram15setUniformValueEPKcff@Base 5.0.2
 _ZN20QOpenGLShaderProgram15setUniformValueEPKcfff@Base 5.0.2
 _ZN20QOpenGLShaderProgram15setUniformValueEPKcffff@Base 5.0.2
 _ZN20QOpenGLShaderProgram15setUniformValueEPKci@Base 5.0.2
 _ZN20QOpenGLShaderProgram15setUniformValueEPKcj@Base 5.0.2
 _ZN20QOpenGLShaderProgram15setUniformValueEiPA2_Kf@Base 5.0.2
 _ZN20QOpenGLShaderProgram15setUniformValueEiPA3_Kf@Base 5.0.2
 _ZN20QOpenGLShaderProgram15setUniformValueEiPA4_Kf@Base 5.0.2
 _ZN20QOpenGLShaderProgram15setUniformValueEiRK10QMatrix4x4@Base 5.0.2
 _ZN20QOpenGLShaderProgram15setUniformValueEiRK10QTransform@Base 5.0.2
 _ZN20QOpenGLShaderProgram15setUniformValueEiRK14QGenericMatrixILi2ELi2EfE@Base 5.0.2
 _ZN20QOpenGLShaderProgram15setUniformValueEiRK14QGenericMatrixILi2ELi3EfE@Base 5.0.2
 _ZN20QOpenGLShaderProgram15setUniformValueEiRK14QGenericMatrixILi2ELi4EfE@Base 5.0.2
 _ZN20QOpenGLShaderProgram15setUniformValueEiRK14QGenericMatrixILi3ELi2EfE@Base 5.0.2
 _ZN20QOpenGLShaderProgram15setUniformValueEiRK14QGenericMatrixILi3ELi3EfE@Base 5.0.2
 _ZN20QOpenGLShaderProgram15setUniformValueEiRK14QGenericMatrixILi3ELi4EfE@Base 5.0.2
 _ZN20QOpenGLShaderProgram15setUniformValueEiRK14QGenericMatrixILi4ELi2EfE@Base 5.0.2
 _ZN20QOpenGLShaderProgram15setUniformValueEiRK14QGenericMatrixILi4ELi3EfE@Base 5.0.2
 _ZN20QOpenGLShaderProgram15setUniformValueEiRK5QSize@Base 5.0.2
 _ZN20QOpenGLShaderProgram15setUniformValueEiRK6QColor@Base 5.0.2
 _ZN20QOpenGLShaderProgram15setUniformValueEiRK6QPoint@Base 5.0.2
 _ZN20QOpenGLShaderProgram15setUniformValueEiRK6QSizeF@Base 5.0.2
 _ZN20QOpenGLShaderProgram15setUniformValueEiRK7QPointF@Base 5.0.2
 _ZN20QOpenGLShaderProgram15setUniformValueEiRK9QVector2D@Base 5.0.2
 _ZN20QOpenGLShaderProgram15setUniformValueEiRK9QVector3D@Base 5.0.2
 _ZN20QOpenGLShaderProgram15setUniformValueEiRK9QVector4D@Base 5.0.2
 _ZN20QOpenGLShaderProgram15setUniformValueEif@Base 5.0.2
 _ZN20QOpenGLShaderProgram15setUniformValueEiff@Base 5.0.2
 _ZN20QOpenGLShaderProgram15setUniformValueEifff@Base 5.0.2
 _ZN20QOpenGLShaderProgram15setUniformValueEiffff@Base 5.0.2
 _ZN20QOpenGLShaderProgram15setUniformValueEii@Base 5.0.2
 _ZN20QOpenGLShaderProgram15setUniformValueEij@Base 5.0.2
 _ZN20QOpenGLShaderProgram15shaderDestroyedEv@Base 5.0.2
 _ZN20QOpenGLShaderProgram16removeAllShadersEv@Base 5.0.2
 _ZN20QOpenGLShaderProgram16staticMetaObjectE@Base 5.0.2
 _ZN20QOpenGLShaderProgram17setAttributeArrayEPKcPK9QVector2Di@Base 5.0.2
 _ZN20QOpenGLShaderProgram17setAttributeArrayEPKcPK9QVector3Di@Base 5.0.2
 _ZN20QOpenGLShaderProgram17setAttributeArrayEPKcPK9QVector4Di@Base 5.0.2
 _ZN20QOpenGLShaderProgram17setAttributeArrayEPKcPKfii@Base 5.0.2
 _ZN20QOpenGLShaderProgram17setAttributeArrayEPKcjPKvii@Base 5.0.2
 _ZN20QOpenGLShaderProgram17setAttributeArrayEiPK9QVector2Di@Base 5.0.2
 _ZN20QOpenGLShaderProgram17setAttributeArrayEiPK9QVector3Di@Base 5.0.2
 _ZN20QOpenGLShaderProgram17setAttributeArrayEiPK9QVector4Di@Base 5.0.2
 _ZN20QOpenGLShaderProgram17setAttributeArrayEiPKfii@Base 5.0.2
 _ZN20QOpenGLShaderProgram17setAttributeArrayEijPKvii@Base 5.0.2
 _ZN20QOpenGLShaderProgram17setAttributeValueEPKcPKfii@Base 5.0.2
 _ZN20QOpenGLShaderProgram17setAttributeValueEPKcRK6QColor@Base 5.0.2
 _ZN20QOpenGLShaderProgram17setAttributeValueEPKcRK9QVector2D@Base 5.0.2
 _ZN20QOpenGLShaderProgram17setAttributeValueEPKcRK9QVector3D@Base 5.0.2
 _ZN20QOpenGLShaderProgram17setAttributeValueEPKcRK9QVector4D@Base 5.0.2
 _ZN20QOpenGLShaderProgram17setAttributeValueEPKcf@Base 5.0.2
 _ZN20QOpenGLShaderProgram17setAttributeValueEPKcff@Base 5.0.2
 _ZN20QOpenGLShaderProgram17setAttributeValueEPKcfff@Base 5.0.2
 _ZN20QOpenGLShaderProgram17setAttributeValueEPKcffff@Base 5.0.2
 _ZN20QOpenGLShaderProgram17setAttributeValueEiPKfii@Base 5.0.2
 _ZN20QOpenGLShaderProgram17setAttributeValueEiRK6QColor@Base 5.0.2
 _ZN20QOpenGLShaderProgram17setAttributeValueEiRK9QVector2D@Base 5.0.2
 _ZN20QOpenGLShaderProgram17setAttributeValueEiRK9QVector3D@Base 5.0.2
 _ZN20QOpenGLShaderProgram17setAttributeValueEiRK9QVector4D@Base 5.0.2
 _ZN20QOpenGLShaderProgram17setAttributeValueEif@Base 5.0.2
 _ZN20QOpenGLShaderProgram17setAttributeValueEiff@Base 5.0.2
 _ZN20QOpenGLShaderProgram17setAttributeValueEifff@Base 5.0.2
 _ZN20QOpenGLShaderProgram17setAttributeValueEiffff@Base 5.0.2
 _ZN20QOpenGLShaderProgram18setAttributeBufferEPKcjiii@Base 5.0.2
 _ZN20QOpenGLShaderProgram18setAttributeBufferEijiii@Base 5.0.2
 _ZN20QOpenGLShaderProgram19setPatchVertexCountEi@Base 5.1.0
 _ZN20QOpenGLShaderProgram20enableAttributeArrayEPKc@Base 5.0.2
 _ZN20QOpenGLShaderProgram20enableAttributeArrayEi@Base 5.0.2
 _ZN20QOpenGLShaderProgram20setUniformValueArrayEPKcPK10QMatrix4x4i@Base 5.0.2
 _ZN20QOpenGLShaderProgram20setUniformValueArrayEPKcPK14QGenericMatrixILi2ELi2EfEi@Base 5.0.2
 _ZN20QOpenGLShaderProgram20setUniformValueArrayEPKcPK14QGenericMatrixILi2ELi3EfEi@Base 5.0.2
 _ZN20QOpenGLShaderProgram20setUniformValueArrayEPKcPK14QGenericMatrixILi2ELi4EfEi@Base 5.0.2
 _ZN20QOpenGLShaderProgram20setUniformValueArrayEPKcPK14QGenericMatrixILi3ELi2EfEi@Base 5.0.2
 _ZN20QOpenGLShaderProgram20setUniformValueArrayEPKcPK14QGenericMatrixILi3ELi3EfEi@Base 5.0.2
 _ZN20QOpenGLShaderProgram20setUniformValueArrayEPKcPK14QGenericMatrixILi3ELi4EfEi@Base 5.0.2
 _ZN20QOpenGLShaderProgram20setUniformValueArrayEPKcPK14QGenericMatrixILi4ELi2EfEi@Base 5.0.2
 _ZN20QOpenGLShaderProgram20setUniformValueArrayEPKcPK14QGenericMatrixILi4ELi3EfEi@Base 5.0.2
 _ZN20QOpenGLShaderProgram20setUniformValueArrayEPKcPK9QVector2Di@Base 5.0.2
 _ZN20QOpenGLShaderProgram20setUniformValueArrayEPKcPK9QVector3Di@Base 5.0.2
 _ZN20QOpenGLShaderProgram20setUniformValueArrayEPKcPK9QVector4Di@Base 5.0.2
 _ZN20QOpenGLShaderProgram20setUniformValueArrayEPKcPKfii@Base 5.0.2
 _ZN20QOpenGLShaderProgram20setUniformValueArrayEPKcPKii@Base 5.0.2
 _ZN20QOpenGLShaderProgram20setUniformValueArrayEPKcPKji@Base 5.0.2
 _ZN20QOpenGLShaderProgram20setUniformValueArrayEiPK10QMatrix4x4i@Base 5.0.2
 _ZN20QOpenGLShaderProgram20setUniformValueArrayEiPK14QGenericMatrixILi2ELi2EfEi@Base 5.0.2
 _ZN20QOpenGLShaderProgram20setUniformValueArrayEiPK14QGenericMatrixILi2ELi3EfEi@Base 5.0.2
 _ZN20QOpenGLShaderProgram20setUniformValueArrayEiPK14QGenericMatrixILi2ELi4EfEi@Base 5.0.2
 _ZN20QOpenGLShaderProgram20setUniformValueArrayEiPK14QGenericMatrixILi3ELi2EfEi@Base 5.0.2
 _ZN20QOpenGLShaderProgram20setUniformValueArrayEiPK14QGenericMatrixILi3ELi3EfEi@Base 5.0.2
 _ZN20QOpenGLShaderProgram20setUniformValueArrayEiPK14QGenericMatrixILi3ELi4EfEi@Base 5.0.2
 _ZN20QOpenGLShaderProgram20setUniformValueArrayEiPK14QGenericMatrixILi4ELi2EfEi@Base 5.0.2
 _ZN20QOpenGLShaderProgram20setUniformValueArrayEiPK14QGenericMatrixILi4ELi3EfEi@Base 5.0.2
 _ZN20QOpenGLShaderProgram20setUniformValueArrayEiPK9QVector2Di@Base 5.0.2
 _ZN20QOpenGLShaderProgram20setUniformValueArrayEiPK9QVector3Di@Base 5.0.2
 _ZN20QOpenGLShaderProgram20setUniformValueArrayEiPK9QVector4Di@Base 5.0.2
 _ZN20QOpenGLShaderProgram20setUniformValueArrayEiPKfii@Base 5.0.2
 _ZN20QOpenGLShaderProgram20setUniformValueArrayEiPKii@Base 5.0.2
 _ZN20QOpenGLShaderProgram20setUniformValueArrayEiPKji@Base 5.0.2
 _ZN20QOpenGLShaderProgram21bindAttributeLocationEPKci@Base 5.0.2
 _ZN20QOpenGLShaderProgram21bindAttributeLocationERK10QByteArrayi@Base 5.0.2
 _ZN20QOpenGLShaderProgram21bindAttributeLocationERK7QStringi@Base 5.0.2
 _ZN20QOpenGLShaderProgram21disableAttributeArrayEPKc@Base 5.0.2
 _ZN20QOpenGLShaderProgram21disableAttributeArrayEi@Base 5.0.2
 _ZN20QOpenGLShaderProgram23addShaderFromSourceCodeE6QFlagsIN13QOpenGLShader13ShaderTypeBitEEPKc@Base 5.0.2
 _ZN20QOpenGLShaderProgram23addShaderFromSourceCodeE6QFlagsIN13QOpenGLShader13ShaderTypeBitEERK10QByteArray@Base 5.0.2
 _ZN20QOpenGLShaderProgram23addShaderFromSourceCodeE6QFlagsIN13QOpenGLShader13ShaderTypeBitEERK7QString@Base 5.0.2
 _ZN20QOpenGLShaderProgram23addShaderFromSourceFileE6QFlagsIN13QOpenGLShader13ShaderTypeBitEERK7QString@Base 5.0.2
 _ZN20QOpenGLShaderProgram23hasOpenGLShaderProgramsEP14QOpenGLContext@Base 5.0.2
 _ZN20QOpenGLShaderProgram33setDefaultInnerTessellationLevelsERK7QVectorIfE@Base 5.1.0
 _ZN20QOpenGLShaderProgram33setDefaultOuterTessellationLevelsERK7QVectorIfE@Base 5.1.0
 _ZN20QOpenGLShaderProgram4bindEv@Base 5.0.2
 _ZN20QOpenGLShaderProgram4initEv@Base 5.0.2
 _ZN20QOpenGLShaderProgram4linkEv@Base 5.0.2
 _ZN20QOpenGLShaderProgram6createEv@Base 5.3.0
 _ZN20QOpenGLShaderProgram7releaseEv@Base 5.0.2
 _ZN20QOpenGLShaderProgram9addShaderEP13QOpenGLShader@Base 5.0.2
 _ZN20QOpenGLShaderProgramC1EP7QObject@Base 5.0.2
 _ZN20QOpenGLShaderProgramC2EP7QObject@Base 5.0.2
 _ZN20QOpenGLShaderProgramD0Ev@Base 5.0.2
 _ZN20QOpenGLShaderProgramD1Ev@Base 5.0.2
 _ZN20QOpenGLShaderProgramD2Ev@Base 5.0.2
 _ZN20QPictureFormatPlugin11loadPictureERK7QStringS2_P8QPicture@Base 5.0.2
 _ZN20QPictureFormatPlugin11qt_metacallEN11QMetaObject4CallEiPPv@Base 5.0.2
 _ZN20QPictureFormatPlugin11qt_metacastEPKc@Base 5.0.2
 _ZN20QPictureFormatPlugin11savePictureERK7QStringS2_RK8QPicture@Base 5.0.2
 _ZN20QPictureFormatPlugin16staticMetaObjectE@Base 5.0.2
 _ZN20QPictureFormatPluginC1EP7QObject@Base 5.0.2
 _ZN20QPictureFormatPluginC2EP7QObject@Base 5.0.2
 _ZN20QPictureFormatPluginD0Ev@Base 5.0.2
 _ZN20QPictureFormatPluginD1Ev@Base 5.0.2
 _ZN20QPictureFormatPluginD2Ev@Base 5.0.2
 _ZN20QPlatformCursorImage18createSystemCursorEi@Base 5.0.2 1
 _ZN20QPlatformCursorImage3setEN2Qt11CursorShapeE@Base 5.0.2 1
 _ZN20QPlatformCursorImage3setEPKhS1_iiii@Base 5.0.2 1
 _ZN20QPlatformCursorImage3setERK6QImageii@Base 5.0.2 1
 _ZN20QPlatformIntegration10initializeEv@Base 5.2.0~beta1 1
 _ZN20QPlatformIntegration11screenAddedEP15QPlatformScreen@Base 5.0.2 1
 _ZN20QPlatformIntegration16openGLModuleTypeEv@Base 5.3.0 1
 _ZN20QPlatformIntegration4syncEv@Base 5.2.0~rc1 1
 _ZN20QPlatformTextureList11qt_metacallEN11QMetaObject4CallEiPPv@Base 5.3.0 1
 _ZN20QPlatformTextureList11qt_metacastEPKc@Base 5.3.0 1
 _ZN20QPlatformTextureList13appendTextureEjRK5QRect@Base 5.3.0 1
 _ZN20QPlatformTextureList16staticMetaObjectE@Base 5.3.0 1
 _ZN20QPlatformTextureList4lockEb@Base 5.3.0 1
 _ZN20QPlatformTextureList5clearEv@Base 5.3.0 1
 _ZN20QPlatformTextureList6lockedEb@Base 5.3.0 1
 _ZN20QPlatformTextureListC1EP7QObject@Base 5.3.0 1
 _ZN20QPlatformTextureListC2EP7QObject@Base 5.3.0 1
 _ZN20QPlatformTextureListD0Ev@Base 5.3.0 1
 _ZN20QPlatformTextureListD1Ev@Base 5.3.0 1
 _ZN20QPlatformTextureListD2Ev@Base 5.3.0 1
 _ZN20QPlatformThemePlugin11qt_metacallEN11QMetaObject4CallEiPPv@Base 5.0.2 1
 _ZN20QPlatformThemePlugin11qt_metacastEPKc@Base 5.0.2 1
 _ZN20QPlatformThemePlugin16staticMetaObjectE@Base 5.0.2 1
 _ZN20QPlatformThemePluginC1EP7QObject@Base 5.0.2 1
 _ZN20QPlatformThemePluginC2EP7QObject@Base 5.0.2 1
 _ZN20QPlatformThemePluginD0Ev@Base 5.0.2 1
 _ZN20QPlatformThemePluginD1Ev@Base 5.0.2 1
 _ZN20QPlatformThemePluginD2Ev@Base 5.0.2 1
 _ZN20QTextFrameLayoutDataD0Ev@Base 5.0.2
 _ZN20QTextFrameLayoutDataD1Ev@Base 5.0.2
 _ZN20QTextFrameLayoutDataD2Ev@Base 5.0.2
 _ZN20QTextTableCellFormatC1ERK11QTextFormat@Base 5.0.2
 _ZN20QTextTableCellFormatC1Ev@Base 5.0.2
 _ZN20QTextTableCellFormatC2ERK11QTextFormat@Base 5.0.2
 _ZN20QTextTableCellFormatC2Ev@Base 5.0.2
 _ZN21QGenericPluginFactory4keysEv@Base 5.0.2
 _ZN21QGenericPluginFactory6createERK7QStringS2_@Base 5.0.2
 _ZN21QMessageDialogOptions14setWindowTitleERK7QString@Base 5.2.0~alpha1 1
 _ZN21QMessageDialogOptions15setDetailedTextERK7QString@Base 5.2.0~alpha1 1
 _ZN21QMessageDialogOptions18setInformativeTextERK7QString@Base 5.2.0~alpha1 1
 _ZN21QMessageDialogOptions18setStandardButtonsE6QFlagsIN21QPlatformDialogHelper14StandardButtonEE@Base 5.3.0 1
 _ZN21QMessageDialogOptions7setIconENS_4IconE@Base 5.2.0~alpha1 1
 _ZN21QMessageDialogOptions7setTextERK7QString@Base 5.2.0~alpha1 1
 _ZN21QMessageDialogOptionsC1ERKS_@Base 5.2.0~alpha1 1
 _ZN21QMessageDialogOptionsC1Ev@Base 5.2.0~alpha1 1
 _ZN21QMessageDialogOptionsC2ERKS_@Base 5.2.0~alpha1 1
 _ZN21QMessageDialogOptionsC2Ev@Base 5.2.0~alpha1 1
 _ZN21QMessageDialogOptionsD1Ev@Base 5.2.0~alpha1 1
 _ZN21QMessageDialogOptionsD2Ev@Base 5.2.0~alpha1 1
 _ZN21QMessageDialogOptionsaSERKS_@Base 5.2.0~alpha1 1
 _ZN21QOpenGL2PaintEngineEx10drawPixmapERK6QRectFRK7QPixmapS2_@Base 5.0.2 1
 _ZN21QOpenGL2PaintEngineEx10penChangedEv@Base 5.0.2 1
 _ZN21QOpenGL2PaintEngineEx11drawTextureERK6QRectFjRK5QSizeS2_@Base 5.0.2 1
 _ZN21QOpenGL2PaintEngineEx12brushChangedEv@Base 5.0.2 1
 _ZN21QOpenGL2PaintEngineEx12drawTextItemERK7QPointFRK9QTextItem@Base 5.0.2 1
 _ZN21QOpenGL2PaintEngineEx12ensureActiveEv@Base 5.0.2 1
 _ZN21QOpenGL2PaintEngineEx14opacityChangedEv@Base 5.0.2 1
 _ZN21QOpenGL2PaintEngineEx15invalidateStateEv@Base 5.0.2 1
 _ZN21QOpenGL2PaintEngineEx16transformChangedEv@Base 5.0.2 1
 _ZN21QOpenGL2PaintEngineEx17endNativePaintingEv@Base 5.0.2 1
 _ZN21QOpenGL2PaintEngineEx18brushOriginChangedEv@Base 5.0.2 1
 _ZN21QOpenGL2PaintEngineEx18clipEnabledChangedEv@Base 5.0.2 1
 _ZN21QOpenGL2PaintEngineEx18drawStaticTextItemEP15QStaticTextItem@Base 5.0.2 1
 _ZN21QOpenGL2PaintEngineEx18renderHintsChangedEv@Base 5.0.2 1
 _ZN21QOpenGL2PaintEngineEx19beginNativePaintingEv@Base 5.0.2 1
 _ZN21QOpenGL2PaintEngineEx19drawPixmapFragmentsEPKN8QPainter14PixmapFragmentEiRK7QPixmap6QFlagsINS0_18PixmapFragmentHintEE@Base 5.0.2 1
 _ZN21QOpenGL2PaintEngineEx22compositionModeChangedEv@Base 5.0.2 1
 _ZN21QOpenGL2PaintEngineEx3endEv@Base 5.0.2 1
 _ZN21QOpenGL2PaintEngineEx4clipERK11QVectorPathN2Qt13ClipOperationE@Base 5.0.2 1
 _ZN21QOpenGL2PaintEngineEx4fillERK11QVectorPathRK6QBrush@Base 5.0.2 1
 _ZN21QOpenGL2PaintEngineEx5beginEP12QPaintDevice@Base 5.0.2 1
 _ZN21QOpenGL2PaintEngineEx6strokeERK11QVectorPathRK4QPen@Base 5.0.2 1
 _ZN21QOpenGL2PaintEngineEx8setStateEP13QPainterState@Base 5.0.2 1
 _ZN21QOpenGL2PaintEngineEx9drawImageERK6QRectFRK6QImageS2_6QFlagsIN2Qt19ImageConversionFlagEE@Base 5.0.2 1
 _ZN21QOpenGL2PaintEngineExC1Ev@Base 5.0.2 1
 _ZN21QOpenGL2PaintEngineExC2Ev@Base 5.0.2 1
 _ZN21QOpenGL2PaintEngineExD0Ev@Base 5.0.2 1
 _ZN21QOpenGL2PaintEngineExD1Ev@Base 5.0.2 1
 _ZN21QOpenGL2PaintEngineExD2Ev@Base 5.0.2 1
 _ZN21QOpenGLContextPrivate14maxTextureSizeEv@Base 5.0.2 1
 _ZN21QOpenGLContextPrivate17setCurrentContextEP14QOpenGLContext@Base 5.0.2 1
 _ZN21QOpenGLContextPrivate18globalShareContextEv@Base 5.3.0 1
 _ZN21QOpenGLContextPrivate21setGlobalShareContextEP14QOpenGLContext@Base 5.3.0 1
 _ZN21QOpenGLSharedResource4freeEv@Base 5.0.2 1
 _ZN21QOpenGLSharedResourceC1EP19QOpenGLContextGroup@Base 5.0.2 1
 _ZN21QOpenGLSharedResourceC2EP19QOpenGLContextGroup@Base 5.0.2 1
 _ZN21QOpenGLSharedResourceD0Ev@Base 5.0.2 1
 _ZN21QOpenGLSharedResourceD1Ev@Base 5.0.2 1
 _ZN21QOpenGLSharedResourceD2Ev@Base 5.0.2 1
 _ZN21QOpenGLTextureBlitter12setSwizzleRBEb@Base 5.3.0 1
 _ZN21QOpenGLTextureBlitter15sourceTransformERK6QRectFRK5QSizeNS_6OriginE@Base 5.3.0 1
 _ZN21QOpenGLTextureBlitter15targetTransformERK6QRectFRK5QRect@Base 5.3.0 1
 _ZN21QOpenGLTextureBlitter4bindEv@Base 5.3.0 1
 _ZN21QOpenGLTextureBlitter4blitEjRK10QMatrix4x4NS_6OriginE@Base 5.3.0 1
 _ZN21QOpenGLTextureBlitter4blitEjRK10QMatrix4x4RK14QGenericMatrixILi3ELi3EfE@Base 5.3.0 1
 _ZN21QOpenGLTextureBlitter6createEv@Base 5.3.0 1
 _ZN21QOpenGLTextureBlitter7destroyEv@Base 5.3.0 1
 _ZN21QOpenGLTextureBlitter7releaseEv@Base 5.3.0 1
 _ZN21QOpenGLTextureBlitterC1Ev@Base 5.3.0 1
 _ZN21QOpenGLTextureBlitterC2Ev@Base 5.3.0 1
 _ZN21QOpenGLTextureBlitterD1Ev@Base 5.3.0 1
 _ZN21QOpenGLTextureBlitterD2Ev@Base 5.3.0 1
 _ZN21QOpenGLVersionProfile10setProfileEN14QSurfaceFormat20OpenGLContextProfileE@Base 5.1.0
 _ZN21QOpenGLVersionProfile10setVersionEii@Base 5.1.0
 _ZN21QOpenGLVersionProfileC1ERK14QSurfaceFormat@Base 5.1.0
 _ZN21QOpenGLVersionProfileC1ERKS_@Base 5.1.0
 _ZN21QOpenGLVersionProfileC1Ev@Base 5.1.0
 _ZN21QOpenGLVersionProfileC2ERK14QSurfaceFormat@Base 5.1.0
 _ZN21QOpenGLVersionProfileC2ERKS_@Base 5.1.0
 _ZN21QOpenGLVersionProfileC2Ev@Base 5.1.0
 _ZN21QOpenGLVersionProfileD1Ev@Base 5.1.0
 _ZN21QOpenGLVersionProfileD2Ev@Base 5.1.0
 _ZN21QOpenGLVersionProfileaSERKS_@Base 5.1.0
 _ZN21QPaintEngineExPrivate20replayClipOperationsEv@Base 5.0.2 1
 _ZN21QPaintEngineExPrivateC1Ev@Base 5.0.2 1
 _ZN21QPaintEngineExPrivateC2Ev@Base 5.0.2 1
 _ZN21QPaintEngineExPrivateD0Ev@Base 5.0.2 1
 _ZN21QPaintEngineExPrivateD1Ev@Base 5.0.2 1
 _ZN21QPaintEngineExPrivateD2Ev@Base 5.0.2 1
 _ZN21QPlatformBackingStore10beginPaintERK7QRegion@Base 5.0.2 1
 _ZN21QPlatformBackingStore15composeAndFlushEP7QWindowRK7QRegionRK6QPointP20QPlatformTextureListP14QOpenGLContext@Base 5.3.0 1
 _ZN21QPlatformBackingStore6scrollERK7QRegionii@Base 5.0.2 1
 _ZN21QPlatformBackingStore8endPaintEv@Base 5.0.2 1
 _ZN21QPlatformBackingStoreC1EP7QWindow@Base 5.0.2 1
 _ZN21QPlatformBackingStoreC2EP7QWindow@Base 5.0.2 1
 _ZN21QPlatformBackingStoreD0Ev@Base 5.0.2 1
 _ZN21QPlatformBackingStoreD1Ev@Base 5.0.2 1
 _ZN21QPlatformBackingStoreD2Ev@Base 5.0.2 1
 _ZN21QPlatformDialogHelper10buttonRoleENS_14StandardButtonE@Base 5.3.0 1
 _ZN21QPlatformDialogHelper11qt_metacallEN11QMetaObject4CallEiPPv@Base 5.0.2 1
 _ZN21QPlatformDialogHelper11qt_metacastEPKc@Base 5.0.2 1
 _ZN21QPlatformDialogHelper12buttonLayoutEN2Qt11OrientationENS_12ButtonLayoutE@Base 5.3.0 1
 _ZN21QPlatformDialogHelper16defaultStyleHintENS_9StyleHintE@Base 5.0.2 1
 _ZN21QPlatformDialogHelper16staticMetaObjectE@Base 5.0.2 1
 _ZN21QPlatformDialogHelper6acceptEv@Base 5.0.2 1
 _ZN21QPlatformDialogHelper6rejectEv@Base 5.0.2 1
 _ZN21QPlatformDialogHelperC1Ev@Base 5.0.2 1
 _ZN21QPlatformDialogHelperC2Ev@Base 5.0.2 1
 _ZN21QPlatformDialogHelperD0Ev@Base 5.0.2 1
 _ZN21QPlatformDialogHelperD1Ev@Base 5.0.2 1
 _ZN21QPlatformDialogHelperD2Ev@Base 5.0.2 1
 _ZN21QPlatformFontDatabase10fontEngineERK10QByteArraydN5QFont17HintingPreferenceE@Base 5.2.0 1
 _ZN21QPlatformFontDatabase10fontEngineERK8QFontDefPv@Base 5.3.0 1
 _ZN21QPlatformFontDatabase10invalidateEv@Base 5.3.0 1
 _ZN21QPlatformFontDatabase12registerFontERK7QStringS2_S2_N5QFont6WeightENS3_5StyleENS3_7StretchEbbibRK24QSupportedWritingSystemsPv@Base 5.0.2 1
 _ZN21QPlatformFontDatabase13releaseHandleEPv@Base 5.0.2 1
 _ZN21QPlatformFontDatabase14populateFamilyERK7QString@Base 5.3.0 1
 _ZN21QPlatformFontDatabase15fontEngineMultiEP11QFontEngineN5QChar6ScriptE@Base 5.1.0 1
 _ZN21QPlatformFontDatabase16registerQPF2FontERK10QByteArrayPv@Base 5.0.2 1
 _ZN21QPlatformFontDatabase18addApplicationFontERK10QByteArrayRK7QString@Base 5.0.2 1
 _ZN21QPlatformFontDatabase18registerFontFamilyERK7QString@Base 5.3.0 1
 _ZN21QPlatformFontDatabase20populateFontDatabaseEv@Base 5.0.2 1
 _ZN21QPlatformFontDatabase25registerAliasToFontFamilyERK7QStringS2_@Base 5.2.0~alpha1 1
 _ZN21QPlatformFontDatabase30writingSystemsFromTrueTypeBitsEPjS0_@Base 5.1.0 1
 _ZN21QPlatformFontDatabaseD0Ev@Base 5.0.2 1
 _ZN21QPlatformFontDatabaseD1Ev@Base 5.0.2 1
 _ZN21QPlatformFontDatabaseD2Ev@Base 5.0.2 1
 _ZN21QPlatformInputContext11filterEventEPK6QEvent@Base 5.0.2 1
 _ZN21QPlatformInputContext11qt_metacallEN11QMetaObject4CallEiPPv@Base 5.0.2 1
 _ZN21QPlatformInputContext11qt_metacastEPKc@Base 5.0.2 1
 _ZN21QPlatformInputContext12invokeActionEN12QInputMethod6ActionEi@Base 5.0.2 1
 _ZN21QPlatformInputContext14hideInputPanelEv@Base 5.0.2 1
 _ZN21QPlatformInputContext14setFocusObjectEP7QObject@Base 5.0.2 1
 _ZN21QPlatformInputContext14showInputPanelEv@Base 5.0.2 1
 _ZN21QPlatformInputContext16staticMetaObjectE@Base 5.0.2 1
 _ZN21QPlatformInputContext17emitLocaleChangedEv@Base 5.0.2 1
 _ZN21QPlatformInputContext20emitAnimatingChangedEv@Base 5.0.2 1
 _ZN21QPlatformInputContext23emitKeyboardRectChangedEv@Base 5.0.2 1
 _ZN21QPlatformInputContext25emitInputDirectionChangedEN2Qt15LayoutDirectionE@Base 5.0.2 1
 _ZN21QPlatformInputContext28emitInputPanelVisibleChangedEv@Base 5.0.2 1
 _ZN21QPlatformInputContext5resetEv@Base 5.0.2 1
 _ZN21QPlatformInputContext6commitEv@Base 5.0.2 1
 _ZN21QPlatformInputContext6updateE6QFlagsIN2Qt16InputMethodQueryEE@Base 5.0.2 1
 _ZN21QPlatformInputContextC1Ev@Base 5.0.2 1
 _ZN21QPlatformInputContextC2Ev@Base 5.0.2 1
 _ZN21QPlatformInputContextD0Ev@Base 5.0.2 1
 _ZN21QPlatformInputContextD1Ev@Base 5.0.2 1
 _ZN21QPlatformInputContextD2Ev@Base 5.0.2 1
 _ZN21QPlatformScreenBuffer18aboutToBeDisplayedEv@Base 5.0.2 1
 _ZN21QPlatformScreenBuffer9displayedEv@Base 5.0.2 1
 _ZN21QPlatformScreenBufferC1Ev@Base 5.0.2 1
 _ZN21QPlatformScreenBufferC2Ev@Base 5.0.2 1
 _ZN21QPlatformScreenBufferD0Ev@Base 5.0.2 1
 _ZN21QPlatformScreenBufferD1Ev@Base 5.0.2 1
 _ZN21QPlatformScreenBufferD2Ev@Base 5.0.2 1
 _ZN21QPlatformThemePrivate11keyBindingsE@Base 5.2.0~alpha1 1
 _ZN21QPlatformThemePrivate19currentKeyPlatformsEv@Base 5.2.0~alpha1 1
 _ZN21QPlatformThemePrivate19numberOfKeyBindingsE@Base 5.2.0~alpha1 1
 _ZN21QPlatformThemePrivate23initializeSystemPaletteEv@Base 5.1.0 1
 _ZN21QPlatformThemePrivateC1Ev@Base 5.1.0 1
 _ZN21QPlatformThemePrivateC2Ev@Base 5.1.0 1
 _ZN21QPlatformThemePrivateD0Ev@Base 5.1.0 1
 _ZN21QPlatformThemePrivateD1Ev@Base 5.1.0 1
 _ZN21QPlatformThemePrivateD2Ev@Base 5.1.0 1
 _ZN21QRasterPlatformPixmap15fromImageReaderEP12QImageReader6QFlagsIN2Qt19ImageConversionFlagEE@Base 5.0.2 1
 _ZN21QRasterPlatformPixmap16fromImageInPlaceER6QImage6QFlagsIN2Qt19ImageConversionFlagEE@Base 5.3.0 1
 _ZN21QRasterPlatformPixmap19setDevicePixelRatioEd@Base 5.2.0 1
 _ZN21QRasterPlatformPixmap20createPixmapForImageER6QImage6QFlagsIN2Qt19ImageConversionFlagEEb@Base 5.0.2 1
 _ZN21QRasterPlatformPixmap4copyEPK15QPlatformPixmapRK5QRect@Base 5.0.2 1
 _ZN21QRasterPlatformPixmap4fillERK6QColor@Base 5.0.2 1
 _ZN21QRasterPlatformPixmap6bufferEv@Base 5.0.2 1
 _ZN21QRasterPlatformPixmap6resizeEii@Base 5.0.2 1
 _ZN21QRasterPlatformPixmap6scrollEiiRK5QRect@Base 5.0.2 1
 _ZN21QRasterPlatformPixmap8fromDataEPKhjPKc6QFlagsIN2Qt19ImageConversionFlagEE@Base 5.0.2 1
 _ZN21QRasterPlatformPixmap9fromImageERK6QImage6QFlagsIN2Qt19ImageConversionFlagEE@Base 5.0.2 1
 _ZN21QRasterPlatformPixmapC1EN15QPlatformPixmap9PixelTypeE@Base 5.0.2 1
 _ZN21QRasterPlatformPixmapC2EN15QPlatformPixmap9PixelTypeE@Base 5.0.2 1
 _ZN21QRasterPlatformPixmapD0Ev@Base 5.0.2 1
 _ZN21QRasterPlatformPixmapD1Ev@Base 5.0.2 1
 _ZN21QRasterPlatformPixmapD2Ev@Base 5.0.2 1
 _ZN21QTextDocumentFragment13fromPlainTextERK7QString@Base 5.0.2
 _ZN21QTextDocumentFragment8fromHtmlERK7QString@Base 5.0.2
 _ZN21QTextDocumentFragment8fromHtmlERK7QStringPK13QTextDocument@Base 5.0.2
 _ZN21QTextDocumentFragmentC1EPK13QTextDocument@Base 5.0.2
 _ZN21QTextDocumentFragmentC1ERK11QTextCursor@Base 5.0.2
 _ZN21QTextDocumentFragmentC1ERKS_@Base 5.0.2
 _ZN21QTextDocumentFragmentC1Ev@Base 5.0.2
 _ZN21QTextDocumentFragmentC2EPK13QTextDocument@Base 5.0.2
 _ZN21QTextDocumentFragmentC2ERK11QTextCursor@Base 5.0.2
 _ZN21QTextDocumentFragmentC2ERKS_@Base 5.0.2
 _ZN21QTextDocumentFragmentC2Ev@Base 5.0.2
 _ZN21QTextDocumentFragmentD1Ev@Base 5.0.2
 _ZN21QTextDocumentFragmentD2Ev@Base 5.0.2
 _ZN21QTextDocumentFragmentaSERKS_@Base 5.0.2
 _ZN21QTextFormatCollection14indexForFormatERK11QTextFormat@Base 5.0.2 1
 _ZN21QTextFormatCollection14setDefaultFontERK5QFont@Base 5.0.2 1
 _ZN21QTextFormatCollection17createObjectIndexERK11QTextFormat@Base 5.0.2 1
 _ZN21QTextFormatCollection20setObjectFormatIndexEii@Base 5.0.2 1
 _ZN21QTextFormatCollectionC1ERKS_@Base 5.0.2 1
 _ZN21QTextFormatCollectionC2ERKS_@Base 5.0.2 1
 _ZN21QTextFormatCollectionD1Ev@Base 5.0.2 1
 _ZN21QTextFormatCollectionD2Ev@Base 5.0.2 1
 _ZN21QTextFormatCollectionaSERKS_@Base 5.0.2 1
 _ZN21QTriangulatingStroker18endCapOrJoinClosedEPKdS1_bb@Base 5.2.0 1
 _ZN21QTriangulatingStroker4joinEPKd@Base 5.2.0 1
 _ZN21QTriangulatingStroker6endCapEPKd@Base 5.2.0 1
 _ZN21QTriangulatingStroker6moveToEPKd@Base 5.2.0 1
 _ZN21QTriangulatingStroker7cubicToEPKd@Base 5.2.0 1
 _ZN21QTriangulatingStroker7processERK11QVectorPathRK4QPenRK6QRectF6QFlagsIN8QPainter10RenderHintEE@Base 5.0.2 1
 _ZN21QTriangulatingStroker9arcPointsEffffffR15QVarLengthArrayIfLi256EE@Base 5.0.2 1
 _ZN22QAccessibleApplicationC1Ev@Base 5.0.2
 _ZN22QAccessibleApplicationC2Ev@Base 5.0.2
 _ZN22QAccessibleApplicationD0Ev@Base 5.0.2
 _ZN22QAccessibleApplicationD1Ev@Base 5.0.2
 _ZN22QAccessibleApplicationD2Ev@Base 5.0.2
 _ZN22QDashedStrokeProcessor7processERK11QVectorPathRK4QPenRK6QRectF6QFlagsIN8QPainter10RenderHintEE@Base 5.0.2 1
 _ZN22QDashedStrokeProcessorC1Ev@Base 5.0.2 1
 _ZN22QDashedStrokeProcessorC2Ev@Base 5.0.2 1
 _ZN22QGuiApplicationPrivate10commitDataEv@Base 5.2.0~alpha1 1
 _ZN22QGuiApplicationPrivate10shouldQuitEv@Base 5.0.2 1
 _ZN22QGuiApplicationPrivate11displayNameE@Base 5.0.2 1
 _ZN22QGuiApplicationPrivate11gammaTablesEv@Base 5.0.2 1
 _ZN22QGuiApplicationPrivate11mousePressXE@Base 5.0.2 1
 _ZN22QGuiApplicationPrivate11mousePressYE@Base 5.0.2 1
 _ZN22QGuiApplicationPrivate11processDragEP7QWindowPK9QMimeDataRK6QPoint6QFlagsIN2Qt10DropActionEE@Base 5.0.2 1
 _ZN22QGuiApplicationPrivate11processDropEP7QWindowPK9QMimeDataRK6QPoint6QFlagsIN2Qt10DropActionEE@Base 5.0.2 1
 _ZN22QGuiApplicationPrivate11screen_listE@Base 5.0.2 1
 _ZN22QGuiApplicationPrivate11tabletStateE@Base 5.0.2 1
 _ZN22QGuiApplicationPrivate11window_listE@Base 5.0.2 1
 _ZN22QGuiApplicationPrivate12focus_windowE@Base 5.0.2 1
 _ZN22QGuiApplicationPrivate12qt_clipboardE@Base 5.0.2 1
 _ZN22QGuiApplicationPrivate13mouse_buttonsE@Base 5.0.2 1
 _ZN22QGuiApplicationPrivate13platform_nameE@Base 5.0.2 1
 _ZN22QGuiApplicationPrivate14mouseEventCapsEP11QMouseEvent@Base 5.0.2 1
 _ZN22QGuiApplicationPrivate14mousePressTimeE@Base 5.0.2 1
 _ZN22QGuiApplicationPrivate14platform_themeE@Base 5.0.2 1
 _ZN22QGuiApplicationPrivate15getPixmapCursorEN2Qt11CursorShapeE@Base 5.0.2 1
 _ZN22QGuiApplicationPrivate15hideModalWindowEP7QWindow@Base 5.0.2 1
 _ZN22QGuiApplicationPrivate15mouseEventFlagsEPK11QMouseEvent@Base 5.3.0 1
 _ZN22QGuiApplicationPrivate15processKeyEventEPN29QWindowSystemInterfacePrivate8KeyEventE@Base 5.0.2 1
 _ZN22QGuiApplicationPrivate15showModalWindowEP7QWindow@Base 5.0.2 1
 _ZN22QGuiApplicationPrivate16applicationStateE@Base 5.1.0 1
 _ZN22QGuiApplicationPrivate16modifier_buttonsE@Base 5.0.2 1
 _ZN22QGuiApplicationPrivate16mouseEventSourceEPK11QMouseEvent@Base 5.3.0 1
 _ZN22QGuiApplicationPrivate16mousePressButtonE@Base 5.0.2 1
 _ZN22QGuiApplicationPrivate17m_fakeTouchDeviceE@Base 5.0.2 1
 _ZN22QGuiApplicationPrivate17notifyDragStartedEPK5QDrag@Base 5.0.2 1
 _ZN22QGuiApplicationPrivate17processCloseEventEPN29QWindowSystemInterfacePrivate10CloseEventE@Base 5.0.2 1
 _ZN22QGuiApplicationPrivate17processEnterEventEPN29QWindowSystemInterfacePrivate10EnterEventE@Base 5.0.2 1
 _ZN22QGuiApplicationPrivate17processLeaveEventEPN29QWindowSystemInterfacePrivate10LeaveEventE@Base 5.0.2 1
 _ZN22QGuiApplicationPrivate17processMouseEventEPN29QWindowSystemInterfacePrivate10MouseEventE@Base 5.0.2 1
 _ZN22QGuiApplicationPrivate17processTouchEventEPN29QWindowSystemInterfacePrivate10TouchEventE@Base 5.0.2 1
 _ZN22QGuiApplicationPrivate17processWheelEventEPN29QWindowSystemInterfacePrivate10WheelEventE@Base 5.0.2 1
 _ZN22QGuiApplicationPrivate17tabletPressTargetE@Base 5.0.2 1
 _ZN22QGuiApplicationPrivate18currentMouseWindowE@Base 5.0.2 1
 _ZN22QGuiApplicationPrivate18lastCursorPositionE@Base 5.0.2 1
 _ZN22QGuiApplicationPrivate18mouseEventVelocityEP11QMouseEvent@Base 5.0.2 1
 _ZN22QGuiApplicationPrivate18notifyThemeChangedEv@Base 5.0.2 1
 _ZN22QGuiApplicationPrivate18processExposeEventEPN29QWindowSystemInterfacePrivate11ExposeEventE@Base 5.0.2 1
 _ZN22QGuiApplicationPrivate18processNativeEventEP7QWindowRK10QByteArrayPvPl@Base 5.0.2 1
 _ZN22QGuiApplicationPrivate18processTabletEventEPN29QWindowSystemInterfacePrivate11TabletEventE@Base 5.0.2 1
 _ZN22QGuiApplicationPrivate18setMouseEventFlagsEP11QMouseEvent6QFlagsIN2Qt14MouseEventFlagEE@Base 5.3.0 1
 _ZN22QGuiApplicationPrivate18shouldQuitInternalERK5QListIP7QWindowE@Base 5.1.1 1
 _ZN22QGuiApplicationPrivate18tryCloseAllWindowsEv@Base 5.3.0 1
 _ZN22QGuiApplicationPrivate19generic_plugin_listE@Base 5.0.2 1
 _ZN22QGuiApplicationPrivate19processGestureEventEPN29QWindowSystemInterfacePrivate12GestureEventE@Base 5.2.0~beta1 1
 _ZN22QGuiApplicationPrivate19processThemeChangedEPN29QWindowSystemInterfacePrivate16ThemeChangeEventE@Base 5.0.2 1
 _ZN22QGuiApplicationPrivate19setApplicationStateEN2Qt16ApplicationStateE@Base 5.2.0~alpha1 1
 _ZN22QGuiApplicationPrivate19setMouseEventSourceEP11QMouseEventN2Qt16MouseEventSourceE@Base 5.3.0 1
 _ZN22QGuiApplicationPrivate19updateBlockedStatusEP7QWindow@Base 5.0.2 1
 _ZN22QGuiApplicationPrivate20_q_updateFocusObjectEP7QObject@Base 5.0.2 1
 _ZN22QGuiApplicationPrivate20emitLastWindowClosedEv@Base 5.0.2 1
 _ZN22QGuiApplicationPrivate20eventDispatcherReadyEv@Base 5.2.0~beta1 1
 _ZN22QGuiApplicationPrivate20platform_integrationE@Base 5.0.2 1
 _ZN22QGuiApplicationPrivate20processFileOpenEventEPN29QWindowSystemInterfacePrivate13FileOpenEventE@Base 5.0.2 1
 _ZN22QGuiApplicationPrivate20reportGeometryChangeEPN29QWindowSystemInterfacePrivate19ScreenGeometryEventE@Base 5.0.2 1
 _ZN22QGuiApplicationPrivate21createEventDispatcherEv@Base 5.0.2 1
 _ZN22QGuiApplicationPrivate21obey_desktop_settingsE@Base 5.0.2 1
 _ZN22QGuiApplicationPrivate21processActivatedEventEPN29QWindowSystemInterfacePrivate20ActivatedWindowEventE@Base 5.0.2 1
 _ZN22QGuiApplicationPrivate23notifyWindowIconChangedEv@Base 5.3.0 1
 _ZN22QGuiApplicationPrivate23processContextMenuEventEPN29QWindowSystemInterfacePrivate16ContextMenuEventE@Base 5.0.2 1
 _ZN22QGuiApplicationPrivate23reportRefreshRateChangeEPN29QWindowSystemInterfacePrivate22ScreenRefreshRateEventE@Base 5.0.2 1
 _ZN22QGuiApplicationPrivate24m_fakeMouseSourcePointIdE@Base 5.0.2 1
 _ZN22QGuiApplicationPrivate24notifyActiveWindowChangeEP7QWindow@Base 5.0.2 1
 _ZN22QGuiApplicationPrivate24processWindowSystemEventEPN29QWindowSystemInterfacePrivate17WindowSystemEventE@Base 5.0.2 1
 _ZN22QGuiApplicationPrivate24tryCloseRemainingWindowsE5QListIP7QWindowE@Base 5.3.0 1
 _ZN22QGuiApplicationPrivate25createPlatformIntegrationEv@Base 5.0.2 1
 _ZN22QGuiApplicationPrivate25processPlatformPanelEventEPN29QWindowSystemInterfacePrivate18PlatformPanelEventE@Base 5.0.2 1
 _ZN22QGuiApplicationPrivate26processGeometryChangeEventEPN29QWindowSystemInterfacePrivate19GeometryChangeEventE@Base 5.0.2 1
 _ZN22QGuiApplicationPrivate27mouse_double_click_distanceE@Base 5.0.2 1
 _ZN22QGuiApplicationPrivate27notifyLayoutDirectionChangeEv@Base 5.0.2 1
 _ZN22QGuiApplicationPrivate28setMouseEventCapsAndVelocityEP11QMouseEventiRK9QVector2D@Base 5.0.2 1
 _ZN22QGuiApplicationPrivate29reportAvailableGeometryChangeEPN29QWindowSystemInterfacePrivate28ScreenAvailableGeometryEventE@Base 5.0.2 1
 _ZN22QGuiApplicationPrivate29reportScreenOrientationChangeEP7QScreen@Base 5.0.2 1
 _ZN22QGuiApplicationPrivate29reportScreenOrientationChangeEPN29QWindowSystemInterfacePrivate22ScreenOrientationEventE@Base 5.0.2 1
 _ZN22QGuiApplicationPrivate30processWindowStateChangedEventEPN29QWindowSystemInterfacePrivate23WindowStateChangedEventE@Base 5.0.2 1
 _ZN22QGuiApplicationPrivate30reportLogicalDotsPerInchChangeEPN29QWindowSystemInterfacePrivate29ScreenLogicalDotsPerInchEventE@Base 5.0.2 1
 _ZN22QGuiApplicationPrivate31processWindowScreenChangedEventEPN29QWindowSystemInterfacePrivate24WindowScreenChangedEventE@Base 5.1.0 1
 _ZN22QGuiApplicationPrivate31updateFilteredScreenOrientationEP7QScreen@Base 5.0.2 1
 _ZN22QGuiApplicationPrivate32applyWindowGeometrySpecificationERK5QRectPK7QWindow@Base 5.2.0~alpha1 1
 _ZN22QGuiApplicationPrivate32processTabletEnterProximityEventEPN29QWindowSystemInterfacePrivate25TabletEnterProximityEventE@Base 5.0.2 1
 _ZN22QGuiApplicationPrivate32processTabletLeaveProximityEventEPN29QWindowSystemInterfacePrivate25TabletLeaveProximityEventE@Base 5.0.2 1
 _ZN22QGuiApplicationPrivate33sendQWindowEventToQPlatformWindowEP7QWindowP6QEvent@Base 5.0.2 1
 _ZN22QGuiApplicationPrivate37synthesizeMouseFromTouchEventsEnabledEv@Base 5.1.0 1
 _ZN22QGuiApplicationPrivate4initEv@Base 5.0.2 1
 _ZN22QGuiApplicationPrivate4selfE@Base 5.0.2 1
 _ZN22QGuiApplicationPrivate6noGrabE@Base 5.0.2 1
 _ZN22QGuiApplicationPrivate7app_palE@Base 5.0.2 1
 _ZN22QGuiApplicationPrivate7buttonsE@Base 5.0.2 1
 _ZN22QGuiApplicationPrivate8app_fontE@Base 5.0.2 1
 _ZN22QGuiApplicationPrivate8app_iconE@Base 5.3.0 1
 _ZN22QGuiApplicationPrivate9saveStateEv@Base 5.2.0~alpha1 1
 _ZN22QGuiApplicationPrivateC1ERiPPci@Base 5.0.2 1
 _ZN22QGuiApplicationPrivateC2ERiPPci@Base 5.0.2 1
 _ZN22QGuiApplicationPrivateD0Ev@Base 5.0.2 1
 _ZN22QGuiApplicationPrivateD1Ev@Base 5.0.2 1
 _ZN22QGuiApplicationPrivateD2Ev@Base 5.0.2 1
 _ZN22QInputMethodQueryEvent8setValueEN2Qt16InputMethodQueryERK8QVariant@Base 5.0.2
 _ZN22QInputMethodQueryEventC1E6QFlagsIN2Qt16InputMethodQueryEE@Base 5.0.2
 _ZN22QInputMethodQueryEventC2E6QFlagsIN2Qt16InputMethodQueryEE@Base 5.0.2
 _ZN22QInputMethodQueryEventD0Ev@Base 5.0.2
 _ZN22QInputMethodQueryEventD1Ev@Base 5.0.2
 _ZN22QInputMethodQueryEventD2Ev@Base 5.0.2
 _ZN22QPaintEngineExReplayer7processERK19QPaintBufferCommand@Base 5.0.2 1
 _ZN22QPaintEngineExReplayerD0Ev@Base 5.0.2 1
 _ZN22QPaintEngineExReplayerD1Ev@Base 5.0.2 1
 _ZN22QPaintEngineExReplayerD2Ev@Base 5.0.2 1
 _ZN22QPlatformAccessibility10initializeEv@Base 5.0.2 1
 _ZN22QPlatformAccessibility13setRootObjectEP7QObject@Base 5.0.2 1
 _ZN22QPlatformAccessibility25notifyAccessibilityUpdateEP16QAccessibleEvent@Base 5.0.2 1
 _ZN22QPlatformAccessibility7cleanupEv@Base 5.0.2 1
 _ZN22QPlatformAccessibilityC1Ev@Base 5.0.2 1
 _ZN22QPlatformAccessibilityC2Ev@Base 5.0.2 1
 _ZN22QPlatformAccessibilityD0Ev@Base 5.0.2 1
 _ZN22QPlatformAccessibilityD1Ev@Base 5.0.2 1
 _ZN22QPlatformAccessibilityD2Ev@Base 5.0.2 1
 _ZN22QPlatformCursorPrivate12getInstancesEv@Base 5.0.2 1
 _ZN22QPlatformOpenGLContext10setContextEP14QOpenGLContext@Base 5.0.2 1
 _ZN22QPlatformOpenGLContext18parseOpenGLVersionERK10QByteArrayRiS3_@Base 5.0.2 1
 _ZN22QPlatformOpenGLContextC1Ev@Base 5.0.2 1
 _ZN22QPlatformOpenGLContextC2Ev@Base 5.0.2 1
 _ZN22QPlatformOpenGLContextD0Ev@Base 5.0.2 1
 _ZN22QPlatformOpenGLContextD1Ev@Base 5.0.2 1
 _ZN22QPlatformOpenGLContextD2Ev@Base 5.0.2 1
 _ZN22QWhatsThisClickedEventC1ERK7QString@Base 5.0.2
 _ZN22QWhatsThisClickedEventC2ERK7QString@Base 5.0.2
 _ZN22QWhatsThisClickedEventD0Ev@Base 5.0.2
 _ZN22QWhatsThisClickedEventD1Ev@Base 5.0.2
 _ZN22QWhatsThisClickedEventD2Ev@Base 5.0.2
 _ZN22QWindowSystemInterface10handleDragEP7QWindowPK9QMimeDataRK6QPoint6QFlagsIN2Qt10DropActionEE@Base 5.0.2 1
 _ZN22QWindowSystemInterface10handleDropEP7QWindowPK9QMimeDataRK6QPoint6QFlagsIN2Qt10DropActionEE@Base 5.0.2 1
 _ZN22QWindowSystemInterface14handleKeyEventEP7QWindowN6QEvent4TypeEi6QFlagsIN2Qt16KeyboardModifierEERK7QStringbt@Base 5.0.2 1
 _ZN22QWindowSystemInterface14handleKeyEventEP7QWindowmN6QEvent4TypeEi6QFlagsIN2Qt16KeyboardModifierEERK7QStringbt@Base 5.0.2 1
 _ZN22QWindowSystemInterface16handleCloseEventEP7QWindowPb@Base 5.1.0 1
 _ZN22QWindowSystemInterface16handleEnterEventEP7QWindowRK7QPointFS4_@Base 5.0.2 1
 _ZN22QWindowSystemInterface16handleLeaveEventEP7QWindow@Base 5.0.2 1
 _ZN22QWindowSystemInterface16handleMouseEventEP7QWindowRK7QPointFS4_6QFlagsIN2Qt11MouseButtonEES5_INS6_16KeyboardModifierEENS6_16MouseEventSourceE@Base 5.3.0 1
 _ZN22QWindowSystemInterface16handleMouseEventEP7QWindowmRK7QPointFS4_6QFlagsIN2Qt11MouseButtonEES5_INS6_16KeyboardModifierEENS6_16MouseEventSourceE@Base 5.3.0 1
 _ZN22QWindowSystemInterface16handleTouchEventEP7QWindowP12QTouchDeviceRK5QListINS_10TouchPointEE6QFlagsIN2Qt16KeyboardModifierEE@Base 5.0.2 1
 _ZN22QWindowSystemInterface16handleTouchEventEP7QWindowmP12QTouchDeviceRK5QListINS_10TouchPointEE6QFlagsIN2Qt16KeyboardModifierEE@Base 5.0.2 1
 _ZN22QWindowSystemInterface16handleWheelEventEP7QWindowRK7QPointFS4_6QPointS5_6QFlagsIN2Qt16KeyboardModifierEENS7_11ScrollPhaseE@Base 5.2.0~alpha1 1
 _ZN22QWindowSystemInterface16handleWheelEventEP7QWindowRK7QPointFS4_iN2Qt11OrientationE6QFlagsINS5_16KeyboardModifierEE@Base 5.0.2 1
 _ZN22QWindowSystemInterface16handleWheelEventEP7QWindowmRK7QPointFS4_6QPointS5_6QFlagsIN2Qt16KeyboardModifierEENS7_11ScrollPhaseE@Base 5.2.0~alpha1 1
 _ZN22QWindowSystemInterface16handleWheelEventEP7QWindowmRK7QPointFS4_iN2Qt11OrientationE6QFlagsINS5_16KeyboardModifierEE@Base 5.0.2 1
 _ZN22QWindowSystemInterface17handleExposeEventEP7QWindowRK7QRegion@Base 5.0.2 1
 _ZN22QWindowSystemInterface17handleNativeEventEP7QWindowRK10QByteArrayPvPl@Base 5.0.2 1
 _ZN22QWindowSystemInterface17handleTabletEventEP7QWindowbRK7QPointFS4_iidiiddix6QFlagsIN2Qt16KeyboardModifierEE@Base 5.2.0 1
 _ZN22QWindowSystemInterface17handleTabletEventEP7QWindowmbRK7QPointFS4_iidiiddix6QFlagsIN2Qt16KeyboardModifierEE@Base 5.2.0 1
 _ZN22QWindowSystemInterface17handleThemeChangeEP7QWindow@Base 5.0.2 1
 _ZN22QWindowSystemInterface18handleGestureEventEP7QWindowmN2Qt17NativeGestureTypeER7QPointFS5_@Base 5.2.0~beta1 1
 _ZN22QWindowSystemInterface19handleFileOpenEventERK4QUrl@Base 5.1.0 1
 _ZN22QWindowSystemInterface19handleFileOpenEventERK7QString@Base 5.0.2 1
 _ZN22QWindowSystemInterface19registerTouchDeviceEP12QTouchDevice@Base 5.0.2 1
 _ZN22QWindowSystemInterface20handleGeometryChangeEP7QWindowRK5QRectS4_@Base 5.2.0~rc1 1
 _ZN22QWindowSystemInterface21handleEnterLeaveEventEP7QWindowS1_RK7QPointFS4_@Base 5.0.2 1
 _ZN22QWindowSystemInterface21handleWindowActivatedEP7QWindowN2Qt11FocusReasonE@Base 5.1.0 1
 _ZN22QWindowSystemInterface22handleContextMenuEventEP7QWindowbRK6QPointS4_6QFlagsIN2Qt16KeyboardModifierEE@Base 5.0.2 1
 _ZN22QWindowSystemInterface22handleExtendedKeyEventEP7QWindowN6QEvent4TypeEi6QFlagsIN2Qt16KeyboardModifierEEjjjRK7QStringbt@Base 5.0.2 1
 _ZN22QWindowSystemInterface22handleExtendedKeyEventEP7QWindowmN6QEvent4TypeEi6QFlagsIN2Qt16KeyboardModifierEEjjjRK7QStringbt@Base 5.0.2 1
 _ZN22QWindowSystemInterface22handleTouchCancelEventEP7QWindowP12QTouchDevice6QFlagsIN2Qt16KeyboardModifierEE@Base 5.0.2 1
 _ZN22QWindowSystemInterface22handleTouchCancelEventEP7QWindowmP12QTouchDevice6QFlagsIN2Qt16KeyboardModifierEE@Base 5.0.2 1
 _ZN22QWindowSystemInterface22sendWindowSystemEventsE6QFlagsIN10QEventLoop17ProcessEventsFlagEE@Base 5.0.2 1
 _ZN22QWindowSystemInterface22tryHandleShortcutEventEP7QWindowi6QFlagsIN2Qt16KeyboardModifierEERK7QStringbt@Base 5.0.2 1
 _ZN22QWindowSystemInterface22tryHandleShortcutEventEP7QWindowmi6QFlagsIN2Qt16KeyboardModifierEERK7QStringbt@Base 5.0.2 1
 _ZN22QWindowSystemInterface23flushWindowSystemEventsEv@Base 5.0.2 1
 _ZN22QWindowSystemInterface24handlePlatformPanelEventEP7QWindow@Base 5.0.2 1
 _ZN22QWindowSystemInterface24handleWindowStateChangedEP7QWindowN2Qt11WindowStateE@Base 5.0.2 1
 _ZN22QWindowSystemInterface24windowSystemEventsQueuedEv@Base 5.0.2 1
 _ZN22QWindowSystemInterface25handleEnterWhatsThisEventEv@Base 5.2.0~alpha1 1
 _ZN22QWindowSystemInterface25handleWindowScreenChangedEP7QWindowP7QScreen@Base 5.1.0 1
 _ZN22QWindowSystemInterface26handleFrameStrutMouseEventEP7QWindowRK7QPointFS4_6QFlagsIN2Qt11MouseButtonEES5_INS6_16KeyboardModifierEENS6_16MouseEventSourceE@Base 5.3.0 1
 _ZN22QWindowSystemInterface26handleFrameStrutMouseEventEP7QWindowmRK7QPointFS4_6QFlagsIN2Qt11MouseButtonEES5_INS6_16KeyboardModifierEENS6_16MouseEventSourceE@Base 5.3.0 1
 _ZN22QWindowSystemInterface26handleScreenGeometryChangeEP7QScreenRK5QRect@Base 5.0.2 1
 _ZN22QWindowSystemInterface29handleApplicationStateChangedEN2Qt16ApplicationStateE@Base 5.1.0 1
 _ZN22QWindowSystemInterface29handleScreenOrientationChangeEP7QScreenN2Qt17ScreenOrientationE@Base 5.0.2 1
 _ZN22QWindowSystemInterface29handleScreenRefreshRateChangeEP7QScreend@Base 5.2.0 1
 _ZN22QWindowSystemInterface30tryHandleExtendedShortcutEventEP7QWindowi6QFlagsIN2Qt16KeyboardModifierEEjjjRK7QStringbt@Base 5.0.2 1
 _ZN22QWindowSystemInterface30tryHandleExtendedShortcutEventEP7QWindowmi6QFlagsIN2Qt16KeyboardModifierEEjjjRK7QStringbt@Base 5.0.2 1
 _ZN22QWindowSystemInterface31deferredFlushWindowSystemEventsEv@Base 5.1.0 1
 _ZN22QWindowSystemInterface31handleGestureEventWithRealValueEP7QWindowmN2Qt17NativeGestureTypeEdR7QPointFS5_@Base 5.2.0~beta1 1
 _ZN22QWindowSystemInterface31handleTabletEnterProximityEventEiix@Base 5.0.2 1
 _ZN22QWindowSystemInterface31handleTabletEnterProximityEventEmiix@Base 5.0.2 1
 _ZN22QWindowSystemInterface31handleTabletLeaveProximityEventEiix@Base 5.0.2 1
 _ZN22QWindowSystemInterface31handleTabletLeaveProximityEventEmiix@Base 5.0.2 1
 _ZN22QWindowSystemInterface33setSynchronousWindowsSystemEventsEb@Base 5.0.2 1
 _ZN22QWindowSystemInterface35handleScreenAvailableGeometryChangeEP7QScreenRK5QRect@Base 5.0.2 1
 _ZN22QWindowSystemInterface36handleScreenLogicalDotsPerInchChangeEP7QScreendd@Base 5.2.0 1
 _ZN22QWindowSystemInterface40handleGestureEventWithSequenceIdAndValueEP7QWindowmN2Qt17NativeGestureTypeEmyR7QPointFS5_@Base 5.2.0~beta1 1
 _ZN23QAccessibleBridgePlugin11qt_metacallEN11QMetaObject4CallEiPPv@Base 5.0.2
 _ZN23QAccessibleBridgePlugin11qt_metacastEPKc@Base 5.0.2
 _ZN23QAccessibleBridgePlugin16staticMetaObjectE@Base 5.0.2
 _ZN23QAccessibleBridgePluginC1EP7QObject@Base 5.0.2
 _ZN23QAccessibleBridgePluginC2EP7QObject@Base 5.0.2
 _ZN23QAccessibleBridgePluginD0Ev@Base 5.0.2
 _ZN23QAccessibleBridgePluginD1Ev@Base 5.0.2
 _ZN23QAccessibleBridgePluginD2Ev@Base 5.0.2
 _ZN23QImageTextureGlyphCache11fillTextureERKN18QTextureGlyphCache5CoordEj6QFixed@Base 5.0.2 1
 _ZN23QImageTextureGlyphCache17createTextureDataEii@Base 5.0.2 1
 _ZN23QImageTextureGlyphCache17resizeTextureDataEii@Base 5.0.2 1
 _ZN23QImageTextureGlyphCacheD0Ev@Base 5.0.2 1
 _ZN23QImageTextureGlyphCacheD1Ev@Base 5.0.2 1
 _ZN23QImageTextureGlyphCacheD2Ev@Base 5.0.2 1
 _ZN23QOpenGLExtensionMatcherC1Ev@Base 5.1.0 1
 _ZN23QOpenGLExtensionMatcherC2Ev@Base 5.1.0 1
 _ZN23QPlatformDragQtResponseC1EbN2Qt10DropActionE5QRect@Base 5.0.2 1
 _ZN23QPlatformDragQtResponseC2EbN2Qt10DropActionE5QRect@Base 5.0.2 1
 _ZN23QPlatformDropQtResponseC1EbN2Qt10DropActionE@Base 5.0.2 1
 _ZN23QPlatformDropQtResponseC2EbN2Qt10DropActionE@Base 5.0.2 1
 _ZN23QPlatformSessionManager12appSaveStateEv@Base 5.2.0~alpha1 1
 _ZN23QPlatformSessionManager13appCommitDataEv@Base 5.2.0~alpha1 1
 _ZN23QPlatformSessionManager13requestPhase2Ev@Base 5.2.0~alpha1 1
 _ZN23QPlatformSessionManager14setRestartHintEN15QSessionManager11RestartHintE@Base 5.2.0~alpha1 1
 _ZN23QPlatformSessionManager17allowsInteractionEv@Base 5.2.0~alpha1 1
 _ZN23QPlatformSessionManager17setDiscardCommandERK11QStringList@Base 5.2.0~alpha1 1
 _ZN23QPlatformSessionManager17setRestartCommandERK11QStringList@Base 5.2.0~alpha1 1
 _ZN23QPlatformSessionManager18setManagerPropertyERK7QStringRK11QStringList@Base 5.2.0~alpha1 1
 _ZN23QPlatformSessionManager18setManagerPropertyERK7QStringS2_@Base 5.2.0~alpha1 1
 _ZN23QPlatformSessionManager22allowsErrorInteractionEv@Base 5.2.0~alpha1 1
 _ZN23QPlatformSessionManager6cancelEv@Base 5.2.0~alpha1 1
 _ZN23QPlatformSessionManager7releaseEv@Base 5.2.0~alpha1 1
 _ZN23QPlatformSessionManagerC1ERK7QStringS2_@Base 5.2.0~alpha1 1
 _ZN23QPlatformSessionManagerC2ERK7QStringS2_@Base 5.2.0~alpha1 1
 _ZN23QPlatformSessionManagerD0Ev@Base 5.2.0~alpha1 1
 _ZN23QPlatformSessionManagerD1Ev@Base 5.2.0~alpha1 1
 _ZN23QPlatformSessionManagerD2Ev@Base 5.2.0~alpha1 1
 _ZN23QPlatformSystemTrayIcon11qt_metacallEN11QMetaObject4CallEiPPv@Base 5.0.2 1
 _ZN23QPlatformSystemTrayIcon11qt_metacastEPKc@Base 5.0.2 1
 _ZN23QPlatformSystemTrayIcon14messageClickedEv@Base 5.0.2 1
 _ZN23QPlatformSystemTrayIcon16staticMetaObjectE@Base 5.0.2 1
 _ZN23QPlatformSystemTrayIcon9activatedENS_16ActivationReasonE@Base 5.0.2 1
 _ZN23QPlatformSystemTrayIconC1Ev@Base 5.0.2 1
 _ZN23QPlatformSystemTrayIconC2Ev@Base 5.0.2 1
 _ZN23QPlatformSystemTrayIconD0Ev@Base 5.0.2 1
 _ZN23QPlatformSystemTrayIconD1Ev@Base 5.0.2 1
 _ZN23QPlatformSystemTrayIconD2Ev@Base 5.0.2 1
 _ZN23QWindowStateChangeEventC1E6QFlagsIN2Qt11WindowStateEEb@Base 5.0.2
 _ZN23QWindowStateChangeEventC2E6QFlagsIN2Qt11WindowStateEEb@Base 5.0.2
 _ZN23QWindowStateChangeEventD0Ev@Base 5.0.2
 _ZN23QWindowStateChangeEventD1Ev@Base 5.0.2
 _ZN23QWindowStateChangeEventD2Ev@Base 5.0.2
 _ZN24QBlittablePlatformPixmap12setBlittableEP10QBlittable@Base 5.0.2 1
 _ZN24QBlittablePlatformPixmap19setDevicePixelRatioEd@Base 5.2.0 1
 _ZN24QBlittablePlatformPixmap4fillERK6QColor@Base 5.0.2 1
 _ZN24QBlittablePlatformPixmap6bufferEv@Base 5.0.2 1
 _ZN24QBlittablePlatformPixmap6resizeEii@Base 5.0.2 1
 _ZN24QBlittablePlatformPixmap9fromImageERK6QImage6QFlagsIN2Qt19ImageConversionFlagEE@Base 5.0.2 1
 _ZN24QBlittablePlatformPixmapC1Ev@Base 5.0.2 1
 _ZN24QBlittablePlatformPixmapC2Ev@Base 5.0.2 1
 _ZN24QBlittablePlatformPixmapD0Ev@Base 5.0.2 1
 _ZN24QBlittablePlatformPixmapD1Ev@Base 5.0.2 1
 _ZN24QBlittablePlatformPixmapD2Ev@Base 5.0.2 1
 _ZN24QImagePixmapCleanupHooks12addImageHookEPFvxE@Base 5.0.2 1
 _ZN24QImagePixmapCleanupHooks13isImageCachedERK6QImage@Base 5.0.2 1
 _ZN24QImagePixmapCleanupHooks14isPixmapCachedERK7QPixmap@Base 5.0.2 1
 _ZN24QImagePixmapCleanupHooks15removeImageHookEPFvxE@Base 5.0.2 1
 _ZN24QImagePixmapCleanupHooks17executeImageHooksEx@Base 5.0.2 1
 _ZN24QImagePixmapCleanupHooks18enableCleanupHooksEP15QPlatformPixmap@Base 5.0.2 1
 _ZN24QImagePixmapCleanupHooks18enableCleanupHooksERK6QImage@Base 5.0.2 1
 _ZN24QImagePixmapCleanupHooks18enableCleanupHooksERK7QPixmap@Base 5.0.2 1
 _ZN24QImagePixmapCleanupHooks32addPlatformPixmapDestructionHookEPFvP15QPlatformPixmapE@Base 5.0.2 1
 _ZN24QImagePixmapCleanupHooks33addPlatformPixmapModificationHookEPFvP15QPlatformPixmapE@Base 5.0.2 1
 _ZN24QImagePixmapCleanupHooks35removePlatformPixmapDestructionHookEPFvP15QPlatformPixmapE@Base 5.0.2 1
 _ZN24QImagePixmapCleanupHooks36removePlatformPixmapModificationHookEPFvP15QPlatformPixmapE@Base 5.0.2 1
 _ZN24QImagePixmapCleanupHooks37executePlatformPixmapDestructionHooksEP15QPlatformPixmap@Base 5.0.2 1
 _ZN24QImagePixmapCleanupHooks38executePlatformPixmapModificationHooksEP15QPlatformPixmap@Base 5.0.2 1
 _ZN24QImagePixmapCleanupHooks8instanceEv@Base 5.0.2 1
 _ZN24QOpenGLCustomShaderStage11setInactiveEv@Base 5.0.2 1
 _ZN24QOpenGLCustomShaderStage12setOnPainterEP8QPainter@Base 5.0.2 1
 _ZN24QOpenGLCustomShaderStage16setUniformsDirtyEv@Base 5.0.2 1
 _ZN24QOpenGLCustomShaderStage17removeFromPainterEP8QPainter@Base 5.0.2 1
 _ZN24QOpenGLCustomShaderStage9setSourceERK10QByteArray@Base 5.0.2 1
 _ZN24QOpenGLCustomShaderStageC1Ev@Base 5.0.2 1
 _ZN24QOpenGLCustomShaderStageC2Ev@Base 5.0.2 1
 _ZN24QOpenGLCustomShaderStageD0Ev@Base 5.0.2 1
 _ZN24QOpenGLCustomShaderStageD1Ev@Base 5.0.2 1
 _ZN24QOpenGLCustomShaderStageD2Ev@Base 5.0.2 1
 _ZN24QOpenGLFramebufferObject11bindDefaultEv@Base 5.0.2
 _ZN24QOpenGLFramebufferObject11takeTextureEv@Base 5.3.0
 _ZN24QOpenGLFramebufferObject13setAttachmentENS_10AttachmentE@Base 5.0.2
 _ZN24QOpenGLFramebufferObject15blitFramebufferEPS_RK5QRectS0_S3_jj@Base 5.0.2
 _ZN24QOpenGLFramebufferObject15blitFramebufferEPS_S0_jj@Base 5.0.2
 _ZN24QOpenGLFramebufferObject24hasOpenGLFramebufferBlitEv@Base 5.0.2
 _ZN24QOpenGLFramebufferObject27hasOpenGLFramebufferObjectsEv@Base 5.0.2
 _ZN24QOpenGLFramebufferObject4bindEv@Base 5.0.2
 _ZN24QOpenGLFramebufferObject7releaseEv@Base 5.0.2
 _ZN24QOpenGLFramebufferObjectC1ERK5QSizeNS_10AttachmentEjj@Base 5.0.2
 _ZN24QOpenGLFramebufferObjectC1ERK5QSizeRK30QOpenGLFramebufferObjectFormat@Base 5.0.2
 _ZN24QOpenGLFramebufferObjectC1ERK5QSizej@Base 5.0.2
 _ZN24QOpenGLFramebufferObjectC1EiiNS_10AttachmentEjj@Base 5.0.2
 _ZN24QOpenGLFramebufferObjectC1EiiRK30QOpenGLFramebufferObjectFormat@Base 5.0.2
 _ZN24QOpenGLFramebufferObjectC1Eiij@Base 5.0.2
 _ZN24QOpenGLFramebufferObjectC2ERK5QSizeNS_10AttachmentEjj@Base 5.0.2
 _ZN24QOpenGLFramebufferObjectC2ERK5QSizeRK30QOpenGLFramebufferObjectFormat@Base 5.0.2
 _ZN24QOpenGLFramebufferObjectC2ERK5QSizej@Base 5.0.2
 _ZN24QOpenGLFramebufferObjectC2EiiNS_10AttachmentEjj@Base 5.0.2
 _ZN24QOpenGLFramebufferObjectC2EiiRK30QOpenGLFramebufferObjectFormat@Base 5.0.2
 _ZN24QOpenGLFramebufferObjectC2Eiij@Base 5.0.2
 _ZN24QOpenGLFramebufferObjectD0Ev@Base 5.0.2
 _ZN24QOpenGLFramebufferObjectD1Ev@Base 5.0.2
 _ZN24QOpenGLFramebufferObjectD2Ev@Base 5.0.2
 _ZN24QOpenGLTextureGlyphCache11fillTextureERKN18QTextureGlyphCache5CoordEj6QFixed@Base 5.0.2 1
 _ZN24QOpenGLTextureGlyphCache17createTextureDataEii@Base 5.0.2 1
 _ZN24QOpenGLTextureGlyphCache17resizeTextureDataEii@Base 5.0.2 1
 _ZN24QOpenGLTextureGlyphCache18setupVertexAttribsEv@Base 5.3.0 1
 _ZN24QOpenGLTextureGlyphCache5clearEv@Base 5.0.2 1
 _ZN24QOpenGLTextureGlyphCacheC1EN11QFontEngine11GlyphFormatERK10QTransform@Base 5.3.0 1
 _ZN24QOpenGLTextureGlyphCacheC2EN11QFontEngine11GlyphFormatERK10QTransform@Base 5.3.0 1
 _ZN24QOpenGLTextureGlyphCacheD0Ev@Base 5.0.2 1
 _ZN24QOpenGLTextureGlyphCacheD1Ev@Base 5.0.2 1
 _ZN24QOpenGLTextureGlyphCacheD2Ev@Base 5.0.2 1
 _ZN24QOpenGLVertexArrayObject11qt_metacallEN11QMetaObject4CallEiPPv@Base 5.1.0
 _ZN24QOpenGLVertexArrayObject11qt_metacastEPKc@Base 5.1.0
 _ZN24QOpenGLVertexArrayObject16staticMetaObjectE@Base 5.1.0
 _ZN24QOpenGLVertexArrayObject4bindEv@Base 5.1.0
 _ZN24QOpenGLVertexArrayObject6createEv@Base 5.1.0
 _ZN24QOpenGLVertexArrayObject7destroyEv@Base 5.1.0
 _ZN24QOpenGLVertexArrayObject7releaseEv@Base 5.1.0
 _ZN24QOpenGLVertexArrayObjectC1EP7QObject@Base 5.1.0
 _ZN24QOpenGLVertexArrayObjectC1ER31QOpenGLVertexArrayObjectPrivate@Base 5.1.0
 _ZN24QOpenGLVertexArrayObjectC2EP7QObject@Base 5.1.0
 _ZN24QOpenGLVertexArrayObjectC2ER31QOpenGLVertexArrayObjectPrivate@Base 5.1.0
 _ZN24QOpenGLVertexArrayObjectD0Ev@Base 5.1.0
 _ZN24QOpenGLVertexArrayObjectD1Ev@Base 5.1.0
 _ZN24QOpenGLVertexArrayObjectD2Ev@Base 5.1.0
 _ZN24QPlatformNativeInterface11qt_metacallEN11QMetaObject4CallEiPPv@Base 5.0.2 1
 _ZN24QPlatformNativeInterface11qt_metacastEPKc@Base 5.0.2 1
 _ZN24QPlatformNativeInterface16staticMetaObjectE@Base 5.0.2 1
 _ZN24QPlatformNativeInterface17setWindowPropertyEP15QPlatformWindowRK7QStringRK8QVariant@Base 5.0.2 1
 _ZN24QPlatformNativeInterface21windowPropertyChangedEP15QPlatformWindowRK7QString@Base 5.0.2 1
 _ZN24QPlatformNativeInterface23nativeResourceForScreenERK10QByteArrayP7QScreen@Base 5.0.2 1
 _ZN24QPlatformNativeInterface23nativeResourceForWindowERK10QByteArrayP7QWindow@Base 5.0.2 1
 _ZN24QPlatformNativeInterface24nativeResourceForContextERK10QByteArrayP14QOpenGLContext@Base 5.0.2 1
 _ZN24QPlatformNativeInterface28nativeResourceForIntegrationERK10QByteArray@Base 5.0.2 1
 _ZN24QPlatformNativeInterface29nativeResourceForBackingStoreERK10QByteArrayP13QBackingStore@Base 5.0.2 1
 _ZN24QPlatformNativeInterface31nativeResourceFunctionForScreenERK10QByteArray@Base 5.0.2 1
 _ZN24QPlatformNativeInterface31nativeResourceFunctionForWindowERK10QByteArray@Base 5.0.2 1
 _ZN24QPlatformNativeInterface32nativeResourceFunctionForContextERK10QByteArray@Base 5.0.2 1
 _ZN24QPlatformNativeInterface36nativeResourceFunctionForIntegrationERK10QByteArray@Base 5.0.2 1
 _ZN24QPlatformNativeInterface37nativeResourceFunctionForBackingStoreERK10QByteArray@Base 5.0.2 1
 _ZN24QPlatformNativeInterfaceD0Ev@Base 5.0.2 1
 _ZN24QPlatformNativeInterfaceD1Ev@Base 5.0.2 1
 _ZN24QPlatformNativeInterfaceD2Ev@Base 5.0.2 1
 _ZN24QSupportedWritingSystems12setSupportedEN13QFontDatabase13WritingSystemEb@Base 5.0.2 1
 _ZN24QSupportedWritingSystems6detachEv@Base 5.0.2 1
 _ZN24QSupportedWritingSystemsC1ERKS_@Base 5.0.2 1
 _ZN24QSupportedWritingSystemsC1Ev@Base 5.0.2 1
 _ZN24QSupportedWritingSystemsC2ERKS_@Base 5.0.2 1
 _ZN24QSupportedWritingSystemsC2Ev@Base 5.0.2 1
 _ZN24QSupportedWritingSystemsD1Ev@Base 5.0.2 1
 _ZN24QSupportedWritingSystemsD2Ev@Base 5.0.2 1
 _ZN24QSupportedWritingSystemsaSERKS_@Base 5.0.2 1
 _ZN25QAbstractItemModelPrivateD0Ev@Base 5.0.2 1
 _ZN25QAbstractItemModelPrivateD1Ev@Base 5.0.2 1
 _ZN25QAbstractItemModelPrivateD2Ev@Base 5.0.2 1
 (arch=!armel !armhf)_ZN25QOpenGLFunctions_3_2_Core14versionProfileEv@Base 5.1.0
 (arch=!armel !armhf)_ZN25QOpenGLFunctions_3_2_Core19isContextCompatibleEP14QOpenGLContext@Base 5.1.0
 (arch=!armel !armhf)_ZN25QOpenGLFunctions_3_2_Core25initializeOpenGLFunctionsEv@Base 5.1.0
 (arch=!armel !armhf)_ZN25QOpenGLFunctions_3_2_CoreC1Ev@Base 5.1.0
 (arch=!armel !armhf)_ZN25QOpenGLFunctions_3_2_CoreC2Ev@Base 5.1.0
 (arch=!armel !armhf)_ZN25QOpenGLFunctions_3_2_CoreD0Ev@Base 5.1.0
 (arch=!armel !armhf)_ZN25QOpenGLFunctions_3_2_CoreD1Ev@Base 5.1.0
 (arch=!armel !armhf)_ZN25QOpenGLFunctions_3_2_CoreD2Ev@Base 5.1.0
 (arch=!armel !armhf)_ZN25QOpenGLFunctions_3_3_Core14versionProfileEv@Base 5.1.0
 (arch=!armel !armhf)_ZN25QOpenGLFunctions_3_3_Core19isContextCompatibleEP14QOpenGLContext@Base 5.1.0
 (arch=!armel !armhf)_ZN25QOpenGLFunctions_3_3_Core25initializeOpenGLFunctionsEv@Base 5.1.0
 (arch=!armel !armhf)_ZN25QOpenGLFunctions_3_3_CoreC1Ev@Base 5.1.0
 (arch=!armel !armhf)_ZN25QOpenGLFunctions_3_3_CoreC2Ev@Base 5.1.0
 (arch=!armel !armhf)_ZN25QOpenGLFunctions_3_3_CoreD0Ev@Base 5.1.0
 (arch=!armel !armhf)_ZN25QOpenGLFunctions_3_3_CoreD1Ev@Base 5.1.0
 (arch=!armel !armhf)_ZN25QOpenGLFunctions_3_3_CoreD2Ev@Base 5.1.0
 (arch=!armel !armhf)_ZN25QOpenGLFunctions_4_0_Core14versionProfileEv@Base 5.1.0
 (arch=!armel !armhf)_ZN25QOpenGLFunctions_4_0_Core19isContextCompatibleEP14QOpenGLContext@Base 5.1.0
 (arch=!armel !armhf)_ZN25QOpenGLFunctions_4_0_Core25initializeOpenGLFunctionsEv@Base 5.1.0
 (arch=!armel !armhf)_ZN25QOpenGLFunctions_4_0_CoreC1Ev@Base 5.1.0
 (arch=!armel !armhf)_ZN25QOpenGLFunctions_4_0_CoreC2Ev@Base 5.1.0
 (arch=!armel !armhf)_ZN25QOpenGLFunctions_4_0_CoreD0Ev@Base 5.1.0
 (arch=!armel !armhf)_ZN25QOpenGLFunctions_4_0_CoreD1Ev@Base 5.1.0
 (arch=!armel !armhf)_ZN25QOpenGLFunctions_4_0_CoreD2Ev@Base 5.1.0
 (arch=!armel !armhf)_ZN25QOpenGLFunctions_4_1_Core14versionProfileEv@Base 5.1.0
 (arch=!armel !armhf)_ZN25QOpenGLFunctions_4_1_Core19isContextCompatibleEP14QOpenGLContext@Base 5.1.0
 (arch=!armel !armhf)_ZN25QOpenGLFunctions_4_1_Core25initializeOpenGLFunctionsEv@Base 5.1.0
 (arch=!armel !armhf)_ZN25QOpenGLFunctions_4_1_CoreC1Ev@Base 5.1.0
 (arch=!armel !armhf)_ZN25QOpenGLFunctions_4_1_CoreC2Ev@Base 5.1.0
 (arch=!armel !armhf)_ZN25QOpenGLFunctions_4_1_CoreD0Ev@Base 5.1.0
 (arch=!armel !armhf)_ZN25QOpenGLFunctions_4_1_CoreD1Ev@Base 5.1.0
 (arch=!armel !armhf)_ZN25QOpenGLFunctions_4_1_CoreD2Ev@Base 5.1.0
 (arch=!armel !armhf)_ZN25QOpenGLFunctions_4_2_Core14versionProfileEv@Base 5.1.0
 (arch=!armel !armhf)_ZN25QOpenGLFunctions_4_2_Core19isContextCompatibleEP14QOpenGLContext@Base 5.1.0
 (arch=!armel !armhf)_ZN25QOpenGLFunctions_4_2_Core25initializeOpenGLFunctionsEv@Base 5.1.0
 (arch=!armel !armhf)_ZN25QOpenGLFunctions_4_2_CoreC1Ev@Base 5.1.0
 (arch=!armel !armhf)_ZN25QOpenGLFunctions_4_2_CoreC2Ev@Base 5.1.0
 (arch=!armel !armhf)_ZN25QOpenGLFunctions_4_2_CoreD0Ev@Base 5.1.0
 (arch=!armel !armhf)_ZN25QOpenGLFunctions_4_2_CoreD1Ev@Base 5.1.0
 (arch=!armel !armhf)_ZN25QOpenGLFunctions_4_2_CoreD2Ev@Base 5.1.0
 (arch=!armel !armhf)_ZN25QOpenGLFunctions_4_3_Core14versionProfileEv@Base 5.1.0
 (arch=!armel !armhf)_ZN25QOpenGLFunctions_4_3_Core19isContextCompatibleEP14QOpenGLContext@Base 5.1.0
 (arch=!armel !armhf)_ZN25QOpenGLFunctions_4_3_Core25initializeOpenGLFunctionsEv@Base 5.1.0
 (arch=!armel !armhf)_ZN25QOpenGLFunctions_4_3_CoreC1Ev@Base 5.1.0
 (arch=!armel !armhf)_ZN25QOpenGLFunctions_4_3_CoreC2Ev@Base 5.1.0
 (arch=!armel !armhf)_ZN25QOpenGLFunctions_4_3_CoreD0Ev@Base 5.1.0
 (arch=!armel !armhf)_ZN25QOpenGLFunctions_4_3_CoreD1Ev@Base 5.1.0
 (arch=!armel !armhf)_ZN25QOpenGLFunctions_4_3_CoreD2Ev@Base 5.1.0
 _ZN25QPlatformFileDialogHelper10setOptionsERK14QSharedPointerI18QFileDialogOptionsE@Base 5.0.2 1
 _ZN25QPlatformFileDialogHelper11qt_metacallEN11QMetaObject4CallEiPPv@Base 5.0.2 1
 _ZN25QPlatformFileDialogHelper11qt_metacastEPKc@Base 5.0.2 1
 _ZN25QPlatformFileDialogHelper12fileSelectedERK4QUrl@Base 5.2.0~alpha1 1
 _ZN25QPlatformFileDialogHelper12filterRegExpE@Base 5.0.2 1
 _ZN25QPlatformFileDialogHelper13filesSelectedERK5QListI4QUrlE@Base 5.2.0~alpha1 1
 _ZN25QPlatformFileDialogHelper14currentChangedERK4QUrl@Base 5.2.0~alpha1 1
 _ZN25QPlatformFileDialogHelper14filterSelectedERK7QString@Base 5.0.2 1
 _ZN25QPlatformFileDialogHelper15cleanFilterListERK7QString@Base 5.0.2 1
 _ZN25QPlatformFileDialogHelper16directoryEnteredERK4QUrl@Base 5.2.0~alpha1 1
 _ZN25QPlatformFileDialogHelper16staticMetaObjectE@Base 5.0.2 1
 _ZN25QPlatformFontDialogHelper10setOptionsERK14QSharedPointerI18QFontDialogOptionsE@Base 5.0.2 1
 _ZN25QPlatformFontDialogHelper11qt_metacallEN11QMetaObject4CallEiPPv@Base 5.0.2 1
 _ZN25QPlatformFontDialogHelper11qt_metacastEPKc@Base 5.0.2 1
 _ZN25QPlatformFontDialogHelper12fontSelectedERK5QFont@Base 5.0.2 1
 _ZN25QPlatformFontDialogHelper16staticMetaObjectE@Base 5.0.2 1
 _ZN25QPlatformFontDialogHelper18currentFontChangedERK5QFont@Base 5.0.2 1
 _ZN25QPlatformOffscreenSurfaceC1EP17QOffscreenSurface@Base 5.1.0
 _ZN25QPlatformOffscreenSurfaceC2EP17QOffscreenSurface@Base 5.1.0
 _ZN25QPlatformOffscreenSurfaceD0Ev@Base 5.1.0
 _ZN25QPlatformOffscreenSurfaceD1Ev@Base 5.1.0
 _ZN25QPlatformOffscreenSurfaceD2Ev@Base 5.1.0
 _ZN26QAccessibleActionInterface11pressActionEv@Base 5.0.2 1
 _ZN26QAccessibleActionInterface12toggleActionEv@Base 5.0.2 1
 _ZN26QAccessibleActionInterface14decreaseActionEv@Base 5.0.2 1
 _ZN26QAccessibleActionInterface14increaseActionEv@Base 5.0.2 1
 _ZN26QAccessibleActionInterface14setFocusActionEv@Base 5.0.2 1
 _ZN26QAccessibleActionInterface14showMenuActionEv@Base 5.0.2 1
 _ZN26QOpenGLContextGroupPrivate10addContextEP14QOpenGLContext@Base 5.0.2 1
 _ZN26QOpenGLContextGroupPrivate13removeContextEP14QOpenGLContext@Base 5.0.2 1
 _ZN26QOpenGLContextGroupPrivate22deletePendingResourcesEP14QOpenGLContext@Base 5.0.2 1
 _ZN26QOpenGLContextGroupPrivate7cleanupEv@Base 5.0.2 1
 _ZN26QOpenGLContextGroupPrivateD0Ev@Base 5.0.2 1
 _ZN26QOpenGLContextGroupPrivateD1Ev@Base 5.0.2 1
 _ZN26QOpenGLContextGroupPrivateD2Ev@Base 5.0.2 1
 _ZN26QOpenGLEngineShaderManager11blitProgramEv@Base 5.0.2 1
 _ZN26QOpenGLEngineShaderManager11qt_metacallEN11QMetaObject4CallEiPPv@Base 5.0.2 1
 _ZN26QOpenGLEngineShaderManager11qt_metacastEPKc@Base 5.0.2 1
 _ZN26QOpenGLEngineShaderManager11setMaskTypeENS_8MaskTypeE@Base 5.0.2 1
 _ZN26QOpenGLEngineShaderManager13simpleProgramEv@Base 5.0.2 1
 _ZN26QOpenGLEngineShaderManager14currentProgramEv@Base 5.0.2 1
 _ZN26QOpenGLEngineShaderManager14setCustomStageEP24QOpenGLCustomShaderStage@Base 5.0.2 1
 _ZN26QOpenGLEngineShaderManager14setOpacityModeENS_11OpacityModeE@Base 5.0.2 1
 _ZN26QOpenGLEngineShaderManager14useBlitProgramEv@Base 5.0.2 1
 _ZN26QOpenGLEngineShaderManager15setSrcPixelTypeEN2Qt10BrushStyleE@Base 5.0.2 1
 _ZN26QOpenGLEngineShaderManager15setSrcPixelTypeENS_12PixelSrcTypeE@Base 5.0.2 1
 _ZN26QOpenGLEngineShaderManager16staticMetaObjectE@Base 5.0.2 1
 _ZN26QOpenGLEngineShaderManager16useSimpleProgramEv@Base 5.0.2 1
 _ZN26QOpenGLEngineShaderManager17removeCustomStageEv@Base 5.0.2 1
 _ZN26QOpenGLEngineShaderManager18getUniformLocationENS_7UniformE@Base 5.0.2 1
 _ZN26QOpenGLEngineShaderManager18setCompositionModeEN8QPainter15CompositionModeE@Base 5.0.2 1
 _ZN26QOpenGLEngineShaderManager20useCorrectShaderProgEv@Base 5.0.2 1
 _ZN26QOpenGLEngineShaderManager25optimiseForBrushTransformEN10QTransform18TransformationTypeE@Base 5.0.2 1
 _ZN26QOpenGLEngineShaderManager8setDirtyEv@Base 5.0.2 1
 _ZN26QOpenGLEngineShaderManagerC1EP14QOpenGLContext@Base 5.0.2 1
 _ZN26QOpenGLEngineShaderManagerC2EP14QOpenGLContext@Base 5.0.2 1
 _ZN26QOpenGLEngineShaderManagerD0Ev@Base 5.0.2 1
 _ZN26QOpenGLEngineShaderManagerD1Ev@Base 5.0.2 1
 _ZN26QOpenGLEngineShaderManagerD2Ev@Base 5.0.2 1
 _ZN26QOpenGLEngineSharedShaders15qShaderSnippetsE@Base 5.0.2 1
 _ZN26QOpenGLEngineSharedShaders16staticMetaObjectE@Base 5.0.2 1
 _ZN26QOpenGLEngineSharedShaders17shadersForContextEP14QOpenGLContext@Base 5.0.2 1
 _ZN26QOpenGLEngineSharedShaders18cleanupCustomStageEP24QOpenGLCustomShaderStage@Base 5.0.2 1
 _ZN26QOpenGLEngineSharedShaders18findProgramInCacheERK23QOpenGLEngineShaderProg@Base 5.0.2 1
 _ZN26QOpenGLEngineSharedShadersC1EP14QOpenGLContext@Base 5.0.2 1
 _ZN26QOpenGLEngineSharedShadersC2EP14QOpenGLContext@Base 5.0.2 1
 _ZN26QOpenGLEngineSharedShadersD1Ev@Base 5.0.2 1
 _ZN26QOpenGLEngineSharedShadersD2Ev@Base 5.0.2 1
 _ZN26QOpenGLSharedResourceGuard12freeResourceEP14QOpenGLContext@Base 5.0.2 1
 _ZN26QOpenGLSharedResourceGuardD0Ev@Base 5.0.2 1
 _ZN26QOpenGLSharedResourceGuardD1Ev@Base 5.0.2 1
 _ZN26QOpenGLSharedResourceGuardD2Ev@Base 5.0.2 1
 _ZN26QPlatformColorDialogHelper10setOptionsERK14QSharedPointerI19QColorDialogOptionsE@Base 5.0.2 1
 _ZN26QPlatformColorDialogHelper11qt_metacallEN11QMetaObject4CallEiPPv@Base 5.0.2 1
 _ZN26QPlatformColorDialogHelper11qt_metacastEPKc@Base 5.0.2 1
 _ZN26QPlatformColorDialogHelper13colorSelectedERK6QColor@Base 5.0.2 1
 _ZN26QPlatformColorDialogHelper16staticMetaObjectE@Base 5.0.2 1
 _ZN26QPlatformColorDialogHelper19currentColorChangedERK6QColor@Base 5.0.2 1
 _ZN26QPlatformIntegrationPlugin11qt_metacallEN11QMetaObject4CallEiPPv@Base 5.0.2 1
 _ZN26QPlatformIntegrationPlugin11qt_metacastEPKc@Base 5.0.2 1
 _ZN26QPlatformIntegrationPlugin16staticMetaObjectE@Base 5.0.2 1
 _ZN26QPlatformIntegrationPlugin6createERK7QStringRK11QStringList@Base 5.2.0~alpha1 1
 _ZN26QPlatformIntegrationPlugin6createERK7QStringRK11QStringListRiPPc@Base 5.2.0~alpha1 1
 _ZN26QPlatformIntegrationPluginC1EP7QObject@Base 5.0.2 1
 _ZN26QPlatformIntegrationPluginC2EP7QObject@Base 5.0.2 1
 _ZN26QPlatformIntegrationPluginD0Ev@Base 5.0.2 1
 _ZN26QPlatformIntegrationPluginD1Ev@Base 5.0.2 1
 _ZN26QPlatformIntegrationPluginD2Ev@Base 5.0.2 1
 _ZN26QPlatformScreenPageFlipper11qt_metacallEN11QMetaObject4CallEiPPv@Base 5.0.2 1
 _ZN26QPlatformScreenPageFlipper11qt_metacastEPKc@Base 5.0.2 1
 _ZN26QPlatformScreenPageFlipper14bufferReleasedEP21QPlatformScreenBuffer@Base 5.0.2 1
 _ZN26QPlatformScreenPageFlipper15bufferDisplayedEP21QPlatformScreenBuffer@Base 5.0.2 1
 _ZN26QPlatformScreenPageFlipper16staticMetaObjectE@Base 5.0.2 1
 _ZN26QPlatformScreenPageFlipperC1EP7QObject@Base 5.0.2 1
 _ZN26QPlatformScreenPageFlipperC2EP7QObject@Base 5.0.2 1
 _ZN27QAbstractTextDocumentLayout11formatIndexEi@Base 5.0.2
 _ZN27QAbstractTextDocumentLayout11qt_metacallEN11QMetaObject4CallEiPPv@Base 5.0.2
 _ZN27QAbstractTextDocumentLayout11qt_metacastEPKc@Base 5.0.2
 _ZN27QAbstractTextDocumentLayout11updateBlockERK10QTextBlock@Base 5.0.2
 _ZN27QAbstractTextDocumentLayout14setPaintDeviceEP12QPaintDevice@Base 5.0.2
 _ZN27QAbstractTextDocumentLayout15registerHandlerEiP7QObject@Base 5.0.2
 _ZN27QAbstractTextDocumentLayout16drawInlineObjectEP8QPainterRK6QRectF17QTextInlineObjectiRK11QTextFormat@Base 5.0.2
 _ZN27QAbstractTextDocumentLayout16pageCountChangedEi@Base 5.0.2
 _ZN27QAbstractTextDocumentLayout16staticMetaObjectE@Base 5.0.2
 _ZN27QAbstractTextDocumentLayout17unregisterHandlerEiP7QObject@Base 5.2.0~alpha1
 _ZN27QAbstractTextDocumentLayout18resizeInlineObjectE17QTextInlineObjectiRK11QTextFormat@Base 5.0.2
 _ZN27QAbstractTextDocumentLayout19documentSizeChangedERK6QSizeF@Base 5.0.2
 _ZN27QAbstractTextDocumentLayout20positionInlineObjectE17QTextInlineObjectiRK11QTextFormat@Base 5.0.2
 _ZN27QAbstractTextDocumentLayout6formatEi@Base 5.0.2
 _ZN27QAbstractTextDocumentLayout6updateERK6QRectF@Base 5.0.2
 _ZN27QAbstractTextDocumentLayoutC1EP13QTextDocument@Base 5.0.2
 _ZN27QAbstractTextDocumentLayoutC1ER34QAbstractTextDocumentLayoutPrivateP13QTextDocument@Base 5.0.2
 _ZN27QAbstractTextDocumentLayoutC2EP13QTextDocument@Base 5.0.2
 _ZN27QAbstractTextDocumentLayoutC2ER34QAbstractTextDocumentLayoutPrivateP13QTextDocument@Base 5.0.2
 _ZN27QAbstractTextDocumentLayoutD0Ev@Base 5.0.2
 _ZN27QAbstractTextDocumentLayoutD1Ev@Base 5.0.2
 _ZN27QAbstractTextDocumentLayoutD2Ev@Base 5.0.2
 _ZN27QAccessibleStateChangeEventD0Ev@Base 5.0.2
 _ZN27QAccessibleStateChangeEventD1Ev@Base 5.0.2
 _ZN27QAccessibleStateChangeEventD2Ev@Base 5.0.2
 _ZN27QOpenGLPixelTransferOptions11setSkipRowsEi@Base 5.2.0~alpha1
 _ZN27QOpenGLPixelTransferOptions12setAlignmentEi@Base 5.2.0~alpha1
 _ZN27QOpenGLPixelTransferOptions12setRowLengthEi@Base 5.2.0~alpha1
 _ZN27QOpenGLPixelTransferOptions13setSkipImagesEi@Base 5.2.0~alpha1
 _ZN27QOpenGLPixelTransferOptions13setSkipPixelsEi@Base 5.2.0~alpha1
 _ZN27QOpenGLPixelTransferOptions14setImageHeightEi@Base 5.2.0~alpha1
 _ZN27QOpenGLPixelTransferOptions19setSwapBytesEnabledEb@Base 5.2.0~alpha1
 _ZN27QOpenGLPixelTransferOptions28setLeastSignificantByteFirstEb@Base 5.2.0~alpha1
 _ZN27QOpenGLPixelTransferOptionsC1ERKS_@Base 5.2.0~alpha1
 _ZN27QOpenGLPixelTransferOptionsC1Ev@Base 5.2.0~alpha1
 _ZN27QOpenGLPixelTransferOptionsC2ERKS_@Base 5.2.0~alpha1
 _ZN27QOpenGLPixelTransferOptionsC2Ev@Base 5.2.0~alpha1
 _ZN27QOpenGLPixelTransferOptionsD1Ev@Base 5.2.0~alpha1
 _ZN27QOpenGLPixelTransferOptionsD2Ev@Base 5.2.0~alpha1
 _ZN27QOpenGLPixelTransferOptionsaSERKS_@Base 5.2.0~alpha1
 _ZN27QPlatformInputContextPlugin11qt_metacallEN11QMetaObject4CallEiPPv@Base 5.0.2 1
 _ZN27QPlatformInputContextPlugin11qt_metacastEPKc@Base 5.0.2 1
 _ZN27QPlatformInputContextPlugin16staticMetaObjectE@Base 5.0.2 1
 _ZN27QPlatformInputContextPluginC1EP7QObject@Base 5.0.2 1
 _ZN27QPlatformInputContextPluginC2EP7QObject@Base 5.0.2 1
 _ZN27QPlatformInputContextPluginD0Ev@Base 5.0.2 1
 _ZN27QPlatformInputContextPluginD1Ev@Base 5.0.2 1
 _ZN27QPlatformInputContextPluginD2Ev@Base 5.0.2 1
 _ZN27QPlatformIntegrationFactory4keysERK7QString@Base 5.0.2 1
 _ZN27QPlatformIntegrationFactory6createERK7QStringRK11QStringListRiPPcS2_@Base 5.2.0~alpha1 1
 _ZN27QRegularExpressionValidator11qt_metacallEN11QMetaObject4CallEiPPv@Base 5.1.0
 _ZN27QRegularExpressionValidator11qt_metacastEPKc@Base 5.1.0
 _ZN27QRegularExpressionValidator16staticMetaObjectE@Base 5.1.0
 _ZN27QRegularExpressionValidator20setRegularExpressionERK18QRegularExpression@Base 5.1.0
 _ZN27QRegularExpressionValidator24regularExpressionChangedERK18QRegularExpression@Base 5.1.0
 _ZN27QRegularExpressionValidatorC1EP7QObject@Base 5.1.0
 _ZN27QRegularExpressionValidatorC1ERK18QRegularExpressionP7QObject@Base 5.1.0
 _ZN27QRegularExpressionValidatorC2EP7QObject@Base 5.1.0
 _ZN27QRegularExpressionValidatorC2ERK18QRegularExpressionP7QObject@Base 5.1.0
 _ZN27QRegularExpressionValidatorD0Ev@Base 5.1.0
 _ZN27QRegularExpressionValidatorD1Ev@Base 5.1.0
 _ZN27QRegularExpressionValidatorD2Ev@Base 5.1.0
 _ZN28QApplicationStateChangeEventC1EN2Qt16ApplicationStateE@Base 5.1.0
 _ZN28QApplicationStateChangeEventC2EN2Qt16ApplicationStateE@Base 5.1.0
 _ZN28QApplicationStateChangeEventD0Ev@Base 5.1.0
 _ZN28QApplicationStateChangeEventD1Ev@Base 5.1.0
 _ZN28QApplicationStateChangeEventD2Ev@Base 5.1.0
 _ZN28QPlatformInputContextFactory4keysEv@Base 5.0.2 1
 _ZN28QPlatformInputContextFactory6createERK7QString@Base 5.0.2 1
 _ZN28QPlatformInputContextFactory6createEv@Base 5.0.2 1
 _ZN28QPlatformMessageDialogHelper10setOptionsERK14QSharedPointerI21QMessageDialogOptionsE@Base 5.2.0~alpha1 1
 _ZN28QPlatformMessageDialogHelper11qt_metacallEN11QMetaObject4CallEiPPv@Base 5.2.0~alpha1 1
 _ZN28QPlatformMessageDialogHelper11qt_metacastEPKc@Base 5.2.0~alpha1 1
 _ZN28QPlatformMessageDialogHelper16staticMetaObjectE@Base 5.2.0~alpha1 1
 _ZN28QPlatformMessageDialogHelper7clickedEN21QPlatformDialogHelper14StandardButtonENS0_10ButtonRoleE@Base 5.3.0 1
 _ZN28QPlatformSharedGraphicsCache11qt_metacallEN11QMetaObject4CallEiPPv@Base 5.0.2
 _ZN28QPlatformSharedGraphicsCache11qt_metacastEPKc@Base 5.0.2
 _ZN28QPlatformSharedGraphicsCache12itemsMissingERK10QByteArrayRK7QVectorIjE@Base 5.0.2
 _ZN28QPlatformSharedGraphicsCache12itemsUpdatedERK10QByteArrayPvRK7QVectorIjERKS4_I6QPointE@Base 5.0.2
 _ZN28QPlatformSharedGraphicsCache14itemsAvailableERK10QByteArrayPvRK7QVectorIjERKS4_I6QPointE@Base 5.0.2
 _ZN28QPlatformSharedGraphicsCache16itemsInvalidatedERK10QByteArrayRK7QVectorIjE@Base 5.0.2
 _ZN28QPlatformSharedGraphicsCache16staticMetaObjectE@Base 5.0.2
 _ZN29QScreenOrientationChangeEventC1EP7QScreenN2Qt17ScreenOrientationE@Base 5.0.2
 _ZN29QScreenOrientationChangeEventC2EP7QScreenN2Qt17ScreenOrientationE@Base 5.0.2
 _ZN29QScreenOrientationChangeEventD0Ev@Base 5.0.2
 _ZN29QScreenOrientationChangeEventD1Ev@Base 5.0.2
 _ZN29QScreenOrientationChangeEventD2Ev@Base 5.0.2
 _ZN29QWindowSystemInterfacePrivate10CloseEventD0Ev@Base 5.0.2 1
 _ZN29QWindowSystemInterfacePrivate10CloseEventD1Ev@Base 5.0.2 1
 _ZN29QWindowSystemInterfacePrivate10CloseEventD2Ev@Base 5.0.2 1
 _ZN29QWindowSystemInterfacePrivate10EnterEventD0Ev@Base 5.0.2 1
 _ZN29QWindowSystemInterfacePrivate10EnterEventD1Ev@Base 5.0.2 1
 _ZN29QWindowSystemInterfacePrivate10EnterEventD2Ev@Base 5.0.2 1
 _ZN29QWindowSystemInterfacePrivate10InputEventD0Ev@Base 5.0.2 1
 _ZN29QWindowSystemInterfacePrivate10InputEventD1Ev@Base 5.0.2 1
 _ZN29QWindowSystemInterfacePrivate10InputEventD2Ev@Base 5.0.2 1
 _ZN29QWindowSystemInterfacePrivate10LeaveEventD0Ev@Base 5.0.2 1
 _ZN29QWindowSystemInterfacePrivate10LeaveEventD1Ev@Base 5.0.2 1
 _ZN29QWindowSystemInterfacePrivate10LeaveEventD2Ev@Base 5.0.2 1
 _ZN29QWindowSystemInterfacePrivate10MouseEventD0Ev@Base 5.0.2 1
 _ZN29QWindowSystemInterfacePrivate10MouseEventD1Ev@Base 5.0.2 1
 _ZN29QWindowSystemInterfacePrivate10MouseEventD2Ev@Base 5.0.2 1
 _ZN29QWindowSystemInterfacePrivate10TouchEventD0Ev@Base 5.0.2 1
 _ZN29QWindowSystemInterfacePrivate10TouchEventD1Ev@Base 5.0.2 1
 _ZN29QWindowSystemInterfacePrivate10TouchEventD2Ev@Base 5.0.2 1
 _ZN29QWindowSystemInterfacePrivate10WheelEventD0Ev@Base 5.0.2 1
 _ZN29QWindowSystemInterfacePrivate10WheelEventD1Ev@Base 5.0.2 1
 _ZN29QWindowSystemInterfacePrivate10WheelEventD2Ev@Base 5.0.2 1
 _ZN29QWindowSystemInterfacePrivate11ExposeEventC1EP7QWindowRK7QRegion@Base 5.0.2 1
 _ZN29QWindowSystemInterfacePrivate11ExposeEventC2EP7QWindowRK7QRegion@Base 5.0.2 1
 _ZN29QWindowSystemInterfacePrivate11ExposeEventD0Ev@Base 5.0.2 1
 _ZN29QWindowSystemInterfacePrivate11ExposeEventD1Ev@Base 5.0.2 1
 _ZN29QWindowSystemInterfacePrivate11ExposeEventD2Ev@Base 5.0.2 1
 _ZN29QWindowSystemInterfacePrivate11TabletEventD0Ev@Base 5.0.2 1
 _ZN29QWindowSystemInterfacePrivate11TabletEventD1Ev@Base 5.0.2 1
 _ZN29QWindowSystemInterfacePrivate11TabletEventD2Ev@Base 5.0.2 1
 _ZN29QWindowSystemInterfacePrivate12GestureEventD0Ev@Base 5.2.0~beta1 1
 _ZN29QWindowSystemInterfacePrivate12GestureEventD1Ev@Base 5.2.0~beta1 1
 _ZN29QWindowSystemInterfacePrivate12GestureEventD2Ev@Base 5.2.0~beta1 1
 _ZN29QWindowSystemInterfacePrivate13FileOpenEventD0Ev@Base 5.0.2 1
 _ZN29QWindowSystemInterfacePrivate13FileOpenEventD1Ev@Base 5.0.2 1
 _ZN29QWindowSystemInterfacePrivate13FileOpenEventD2Ev@Base 5.0.2 1
 _ZN29QWindowSystemInterfacePrivate13eventsFlushedE@Base 5.1.0 1
 _ZN29QWindowSystemInterfacePrivate15flushEventMutexE@Base 5.1.0 1
 _ZN29QWindowSystemInterfacePrivate16ContextMenuEventD0Ev@Base 5.0.2 1
 _ZN29QWindowSystemInterfacePrivate16ContextMenuEventD1Ev@Base 5.0.2 1
 _ZN29QWindowSystemInterfacePrivate16ContextMenuEventD2Ev@Base 5.0.2 1
 _ZN29QWindowSystemInterfacePrivate16FlushEventsEventD0Ev@Base 5.1.0 1
 _ZN29QWindowSystemInterfacePrivate16FlushEventsEventD1Ev@Base 5.1.0 1
 _ZN29QWindowSystemInterfacePrivate16FlushEventsEventD2Ev@Base 5.1.0 1
 _ZN29QWindowSystemInterfacePrivate16ThemeChangeEventD0Ev@Base 5.0.2 1
 _ZN29QWindowSystemInterfacePrivate16ThemeChangeEventD1Ev@Base 5.0.2 1
 _ZN29QWindowSystemInterfacePrivate16ThemeChangeEventD2Ev@Base 5.0.2 1
 _ZN29QWindowSystemInterfacePrivate18PlatformPanelEventD0Ev@Base 5.0.2 1
 _ZN29QWindowSystemInterfacePrivate18PlatformPanelEventD1Ev@Base 5.0.2 1
 _ZN29QWindowSystemInterfacePrivate18PlatformPanelEventD2Ev@Base 5.0.2 1
 _ZN29QWindowSystemInterfacePrivate18convertTouchPointsERK5QListIN22QWindowSystemInterface10TouchPointEEPN6QEvent4TypeE@Base 5.0.2 1
 _ZN29QWindowSystemInterfacePrivate19GeometryChangeEventD0Ev@Base 5.0.2 1
 _ZN29QWindowSystemInterfacePrivate19GeometryChangeEventD1Ev@Base 5.0.2 1
 _ZN29QWindowSystemInterfacePrivate19GeometryChangeEventD2Ev@Base 5.0.2 1
 _ZN29QWindowSystemInterfacePrivate19ScreenGeometryEventD0Ev@Base 5.0.2 1
 _ZN29QWindowSystemInterfacePrivate19ScreenGeometryEventD1Ev@Base 5.0.2 1
 _ZN29QWindowSystemInterfacePrivate19ScreenGeometryEventD2Ev@Base 5.0.2 1
 _ZN29QWindowSystemInterfacePrivate20ActivatedWindowEventD0Ev@Base 5.0.2 1
 _ZN29QWindowSystemInterfacePrivate20ActivatedWindowEventD1Ev@Base 5.0.2 1
 _ZN29QWindowSystemInterfacePrivate20ActivatedWindowEventD2Ev@Base 5.0.2 1
 _ZN29QWindowSystemInterfacePrivate20getWindowSystemEventEv@Base 5.0.2 1
 _ZN29QWindowSystemInterfacePrivate21peekWindowSystemEventENS_9EventTypeE@Base 5.0.2 1
 _ZN29QWindowSystemInterfacePrivate22ScreenOrientationEventD0Ev@Base 5.0.2 1
 _ZN29QWindowSystemInterfacePrivate22ScreenOrientationEventD1Ev@Base 5.0.2 1
 _ZN29QWindowSystemInterfacePrivate22ScreenOrientationEventD2Ev@Base 5.0.2 1
 _ZN29QWindowSystemInterfacePrivate22ScreenRefreshRateEventD0Ev@Base 5.0.2 1
 _ZN29QWindowSystemInterfacePrivate22ScreenRefreshRateEventD1Ev@Base 5.0.2 1
 _ZN29QWindowSystemInterfacePrivate22ScreenRefreshRateEventD2Ev@Base 5.0.2 1
 _ZN29QWindowSystemInterfacePrivate22windowSystemEventQueueE@Base 5.0.2 1
 _ZN29QWindowSystemInterfacePrivate23WindowStateChangedEventD0Ev@Base 5.0.2 1
 _ZN29QWindowSystemInterfacePrivate23WindowStateChangedEventD1Ev@Base 5.0.2 1
 _ZN29QWindowSystemInterfacePrivate23WindowStateChangedEventD2Ev@Base 5.0.2 1
 _ZN29QWindowSystemInterfacePrivate23handleWindowSystemEventEPNS_17WindowSystemEventE@Base 5.0.2 1
 _ZN29QWindowSystemInterfacePrivate23removeWindowSystemEventEPNS_17WindowSystemEventE@Base 5.0.2 1
 _ZN29QWindowSystemInterfacePrivate24WindowScreenChangedEventD0Ev@Base 5.1.0 1
 _ZN29QWindowSystemInterfacePrivate24WindowScreenChangedEventD1Ev@Base 5.1.0 1
 _ZN29QWindowSystemInterfacePrivate24WindowScreenChangedEventD2Ev@Base 5.1.0 1
 _ZN29QWindowSystemInterfacePrivate24windowSystemEventsQueuedEv@Base 5.0.2 1
 _ZN29QWindowSystemInterfacePrivate25TabletEnterProximityEventD0Ev@Base 5.0.2 1
 _ZN29QWindowSystemInterfacePrivate25TabletEnterProximityEventD1Ev@Base 5.0.2 1
 _ZN29QWindowSystemInterfacePrivate25TabletEnterProximityEventD2Ev@Base 5.0.2 1
 _ZN29QWindowSystemInterfacePrivate25TabletLeaveProximityEventD0Ev@Base 5.0.2 1
 _ZN29QWindowSystemInterfacePrivate25TabletLeaveProximityEventD1Ev@Base 5.0.2 1
 _ZN29QWindowSystemInterfacePrivate25TabletLeaveProximityEventD2Ev@Base 5.0.2 1
 _ZN29QWindowSystemInterfacePrivate28ApplicationStateChangedEventD0Ev@Base 5.1.0 1
 _ZN29QWindowSystemInterfacePrivate28ApplicationStateChangedEventD1Ev@Base 5.1.0 1
 _ZN29QWindowSystemInterfacePrivate28ApplicationStateChangedEventD2Ev@Base 5.1.0 1
 _ZN29QWindowSystemInterfacePrivate28ScreenAvailableGeometryEventD0Ev@Base 5.0.2 1
 _ZN29QWindowSystemInterfacePrivate28ScreenAvailableGeometryEventD1Ev@Base 5.0.2 1
 _ZN29QWindowSystemInterfacePrivate28ScreenAvailableGeometryEventD2Ev@Base 5.0.2 1
 _ZN29QWindowSystemInterfacePrivate29ScreenLogicalDotsPerInchEventD0Ev@Base 5.0.2 1
 _ZN29QWindowSystemInterfacePrivate29ScreenLogicalDotsPerInchEventD1Ev@Base 5.0.2 1
 _ZN29QWindowSystemInterfacePrivate29ScreenLogicalDotsPerInchEventD2Ev@Base 5.0.2 1
 _ZN29QWindowSystemInterfacePrivate30synchronousWindowsSystemEventsE@Base 5.0.2 1
 _ZN29QWindowSystemInterfacePrivate32getNonUserInputWindowSystemEventEv@Base 5.0.2 1
 _ZN29QWindowSystemInterfacePrivate8KeyEventD0Ev@Base 5.0.2 1
 _ZN29QWindowSystemInterfacePrivate8KeyEventD1Ev@Base 5.0.2 1
 _ZN29QWindowSystemInterfacePrivate8KeyEventD2Ev@Base 5.0.2 1
 _ZN29QWindowSystemInterfacePrivate9UserEventD0Ev@Base 5.0.2 1
 _ZN29QWindowSystemInterfacePrivate9UserEventD1Ev@Base 5.0.2 1
 _ZN29QWindowSystemInterfacePrivate9UserEventD2Ev@Base 5.0.2 1
 _ZN29QWindowSystemInterfacePrivate9eventTimeE@Base 5.0.2 1
 _ZN2Qt12codecForHtmlERK10QByteArray@Base 5.0.2
 _ZN2Qt15mightBeRichTextERK7QString@Base 5.0.2
 _ZN2Qt20convertFromPlainTextERK7QStringNS_14WhiteSpaceModeE@Base 5.0.2
 _ZN30QOpenGLFramebufferObjectFormat10setSamplesEi@Base 5.0.2
 _ZN30QOpenGLFramebufferObjectFormat13setAttachmentEN24QOpenGLFramebufferObject10AttachmentE@Base 5.0.2
 _ZN30QOpenGLFramebufferObjectFormat16setTextureTargetEj@Base 5.0.2
 _ZN30QOpenGLFramebufferObjectFormat24setInternalTextureFormatEj@Base 5.0.2
 _ZN30QOpenGLFramebufferObjectFormat6detachEv@Base 5.0.2
 _ZN30QOpenGLFramebufferObjectFormat9setMipmapEb@Base 5.0.2
 _ZN30QOpenGLFramebufferObjectFormatC1ERKS_@Base 5.0.2
 _ZN30QOpenGLFramebufferObjectFormatC1Ev@Base 5.0.2
 _ZN30QOpenGLFramebufferObjectFormatC2ERKS_@Base 5.0.2
 _ZN30QOpenGLFramebufferObjectFormatC2Ev@Base 5.0.2
 _ZN30QOpenGLFramebufferObjectFormatD1Ev@Base 5.0.2
 _ZN30QOpenGLFramebufferObjectFormatD2Ev@Base 5.0.2
 _ZN30QOpenGLFramebufferObjectFormataSERKS_@Base 5.0.2
 _ZN31QOpenGLMultiGroupSharedResource5valueEP14QOpenGLContext@Base 5.0.2 1
 _ZN31QOpenGLMultiGroupSharedResource6insertEP14QOpenGLContextP21QOpenGLSharedResource@Base 5.0.2 1
 _ZN31QOpenGLMultiGroupSharedResource7cleanupEP19QOpenGLContextGroupP21QOpenGLSharedResource@Base 5.0.2 1
 _ZN31QOpenGLMultiGroupSharedResourceC1Ev@Base 5.0.2 1
 _ZN31QOpenGLMultiGroupSharedResourceC2Ev@Base 5.0.2 1
 _ZN31QOpenGLMultiGroupSharedResourceD1Ev@Base 5.0.2 1
 _ZN31QOpenGLMultiGroupSharedResourceD2Ev@Base 5.0.2 1
 (arch=!armel !armhf)_ZN34QOpenGLFunctions_3_2_Compatibility14versionProfileEv@Base 5.1.0
 (arch=!armel !armhf)_ZN34QOpenGLFunctions_3_2_Compatibility19isContextCompatibleEP14QOpenGLContext@Base 5.1.0
 (arch=!armel !armhf)_ZN34QOpenGLFunctions_3_2_Compatibility25initializeOpenGLFunctionsEv@Base 5.1.0
 (arch=!armel !armhf)_ZN34QOpenGLFunctions_3_2_CompatibilityC1Ev@Base 5.1.0
 (arch=!armel !armhf)_ZN34QOpenGLFunctions_3_2_CompatibilityC2Ev@Base 5.1.0
 (arch=!armel !armhf)_ZN34QOpenGLFunctions_3_2_CompatibilityD0Ev@Base 5.1.0
 (arch=!armel !armhf)_ZN34QOpenGLFunctions_3_2_CompatibilityD1Ev@Base 5.1.0
 (arch=!armel !armhf)_ZN34QOpenGLFunctions_3_2_CompatibilityD2Ev@Base 5.1.0
 (arch=!armel !armhf)_ZN34QOpenGLFunctions_3_3_Compatibility14versionProfileEv@Base 5.1.0
 (arch=!armel !armhf)_ZN34QOpenGLFunctions_3_3_Compatibility19isContextCompatibleEP14QOpenGLContext@Base 5.1.0
 (arch=!armel !armhf)_ZN34QOpenGLFunctions_3_3_Compatibility25initializeOpenGLFunctionsEv@Base 5.1.0
 (arch=!armel !armhf)_ZN34QOpenGLFunctions_3_3_CompatibilityC1Ev@Base 5.1.0
 (arch=!armel !armhf)_ZN34QOpenGLFunctions_3_3_CompatibilityC2Ev@Base 5.1.0
 (arch=!armel !armhf)_ZN34QOpenGLFunctions_3_3_CompatibilityD0Ev@Base 5.1.0
 (arch=!armel !armhf)_ZN34QOpenGLFunctions_3_3_CompatibilityD1Ev@Base 5.1.0
 (arch=!armel !armhf)_ZN34QOpenGLFunctions_3_3_CompatibilityD2Ev@Base 5.1.0
 (arch=!armel !armhf)_ZN34QOpenGLFunctions_4_0_Compatibility14versionProfileEv@Base 5.1.0
 (arch=!armel !armhf)_ZN34QOpenGLFunctions_4_0_Compatibility19isContextCompatibleEP14QOpenGLContext@Base 5.1.0
 (arch=!armel !armhf)_ZN34QOpenGLFunctions_4_0_Compatibility25initializeOpenGLFunctionsEv@Base 5.1.0
 (arch=!armel !armhf)_ZN34QOpenGLFunctions_4_0_CompatibilityC1Ev@Base 5.1.0
 (arch=!armel !armhf)_ZN34QOpenGLFunctions_4_0_CompatibilityC2Ev@Base 5.1.0
 (arch=!armel !armhf)_ZN34QOpenGLFunctions_4_0_CompatibilityD0Ev@Base 5.1.0
 (arch=!armel !armhf)_ZN34QOpenGLFunctions_4_0_CompatibilityD1Ev@Base 5.1.0
 (arch=!armel !armhf)_ZN34QOpenGLFunctions_4_0_CompatibilityD2Ev@Base 5.1.0
 (arch=!armel !armhf)_ZN34QOpenGLFunctions_4_1_Compatibility14versionProfileEv@Base 5.1.0
 (arch=!armel !armhf)_ZN34QOpenGLFunctions_4_1_Compatibility19isContextCompatibleEP14QOpenGLContext@Base 5.1.0
 (arch=!armel !armhf)_ZN34QOpenGLFunctions_4_1_Compatibility25initializeOpenGLFunctionsEv@Base 5.1.0
 (arch=!armel !armhf)_ZN34QOpenGLFunctions_4_1_CompatibilityC1Ev@Base 5.1.0
 (arch=!armel !armhf)_ZN34QOpenGLFunctions_4_1_CompatibilityC2Ev@Base 5.1.0
 (arch=!armel !armhf)_ZN34QOpenGLFunctions_4_1_CompatibilityD0Ev@Base 5.1.0
 (arch=!armel !armhf)_ZN34QOpenGLFunctions_4_1_CompatibilityD1Ev@Base 5.1.0
 (arch=!armel !armhf)_ZN34QOpenGLFunctions_4_1_CompatibilityD2Ev@Base 5.1.0
 (arch=!armel !armhf)_ZN34QOpenGLFunctions_4_2_Compatibility14versionProfileEv@Base 5.1.0
 (arch=!armel !armhf)_ZN34QOpenGLFunctions_4_2_Compatibility19isContextCompatibleEP14QOpenGLContext@Base 5.1.0
 (arch=!armel !armhf)_ZN34QOpenGLFunctions_4_2_Compatibility25initializeOpenGLFunctionsEv@Base 5.1.0
 (arch=!armel !armhf)_ZN34QOpenGLFunctions_4_2_CompatibilityC1Ev@Base 5.1.0
 (arch=!armel !armhf)_ZN34QOpenGLFunctions_4_2_CompatibilityC2Ev@Base 5.1.0
 (arch=!armel !armhf)_ZN34QOpenGLFunctions_4_2_CompatibilityD0Ev@Base 5.1.0
 (arch=!armel !armhf)_ZN34QOpenGLFunctions_4_2_CompatibilityD1Ev@Base 5.1.0
 (arch=!armel !armhf)_ZN34QOpenGLFunctions_4_2_CompatibilityD2Ev@Base 5.1.0
 (arch=!armel !armhf)_ZN34QOpenGLFunctions_4_3_Compatibility14versionProfileEv@Base 5.1.0
 (arch=!armel !armhf)_ZN34QOpenGLFunctions_4_3_Compatibility19isContextCompatibleEP14QOpenGLContext@Base 5.1.0
 (arch=!armel !armhf)_ZN34QOpenGLFunctions_4_3_Compatibility25initializeOpenGLFunctionsEv@Base 5.1.0
 (arch=!armel !armhf)_ZN34QOpenGLFunctions_4_3_CompatibilityC1Ev@Base 5.1.0
 (arch=!armel !armhf)_ZN34QOpenGLFunctions_4_3_CompatibilityC2Ev@Base 5.1.0
 (arch=!armel !armhf)_ZN34QOpenGLFunctions_4_3_CompatibilityD0Ev@Base 5.1.0
 (arch=!armel !armhf)_ZN34QOpenGLFunctions_4_3_CompatibilityD1Ev@Base 5.1.0
 (arch=!armel !armhf)_ZN34QOpenGLFunctions_4_3_CompatibilityD2Ev@Base 5.1.0
 _ZN4QCss10StyleSheet12buildIndexesEN2Qt15CaseSensitivityE@Base 5.0.2
 _ZN4QCss10StyleSheetC1ERKS0_@Base 5.0.2
 _ZN4QCss10StyleSheetC2ERKS0_@Base 5.0.2
 _ZN4QCss10StyleSheetD1Ev@Base 5.0.2
 _ZN4QCss10StyleSheetD2Ev@Base 5.0.2
 _ZN4QCss10StyleSheetaSERKS0_@Base 5.0.2
 _ZN4QCss13StyleSelector15selectorMatchesERKNS_8SelectorENS0_7NodePtrE@Base 5.0.2 1
 _ZN4QCss13StyleSelector17styleRulesForNodeENS0_7NodePtrE@Base 5.0.2 1
 _ZN4QCss13StyleSelector19declarationsForNodeENS0_7NodePtrEPKc@Base 5.0.2 1
 _ZN4QCss13StyleSelector20basicSelectorMatchesERKNS_13BasicSelectorENS0_7NodePtrE@Base 5.0.2 1
 _ZN4QCss13StyleSelector9matchRuleENS0_7NodePtrERKNS_9StyleRuleENS_16StyleSheetOriginEiP4QMapIjS2_E@Base 5.0.2 1
 _ZN4QCss13StyleSelectorD0Ev@Base 5.0.2 1
 _ZN4QCss13StyleSelectorD1Ev@Base 5.0.2 1
 _ZN4QCss13StyleSelectorD2Ev@Base 5.0.2 1
 _ZN4QCss14ValueExtractor10extractBoxEPiS1_S1_@Base 5.0.2
 _ZN4QCss14ValueExtractor10sizeValuesERKNS_11DeclarationEP5QSize@Base 5.0.2
 _ZN4QCss14ValueExtractor11borderValueERKNS_11DeclarationEPiPNS_11BorderStyleEP6QBrush@Base 5.0.2
 _ZN4QCss14ValueExtractor11extractFontEP5QFontPi@Base 5.0.2
 _ZN4QCss14ValueExtractor11extractFontEv@Base 5.0.2
 _ZN4QCss14ValueExtractor11lengthValueERKNS_11DeclarationE@Base 5.0.2
 _ZN4QCss14ValueExtractor11lengthValueERKNS_5ValueE@Base 5.0.2
 _ZN4QCss14ValueExtractor12extractImageEP5QIconP6QFlagsIN2Qt13AlignmentFlagEEP5QSize@Base 5.0.2
 _ZN4QCss14ValueExtractor12lengthValuesERKNS_11DeclarationEPi@Base 5.0.2
 _ZN4QCss14ValueExtractor13extractBorderEPiP6QBrushPNS_11BorderStyleEP5QSize@Base 5.0.2
 _ZN4QCss14ValueExtractor14extractOutlineEPiP6QBrushPNS_11BorderStyleEP5QSizeS1_@Base 5.0.2
 _ZN4QCss14ValueExtractor14extractPaletteEP6QBrushS2_S2_S2_@Base 5.0.2
 _ZN4QCss14ValueExtractor15extractGeometryEPiS1_S1_S1_S1_S1_@Base 5.0.2
 _ZN4QCss14ValueExtractor15extractPositionEPiS1_S1_S1_PNS_6OriginEP6QFlagsIN2Qt13AlignmentFlagEEPNS_12PositionModeES8_@Base 5.0.2
 _ZN4QCss14ValueExtractor17extractBackgroundEP6QBrushP7QStringPNS_6RepeatEP6QFlagsIN2Qt13AlignmentFlagEEPNS_6OriginEPNS_10AttachmentESD_@Base 5.0.2
 _ZN4QCss14ValueExtractor20extractStyleFeaturesEv@Base 5.0.2
 _ZN4QCss14ValueExtractor9sizeValueERKNS_11DeclarationE@Base 5.0.2
 _ZN4QCss14ValueExtractorC1ERK7QVectorINS_11DeclarationEERK8QPalette@Base 5.0.2
 _ZN4QCss14ValueExtractorC2ERK7QVectorINS_11DeclarationEERK8QPalette@Base 5.0.2
 _ZN4QCss6Parser10lexemUntilENS_9TokenTypeE@Base 5.0.2 1
 _ZN4QCss6Parser10parseClassEP7QString@Base 5.0.2 1
 _ZN4QCss6Parser10parseMediaEPNS_9MediaRuleE@Base 5.0.2 1
 _ZN4QCss6Parser11errorSymbolEv@Base 5.0.2 1
 _ZN4QCss6Parser11parseAttribEPNS_17AttributeSelectorE@Base 5.0.2 1
 _ZN4QCss6Parser11parseImportEPNS_10ImportRuleE@Base 5.0.2 1
 _ZN4QCss6Parser11parseMediumEP11QStringList@Base 5.0.2 1
 _ZN4QCss6Parser11parsePseudoEPNS_6PseudoE@Base 5.0.2 1
 _ZN4QCss6Parser12parseRulesetEPNS_9StyleRuleE@Base 5.0.2 1
 _ZN4QCss6Parser13parseFunctionEP7QStringS2_@Base 5.0.2 1
 _ZN4QCss6Parser13parseHexColorEP6QColor@Base 5.0.2 1
 _ZN4QCss6Parser13parsePropertyEPNS_11DeclarationE@Base 5.0.2 1
 _ZN4QCss6Parser13parseSelectorEPNS_8SelectorE@Base 5.0.2 1
 _ZN4QCss6Parser15parseCombinatorEPNS_13BasicSelector8RelationE@Base 5.0.2 1
 _ZN4QCss6Parser15parsePseudoPageEP7QString@Base 5.0.2 1
 _ZN4QCss6Parser15testAndParseUriEP7QString@Base 5.0.2 1
 _ZN4QCss6Parser16parseElementNameEP7QString@Base 5.0.2 1
 _ZN4QCss6Parser17parseNextOperatorEPNS_5ValueE@Base 5.0.2 1
 _ZN4QCss6Parser18testSimpleSelectorEv@Base 5.0.2 1
 _ZN4QCss6Parser19parseSimpleSelectorEPNS_13BasicSelectorE@Base 5.0.2 1
 _ZN4QCss6Parser20parseNextDeclarationEPNS_11DeclarationE@Base 5.0.2 1
 _ZN4QCss6Parser20testTokenAndEndsWithENS_9TokenTypeE13QLatin1String@Base 5.0.2 1
 _ZN4QCss6Parser4initERK7QStringb@Base 5.0.2 1
 _ZN4QCss6Parser4nextENS_9TokenTypeE@Base 5.0.2 1
 _ZN4QCss6Parser4testENS_9TokenTypeE@Base 5.0.2 1
 _ZN4QCss6Parser5parseEPNS_10StyleSheetEN2Qt15CaseSensitivityE@Base 5.0.2 1
 _ZN4QCss6Parser5untilENS_9TokenTypeES1_@Base 5.0.2 1
 _ZN4QCss6Parser8testPrioEv@Base 5.0.2 1
 _ZN4QCss6Parser8testTermEv@Base 5.0.2 1
 _ZN4QCss6Parser9parseExprEP7QVectorINS_5ValueEE@Base 5.0.2 1
 _ZN4QCss6Parser9parsePageEPNS_8PageRuleE@Base 5.0.2 1
 _ZN4QCss6Parser9parsePrioEPNS_11DeclarationE@Base 5.0.2 1
 _ZN4QCss6Parser9parseTermEPNS_5ValueE@Base 5.0.2 1
 _ZN4QCss6ParserC1ERK7QStringb@Base 5.0.2 1
 _ZN4QCss6ParserC1Ev@Base 5.0.2 1
 _ZN4QCss6ParserC2ERK7QStringb@Base 5.0.2 1
 _ZN4QCss6ParserC2Ev@Base 5.0.2 1
 _ZN4QCss7Scanner10preprocessERK7QStringPb@Base 5.0.2 1
 _ZN4QCss7Scanner4scanERK7QStringP7QVectorINS_6SymbolEE@Base 5.0.2 1
 _ZN4QPen10isDetachedEv@Base 5.0.2
 _ZN4QPen11setCapStyleEN2Qt11PenCapStyleE@Base 5.0.2
 _ZN4QPen11setCosmeticEb@Base 5.0.2
 _ZN4QPen12setJoinStyleEN2Qt12PenJoinStyleE@Base 5.0.2
 _ZN4QPen13setDashOffsetEd@Base 5.2.0
 _ZN4QPen13setMiterLimitEd@Base 5.2.0
 _ZN4QPen14setDashPatternERK7QVectorIdE@Base 5.2.0
 _ZN4QPen6detachEv@Base 5.0.2
 _ZN4QPen8setBrushERK6QBrush@Base 5.0.2
 _ZN4QPen8setColorERK6QColor@Base 5.0.2
 _ZN4QPen8setStyleEN2Qt8PenStyleE@Base 5.0.2
 _ZN4QPen8setWidthEi@Base 5.0.2
 _ZN4QPen9setWidthFEd@Base 5.2.0
 _ZN4QPenC1EN2Qt8PenStyleE@Base 5.0.2
 _ZN4QPenC1ERK6QBrushdN2Qt8PenStyleENS3_11PenCapStyleENS3_12PenJoinStyleE@Base 5.2.0
 _ZN4QPenC1ERK6QColor@Base 5.0.2
 _ZN4QPenC1ERKS_@Base 5.0.2
 _ZN4QPenC1Ev@Base 5.0.2
 _ZN4QPenC2EN2Qt8PenStyleE@Base 5.0.2
 _ZN4QPenC2ERK6QBrushdN2Qt8PenStyleENS3_11PenCapStyleENS3_12PenJoinStyleE@Base 5.2.0
 _ZN4QPenC2ERK6QColor@Base 5.0.2
 _ZN4QPenC2ERKS_@Base 5.0.2
 _ZN4QPenC2Ev@Base 5.0.2
 _ZN4QPenD1Ev@Base 5.0.2
 _ZN4QPenD2Ev@Base 5.0.2
 _ZN4QPenaSERKS_@Base 5.0.2
 _ZN5QDrag10setHotSpotERK6QPoint@Base 5.0.2
 _ZN5QDrag11qt_metacallEN11QMetaObject4CallEiPPv@Base 5.0.2
 _ZN5QDrag11qt_metacastEPKc@Base 5.0.2
 _ZN5QDrag11setMimeDataEP9QMimeData@Base 5.0.2
 _ZN5QDrag13actionChangedEN2Qt10DropActionE@Base 5.0.2
 _ZN5QDrag13setDragCursorERK7QPixmapN2Qt10DropActionE@Base 5.0.2
 _ZN5QDrag13targetChangedEP7QObject@Base 5.0.2
 _ZN5QDrag16staticMetaObjectE@Base 5.0.2
 _ZN5QDrag4execE6QFlagsIN2Qt10DropActionEE@Base 5.0.2
 _ZN5QDrag4execE6QFlagsIN2Qt10DropActionEES2_@Base 5.0.2
 _ZN5QDrag5startE6QFlagsIN2Qt10DropActionEE@Base 5.0.2
 _ZN5QDrag9setPixmapERK7QPixmap@Base 5.0.2
 _ZN5QDragC1EP7QObject@Base 5.0.2
 _ZN5QDragC2EP7QObject@Base 5.0.2
 _ZN5QDragD0Ev@Base 5.0.2
 _ZN5QDragD1Ev@Base 5.0.2
 _ZN5QDragD2Ev@Base 5.0.2
 _ZN5QFont10fromStringERK7QString@Base 5.0.2
 _ZN5QFont10initializeEv@Base 5.0.2
 _ZN5QFont10setKerningEb@Base 5.0.2
 _ZN5QFont10setRawModeEb@Base 5.0.2
 _ZN5QFont10setRawNameERK7QString@Base 5.0.2
 _ZN5QFont10setStretchEi@Base 5.0.2
 _ZN5QFont10substituteERK7QString@Base 5.0.2
 _ZN5QFont11setOverlineEb@Base 5.0.2
 _ZN5QFont11substitutesERK7QString@Base 5.0.2
 _ZN5QFont12setPixelSizeEi@Base 5.0.2
 _ZN5QFont12setPointSizeEi@Base 5.0.2
 _ZN5QFont12setStrikeOutEb@Base 5.0.2
 _ZN5QFont12setStyleHintENS_9StyleHintENS_13StyleStrategyE@Base 5.0.2
 _ZN5QFont12setStyleNameERK7QString@Base 5.0.2
 _ZN5QFont12setUnderlineEb@Base 5.0.2
 _ZN5QFont13setFixedPitchEb@Base 5.0.2
 _ZN5QFont13setPointSizeFEd@Base 5.2.0
 _ZN5QFont13substitutionsEv@Base 5.0.2
 _ZN5QFont14setWordSpacingEd@Base 5.2.0
 _ZN5QFont15cacheStatisticsEv@Base 5.0.2
 _ZN5QFont16setLetterSpacingENS_11SpacingTypeEd@Base 5.2.0
 _ZN5QFont16setStyleStrategyENS_13StyleStrategyE@Base 5.0.2
 _ZN5QFont16staticMetaObjectE@Base 5.0.2
 _ZN5QFont17setCapitalizationENS_14CapitalizationE@Base 5.0.2
 _ZN5QFont18insertSubstitutionERK7QStringS2_@Base 5.0.2
 _ZN5QFont19insertSubstitutionsERK7QStringRK11QStringList@Base 5.0.2
 _ZN5QFont19removeSubstitutionsERK7QString@Base 5.0.2
 _ZN5QFont20setHintingPreferenceENS_17HintingPreferenceE@Base 5.0.2
 _ZN5QFont6detachEv@Base 5.0.2
 _ZN5QFont7cleanupEv@Base 5.0.2
 _ZN5QFont8setStyleENS_5StyleE@Base 5.0.2
 _ZN5QFont9setFamilyERK7QString@Base 5.0.2
 _ZN5QFont9setWeightEi@Base 5.0.2
 _ZN5QFontC1EP12QFontPrivate@Base 5.0.2 1
 _ZN5QFontC1ERK7QStringiib@Base 5.0.2
 _ZN5QFontC1ERKS_@Base 5.0.2
 _ZN5QFontC1ERKS_P12QPaintDevice@Base 5.0.2
 _ZN5QFontC1Ev@Base 5.0.2
 _ZN5QFontC2EP12QFontPrivate@Base 5.0.2 1
 _ZN5QFontC2ERK7QStringiib@Base 5.0.2
 _ZN5QFontC2ERKS_@Base 5.0.2
 _ZN5QFontC2ERKS_P12QPaintDevice@Base 5.0.2
 _ZN5QFontC2Ev@Base 5.0.2
 _ZN5QFontD1Ev@Base 5.0.2
 _ZN5QFontD2Ev@Base 5.0.2
 _ZN5QFontaSERKS_@Base 5.0.2
 _ZN5QIcon12hasThemeIconERK7QString@Base 5.0.2
 _ZN5QIcon12setThemeNameERK7QString@Base 5.0.2
 _ZN5QIcon16themeSearchPathsEv@Base 5.0.2
 _ZN5QIcon19setThemeSearchPathsERK11QStringList@Base 5.0.2
 _ZN5QIcon6detachEv@Base 5.0.2
 _ZN5QIcon7addFileERK7QStringRK5QSizeNS_4ModeENS_5StateE@Base 5.0.2
 _ZN5QIcon9addPixmapERK7QPixmapNS_4ModeENS_5StateE@Base 5.0.2
 _ZN5QIcon9fromThemeERK7QStringRKS_@Base 5.0.2
 _ZN5QIcon9themeNameEv@Base 5.0.2
 _ZN5QIconC1EP11QIconEngine@Base 5.0.2
 _ZN5QIconC1ERK7QPixmap@Base 5.0.2
 _ZN5QIconC1ERK7QString@Base 5.0.2
 _ZN5QIconC1ERKS_@Base 5.0.2
 _ZN5QIconC1Ev@Base 5.0.2
 _ZN5QIconC2EP11QIconEngine@Base 5.0.2
 _ZN5QIconC2ERK7QPixmap@Base 5.0.2
 _ZN5QIconC2ERK7QString@Base 5.0.2
 _ZN5QIconC2ERKS_@Base 5.0.2
 _ZN5QIconC2Ev@Base 5.0.2
 _ZN5QIconD1Ev@Base 5.0.2
 _ZN5QIconD2Ev@Base 5.0.2
 _ZN5QIconaSERKS_@Base 5.0.2
 _ZN6QBrush10setTextureERK7QPixmap@Base 5.0.2
 _ZN6QBrush12setTransformERK10QTransform@Base 5.0.2
 _ZN6QBrush15setTextureImageERK6QImage@Base 5.0.2
 _ZN6QBrush4initERK6QColorN2Qt10BrushStyleE@Base 5.0.2
 _ZN6QBrush6detachEN2Qt10BrushStyleE@Base 5.0.2
 _ZN6QBrush7cleanUpEP10QBrushData@Base 5.0.2
 _ZN6QBrush8setColorERK6QColor@Base 5.0.2
 _ZN6QBrush8setStyleEN2Qt10BrushStyleE@Base 5.0.2
 _ZN6QBrush9setMatrixERK7QMatrix@Base 5.0.2
 _ZN6QBrushC1EN2Qt10BrushStyleE@Base 5.0.2
 _ZN6QBrushC1EN2Qt11GlobalColorENS0_10BrushStyleE@Base 5.0.2
 _ZN6QBrushC1EN2Qt11GlobalColorERK7QPixmap@Base 5.0.2
 _ZN6QBrushC1ERK6QColorN2Qt10BrushStyleE@Base 5.0.2
 _ZN6QBrushC1ERK6QColorRK7QPixmap@Base 5.0.2
 _ZN6QBrushC1ERK6QImage@Base 5.0.2
 _ZN6QBrushC1ERK7QPixmap@Base 5.0.2
 _ZN6QBrushC1ERK9QGradient@Base 5.0.2
 _ZN6QBrushC1ERKS_@Base 5.0.2
 _ZN6QBrushC1Ev@Base 5.0.2
 _ZN6QBrushC2EN2Qt10BrushStyleE@Base 5.0.2
 _ZN6QBrushC2EN2Qt11GlobalColorENS0_10BrushStyleE@Base 5.0.2
 _ZN6QBrushC2EN2Qt11GlobalColorERK7QPixmap@Base 5.0.2
 _ZN6QBrushC2ERK6QColorN2Qt10BrushStyleE@Base 5.0.2
 _ZN6QBrushC2ERK6QColorRK7QPixmap@Base 5.0.2
 _ZN6QBrushC2ERK6QImage@Base 5.0.2
 _ZN6QBrushC2ERK7QPixmap@Base 5.0.2
 _ZN6QBrushC2ERK9QGradient@Base 5.0.2
 _ZN6QBrushC2ERKS_@Base 5.0.2
 _ZN6QBrushC2Ev@Base 5.0.2
 _ZN6QBrushD1Ev@Base 5.0.2
 _ZN6QBrushD2Ev@Base 5.0.2
 _ZN6QBrushaSERKS_@Base 5.0.2
 _ZN6QColor10colorNamesEv@Base 5.0.2
 _ZN6QColor10invalidateEv@Base 5.0.2
 _ZN6QColor12isValidColorERK7QString@Base 5.0.2
 _ZN6QColor13setNamedColorERK7QString@Base 5.0.2
 _ZN6QColor18setColorFromStringERK7QString@Base 5.0.2
 _ZN6QColor6setHslEiiii@Base 5.0.2
 _ZN6QColor6setHsvEiiii@Base 5.0.2
 _ZN6QColor6setRedEi@Base 5.0.2
 _ZN6QColor6setRgbEiiii@Base 5.0.2
 _ZN6QColor6setRgbEj@Base 5.0.2
 _ZN6QColor7fromHslEiiii@Base 5.0.2
 _ZN6QColor7fromHsvEiiii@Base 5.0.2
 _ZN6QColor7fromRgbEiiii@Base 5.0.2
 _ZN6QColor7fromRgbEj@Base 5.0.2
 _ZN6QColor7getCmykEPiS0_S0_S0_S0_@Base 5.0.2
 _ZN6QColor7setBlueEi@Base 5.0.2
 _ZN6QColor7setCmykEiiiii@Base 5.0.2
 _ZN6QColor7setHslFEdddd@Base 5.2.0
 _ZN6QColor7setHsvFEdddd@Base 5.2.0
 _ZN6QColor7setRedFEd@Base 5.2.0
 _ZN6QColor7setRgbFEdddd@Base 5.2.0
 _ZN6QColor7setRgbaEj@Base 5.0.2
 _ZN6QColor8fromCmykEiiiii@Base 5.0.2
 _ZN6QColor8fromHslFEdddd@Base 5.2.0
 _ZN6QColor8fromHsvFEdddd@Base 5.2.0
 _ZN6QColor8fromRgbFEdddd@Base 5.2.0
 _ZN6QColor8fromRgbaEj@Base 5.0.2
 _ZN6QColor8getCmykFEPdS0_S0_S0_S0_@Base 5.2.0
 _ZN6QColor8setAlphaEi@Base 5.0.2
 _ZN6QColor8setBlueFEd@Base 5.2.0
 _ZN6QColor8setCmykFEddddd@Base 5.2.0
 _ZN6QColor8setGreenEi@Base 5.0.2
 _ZN6QColor9fromCmykFEddddd@Base 5.2.0
 _ZN6QColor9setAlphaFEd@Base 5.2.0
 _ZN6QColor9setGreenFEd@Base 5.2.0
 _ZN6QColorC1EN2Qt11GlobalColorE@Base 5.0.2
 _ZN6QColorC1ENS_4SpecE@Base 5.0.2
 _ZN6QColorC1Ej@Base 5.0.2
 _ZN6QColorC2EN2Qt11GlobalColorE@Base 5.0.2
 _ZN6QColorC2ENS_4SpecE@Base 5.0.2
 _ZN6QColorC2Ej@Base 5.0.2
 _ZN6QColoraSEN2Qt11GlobalColorE@Base 5.0.2
 _ZN6QColoraSERKS_@Base 5.0.2
 _ZN6QImage10trueMatrixERK10QTransformii@Base 5.0.2
 _ZN6QImage10trueMatrixERK7QMatrixii@Base 5.0.2
 _ZN6QImage12invertPixelsENS_10InvertModeE@Base 5.0.2
 _ZN6QImage12loadFromDataEPKhiPKc@Base 5.0.2
 _ZN6QImage13setColorCountEi@Base 5.0.2
 _ZN6QImage13setColorTableE7QVectorIjE@Base 5.0.2
 _ZN6QImage15setAlphaChannelERKS_@Base 5.0.2
 _ZN6QImage16mirrored_inplaceEbb@Base 5.3.0
 _ZN6QImage16setDotsPerMeterXEi@Base 5.0.2
 _ZN6QImage16setDotsPerMeterYEi@Base 5.0.2
 _ZN6QImage18rgbSwapped_inplaceEv@Base 5.3.0
 _ZN6QImage19setDevicePixelRatioEd@Base 5.2.0
 _ZN6QImage23convertToFormat_inplaceENS_6FormatE6QFlagsIN2Qt19ImageConversionFlagEE@Base 5.3.0
 _ZN6QImage4bitsEv@Base 5.0.2
 _ZN6QImage4fillEN2Qt11GlobalColorE@Base 5.0.2
 _ZN6QImage4fillERK6QColor@Base 5.0.2
 _ZN6QImage4fillEj@Base 5.0.2
 _ZN6QImage4loadEP9QIODevicePKc@Base 5.0.2
 _ZN6QImage4loadERK7QStringPKc@Base 5.0.2
 _ZN6QImage6detachEv@Base 5.0.2
 _ZN6QImage7setTextERK7QStringS2_@Base 5.0.2
 _ZN6QImage8fromDataEPKhiPKc@Base 5.0.2
 _ZN6QImage8scanLineEi@Base 5.0.2
 _ZN6QImage8setColorEij@Base 5.0.2
 _ZN6QImage8setPixelEiij@Base 5.0.2
 _ZN6QImage9setOffsetERK6QPoint@Base 5.0.2
 _ZN6QImageC1EPKPKc@Base 5.0.2
 _ZN6QImageC1EPKhiiNS_6FormatEPFvPvES3_@Base 5.0.2
 _ZN6QImageC1EPKhiiiNS_6FormatEPFvPvES3_@Base 5.0.2
 _ZN6QImageC1EPhiiNS_6FormatEPFvPvES2_@Base 5.0.2
 _ZN6QImageC1EPhiiiNS_6FormatEPFvPvES2_@Base 5.0.2
 _ZN6QImageC1ERK5QSizeNS_6FormatE@Base 5.0.2
 _ZN6QImageC1ERK7QStringPKc@Base 5.0.2
 _ZN6QImageC1ERKS_@Base 5.0.2
 _ZN6QImageC1EiiNS_6FormatE@Base 5.0.2
 _ZN6QImageC1Ev@Base 5.0.2
 _ZN6QImageC2EPKPKc@Base 5.0.2
 _ZN6QImageC2EPKhiiNS_6FormatEPFvPvES3_@Base 5.0.2
 _ZN6QImageC2EPKhiiiNS_6FormatEPFvPvES3_@Base 5.0.2
 _ZN6QImageC2EPhiiNS_6FormatEPFvPvES2_@Base 5.0.2
 _ZN6QImageC2EPhiiiNS_6FormatEPFvPvES2_@Base 5.0.2
 _ZN6QImageC2ERK5QSizeNS_6FormatE@Base 5.0.2
 _ZN6QImageC2ERK7QStringPKc@Base 5.0.2
 _ZN6QImageC2ERKS_@Base 5.0.2
 _ZN6QImageC2EiiNS_6FormatE@Base 5.0.2
 _ZN6QImageC2Ev@Base 5.0.2
 _ZN6QImageD0Ev@Base 5.0.2
 _ZN6QImageD1Ev@Base 5.0.2
 _ZN6QImageD2Ev@Base 5.0.2
 _ZN6QImageaSERKS_@Base 5.0.2
 _ZN6QMovie10scaledSizeEv@Base 5.0.2
 _ZN6QMovie11jumpToFrameEi@Base 5.0.2
 _ZN6QMovie11qt_metacallEN11QMetaObject4CallEiPPv@Base 5.0.2
 _ZN6QMovie11qt_metacastEPKc@Base 5.0.2
 _ZN6QMovie11setFileNameERK7QString@Base 5.0.2
 _ZN6QMovie12frameChangedEi@Base 5.0.2
 _ZN6QMovie12setCacheModeENS_9CacheModeE@Base 5.0.2
 _ZN6QMovie12stateChangedENS_10MovieStateE@Base 5.0.2
 _ZN6QMovie13setScaledSizeERK5QSize@Base 5.0.2
 _ZN6QMovie15jumpToNextFrameEv@Base 5.0.2
 _ZN6QMovie16staticMetaObjectE@Base 5.0.2
 _ZN6QMovie16supportedFormatsEv@Base 5.0.2
 _ZN6QMovie18setBackgroundColorERK6QColor@Base 5.0.2
 _ZN6QMovie4stopEv@Base 5.0.2
 _ZN6QMovie5errorEN12QImageReader16ImageReaderErrorE@Base 5.0.2
 _ZN6QMovie5startEv@Base 5.0.2
 _ZN6QMovie7resizedERK5QSize@Base 5.0.2
 _ZN6QMovie7startedEv@Base 5.0.2
 _ZN6QMovie7updatedERK5QRect@Base 5.0.2
 _ZN6QMovie8finishedEv@Base 5.0.2
 _ZN6QMovie8setSpeedEi@Base 5.0.2
 _ZN6QMovie9setDeviceEP9QIODevice@Base 5.0.2
 _ZN6QMovie9setFormatERK10QByteArray@Base 5.0.2
 _ZN6QMovie9setPausedEb@Base 5.0.2
 _ZN6QMovieC1EP7QObject@Base 5.0.2
 _ZN6QMovieC1EP9QIODeviceRK10QByteArrayP7QObject@Base 5.0.2
 _ZN6QMovieC1ERK7QStringRK10QByteArrayP7QObject@Base 5.0.2
 _ZN6QMovieC2EP7QObject@Base 5.0.2
 _ZN6QMovieC2EP9QIODeviceRK10QByteArrayP7QObject@Base 5.0.2
 _ZN6QMovieC2ERK7QStringRK10QByteArrayP7QObject@Base 5.0.2
 _ZN6QMovieD0Ev@Base 5.0.2
 _ZN6QMovieD1Ev@Base 5.0.2
 _ZN6QMovieD2Ev@Base 5.0.2
 _ZN7QBezier10fromPointsERK7QPointFS2_S2_S2_@Base 5.0.2 1
 _ZN7QBitmap8fromDataERK5QSizePKhN6QImage6FormatE@Base 5.0.2
 _ZN7QBitmap9fromImageERK6QImage6QFlagsIN2Qt19ImageConversionFlagEE@Base 5.0.2
 _ZN7QBitmapC1ERK5QSize@Base 5.0.2
 _ZN7QBitmapC1ERK7QPixmap@Base 5.0.2
 _ZN7QBitmapC1ERK7QStringPKc@Base 5.0.2
 _ZN7QBitmapC1Eii@Base 5.0.2
 _ZN7QBitmapC1Ev@Base 5.0.2
 _ZN7QBitmapC2ERK5QSize@Base 5.0.2
 _ZN7QBitmapC2ERK7QPixmap@Base 5.0.2
 _ZN7QBitmapC2ERK7QStringPKc@Base 5.0.2
 _ZN7QBitmapC2Eii@Base 5.0.2
 _ZN7QBitmapC2Ev@Base 5.0.2
 _ZN7QBitmapD0Ev@Base 5.0.2
 _ZN7QBitmapD1Ev@Base 5.0.2
 _ZN7QBitmapD2Ev@Base 5.0.2
 _ZN7QBitmapaSERK7QPixmap@Base 5.0.2
 _ZN7QCursor3posEPK7QScreen@Base 5.0.2
 _ZN7QCursor3posEv@Base 5.0.2
 _ZN7QCursor6setPosEP7QScreenii@Base 5.0.2
 _ZN7QCursor6setPosEii@Base 5.0.2
 _ZN7QCursor8setShapeEN2Qt11CursorShapeE@Base 5.0.2
 _ZN7QCursorC1EN2Qt11CursorShapeE@Base 5.0.2
 _ZN7QCursorC1ERK7QBitmapS2_ii@Base 5.0.2
 _ZN7QCursorC1ERK7QPixmapii@Base 5.0.2
 _ZN7QCursorC1ERKS_@Base 5.0.2
 _ZN7QCursorC1Ev@Base 5.0.2
 _ZN7QCursorC2EN2Qt11CursorShapeE@Base 5.0.2
 _ZN7QCursorC2ERK7QBitmapS2_ii@Base 5.0.2
 _ZN7QCursorC2ERK7QPixmapii@Base 5.0.2
 _ZN7QCursorC2ERKS_@Base 5.0.2
 _ZN7QCursorC2Ev@Base 5.0.2
 _ZN7QCursorD1Ev@Base 5.0.2
 _ZN7QCursorD2Ev@Base 5.0.2
 _ZN7QCursoraSERKS_@Base 5.0.2
 _ZN7QMatrix5resetEv@Base 5.0.2
 _ZN7QMatrix5scaleEdd@Base 5.2.0
 _ZN7QMatrix5shearEdd@Base 5.2.0
 _ZN7QMatrix6rotateEd@Base 5.2.0
 _ZN7QMatrix9setMatrixEdddddd@Base 5.2.0
 _ZN7QMatrix9translateEdd@Base 5.2.0
 _ZN7QMatrixC1ERKS_@Base 5.0.2
 _ZN7QMatrixC1Edddddd@Base 5.2.0
 _ZN7QMatrixC1Ev@Base 5.0.2
 _ZN7QMatrixC2ERKS_@Base 5.0.2
 _ZN7QMatrixC2Edddddd@Base 5.2.0
 _ZN7QMatrixC2Ev@Base 5.0.2
 _ZN7QMatrixaSERKS_@Base 5.0.2
 _ZN7QMatrixmLERKS_@Base 5.0.2
 _ZN7QPixmap10grabWidgetEP7QObjectRK5QRect@Base 5.0.2
 (subst)_ZN7QPixmap10grabWindowE{quintptr}iiii@Base 5.0.2
 _ZN7QPixmap10trueMatrixERK10QTransformii@Base 5.0.2
 _ZN7QPixmap10trueMatrixERK7QMatrixii@Base 5.0.2
 _ZN7QPixmap12defaultDepthEv@Base 5.0.2
 _ZN7QPixmap12loadFromDataEPKhjPKc6QFlagsIN2Qt19ImageConversionFlagEE@Base 5.0.2
 _ZN7QPixmap15fromImageReaderEP12QImageReader6QFlagsIN2Qt19ImageConversionFlagEE@Base 5.0.2
 _ZN7QPixmap16convertFromImageERK6QImage6QFlagsIN2Qt19ImageConversionFlagEE@Base 5.0.2
 _ZN7QPixmap16fromImageInPlaceER6QImage6QFlagsIN2Qt19ImageConversionFlagEE@Base 5.3.0
 _ZN7QPixmap19setDevicePixelRatioEd@Base 5.2.0
 _ZN7QPixmap4fillEPK12QPaintDeviceRK6QPoint@Base 5.0.2
 _ZN7QPixmap4fillERK6QColor@Base 5.0.2
 _ZN7QPixmap4loadERK7QStringPKc6QFlagsIN2Qt19ImageConversionFlagEE@Base 5.0.2
 _ZN7QPixmap6detachEv@Base 5.0.2
 _ZN7QPixmap6doInitEiii@Base 5.0.2
 _ZN7QPixmap6scrollEiiRK5QRectP7QRegion@Base 5.0.2
 _ZN7QPixmap7setMaskERK7QBitmap@Base 5.0.2
 _ZN7QPixmap9fromImageERK6QImage6QFlagsIN2Qt19ImageConversionFlagEE@Base 5.0.2
 _ZN7QPixmapC1EP15QPlatformPixmap@Base 5.0.2 1
 _ZN7QPixmapC1EPKPKc@Base 5.0.2
 _ZN7QPixmapC1ERK5QSize@Base 5.0.2
 _ZN7QPixmapC1ERK5QSizei@Base 5.0.2
 _ZN7QPixmapC1ERK7QStringPKc6QFlagsIN2Qt19ImageConversionFlagEE@Base 5.0.2
 _ZN7QPixmapC1ERKS_@Base 5.0.2
 _ZN7QPixmapC1Eii@Base 5.0.2
 _ZN7QPixmapC1Ev@Base 5.0.2
 _ZN7QPixmapC2EP15QPlatformPixmap@Base 5.0.2 1
 _ZN7QPixmapC2EPKPKc@Base 5.0.2
 _ZN7QPixmapC2ERK5QSize@Base 5.0.2
 _ZN7QPixmapC2ERK5QSizei@Base 5.0.2
 _ZN7QPixmapC2ERK7QStringPKc6QFlagsIN2Qt19ImageConversionFlagEE@Base 5.0.2
 _ZN7QPixmapC2ERKS_@Base 5.0.2
 _ZN7QPixmapC2Eii@Base 5.0.2
 _ZN7QPixmapC2Ev@Base 5.0.2
 _ZN7QPixmapD0Ev@Base 5.0.2
 _ZN7QPixmapD1Ev@Base 5.0.2
 _ZN7QPixmapD2Ev@Base 5.0.2
 _ZN7QPixmapaSERKS_@Base 5.0.2
 _ZN7QRegion12shared_emptyE@Base 5.0.2
 _ZN7QRegion4execERK10QByteArrayiN11QDataStream9ByteOrderE@Base 5.0.2
 _ZN7QRegion6detachEv@Base 5.0.2
 _ZN7QRegion7cleanUpEPNS_11QRegionDataE@Base 5.0.2
 _ZN7QRegion8setRectsEPK5QRecti@Base 5.0.2
 _ZN7QRegion9translateEii@Base 5.0.2
 _ZN7QRegionC1ERK5QRectNS_10RegionTypeE@Base 5.0.2
 _ZN7QRegionC1ERK7QBitmap@Base 5.0.2
 _ZN7QRegionC1ERK8QPolygonN2Qt8FillRuleE@Base 5.0.2
 _ZN7QRegionC1ERKS_@Base 5.0.2
 _ZN7QRegionC1EiiiiNS_10RegionTypeE@Base 5.0.2
 _ZN7QRegionC1Ev@Base 5.0.2
 _ZN7QRegionC2ERK5QRectNS_10RegionTypeE@Base 5.0.2
 _ZN7QRegionC2ERK7QBitmap@Base 5.0.2
 _ZN7QRegionC2ERK8QPolygonN2Qt8FillRuleE@Base 5.0.2
 _ZN7QRegionC2ERKS_@Base 5.0.2
 _ZN7QRegionC2EiiiiNS_10RegionTypeE@Base 5.0.2
 _ZN7QRegionC2Ev@Base 5.0.2
 _ZN7QRegionD1Ev@Base 5.0.2
 _ZN7QRegionD2Ev@Base 5.0.2
 _ZN7QRegionaNERK5QRect@Base 5.0.2
 _ZN7QRegionaNERKS_@Base 5.0.2
 _ZN7QRegionaSERKS_@Base 5.0.2
 _ZN7QRegioneOERKS_@Base 5.0.2
 _ZN7QRegionmIERKS_@Base 5.0.2
 _ZN7QRegionoRERKS_@Base 5.0.2
 _ZN7QRegionpLERK5QRect@Base 5.0.2
 _ZN7QRegionpLERKS_@Base 5.0.2
 (subst)_ZN7QScreen10grabWindowE{quintptr}iiii@Base 5.0.2
 _ZN7QScreen11qt_metacallEN11QMetaObject4CallEiPPv@Base 5.0.2
 _ZN7QScreen11qt_metacastEPKc@Base 5.0.2
 _ZN7QScreen15geometryChangedERK5QRect@Base 5.0.2
 _ZN7QScreen16staticMetaObjectE@Base 5.0.2
 _ZN7QScreen18orientationChangedEN2Qt17ScreenOrientationE@Base 5.0.2
 _ZN7QScreen18refreshRateChangedEd@Base 5.2.0
 _ZN7QScreen19physicalSizeChangedERK6QSizeF@Base 5.0.2
 _ZN7QScreen22virtualGeometryChangedERK5QRect@Base 5.0.2
 _ZN7QScreen24setOrientationUpdateMaskE6QFlagsIN2Qt17ScreenOrientationEE@Base 5.0.2
 _ZN7QScreen25logicalDotsPerInchChangedEd@Base 5.2.0
 _ZN7QScreen25primaryOrientationChangedEN2Qt17ScreenOrientationE@Base 5.0.2
 _ZN7QScreen26physicalDotsPerInchChangedEd@Base 5.2.0
 _ZN7QScreenC1EP15QPlatformScreen@Base 5.0.2 1
 _ZN7QScreenC2EP15QPlatformScreen@Base 5.0.2 1
 _ZN7QScreenD0Ev@Base 5.0.2
 _ZN7QScreenD1Ev@Base 5.0.2
 _ZN7QScreenD2Ev@Base 5.0.2
 _ZN7QWindow10setOpacityEd@Base 5.2.0
 _ZN7QWindow10setVisibleEb@Base 5.0.2
 _ZN7QWindow10showNormalEv@Base 5.0.2
 _ZN7QWindow10touchEventEP11QTouchEvent@Base 5.0.2
 _ZN7QWindow10wheelEventEP11QWheelEvent@Base 5.0.2
 _ZN7QWindow11exposeEventEP12QExposeEvent@Base 5.0.2
 _ZN7QWindow11nativeEventERK10QByteArrayPvPl@Base 5.0.2
 _ZN7QWindow11qt_metacallEN11QMetaObject4CallEiPPv@Base 5.0.2
 _ZN7QWindow11qt_metacastEPKc@Base 5.0.2
 _ZN7QWindow11resizeEventEP12QResizeEvent@Base 5.0.2
 _ZN7QWindow11setBaseSizeERK5QSize@Base 5.0.2
 _ZN7QWindow11setFilePathERK7QString@Base 5.0.2
 _ZN7QWindow11setGeometryERK5QRect@Base 5.0.2
 _ZN7QWindow11setGeometryEiiii@Base 5.0.2
 _ZN7QWindow11setModalityEN2Qt14WindowModalityE@Base 5.0.2
 _ZN7QWindow11setPositionERK6QPoint@Base 5.0.2
 _ZN7QWindow11setPositionEii@Base 5.0.2
 _ZN7QWindow11tabletEventEP12QTabletEvent@Base 5.0.2
 _ZN7QWindow11unsetCursorEv@Base 5.0.2
 _ZN7QWindow12focusInEventEP11QFocusEvent@Base 5.0.2
 _ZN7QWindow12widthChangedEi@Base 5.0.2
 _ZN7QWindow13activeChangedEv@Base 5.1.0
 _ZN7QWindow13focusOutEventEP11QFocusEvent@Base 5.0.2
 _ZN7QWindow13heightChangedEi@Base 5.0.2
 _ZN7QWindow13keyPressEventEP9QKeyEvent@Base 5.0.2
 _ZN7QWindow13screenChangedEP7QScreen@Base 5.0.2
 _ZN7QWindow13setVisibilityENS_10VisibilityE@Base 5.1.0
 _ZN7QWindow13showMaximizedEv@Base 5.0.2
 _ZN7QWindow13showMinimizedEv@Base 5.0.2
 _ZN7QWindow14mouseMoveEventEP11QMouseEvent@Base 5.0.2
 _ZN7QWindow14opacityChangedEd@Base 5.2.0
 _ZN7QWindow14setMaximumSizeERK5QSize@Base 5.2.0
 _ZN7QWindow14setMinimumSizeERK5QSize@Base 5.2.0
 _ZN7QWindow14setSurfaceTypeEN8QSurface11SurfaceTypeE@Base 5.2.0
 _ZN7QWindow14setWindowStateEN2Qt11WindowStateE@Base 5.2.0
 _ZN7QWindow14showFullScreenEv@Base 5.2.0
 _ZN7QWindow14visibleChangedEb@Base 5.2.0
 _ZN7QWindow15keyReleaseEventEP9QKeyEvent@Base 5.2.0
 _ZN7QWindow15modalityChangedEN2Qt14WindowModalityE@Base 5.2.0
 _ZN7QWindow15mousePressEventEP11QMouseEvent@Base 5.2.0
 _ZN7QWindow15requestActivateEv@Base 5.2.0
 _ZN7QWindow15screenDestroyedEP7QObject@Base 5.2.0
 _ZN7QWindow15setMaximumWidthEi@Base 5.2.0
 _ZN7QWindow15setMinimumWidthEi@Base 5.2.0
 _ZN7QWindow16setFramePositionERK6QPoint@Base 5.2.0
 _ZN7QWindow16setMaximumHeightEi@Base 5.2.0
 _ZN7QWindow16setMinimumHeightEi@Base 5.2.0
 _ZN7QWindow16setSizeIncrementERK5QSize@Base 5.2.0
 _ZN7QWindow16staticMetaObjectE@Base 5.2.0
 _ZN7QWindow17mouseReleaseEventEP11QMouseEvent@Base 5.2.0
 _ZN7QWindow17visibilityChangedENS_10VisibilityE@Base 5.2.0
 _ZN7QWindow18focusObjectChangedEP7QObject@Base 5.2.0
 _ZN7QWindow18setTransientParentEPS_@Base 5.2.0
 _ZN7QWindow18windowStateChangedEN2Qt11WindowStateE@Base 5.2.0
 _ZN7QWindow18windowTitleChangedERK7QString@Base 5.3.0
 _ZN7QWindow19maximumWidthChangedEi@Base 5.2.0
 _ZN7QWindow19minimumWidthChangedEi@Base 5.2.0
 _ZN7QWindow19setMouseGrabEnabledEb@Base 5.2.0
 _ZN7QWindow20maximumHeightChangedEi@Base 5.2.0
 _ZN7QWindow20minimumHeightChangedEi@Base 5.2.0
 _ZN7QWindow21mouseDoubleClickEventEP11QMouseEvent@Base 5.2.0
 _ZN7QWindow22setKeyboardGrabEnabledEb@Base 5.2.0
 _ZN7QWindow25contentOrientationChangedEN2Qt17ScreenOrientationE@Base 5.2.0
 _ZN7QWindow30reportContentOrientationChangeEN2Qt17ScreenOrientationE@Base 5.2.0
 _ZN7QWindow4hideEv@Base 5.2.0
 _ZN7QWindow4setXEi@Base 5.2.0
 _ZN7QWindow4setYEi@Base 5.2.0
 _ZN7QWindow4showEv@Base 5.2.0
 _ZN7QWindow5alertEi@Base 5.2.0
 _ZN7QWindow5closeEv@Base 5.2.0
 _ZN7QWindow5eventEP6QEvent@Base 5.2.0
 _ZN7QWindow5lowerEv@Base 5.2.0
 _ZN7QWindow5raiseEv@Base 5.2.0
 _ZN7QWindow6createEv@Base 5.2.0
 _ZN7QWindow6resizeERK5QSize@Base 5.2.0
 _ZN7QWindow6resizeEii@Base 5.2.0
 _ZN7QWindow7destroyEv@Base 5.2.0
 _ZN7QWindow7setIconERK5QIcon@Base 5.2.0
 _ZN7QWindow7setMaskERK7QRegion@Base 5.2.0
 _ZN7QWindow8setFlagsE6QFlagsIN2Qt10WindowTypeEE@Base 5.2.0
 _ZN7QWindow8setTitleERK7QString@Base 5.2.0
 _ZN7QWindow8setWidthEi@Base 5.2.0
 _ZN7QWindow8xChangedEi@Base 5.2.0
 _ZN7QWindow8yChangedEi@Base 5.2.0
 (subst)_ZN7QWindow9fromWinIdE{quintptr}@Base 5.2.0
 _ZN7QWindow9hideEventEP10QHideEvent@Base 5.2.0
 _ZN7QWindow9moveEventEP10QMoveEvent@Base 5.2.0
 _ZN7QWindow9setCursorERK7QCursor@Base 5.2.0
 _ZN7QWindow9setFormatERK14QSurfaceFormat@Base 5.2.0
 _ZN7QWindow9setHeightEi@Base 5.2.0
 _ZN7QWindow9setParentEPS_@Base 5.2.0
 _ZN7QWindow9setScreenEP7QScreen@Base 5.2.0
 _ZN7QWindow9showEventEP10QShowEvent@Base 5.2.0
 _ZN7QWindowC1EP7QScreen@Base 5.2.0
 _ZN7QWindowC1EPS_@Base 5.2.0
 _ZN7QWindowC1ER14QWindowPrivatePS_@Base 5.2.0 1
 _ZN7QWindowC2EP7QScreen@Base 5.2.0
 _ZN7QWindowC2EPS_@Base 5.2.0
 _ZN7QWindowC2ER14QWindowPrivatePS_@Base 5.2.0 1
 _ZN7QWindowD0Ev@Base 5.2.0
 _ZN7QWindowD1Ev@Base 5.2.0
 _ZN7QWindowD2Ev@Base 5.2.0
 _ZN8QPainter10drawPixmapERK6QRectFRK7QPixmapS2_@Base 5.2.0
 _ZN8QPainter10drawPixmapERK7QPointFRK7QPixmap@Base 5.2.0
 _ZN8QPainter10drawPointsEPK6QPointi@Base 5.2.0
 _ZN8QPainter10drawPointsEPK7QPointFi@Base 5.2.0
 _ZN8QPainter10redirectedEPK12QPaintDeviceP6QPoint@Base 5.2.0
 _ZN8QPainter10setOpacityEd@Base 5.2.0
 _ZN8QPainter10strokePathERK12QPainterPathRK4QPen@Base 5.0.2
 _ZN8QPainter11drawEllipseERK5QRect@Base 5.0.2
 _ZN8QPainter11drawEllipseERK6QRectF@Base 5.0.2
 _ZN8QPainter11drawPictureERK7QPointFRK8QPicture@Base 5.0.2
 _ZN8QPainter11drawPolygonEPK6QPointiN2Qt8FillRuleE@Base 5.0.2
 _ZN8QPainter11drawPolygonEPK7QPointFiN2Qt8FillRuleE@Base 5.0.2
 _ZN8QPainter11resetMatrixEv@Base 5.0.2
 _ZN8QPainter11setClipPathERK12QPainterPathN2Qt13ClipOperationE@Base 5.0.2
 _ZN8QPainter11setClipRectERK5QRectN2Qt13ClipOperationE@Base 5.0.2
 _ZN8QPainter11setClipRectERK6QRectFN2Qt13ClipOperationE@Base 5.0.2
 _ZN8QPainter11setClippingEb@Base 5.0.2
 _ZN8QPainter11setViewportERK5QRect@Base 5.0.2
 _ZN8QPainter12boundingRectERK5QRectiRK7QString@Base 5.0.2
 _ZN8QPainter12boundingRectERK6QRectFRK7QStringRK11QTextOption@Base 5.0.2
 _ZN8QPainter12boundingRectERK6QRectFiRK7QString@Base 5.0.2
 _ZN8QPainter12drawGlyphRunERK7QPointFRK9QGlyphRun@Base 5.0.2
 _ZN8QPainter12drawPolylineEPK6QPointi@Base 5.0.2
 _ZN8QPainter12drawPolylineEPK7QPointFi@Base 5.0.2
 _ZN8QPainter12drawTextItemERK7QPointFRK9QTextItem@Base 5.0.2
 _ZN8QPainter12setTransformERK10QTransformb@Base 5.0.2
 _ZN8QPainter13drawRoundRectERK6QRectFii@Base 5.0.2
 _ZN8QPainter13setBackgroundERK6QBrush@Base 5.0.2
 _ZN8QPainter13setClipRegionERK7QRegionN2Qt13ClipOperationE@Base 5.0.2
 _ZN8QPainter13setRedirectedEPK12QPaintDevicePS0_RK6QPoint@Base 5.0.2
 _ZN8QPainter13setRenderHintENS_10RenderHintEb@Base 5.0.2
 _ZN8QPainter14PixmapFragment6createERK7QPointFRK6QRectFdddd@Base 5.2.0
 _ZN8QPainter14drawStaticTextERK7QPointFRK11QStaticText@Base 5.0.2
 _ZN8QPainter14resetTransformEv@Base 5.0.2
 _ZN8QPainter14setBrushOriginERK7QPointF@Base 5.0.2
 _ZN8QPainter14setRenderHintsE6QFlagsINS_10RenderHintEEb@Base 5.0.2
 _ZN8QPainter14setWorldMatrixERK7QMatrixb@Base 5.0.2
 _ZN8QPainter15drawRoundedRectERK6QRectFddN2Qt8SizeModeE@Base 5.2.0
 _ZN8QPainter15drawTiledPixmapERK6QRectFRK7QPixmapRK7QPointF@Base 5.0.2
 _ZN8QPainter16setMatrixEnabledEb@Base 5.0.2
 _ZN8QPainter16staticMetaObjectE@Base 5.0.2
 _ZN8QPainter17drawConvexPolygonEPK6QPointi@Base 5.0.2
 _ZN8QPainter17drawConvexPolygonEPK7QPointFi@Base 5.0.2
 _ZN8QPainter17endNativePaintingEv@Base 5.0.2
 _ZN8QPainter17restoreRedirectedEPK12QPaintDevice@Base 5.0.2
 _ZN8QPainter17setBackgroundModeEN2Qt6BGModeE@Base 5.0.2
 _ZN8QPainter17setWorldTransformERK10QTransformb@Base 5.0.2
 _ZN8QPainter18setCompositionModeENS_15CompositionModeE@Base 5.0.2
 _ZN8QPainter18setLayoutDirectionEN2Qt15LayoutDirectionE@Base 5.0.2
 _ZN8QPainter19beginNativePaintingEv@Base 5.0.2
 _ZN8QPainter19drawPixmapFragmentsEPKNS_14PixmapFragmentEiRK7QPixmap6QFlagsINS_18PixmapFragmentHintEE@Base 5.0.2
 _ZN8QPainter21setWorldMatrixEnabledEb@Base 5.0.2
 _ZN8QPainter23setViewTransformEnabledEb@Base 5.0.2
 _ZN8QPainter3endEv@Base 5.0.2
 _ZN8QPainter4saveEv@Base 5.0.2
 _ZN8QPainter5beginEP12QPaintDevice@Base 5.0.2
 _ZN8QPainter5scaleEdd@Base 5.2.0
 _ZN8QPainter5shearEdd@Base 5.2.0
 _ZN8QPainter6rotateEd@Base 5.2.0
 _ZN8QPainter6setPenEN2Qt8PenStyleE@Base 5.0.2
 _ZN8QPainter6setPenERK4QPen@Base 5.0.2
 _ZN8QPainter6setPenERK6QColor@Base 5.0.2
 _ZN8QPainter7drawArcERK6QRectFii@Base 5.0.2
 _ZN8QPainter7drawPieERK6QRectFii@Base 5.0.2
 _ZN8QPainter7restoreEv@Base 5.0.2
 _ZN8QPainter7setFontERK5QFont@Base 5.0.2
 _ZN8QPainter8drawPathERK12QPainterPath@Base 5.0.2
 _ZN8QPainter8drawTextERK5QRectiRK7QStringPS0_@Base 5.0.2
 _ZN8QPainter8drawTextERK6QRectFRK7QStringRK11QTextOption@Base 5.0.2
 _ZN8QPainter8drawTextERK6QRectFiRK7QStringPS0_@Base 5.0.2
 _ZN8QPainter8drawTextERK7QPointFRK7QString@Base 5.0.2
 _ZN8QPainter8drawTextERK7QPointFRK7QStringii@Base 5.0.2
 _ZN8QPainter8fillPathERK12QPainterPathRK6QBrush@Base 5.0.2
 _ZN8QPainter8fillRectERK5QRectRK6QBrush@Base 5.0.2
 _ZN8QPainter8fillRectERK5QRectRK6QColor@Base 5.0.2
 _ZN8QPainter8fillRectERK6QRectFRK6QBrush@Base 5.0.2
 _ZN8QPainter8fillRectERK6QRectFRK6QColor@Base 5.0.2
 _ZN8QPainter8initFromEPK12QPaintDevice@Base 5.0.2
 _ZN8QPainter8setBrushEN2Qt10BrushStyleE@Base 5.0.2
 _ZN8QPainter8setBrushERK6QBrush@Base 5.0.2
 _ZN8QPainter9drawChordERK6QRectFii@Base 5.0.2
 _ZN8QPainter9drawImageERK6QRectFRK6QImageS2_6QFlagsIN2Qt19ImageConversionFlagEE@Base 5.0.2
 _ZN8QPainter9drawImageERK7QPointFRK6QImage@Base 5.0.2
 _ZN8QPainter9drawLinesEPK5QLinei@Base 5.0.2
 _ZN8QPainter9drawLinesEPK6QLineFi@Base 5.0.2
 _ZN8QPainter9drawLinesEPK6QPointi@Base 5.0.2
 _ZN8QPainter9drawLinesEPK7QPointFi@Base 5.0.2
 _ZN8QPainter9drawRectsEPK5QRecti@Base 5.0.2
 _ZN8QPainter9drawRectsEPK6QRectFi@Base 5.0.2
 _ZN8QPainter9eraseRectERK6QRectF@Base 5.0.2
 _ZN8QPainter9setMatrixERK7QMatrixb@Base 5.0.2
 _ZN8QPainter9setWindowERK5QRect@Base 5.0.2
 _ZN8QPainter9translateERK7QPointF@Base 5.0.2
 _ZN8QPainterC1EP12QPaintDevice@Base 5.0.2
 _ZN8QPainterC1Ev@Base 5.0.2
 _ZN8QPainterC2EP12QPaintDevice@Base 5.0.2
 _ZN8QPainterC2Ev@Base 5.0.2
 _ZN8QPainterD1Ev@Base 5.0.2
 _ZN8QPainterD2Ev@Base 5.0.2
 _ZN8QPalette13setColorGroupENS_10ColorGroupERK6QBrushS3_S3_S3_S3_S3_S3_S3_S3_@Base 5.0.2
 _ZN8QPalette13setColorGroupENS_10ColorGroupERK6QBrushS3_S3_S3_S3_S3_S3_S3_S3_S3_S3_S3_S3_S3_S3_S3_S3_@Base 5.0.2
 _ZN8QPalette13setColorGroupENS_10ColorGroupERK6QBrushS3_S3_S3_S3_S3_S3_S3_S3_S3_S3_S3_S3_S3_S3_S3_S3_S3_S3_@Base 5.0.2
 _ZN8QPalette16staticMetaObjectE@Base 5.0.2
 _ZN8QPalette4initEv@Base 5.0.2
 _ZN8QPalette6detachEv@Base 5.0.2
 _ZN8QPalette8setBrushENS_10ColorGroupENS_9ColorRoleERK6QBrush@Base 5.0.2
 _ZN8QPaletteC1EN2Qt11GlobalColorE@Base 5.0.2
 _ZN8QPaletteC1ERK6QBrushS2_S2_S2_S2_S2_S2_S2_S2_@Base 5.0.2
 _ZN8QPaletteC1ERK6QColor@Base 5.0.2
 _ZN8QPaletteC1ERK6QColorS2_@Base 5.0.2
 _ZN8QPaletteC1ERK6QColorS2_S2_S2_S2_S2_S2_@Base 5.0.2
 _ZN8QPaletteC1ERKS_@Base 5.0.2
 _ZN8QPaletteC1Ev@Base 5.0.2
 _ZN8QPaletteC2EN2Qt11GlobalColorE@Base 5.0.2
 _ZN8QPaletteC2ERK6QBrushS2_S2_S2_S2_S2_S2_S2_S2_@Base 5.0.2
 _ZN8QPaletteC2ERK6QColor@Base 5.0.2
 _ZN8QPaletteC2ERK6QColorS2_@Base 5.0.2
 _ZN8QPaletteC2ERK6QColorS2_S2_S2_S2_S2_S2_@Base 5.0.2
 _ZN8QPaletteC2ERKS_@Base 5.0.2
 _ZN8QPaletteC2Ev@Base 5.0.2
 _ZN8QPaletteD1Ev@Base 5.0.2
 _ZN8QPaletteD2Ev@Base 5.0.2
 _ZN8QPaletteaSERKS_@Base 5.0.2
 _ZN8QPicture12inputFormatsEv@Base 5.0.2
 _ZN8QPicture13outputFormatsEv@Base 5.0.2
 _ZN8QPicture13pictureFormatERK7QString@Base 5.0.2
 _ZN8QPicture15inputFormatListEv@Base 5.0.2
 _ZN8QPicture15setBoundingRectERK5QRect@Base 5.0.2
 _ZN8QPicture16outputFormatListEv@Base 5.0.2
 _ZN8QPicture4execEP8QPainterR11QDataStreami@Base 5.0.2
 _ZN8QPicture4loadEP9QIODevicePKc@Base 5.0.2
 _ZN8QPicture4loadERK7QStringPKc@Base 5.0.2
 _ZN8QPicture4playEP8QPainter@Base 5.0.2
 _ZN8QPicture4saveEP9QIODevicePKc@Base 5.0.2
 _ZN8QPicture4saveERK7QStringPKc@Base 5.0.2
 _ZN8QPicture6detachEv@Base 5.0.2
 _ZN8QPicture7setDataEPKcj@Base 5.0.2
 _ZN8QPictureC1ER15QPicturePrivate@Base 5.0.2
 _ZN8QPictureC1ERKS_@Base 5.0.2
 _ZN8QPictureC1Ei@Base 5.0.2
 _ZN8QPictureC2ER15QPicturePrivate@Base 5.0.2
 _ZN8QPictureC2ERKS_@Base 5.0.2
 _ZN8QPictureC2Ei@Base 5.0.2
 _ZN8QPictureD0Ev@Base 5.0.2
 _ZN8QPictureD1Ev@Base 5.0.2
 _ZN8QPictureD2Ev@Base 5.0.2
 _ZN8QPictureaSERKS_@Base 5.0.2
 _ZN8QPolygon9putPointsEiiPKi@Base 5.0.2
 _ZN8QPolygon9putPointsEiiRKS_i@Base 5.0.2
 _ZN8QPolygon9putPointsEiiiiz@Base 5.0.2
 _ZN8QPolygon9setPointsEiPKi@Base 5.0.2
 _ZN8QPolygon9setPointsEiiiz@Base 5.0.2
 _ZN8QPolygon9translateEii@Base 5.0.2
 _ZN8QPolygonC1ERK5QRectb@Base 5.0.2
 _ZN8QPolygonC1EiPKi@Base 5.0.2
 _ZN8QPolygonC2ERK5QRectb@Base 5.0.2
 _ZN8QPolygonC2EiPKi@Base 5.0.2
 _ZN8QRawFont12loadFromDataERK10QByteArraydN5QFont17HintingPreferenceE@Base 5.2.0
 _ZN8QRawFont12loadFromFileERK7QStringdN5QFont17HintingPreferenceE@Base 5.2.0
 _ZN8QRawFont12setPixelSizeEd@Base 5.2.0
 _ZN8QRawFont8fromFontERK5QFontN13QFontDatabase13WritingSystemE@Base 5.0.2
 _ZN8QRawFontC1ERK10QByteArraydN5QFont17HintingPreferenceE@Base 5.2.0
 _ZN8QRawFontC1ERK7QStringdN5QFont17HintingPreferenceE@Base 5.2.0
 _ZN8QRawFontC1ERKS_@Base 5.0.2
 _ZN8QRawFontC1Ev@Base 5.0.2
 _ZN8QRawFontC2ERK10QByteArraydN5QFont17HintingPreferenceE@Base 5.2.0
 _ZN8QRawFontC2ERK7QStringdN5QFont17HintingPreferenceE@Base 5.2.0
 _ZN8QRawFontC2ERKS_@Base 5.0.2
 _ZN8QRawFontC2Ev@Base 5.0.2
 _ZN8QRawFontD1Ev@Base 5.0.2
 _ZN8QRawFontD2Ev@Base 5.0.2
 _ZN8QRawFontaSERKS_@Base 5.0.2
 _ZN8QStroker10joinPointsEddRK6QLineFNS_12LineJoinModeE@Base 5.2.0 1
 _ZN8QStroker14capForJoinModeENS_12LineJoinModeE@Base 5.0.2 1
 _ZN8QStroker14joinModeForCapEN2Qt11PenCapStyleE@Base 5.0.2 1
 _ZN8QStroker15joinForJoinModeENS_12LineJoinModeE@Base 5.0.2 1
 _ZN8QStroker15joinModeForJoinEN2Qt12PenJoinStyleE@Base 5.0.2 1
 _ZN8QStroker21processCurrentSubpathEv@Base 5.0.2 1
 _ZN8QStrokerC1Ev@Base 5.0.2 1
 _ZN8QStrokerC2Ev@Base 5.0.2 1
 _ZN8QStrokerD0Ev@Base 5.0.2 1
 _ZN8QStrokerD1Ev@Base 5.0.2 1
 _ZN8QStrokerD2Ev@Base 5.0.2 1
 _ZN8QSurfaceC1ENS_12SurfaceClassE@Base 5.0.2
 _ZN8QSurfaceC2ENS_12SurfaceClassE@Base 5.0.2
 _ZN8QSurfaceD0Ev@Base 5.0.2
 _ZN8QSurfaceD1Ev@Base 5.0.2
 _ZN8QSurfaceD2Ev@Base 5.0.2
 _ZN9QFontInfoC1ERK5QFont@Base 5.0.2
 _ZN9QFontInfoC1ERKS_@Base 5.0.2
 _ZN9QFontInfoC2ERK5QFont@Base 5.0.2
 _ZN9QFontInfoC2ERKS_@Base 5.0.2
 _ZN9QFontInfoD1Ev@Base 5.0.2
 _ZN9QFontInfoD2Ev@Base 5.0.2
 _ZN9QFontInfoaSERKS_@Base 5.0.2
 _ZN9QGlyphRun10setRawDataEPKjPK7QPointFi@Base 5.0.2
 _ZN9QGlyphRun10setRawFontERK8QRawFont@Base 5.0.2
 _ZN9QGlyphRun11setOverlineEb@Base 5.0.2
 _ZN9QGlyphRun12setPositionsERK7QVectorI7QPointFE@Base 5.0.2
 _ZN9QGlyphRun12setStrikeOutEb@Base 5.0.2
 _ZN9QGlyphRun12setUnderlineEb@Base 5.0.2
 _ZN9QGlyphRun14setRightToLeftEb@Base 5.0.2
 _ZN9QGlyphRun15setBoundingRectERK6QRectF@Base 5.0.2
 _ZN9QGlyphRun15setGlyphIndexesERK7QVectorIjE@Base 5.0.2
 _ZN9QGlyphRun5clearEv@Base 5.0.2
 _ZN9QGlyphRun6detachEv@Base 5.0.2
 _ZN9QGlyphRun7setFlagENS_12GlyphRunFlagEb@Base 5.0.2
 _ZN9QGlyphRun8setFlagsE6QFlagsINS_12GlyphRunFlagEE@Base 5.0.2
 _ZN9QGlyphRunC1ERKS_@Base 5.0.2
 _ZN9QGlyphRunC1Ev@Base 5.0.2
 _ZN9QGlyphRunC2ERKS_@Base 5.0.2
 _ZN9QGlyphRunC2Ev@Base 5.0.2
 _ZN9QGlyphRunD1Ev@Base 5.0.2
 _ZN9QGlyphRunD2Ev@Base 5.0.2
 _ZN9QGlyphRunaSERKS_@Base 5.0.2
 _ZN9QGradient10setColorAtEdRK6QColor@Base 5.2.0
 _ZN9QGradient16staticMetaObjectE@Base 5.0.2
 _ZN9QGradient17setCoordinateModeENS_14CoordinateModeE@Base 5.0.2
 _ZN9QGradient20setInterpolationModeENS_17InterpolationModeE@Base 5.0.2
 _ZN9QGradient8setStopsERK7QVectorI5QPairId6QColorEE@Base 5.2.0
 _ZN9QGradientC1Ev@Base 5.0.2
 _ZN9QGradientC2Ev@Base 5.0.2
 _ZN9QKeyEventC1EN6QEvent4TypeEi6QFlagsIN2Qt16KeyboardModifierEERK7QStringbt@Base 5.0.2
 _ZN9QKeyEventC1EN6QEvent4TypeEi6QFlagsIN2Qt16KeyboardModifierEEjjjRK7QStringbt@Base 5.0.2
 _ZN9QKeyEventC2EN6QEvent4TypeEi6QFlagsIN2Qt16KeyboardModifierEERK7QStringbt@Base 5.0.2
 _ZN9QKeyEventC2EN6QEvent4TypeEi6QFlagsIN2Qt16KeyboardModifierEEjjjRK7QStringbt@Base 5.0.2
 _ZN9QKeyEventD0Ev@Base 5.0.2
 _ZN9QKeyEventD1Ev@Base 5.0.2
 _ZN9QKeyEventD2Ev@Base 5.0.2
 _ZN9QPageSize10sizePixelsENS_10PageSizeIdEi@Base 5.3.0
 _ZN9QPageSize10sizePointsENS_10PageSizeIdE@Base 5.3.0
 _ZN9QPageSize14definitionSizeENS_10PageSizeIdE@Base 5.3.0
 _ZN9QPageSize15definitionUnitsENS_10PageSizeIdE@Base 5.3.0
 _ZN9QPageSize2idERK5QSizeNS_15SizeMatchPolicyE@Base 5.3.0
 _ZN9QPageSize2idERK6QSizeFNS_4UnitENS_15SizeMatchPolicyE@Base 5.3.0
 _ZN9QPageSize2idEi@Base 5.3.0
 _ZN9QPageSize3keyENS_10PageSizeIdE@Base 5.3.0
 _ZN9QPageSize4nameENS_10PageSizeIdE@Base 5.3.0
 _ZN9QPageSize4sizeENS_10PageSizeIdENS_4UnitE@Base 5.3.0
 _ZN9QPageSize9windowsIdENS_10PageSizeIdE@Base 5.3.0
 _ZN9QPageSizeC1ENS_10PageSizeIdE@Base 5.3.0
 _ZN9QPageSizeC1ER16QPageSizePrivate@Base 5.3.0
 _ZN9QPageSizeC1ERK5QSizeRK7QStringNS_15SizeMatchPolicyE@Base 5.3.0
 _ZN9QPageSizeC1ERK6QSizeFNS_4UnitERK7QStringNS_15SizeMatchPolicyE@Base 5.3.0
 _ZN9QPageSizeC1ERK7QStringRK5QSizeS2_@Base 5.3.0
 _ZN9QPageSizeC1ERKS_@Base 5.3.0
 _ZN9QPageSizeC1EiRK5QSizeRK7QString@Base 5.3.0
 _ZN9QPageSizeC1Ev@Base 5.3.0
 _ZN9QPageSizeC2ENS_10PageSizeIdE@Base 5.3.0
 _ZN9QPageSizeC2ER16QPageSizePrivate@Base 5.3.0
 _ZN9QPageSizeC2ERK5QSizeRK7QStringNS_15SizeMatchPolicyE@Base 5.3.0
 _ZN9QPageSizeC2ERK6QSizeFNS_4UnitERK7QStringNS_15SizeMatchPolicyE@Base 5.3.0
 _ZN9QPageSizeC2ERK7QStringRK5QSizeS2_@Base 5.3.0
 _ZN9QPageSizeC2ERKS_@Base 5.3.0
 _ZN9QPageSizeC2EiRK5QSizeRK7QString@Base 5.3.0
 _ZN9QPageSizeC2Ev@Base 5.3.0
 _ZN9QPageSizeD1Ev@Base 5.3.0
 _ZN9QPageSizeD2Ev@Base 5.3.0
 _ZN9QPageSizeaSERKS_@Base 5.3.0
 _ZN9QPolygonF9translateERK7QPointF@Base 5.0.2
 _ZN9QPolygonFC1ERK6QRectF@Base 5.0.2
 _ZN9QPolygonFC1ERK8QPolygon@Base 5.0.2
 _ZN9QPolygonFC2ERK6QRectF@Base 5.0.2
 _ZN9QPolygonFC2ERK8QPolygon@Base 5.0.2
 _ZN9QTextLine11setPositionERK7QPointF@Base 5.0.2
 _ZN9QTextLine12setLineWidthEd@Base 5.2.0
 _ZN9QTextLine13layout_helperEi@Base 5.0.2
 _ZN9QTextLine13setNumColumnsEi@Base 5.0.2
 _ZN9QTextLine13setNumColumnsEid@Base 5.2.0
 _ZN9QTextLine18setLeadingIncludedEb@Base 5.0.2
 _ZN9QTextList10removeItemEi@Base 5.0.2
 _ZN9QTextList11qt_metacallEN11QMetaObject4CallEiPPv@Base 5.0.2
 _ZN9QTextList11qt_metacastEPKc@Base 5.0.2
 _ZN9QTextList16staticMetaObjectE@Base 5.0.2
 _ZN9QTextList3addERK10QTextBlock@Base 5.0.2
 _ZN9QTextList6removeERK10QTextBlock@Base 5.0.2
 _ZN9QTextListC1EP13QTextDocument@Base 5.0.2
 _ZN9QTextListC2EP13QTextDocument@Base 5.0.2
 _ZN9QTextListD0Ev@Base 5.0.2
 _ZN9QTextListD1Ev@Base 5.0.2
 _ZN9QTextListD2Ev@Base 5.0.2
 _ZN9QVector2D10dotProductERKS_S1_@Base 5.0.2
 _ZN9QVector2D9normalizeEv@Base 5.0.2
 _ZN9QVector2DC1ERK9QVector3D@Base 5.0.2
 _ZN9QVector2DC1ERK9QVector4D@Base 5.0.2
 _ZN9QVector2DC2ERK9QVector3D@Base 5.0.2
 _ZN9QVector2DC2ERK9QVector4D@Base 5.0.2
 _ZN9QVector3D10dotProductERKS_S1_@Base 5.0.2
 _ZN9QVector3D12crossProductERKS_S1_@Base 5.0.2
 _ZN9QVector3D6normalERKS_S1_@Base 5.0.2
 _ZN9QVector3D6normalERKS_S1_S1_@Base 5.0.2
 _ZN9QVector3D9normalizeEv@Base 5.0.2
 _ZN9QVector3DC1ERK9QVector2D@Base 5.0.2
 _ZN9QVector3DC1ERK9QVector2Df@Base 5.0.2
 _ZN9QVector3DC1ERK9QVector4D@Base 5.0.2
 _ZN9QVector3DC2ERK9QVector2D@Base 5.0.2
 _ZN9QVector3DC2ERK9QVector2Df@Base 5.0.2
 _ZN9QVector3DC2ERK9QVector4D@Base 5.0.2
 _ZN9QVector4D10dotProductERKS_S1_@Base 5.0.2
 _ZN9QVector4D9normalizeEv@Base 5.0.2
 _ZN9QVector4DC1ERK9QVector2D@Base 5.0.2
 _ZN9QVector4DC1ERK9QVector2Dff@Base 5.0.2
 _ZN9QVector4DC1ERK9QVector3D@Base 5.0.2
 _ZN9QVector4DC1ERK9QVector3Df@Base 5.0.2
 _ZN9QVector4DC2ERK9QVector2D@Base 5.0.2
 _ZN9QVector4DC2ERK9QVector2Dff@Base 5.0.2
 _ZN9QVector4DC2ERK9QVector3D@Base 5.0.2
 _ZN9QVector4DC2ERK9QVector3Df@Base 5.0.2
 _ZNK10QBlittable12capabilitiesEv@Base 5.0.2 1
 _ZNK10QBlittable4sizeEv@Base 5.0.2 1
 _ZNK10QBlittable8isLockedEv@Base 5.0.2 1
 _ZNK10QClipboard10metaObjectEv@Base 5.0.2
 _ZNK10QClipboard12supportsModeENS_4ModeE@Base 5.0.2
 _ZNK10QClipboard13ownsClipboardEv@Base 5.0.2
 _ZNK10QClipboard13ownsSelectionEv@Base 5.0.2
 _ZNK10QClipboard14ownsFindBufferEv@Base 5.0.2
 _ZNK10QClipboard17supportsSelectionEv@Base 5.0.2
 _ZNK10QClipboard18supportsFindBufferEv@Base 5.0.2
 _ZNK10QClipboard4textENS_4ModeE@Base 5.0.2
 _ZNK10QClipboard4textER7QStringNS_4ModeE@Base 5.0.2
 _ZNK10QClipboard5imageENS_4ModeE@Base 5.0.2
 _ZNK10QClipboard6pixmapENS_4ModeE@Base 5.0.2
 _ZNK10QClipboard8mimeDataENS_4ModeE@Base 5.0.2
 _ZNK10QClipboard8ownsModeENS_4ModeE@Base 5.0.2
 _ZNK10QDropEvent6sourceEv@Base 5.0.2
 _ZNK10QImageData19checkForAlphaPixelsEv@Base 5.0.2
 _ZNK10QImageData9doImageIOEPK6QImageP12QImageWriteri@Base 5.0.2
 _ZNK10QKeyMapper10metaObjectEv@Base 5.0.2 1
 _ZNK10QMatrix4x410copyDataToEPf@Base 5.0.2
 _ZNK10QMatrix4x410transposedEv@Base 5.0.2
 _ZNK10QMatrix4x411determinantEv@Base 5.0.2
 _ZNK10QMatrix4x411toTransformEf@Base 5.0.2
 _ZNK10QMatrix4x411toTransformEv@Base 5.0.2
 _ZNK10QMatrix4x412normalMatrixEv@Base 5.0.2
 _ZNK10QMatrix4x418orthonormalInverseEv@Base 5.0.2
 _ZNK10QMatrix4x47mapRectERK5QRect@Base 5.0.2
 _ZNK10QMatrix4x47mapRectERK6QRectF@Base 5.0.2
 _ZNK10QMatrix4x48invertedEPb@Base 5.0.2
 _ZNK10QMatrix4x48toAffineEv@Base 5.0.2
 _ZNK10QMatrix4x4cv8QVariantEv@Base 5.0.2
 _ZNK10QPdfEngine10pageLayoutEv@Base 5.3.0 1
 _ZNK10QPdfEngine10resolutionEv@Base 5.3.0 1
 _ZNK10QPdfEngine4typeEv@Base 5.0.2 1
 _ZNK10QPdfEngine6metricEN12QPaintDevice17PaintDeviceMetricE@Base 5.0.2 1
 _ZNK10QPdfWriter10metaObjectEv@Base 5.0.2
 _ZNK10QPdfWriter10resolutionEv@Base 5.3.0
 _ZNK10QPdfWriter11paintEngineEv@Base 5.0.2
 _ZNK10QPdfWriter5titleEv@Base 5.0.2
 _ZNK10QPdfWriter6metricEN12QPaintDevice17PaintDeviceMetricE@Base 5.0.2
 _ZNK10QPdfWriter7creatorEv@Base 5.0.2
 _ZNK10QPictureIO10parametersEv@Base 5.0.2
 _ZNK10QPictureIO11descriptionEv@Base 5.0.2
 _ZNK10QPictureIO5gammaEv@Base 5.0.2
 _ZNK10QPictureIO6formatEv@Base 5.0.2
 _ZNK10QPictureIO6statusEv@Base 5.0.2
 _ZNK10QPictureIO7pictureEv@Base 5.0.2
 _ZNK10QPictureIO7qualityEv@Base 5.0.2
 _ZNK10QPictureIO8fileNameEv@Base 5.0.2
 _ZNK10QPictureIO8ioDeviceEv@Base 5.0.2
 _ZNK10QTextBlock10charFormatEv@Base 5.0.2
 _ZNK10QTextBlock11blockFormatEv@Base 5.0.2
 _ZNK10QTextBlock11blockNumberEv@Base 5.0.2
 _ZNK10QTextBlock11textFormatsEv@Base 5.3.0
 _ZNK10QTextBlock13textDirectionEv@Base 5.0.2
 _ZNK10QTextBlock15charFormatIndexEv@Base 5.0.2
 _ZNK10QTextBlock15firstLineNumberEv@Base 5.0.2
 _ZNK10QTextBlock16blockFormatIndexEv@Base 5.0.2
 _ZNK10QTextBlock3endEv@Base 5.0.2
 _ZNK10QTextBlock4nextEv@Base 5.0.2
 _ZNK10QTextBlock4textEv@Base 5.0.2
 _ZNK10QTextBlock5beginEv@Base 5.0.2
 _ZNK10QTextBlock6layoutEv@Base 5.0.2
 _ZNK10QTextBlock6lengthEv@Base 5.0.2
 _ZNK10QTextBlock7isValidEv@Base 5.0.2
 _ZNK10QTextBlock8containsEi@Base 5.0.2
 _ZNK10QTextBlock8documentEv@Base 5.0.2
 _ZNK10QTextBlock8iterator8fragmentEv@Base 5.0.2
 _ZNK10QTextBlock8positionEv@Base 5.0.2
 _ZNK10QTextBlock8previousEv@Base 5.0.2
 _ZNK10QTextBlock8revisionEv@Base 5.0.2
 _ZNK10QTextBlock8textListEv@Base 5.0.2
 _ZNK10QTextBlock8userDataEv@Base 5.0.2
 _ZNK10QTextBlock9isVisibleEv@Base 5.0.2
 _ZNK10QTextBlock9lineCountEv@Base 5.0.2
 _ZNK10QTextBlock9userStateEv@Base 5.0.2
 _ZNK10QTextFrame10layoutDataEv@Base 5.0.2
 _ZNK10QTextFrame10metaObjectEv@Base 5.0.2
 _ZNK10QTextFrame11childFramesEv@Base 5.0.2
 _ZNK10QTextFrame11parentFrameEv@Base 5.0.2
 _ZNK10QTextFrame12lastPositionEv@Base 5.0.2
 _ZNK10QTextFrame13firstPositionEv@Base 5.0.2
 _ZNK10QTextFrame18lastCursorPositionEv@Base 5.0.2
 _ZNK10QTextFrame19firstCursorPositionEv@Base 5.0.2
 _ZNK10QTextFrame3endEv@Base 5.0.2
 _ZNK10QTextFrame5beginEv@Base 5.0.2
 _ZNK10QTextFrame8iterator12currentBlockEv@Base 5.0.2
 _ZNK10QTextFrame8iterator12currentFrameEv@Base 5.0.2
 _ZNK10QTextTable10metaObjectEv@Base 5.0.2
 _ZNK10QTextTable4rowsEv@Base 5.0.2
 _ZNK10QTextTable6cellAtERK11QTextCursor@Base 5.0.2
 _ZNK10QTextTable6cellAtEi@Base 5.0.2
 _ZNK10QTextTable6cellAtEii@Base 5.0.2
 _ZNK10QTextTable6rowEndERK11QTextCursor@Base 5.0.2
 _ZNK10QTextTable7columnsEv@Base 5.0.2
 _ZNK10QTextTable8rowStartERK11QTextCursor@Base 5.0.2
 _ZNK10QTransform10transposedEv@Base 5.0.2
 _ZNK10QTransform12mapToPolygonERK5QRect@Base 5.0.2
 _ZNK10QTransform3mapERK12QPainterPath@Base 5.0.2
 _ZNK10QTransform3mapERK5QLine@Base 5.0.2
 _ZNK10QTransform3mapERK6QLineF@Base 5.0.2
 _ZNK10QTransform3mapERK6QPoint@Base 5.0.2
 _ZNK10QTransform3mapERK7QPointF@Base 5.0.2
 _ZNK10QTransform3mapERK7QRegion@Base 5.0.2
 _ZNK10QTransform3mapERK8QPolygon@Base 5.0.2
 _ZNK10QTransform3mapERK9QPolygonF@Base 5.0.2
 _ZNK10QTransform3mapEddPdS0_@Base 5.2.0
 _ZNK10QTransform3mapEiiPiS0_@Base 5.0.2
 _ZNK10QTransform4typeEv@Base 5.0.2
 _ZNK10QTransform7adjointEv@Base 5.0.2
 _ZNK10QTransform7mapRectERK5QRect@Base 5.0.2
 _ZNK10QTransform7mapRectERK6QRectF@Base 5.0.2
 _ZNK10QTransform8invertedEPb@Base 5.0.2
 _ZNK10QTransform8toAffineEv@Base 5.0.2
 _ZNK10QTransformcv8QVariantEv@Base 5.0.2
 _ZNK10QTransformeqERKS_@Base 5.0.2
 _ZNK10QTransformmlERKS_@Base 5.0.2
 _ZNK10QTransformneERKS_@Base 5.0.2
 _ZNK10QValidator10metaObjectEv@Base 5.0.2
 _ZNK10QValidator5fixupER7QString@Base 5.0.2
 _ZNK10QValidator6localeEv@Base 5.0.2
 _ZNK10QZipReader10extractAllERK7QString@Base 5.0.2 1
 _ZNK10QZipReader10isReadableEv@Base 5.0.2 1
 _ZNK10QZipReader11entryInfoAtEi@Base 5.0.2 1
 _ZNK10QZipReader12fileInfoListEv@Base 5.0.2 1
 _ZNK10QZipReader5countEv@Base 5.0.2 1
 _ZNK10QZipReader6deviceEv@Base 5.0.2 1
 _ZNK10QZipReader6existsEv@Base 5.0.2 1
 _ZNK10QZipReader6statusEv@Base 5.0.2 1
 _ZNK10QZipReader8FileInfo7isValidEv@Base 5.0.2 1
 _ZNK10QZipReader8fileDataERK7QString@Base 5.0.2 1
 _ZNK10QZipWriter10isWritableEv@Base 5.0.2 1
 _ZNK10QZipWriter17compressionPolicyEv@Base 5.0.2 1
 _ZNK10QZipWriter19creationPermissionsEv@Base 5.0.2 1
 _ZNK10QZipWriter6deviceEv@Base 5.0.2 1
 _ZNK10QZipWriter6existsEv@Base 5.0.2 1
 _ZNK10QZipWriter6statusEv@Base 5.0.2 1
 _ZNK11QFocusEvent6reasonEv@Base 5.0.2
 _ZNK11QFontEngine10glyphCacheEPKvNS_11GlyphFormatERK10QTransform@Base 5.3.0 1
 _ZNK11QFontEngine10glyphCountEv@Base 5.0.2 1
 _ZNK11QFontEngine10propertiesEv@Base 5.0.2 1
 _ZNK11QFontEngine12getSfntTableEj@Base 5.0.2 1
 _ZNK11QFontEngine12harfbuzzFaceEv@Base 5.0.2 1
 _ZNK11QFontEngine12harfbuzzFontEv@Base 5.0.2 1
 _ZNK11QFontEngine13lineThicknessEv@Base 5.0.2 1
 _ZNK11QFontEngine14supportsScriptEN5QChar6ScriptE@Base 5.1.0 1
 _ZNK11QFontEngine16averageCharWidthEv@Base 5.0.2 1
 _ZNK11QFontEngine16getSfntTableDataEjPhPj@Base 5.3.0 1
 _ZNK11QFontEngine17underlinePositionEv@Base 5.0.2 1
 _ZNK11QFontEngine20subPixelPositionForXE6QFixed@Base 5.0.2 1
 _ZNK11QFontEngine22supportsTransformationERK10QTransform@Base 5.1.0 1
 _ZNK11QFontEngine25hasUnreliableGlyphOutlineEv@Base 5.3.1 1
 _ZNK11QFontEngine7xHeightEv@Base 5.0.2 1
 _ZNK11QFontEngine9canRenderEPK5QChari@Base 5.3.0 1
 _ZNK11QFontEngine9doKerningEP12QGlyphLayout6QFlagsINS_10ShaperFlagEE@Base 5.0.2 1
 _ZNK11QIconEngine14availableSizesEN5QIcon4ModeENS0_5StateE@Base 5.0.2
 _ZNK11QIconEngine3keyEv@Base 5.0.2
 _ZNK11QIconEngine5writeER11QDataStream@Base 5.0.2
 _ZNK11QIconEngine8iconNameEv@Base 5.0.2
 _ZNK11QIconLoader14findIconHelperERK7QStringS2_R11QStringList@Base 5.0.2 1
 _ZNK11QIconLoader16themeSearchPathsEv@Base 5.0.2 1
 _ZNK11QIconLoader8loadIconERK7QString@Base 5.0.2 1
 _ZNK11QMouseEvent5flagsEv@Base 5.3.0
 _ZNK11QMouseEvent6sourceEv@Base 5.3.0
 _ZNK11QPageLayout11orientationEv@Base 5.3.0
 _ZNK11QPageLayout13marginsPixelsEi@Base 5.3.0
 _ZNK11QPageLayout13marginsPointsEv@Base 5.3.0
 _ZNK11QPageLayout14fullRectPixelsEi@Base 5.3.0
 _ZNK11QPageLayout14fullRectPointsEv@Base 5.3.0
 _ZNK11QPageLayout14isEquivalentToERKS_@Base 5.3.0
 _ZNK11QPageLayout14maximumMarginsEv@Base 5.3.0
 _ZNK11QPageLayout14minimumMarginsEv@Base 5.3.0
 _ZNK11QPageLayout15paintRectPixelsEi@Base 5.3.0
 _ZNK11QPageLayout15paintRectPointsEv@Base 5.3.0
 _ZNK11QPageLayout4modeEv@Base 5.3.0
 _ZNK11QPageLayout5unitsEv@Base 5.3.0
 _ZNK11QPageLayout7isValidEv@Base 5.3.0
 _ZNK11QPageLayout7marginsENS_4UnitE@Base 5.3.0
 _ZNK11QPageLayout7marginsEv@Base 5.3.0
 _ZNK11QPageLayout8fullRectENS_4UnitE@Base 5.3.0
 _ZNK11QPageLayout8fullRectEv@Base 5.3.0
 _ZNK11QPageLayout8pageSizeEv@Base 5.3.0
 _ZNK11QPageLayout9paintRectENS_4UnitE@Base 5.3.0
 _ZNK11QPageLayout9paintRectEv@Base 5.3.0
 _ZNK11QQuaternion10normalizedEv@Base 5.0.2
 _ZNK11QQuaternion13lengthSquaredEv@Base 5.0.2
 _ZNK11QQuaternion13rotatedVectorERK9QVector3D@Base 5.0.2
 _ZNK11QQuaternion6lengthEv@Base 5.0.2
 _ZNK11QQuaternioncv8QVariantEv@Base 5.0.2
 _ZNK11QStaticText10textFormatEv@Base 5.0.2
 _ZNK11QStaticText10textOptionEv@Base 5.0.2
 _ZNK11QStaticText15performanceHintEv@Base 5.0.2
 _ZNK11QStaticText4sizeEv@Base 5.0.2
 _ZNK11QStaticText4textEv@Base 5.0.2
 _ZNK11QStaticText9textWidthEv@Base 5.0.2
 _ZNK11QStaticTexteqERKS_@Base 5.0.2
 _ZNK11QStaticTextneERKS_@Base 5.0.2
 _ZNK11QStyleHints10metaObjectEv@Base 5.0.2
 _ZNK11QStyleHints13startDragTimeEv@Base 5.0.2
 _ZNK11QStyleHints15cursorFlashTimeEv@Base 5.0.2
 _ZNK11QStyleHints16showIsFullScreenEv@Base 5.0.2
 _ZNK11QStyleHints16useRtlExtensionsEv@Base 5.0.2
 _ZNK11QStyleHints17passwordMaskDelayEv@Base 5.0.2
 _ZNK11QStyleHints17startDragDistanceEv@Base 5.0.2
 _ZNK11QStyleHints17startDragVelocityEv@Base 5.0.2
 _ZNK11QStyleHints18fontSmoothingGammaEv@Base 5.0.2
 _ZNK11QStyleHints21keyboardInputIntervalEv@Base 5.0.2
 _ZNK11QStyleHints21passwordMaskCharacterEv@Base 5.1.0
 _ZNK11QStyleHints22keyboardAutoRepeatRateEv@Base 5.0.2
 _ZNK11QStyleHints22setFocusOnTouchReleaseEv@Base 5.2.0~alpha1
 _ZNK11QStyleHints24mouseDoubleClickIntervalEv@Base 5.0.2
 _ZNK11QStyleHints25mousePressAndHoldIntervalEv@Base 5.3.0
 _ZNK11QTextCursor10atBlockEndEv@Base 5.0.2
 _ZNK11QTextCursor10charFormatEv@Base 5.0.2
 _ZNK11QTextCursor11blockFormatEv@Base 5.0.2
 _ZNK11QTextCursor11blockNumberEv@Base 5.0.2
 _ZNK11QTextCursor11currentListEv@Base 5.0.2
 _ZNK11QTextCursor12atBlockStartEv@Base 5.0.2
 _ZNK11QTextCursor12columnNumberEv@Base 5.0.2
 _ZNK11QTextCursor12currentFrameEv@Base 5.0.2
 _ZNK11QTextCursor12currentTableEv@Base 5.0.2
 _ZNK11QTextCursor12hasSelectionEv@Base 5.0.2
 _ZNK11QTextCursor12selectedTextEv@Base 5.0.2
 _ZNK11QTextCursor12selectionEndEv@Base 5.0.2
 _ZNK11QTextCursor14selectionStartEv@Base 5.0.2
 _ZNK11QTextCursor15blockCharFormatEv@Base 5.0.2
 _ZNK11QTextCursor15positionInBlockEv@Base 5.0.2
 _ZNK11QTextCursor16visualNavigationEv@Base 5.0.2
 _ZNK11QTextCursor17verticalMovementXEv@Base 5.0.2
 _ZNK11QTextCursor18selectedTableCellsEPiS0_S0_S0_@Base 5.0.2
 _ZNK11QTextCursor19hasComplexSelectionEv@Base 5.0.2
 _ZNK11QTextCursor20keepPositionOnInsertEv@Base 5.0.2
 _ZNK11QTextCursor5atEndEv@Base 5.0.2
 _ZNK11QTextCursor5blockEv@Base 5.0.2
 _ZNK11QTextCursor6anchorEv@Base 5.0.2
 _ZNK11QTextCursor6isNullEv@Base 5.0.2
 _ZNK11QTextCursor7atStartEv@Base 5.0.2
 _ZNK11QTextCursor8documentEv@Base 5.0.2
 _ZNK11QTextCursor8isCopyOfERKS_@Base 5.0.2
 _ZNK11QTextCursor8positionEv@Base 5.0.2
 _ZNK11QTextCursor9selectionEv@Base 5.0.2
 _ZNK11QTextCursoreqERKS_@Base 5.0.2
 _ZNK11QTextCursorgeERKS_@Base 5.0.2
 _ZNK11QTextCursorgtERKS_@Base 5.0.2
 _ZNK11QTextCursorleERKS_@Base 5.0.2
 _ZNK11QTextCursorltERKS_@Base 5.0.2
 _ZNK11QTextCursorneERKS_@Base 5.0.2
 _ZNK11QTextEngine10attributesEv@Base 5.0.2 1
 _ZNK11QTextEngine10elidedTextEN2Qt13TextElideModeERK6QFixediii@Base 5.0.2 1
 _ZNK11QTextEngine10fontEngineERK11QScriptItemP6QFixedS4_S4_@Base 5.0.2 1
 _ZNK11QTextEngine11boundingBoxEii@Base 5.0.2 1
 _ZNK11QTextEngine11formatIndexEPK11QScriptItem@Base 5.0.2 1
 _ZNK11QTextEngine11setBoundaryEi@Base 5.0.2 1
 _ZNK11QTextEngine13isRightToLeftEv@Base 5.0.2 1
 _ZNK11QTextEngine15atWordSeparatorEi@Base 5.0.2 1
 _ZNK11QTextEngine16tightBoundingBoxEii@Base 5.0.2 1
 _ZNK11QTextEngine17calculateTabWidthEi6QFixed@Base 5.0.2 1
 _ZNK11QTextEngine19nextLogicalPositionEi@Base 5.0.2 1
 _ZNK11QTextEngine21addRequiredBoundariesEv@Base 5.0.2 1
 _ZNK11QTextEngine21shapeTextWithHarfbuzzERK11QScriptItemPKtiP11QFontEngineRK7QVectorIjEb@Base 5.2.0~alpha1 1
 _ZNK11QTextEngine23previousLogicalPositionEi@Base 5.0.2 1
 _ZNK11QTextEngine23shapeTextWithHarfbuzzNGERK11QScriptItemPKtiP11QFontEngineRK7QVectorIjEb@Base 5.2.0 1
 _ZNK11QTextEngine24resolveAdditionalFormatsEv@Base 5.0.2 1
 _ZNK11QTextEngine4fontERK11QScriptItem@Base 5.0.2 1
 _ZNK11QTextEngine5shapeEi@Base 5.0.2 1
 _ZNK11QTextEngine5widthEii@Base 5.0.2 1
 _ZNK11QTextEngine6formatEPK11QScriptItem@Base 5.0.2 1
 _ZNK11QTextEngine7atSpaceEi@Base 5.0.2 1
 _ZNK11QTextEngine7itemizeEv@Base 5.0.2 1
 _ZNK11QTextEngine8findItemEi@Base 5.0.2 1
 _ZNK11QTextEngine8validateEv@Base 5.0.2 1
 _ZNK11QTextEngine9shapeTextEi@Base 5.0.2 1
 _ZNK11QTextEngine9splitItemEii@Base 5.0.2 1
 _ZNK11QTextFormat10propertiesEv@Base 5.0.2
 _ZNK11QTextFormat11hasPropertyEi@Base 5.0.2
 _ZNK11QTextFormat11intPropertyEi@Base 5.0.2
 _ZNK11QTextFormat11objectIndexEv@Base 5.0.2
 _ZNK11QTextFormat11penPropertyEi@Base 5.0.2
 _ZNK11QTextFormat12boolPropertyEi@Base 5.0.2
 _ZNK11QTextFormat12toCharFormatEv@Base 5.0.2
 _ZNK11QTextFormat12toListFormatEv@Base 5.0.2
 _ZNK11QTextFormat13brushPropertyEi@Base 5.0.2
 _ZNK11QTextFormat13colorPropertyEi@Base 5.0.2
 _ZNK11QTextFormat13propertyCountEv@Base 5.0.2
 _ZNK11QTextFormat13toBlockFormatEv@Base 5.0.2
 _ZNK11QTextFormat13toFrameFormatEv@Base 5.0.2
 _ZNK11QTextFormat13toImageFormatEv@Base 5.0.2
 _ZNK11QTextFormat13toTableFormatEv@Base 5.0.2
 _ZNK11QTextFormat14doublePropertyEi@Base 5.0.2
 _ZNK11QTextFormat14lengthPropertyEi@Base 5.0.2
 _ZNK11QTextFormat14stringPropertyEi@Base 5.0.2
 _ZNK11QTextFormat17toTableCellFormatEv@Base 5.0.2
 _ZNK11QTextFormat20lengthVectorPropertyEi@Base 5.0.2
 _ZNK11QTextFormat4typeEv@Base 5.0.2
 _ZNK11QTextFormat8propertyEi@Base 5.0.2
 _ZNK11QTextFormatcv8QVariantEv@Base 5.0.2
 _ZNK11QTextFormateqERKS_@Base 5.0.2
 _ZNK11QTextLayout10drawCursorEP8QPainterRK7QPointFi@Base 5.0.2
 _ZNK11QTextLayout10drawCursorEP8QPainterRK7QPointFii@Base 5.0.2
 _ZNK11QTextLayout10textOptionEv@Base 5.0.2
 _ZNK11QTextLayout12boundingRectEv@Base 5.0.2
 _ZNK11QTextLayout12cacheEnabledEv@Base 5.0.2
 _ZNK11QTextLayout12maximumWidthEv@Base 5.0.2
 _ZNK11QTextLayout12minimumWidthEv@Base 5.0.2
 _ZNK11QTextLayout15cursorMoveStyleEv@Base 5.0.2
 _ZNK11QTextLayout15preeditAreaTextEv@Base 5.0.2
 _ZNK11QTextLayout17additionalFormatsEv@Base 5.0.2
 _ZNK11QTextLayout18leftCursorPositionEi@Base 5.0.2
 _ZNK11QTextLayout18nextCursorPositionEiNS_10CursorModeE@Base 5.0.2
 _ZNK11QTextLayout19lineForTextPositionEi@Base 5.0.2
 _ZNK11QTextLayout19preeditAreaPositionEv@Base 5.0.2
 _ZNK11QTextLayout19rightCursorPositionEi@Base 5.0.2
 _ZNK11QTextLayout21isValidCursorPositionEi@Base 5.0.2
 _ZNK11QTextLayout22previousCursorPositionEiNS_10CursorModeE@Base 5.0.2
 _ZNK11QTextLayout4drawEP8QPainterRK7QPointFRK7QVectorINS_11FormatRangeEERK6QRectF@Base 5.0.2
 _ZNK11QTextLayout4fontEv@Base 5.0.2
 _ZNK11QTextLayout4textEv@Base 5.0.2
 _ZNK11QTextLayout6lineAtEi@Base 5.0.2
 _ZNK11QTextLayout8positionEv@Base 5.0.2
 _ZNK11QTextLayout9glyphRunsEii@Base 5.0.2
 _ZNK11QTextLayout9lineCountEv@Base 5.0.2
 _ZNK11QTextLengthcv8QVariantEv@Base 5.0.2
 _ZNK11QTextObject10metaObjectEv@Base 5.0.2
 _ZNK11QTextObject11formatIndexEv@Base 5.0.2
 _ZNK11QTextObject11objectIndexEv@Base 5.0.2
 _ZNK11QTextObject6formatEv@Base 5.0.2
 _ZNK11QTextObject8documentEv@Base 5.0.2
 _ZNK11QTextObject9docHandleEv@Base 5.0.2
 _ZNK11QTextOption4tabsEv@Base 5.0.2
 _ZNK11QTextOption8tabArrayEv@Base 5.0.2
 _ZNK11QTouchEvent10TouchPoint10screenRectEv@Base 5.0.2
 _ZNK11QTouchEvent10TouchPoint12lastScenePosEv@Base 5.0.2
 _ZNK11QTouchEvent10TouchPoint13lastScreenPosEv@Base 5.0.2
 _ZNK11QTouchEvent10TouchPoint13normalizedPosEv@Base 5.0.2
 _ZNK11QTouchEvent10TouchPoint13startScenePosEv@Base 5.0.2
 _ZNK11QTouchEvent10TouchPoint14startScreenPosEv@Base 5.0.2
 _ZNK11QTouchEvent10TouchPoint17lastNormalizedPosEv@Base 5.0.2
 _ZNK11QTouchEvent10TouchPoint18rawScreenPositionsEv@Base 5.0.2
 _ZNK11QTouchEvent10TouchPoint18startNormalizedPosEv@Base 5.0.2
 _ZNK11QTouchEvent10TouchPoint2idEv@Base 5.0.2
 _ZNK11QTouchEvent10TouchPoint3posEv@Base 5.0.2
 _ZNK11QTouchEvent10TouchPoint4rectEv@Base 5.0.2
 _ZNK11QTouchEvent10TouchPoint5flagsEv@Base 5.0.2
 _ZNK11QTouchEvent10TouchPoint5stateEv@Base 5.0.2
 _ZNK11QTouchEvent10TouchPoint7lastPosEv@Base 5.0.2
 _ZNK11QTouchEvent10TouchPoint8pressureEv@Base 5.0.2
 _ZNK11QTouchEvent10TouchPoint8scenePosEv@Base 5.0.2
 _ZNK11QTouchEvent10TouchPoint8startPosEv@Base 5.0.2
 _ZNK11QTouchEvent10TouchPoint8velocityEv@Base 5.0.2
 _ZNK11QTouchEvent10TouchPoint9sceneRectEv@Base 5.0.2
 _ZNK11QTouchEvent10TouchPoint9screenPosEv@Base 5.0.2
 _ZNK11QVectorPath12addCacheDataEP14QPaintEngineExPvPFvS1_S2_E@Base 5.0.2 1
 _ZNK11QVectorPath16controlPointRectEv@Base 5.0.2 1
 _ZNK12QDragManager10metaObjectEv@Base 5.0.2 1
 _ZNK12QDragManager13currentTargetEv@Base 5.0.2 1
 _ZNK12QDragManager6sourceEv@Base 5.0.2 1
 _ZNK12QFontMetrics10elidedTextERK7QStringN2Qt13TextElideModeEii@Base 5.0.2
 _ZNK12QFontMetrics10inFontUcs4Ej@Base 5.0.2
 _ZNK12QFontMetrics11leftBearingE5QChar@Base 5.0.2
 _ZNK12QFontMetrics11lineSpacingEv@Base 5.0.2
 _ZNK12QFontMetrics11overlinePosEv@Base 5.0.2
 _ZNK12QFontMetrics12boundingRectE5QChar@Base 5.0.2
 _ZNK12QFontMetrics12boundingRectERK5QRectiRK7QStringiPi@Base 5.0.2
 _ZNK12QFontMetrics12boundingRectERK7QString@Base 5.0.2
 _ZNK12QFontMetrics12rightBearingE5QChar@Base 5.0.2
 _ZNK12QFontMetrics12strikeOutPosEv@Base 5.0.2
 _ZNK12QFontMetrics12underlinePosEv@Base 5.0.2
 _ZNK12QFontMetrics14minLeftBearingEv@Base 5.0.2
 _ZNK12QFontMetrics15minRightBearingEv@Base 5.0.2
 _ZNK12QFontMetrics16averageCharWidthEv@Base 5.0.2
 _ZNK12QFontMetrics17tightBoundingRectERK7QString@Base 5.0.2
 _ZNK12QFontMetrics4sizeEiRK7QStringiPi@Base 5.0.2
 _ZNK12QFontMetrics5widthE5QChar@Base 5.0.2
 _ZNK12QFontMetrics5widthERK7QStringi@Base 5.0.2
 _ZNK12QFontMetrics5widthERK7QStringii@Base 5.0.2
 _ZNK12QFontMetrics6ascentEv@Base 5.0.2
 _ZNK12QFontMetrics6heightEv@Base 5.0.2
 _ZNK12QFontMetrics6inFontE5QChar@Base 5.0.2
 _ZNK12QFontMetrics7descentEv@Base 5.0.2
 _ZNK12QFontMetrics7leadingEv@Base 5.0.2
 _ZNK12QFontMetrics7xHeightEv@Base 5.0.2
 _ZNK12QFontMetrics8maxWidthEv@Base 5.0.2
 _ZNK12QFontMetrics9charWidthERK7QStringi@Base 5.0.2
 _ZNK12QFontMetrics9lineWidthEv@Base 5.0.2
 _ZNK12QFontMetricseqERKS_@Base 5.0.2
 _ZNK12QFontPrivate15engineForScriptEi@Base 5.0.2 1
 _ZNK12QFontPrivate20smallCapsFontPrivateEv@Base 5.0.2 1
 _ZNK12QFontPrivate26alterCharForCapitalizationER5QChar@Base 5.0.2 1
 _ZNK12QImageReader10imageCountEv@Base 5.0.2
 _ZNK12QImageReader10scaledSizeEv@Base 5.0.2
 _ZNK12QImageReader11errorStringEv@Base 5.0.2
 _ZNK12QImageReader11imageFormatEv@Base 5.0.2
 _ZNK12QImageReader14nextImageDelayEv@Base 5.0.2
 _ZNK12QImageReader14scaledClipRectEv@Base 5.0.2
 _ZNK12QImageReader14supportsOptionEN15QImageIOHandler11ImageOptionE@Base 5.0.2
 _ZNK12QImageReader15backgroundColorEv@Base 5.0.2
 _ZNK12QImageReader16currentImageRectEv@Base 5.0.2
 _ZNK12QImageReader17supportsAnimationEv@Base 5.0.2
 _ZNK12QImageReader18currentImageNumberEv@Base 5.0.2
 _ZNK12QImageReader21autoDetectImageFormatEv@Base 5.0.2
 _ZNK12QImageReader23decideFormatFromContentEv@Base 5.0.2
 _ZNK12QImageReader4sizeEv@Base 5.0.2
 _ZNK12QImageReader4textERK7QString@Base 5.0.2
 _ZNK12QImageReader5errorEv@Base 5.0.2
 _ZNK12QImageReader6deviceEv@Base 5.0.2
 _ZNK12QImageReader6formatEv@Base 5.0.2
 _ZNK12QImageReader7canReadEv@Base 5.0.2
 _ZNK12QImageReader7qualityEv@Base 5.0.2
 _ZNK12QImageReader8clipRectEv@Base 5.0.2
 _ZNK12QImageReader8fileNameEv@Base 5.0.2
 _ZNK12QImageReader8textKeysEv@Base 5.0.2
 _ZNK12QImageReader9loopCountEv@Base 5.0.2
 _ZNK12QImageWriter11compressionEv@Base 5.0.2
 _ZNK12QImageWriter11descriptionEv@Base 5.0.2
 _ZNK12QImageWriter11errorStringEv@Base 5.0.2
 _ZNK12QImageWriter14supportsOptionEN15QImageIOHandler11ImageOptionE@Base 5.0.2
 _ZNK12QImageWriter5errorEv@Base 5.0.2
 _ZNK12QImageWriter5gammaEv@Base 5.0.2
 _ZNK12QImageWriter6deviceEv@Base 5.0.2
 _ZNK12QImageWriter6formatEv@Base 5.0.2
 _ZNK12QImageWriter7qualityEv@Base 5.0.2
 _ZNK12QImageWriter8canWriteEv@Base 5.0.2
 _ZNK12QImageWriter8fileNameEv@Base 5.0.2
 _ZNK12QInputMethod10metaObjectEv@Base 5.0.2
 _ZNK12QInputMethod11isAnimatingEv@Base 5.0.2
 _ZNK12QInputMethod14inputDirectionEv@Base 5.0.2
 _ZNK12QInputMethod15cursorRectangleEv@Base 5.0.2
 _ZNK12QInputMethod17keyboardRectangleEv@Base 5.0.2
 _ZNK12QInputMethod18inputItemRectangleEv@Base 5.1.0
 _ZNK12QInputMethod18inputItemTransformEv@Base 5.0.2
 _ZNK12QInputMethod6localeEv@Base 5.0.2
 _ZNK12QInputMethod9isVisibleEv@Base 5.0.2
 _ZNK12QKeySequence10isDetachedEv@Base 5.0.2
 _ZNK12QKeySequence5countEv@Base 5.0.2
 _ZNK12QKeySequence7isEmptyEv@Base 5.0.2
 _ZNK12QKeySequence7matchesERKS_@Base 5.0.2
 _ZNK12QKeySequence8toStringENS_14SequenceFormatE@Base 5.0.2
 _ZNK12QKeySequencecv8QVariantEv@Base 5.0.2
 _ZNK12QKeySequenceeqERKS_@Base 5.0.2
 _ZNK12QKeySequenceixEj@Base 5.0.2
 _ZNK12QKeySequenceltERKS_@Base 5.0.2
 _ZNK12QPaintBuffer11paintEngineEv@Base 5.0.2 1
 _ZNK12QPaintBuffer12boundingRectEv@Base 5.0.2 1
 _ZNK12QPaintBuffer13frameEndIndexEi@Base 5.0.2 1
 _ZNK12QPaintBuffer15frameStartIndexEi@Base 5.0.2 1
 _ZNK12QPaintBuffer15processCommandsEP8QPainterii@Base 5.0.2 1
 _ZNK12QPaintBuffer18commandDescriptionEi@Base 5.0.2 1
 _ZNK12QPaintBuffer4drawEP8QPainteri@Base 5.0.2 1
 _ZNK12QPaintBuffer6metricEN12QPaintDevice17PaintDeviceMetricE@Base 5.0.2 1
 _ZNK12QPaintBuffer7devTypeEv@Base 5.0.2 1
 _ZNK12QPaintBuffer7isEmptyEv@Base 5.0.2 1
 _ZNK12QPaintBuffer9numFramesEv@Base 5.0.2 1
 _ZNK12QPaintDevice10redirectedEP6QPoint@Base 5.0.2
 _ZNK12QPaintDevice11initPainterEP8QPainter@Base 5.0.2
 _ZNK12QPaintDevice13sharedPainterEv@Base 5.0.2
 _ZNK12QPaintDevice6metricENS_17PaintDeviceMetricE@Base 5.0.2
 _ZNK12QPaintDevice7devTypeEv@Base 5.0.2
 _ZNK12QPaintEngine10systemClipEv@Base 5.0.2
 _ZNK12QPaintEngine10systemRectEv@Base 5.0.2
 _ZNK12QPaintEngine11paintDeviceEv@Base 5.0.2
 _ZNK12QPaintEngine16coordinateOffsetEv@Base 5.0.2
 _ZNK12QPaintEngine7painterEv@Base 5.0.2
 _ZNK12QPainterPath10intersectsERK6QRectF@Base 5.0.2
 _ZNK12QPainterPath10intersectsERKS_@Base 5.0.2
 _ZNK12QPainterPath10simplifiedEv@Base 5.0.2
 _ZNK12QPainterPath10subtractedERKS_@Base 5.0.2
 _ZNK12QPainterPath10toReversedEv@Base 5.0.2
 _ZNK12QPainterPath10translatedEdd@Base 5.2.0
 _ZNK12QPainterPath11intersectedERKS_@Base 5.0.2
 _ZNK12QPainterPath12boundingRectEv@Base 5.0.2
 _ZNK12QPainterPath12elementCountEv@Base 5.0.2
 _ZNK12QPainterPath13toFillPolygonERK10QTransform@Base 5.0.2
 _ZNK12QPainterPath13toFillPolygonERK7QMatrix@Base 5.0.2
 _ZNK12QPainterPath14angleAtPercentEd@Base 5.2.0
 _ZNK12QPainterPath14pointAtPercentEd@Base 5.2.0
 _ZNK12QPainterPath14slopeAtPercentEd@Base 5.2.0
 _ZNK12QPainterPath14toFillPolygonsERK10QTransform@Base 5.0.2
 _ZNK12QPainterPath14toFillPolygonsERK7QMatrix@Base 5.0.2
 _ZNK12QPainterPath15currentPositionEv@Base 5.0.2
 _ZNK12QPainterPath15percentAtLengthEd@Base 5.2.0
 _ZNK12QPainterPath16controlPointRectEv@Base 5.0.2
 _ZNK12QPainterPath17toSubpathPolygonsERK10QTransform@Base 5.0.2
 _ZNK12QPainterPath17toSubpathPolygonsERK7QMatrix@Base 5.0.2
 _ZNK12QPainterPath18subtractedInvertedERKS_@Base 5.0.2
 _ZNK12QPainterPath19computeBoundingRectEv@Base 5.0.2
 _ZNK12QPainterPath23computeControlPointRectEv@Base 5.0.2
 _ZNK12QPainterPath6lengthEv@Base 5.0.2
 _ZNK12QPainterPath6unitedERKS_@Base 5.0.2
 _ZNK12QPainterPath7isEmptyEv@Base 5.0.2
 _ZNK12QPainterPath8containsERK6QRectF@Base 5.0.2
 _ZNK12QPainterPath8containsERK7QPointF@Base 5.0.2
 _ZNK12QPainterPath8containsERKS_@Base 5.0.2
 _ZNK12QPainterPath8fillRuleEv@Base 5.0.2
 _ZNK12QPainterPath9elementAtEi@Base 5.0.2
 _ZNK12QPainterPathanERKS_@Base 5.0.2
 _ZNK12QPainterPatheqERKS_@Base 5.0.2
 _ZNK12QPainterPathmiERKS_@Base 5.0.2
 _ZNK12QPainterPathneERKS_@Base 5.0.2
 _ZNK12QPainterPathorERKS_@Base 5.0.2
 _ZNK12QPainterPathplERKS_@Base 5.0.2
 _ZNK12QPixmapCache3KeyeqERKS0_@Base 5.0.2
 _ZNK12QScrollEvent10contentPosEv@Base 5.0.2
 _ZNK12QScrollEvent11scrollStateEv@Base 5.0.2
 _ZNK12QScrollEvent17overshootDistanceEv@Base 5.0.2
 _ZNK12QShortcutMap25hasShortcutForKeySequenceERK12QKeySequence@Base 5.0.2 1
 _ZNK12QShortcutMap7matchesERK12QKeySequenceS2_@Base 5.0.2 1
 _ZNK12QShortcutMap7matchesEv@Base 5.0.2 1
 _ZNK12QTouchDevice12capabilitiesEv@Base 5.0.2
 _ZNK12QTouchDevice18maximumTouchPointsEv@Base 5.2.0~alpha1
 _ZNK12QTouchDevice4nameEv@Base 5.0.2
 _ZNK12QTouchDevice4typeEv@Base 5.0.2
 _ZNK13QBackingStore14staticContentsEv@Base 5.0.2
 _ZNK13QBackingStore17hasStaticContentsEv@Base 5.0.2
 _ZNK13QBackingStore4sizeEv@Base 5.0.2
 _ZNK13QBackingStore6handleEv@Base 5.0.2
 _ZNK13QBackingStore6windowEv@Base 5.0.2
 _ZNK13QFontDatabase10isScalableERK7QStringS2_@Base 5.0.2
 _ZNK13QFontDatabase12isFixedPitchERK7QStringS2_@Base 5.0.2
 _ZNK13QFontDatabase14writingSystemsERK7QString@Base 5.0.2
 _ZNK13QFontDatabase14writingSystemsEv@Base 5.0.2
 _ZNK13QFontDatabase16isBitmapScalableERK7QStringS2_@Base 5.0.2
 _ZNK13QFontDatabase18isSmoothlyScalableERK7QStringS2_@Base 5.0.2
 _ZNK13QFontDatabase4boldERK7QStringS2_@Base 5.0.2
 _ZNK13QFontDatabase4fontERK7QStringS2_i@Base 5.0.2
 _ZNK13QFontDatabase6italicERK7QStringS2_@Base 5.0.2
 _ZNK13QFontDatabase6stylesERK7QString@Base 5.0.2
 _ZNK13QFontDatabase6weightERK7QStringS2_@Base 5.0.2
 _ZNK13QFontDatabase8familiesENS_13WritingSystemE@Base 5.0.2
 _ZNK13QFontDatabase9hasFamilyERK7QString@Base 5.0.2
 _ZNK13QFontMetricsF10elidedTextERK7QStringN2Qt13TextElideModeEdi@Base 5.2.0
 _ZNK13QFontMetricsF10inFontUcs4Ej@Base 5.0.2
 _ZNK13QFontMetricsF11leftBearingE5QChar@Base 5.0.2
 _ZNK13QFontMetricsF11lineSpacingEv@Base 5.0.2
 _ZNK13QFontMetricsF11overlinePosEv@Base 5.0.2
 _ZNK13QFontMetricsF12boundingRectE5QChar@Base 5.0.2
 _ZNK13QFontMetricsF12boundingRectERK6QRectFiRK7QStringiPi@Base 5.0.2
 _ZNK13QFontMetricsF12boundingRectERK7QString@Base 5.0.2
 _ZNK13QFontMetricsF12rightBearingE5QChar@Base 5.0.2
 _ZNK13QFontMetricsF12strikeOutPosEv@Base 5.0.2
 _ZNK13QFontMetricsF12underlinePosEv@Base 5.0.2
 _ZNK13QFontMetricsF14minLeftBearingEv@Base 5.0.2
 _ZNK13QFontMetricsF15minRightBearingEv@Base 5.0.2
 _ZNK13QFontMetricsF16averageCharWidthEv@Base 5.0.2
 _ZNK13QFontMetricsF17tightBoundingRectERK7QString@Base 5.0.2
 _ZNK13QFontMetricsF4sizeEiRK7QStringiPi@Base 5.0.2
 _ZNK13QFontMetricsF5widthE5QChar@Base 5.0.2
 _ZNK13QFontMetricsF5widthERK7QString@Base 5.0.2
 _ZNK13QFontMetricsF6ascentEv@Base 5.0.2
 _ZNK13QFontMetricsF6heightEv@Base 5.0.2
 _ZNK13QFontMetricsF6inFontE5QChar@Base 5.0.2
 _ZNK13QFontMetricsF7descentEv@Base 5.0.2
 _ZNK13QFontMetricsF7leadingEv@Base 5.0.2
 _ZNK13QFontMetricsF7xHeightEv@Base 5.0.2
 _ZNK13QFontMetricsF8maxWidthEv@Base 5.0.2
 _ZNK13QFontMetricsF9lineWidthEv@Base 5.0.2
 _ZNK13QFontMetricsFeqERKS_@Base 5.0.2
 _ZNK13QIntValidator10metaObjectEv@Base 5.0.2
 _ZNK13QIntValidator5fixupER7QString@Base 5.0.2
 _ZNK13QIntValidator8validateER7QStringRi@Base 5.0.2
 _ZNK13QLayoutPolicy11controlTypeEv@Base 5.3.0 1
 _ZNK13QOpenGLBuffer12usagePatternEv@Base 5.0.2
 _ZNK13QOpenGLBuffer4sizeEv@Base 5.0.2
 _ZNK13QOpenGLBuffer4typeEv@Base 5.0.2
 _ZNK13QOpenGLBuffer8bufferIdEv@Base 5.0.2
 _ZNK13QOpenGLBuffer9isCreatedEv@Base 5.0.2
 _ZNK13QOpenGLShader10isCompiledEv@Base 5.0.2
 _ZNK13QOpenGLShader10metaObjectEv@Base 5.0.2
 _ZNK13QOpenGLShader10shaderTypeEv@Base 5.0.2
 _ZNK13QOpenGLShader10sourceCodeEv@Base 5.0.2
 _ZNK13QOpenGLShader3logEv@Base 5.0.2
 _ZNK13QOpenGLShader8shaderIdEv@Base 5.0.2
 _ZNK13QPlatformDrag11currentDragEv@Base 5.0.2 1
 _ZNK13QPlatformDrag13defaultActionE6QFlagsIN2Qt10DropActionEES0_INS1_16KeyboardModifierEE@Base 5.0.2 1
 _ZNK13QPlatformMenu10metaObjectEv@Base 5.0.2 1
 _ZNK13QPlatformMenu14createMenuItemEv@Base 5.3.0 1
 _ZNK13QStandardItem11columnCountEv@Base 5.0.2
 _ZNK13QStandardItem11hasChildrenEv@Base 5.0.2
 _ZNK13QStandardItem3rowEv@Base 5.0.2
 _ZNK13QStandardItem4dataEi@Base 5.0.2
 _ZNK13QStandardItem4typeEv@Base 5.0.2
 _ZNK13QStandardItem5childEii@Base 5.0.2
 _ZNK13QStandardItem5cloneEv@Base 5.0.2
 _ZNK13QStandardItem5flagsEv@Base 5.0.2
 _ZNK13QStandardItem5indexEv@Base 5.0.2
 _ZNK13QStandardItem5modelEv@Base 5.0.2
 _ZNK13QStandardItem5writeER11QDataStream@Base 5.0.2
 _ZNK13QStandardItem6columnEv@Base 5.0.2
 _ZNK13QStandardItem6parentEv@Base 5.0.2
 _ZNK13QStandardItem8rowCountEv@Base 5.0.2
 _ZNK13QStandardItemltERKS_@Base 5.0.2
 _ZNK13QTextDocument10allFormatsEv@Base 5.0.2
 _ZNK13QTextDocument10blockCountEv@Base 5.0.2
 _ZNK13QTextDocument10firstBlockEv@Base 5.0.2
 _ZNK13QTextDocument10idealWidthEv@Base 5.0.2
 _ZNK13QTextDocument10isModifiedEv@Base 5.0.2
 _ZNK13QTextDocument10metaObjectEv@Base 5.0.2
 _ZNK13QTextDocument11characterAtEi@Base 5.0.2
 _ZNK13QTextDocument11defaultFontEv@Base 5.0.2
 _ZNK13QTextDocument11indentWidthEv@Base 5.0.2
 _ZNK13QTextDocument11toPlainTextEv@Base 5.0.2
 _ZNK13QTextDocument14characterCountEv@Base 5.0.2
 _ZNK13QTextDocument14documentLayoutEv@Base 5.0.2
 _ZNK13QTextDocument14documentMarginEv@Base 5.0.2
 _ZNK13QTextDocument15isRedoAvailableEv@Base 5.0.2
 _ZNK13QTextDocument15isUndoAvailableEv@Base 5.0.2
 _ZNK13QTextDocument15metaInformationENS_15MetaInformationE@Base 5.0.2
 _ZNK13QTextDocument15objectForFormatERK11QTextFormat@Base 5.0.2
 _ZNK13QTextDocument16useDesignMetricsEv@Base 5.0.2
 _ZNK13QTextDocument17defaultStyleSheetEv@Base 5.0.2
 _ZNK13QTextDocument17defaultTextOptionEv@Base 5.0.2
 _ZNK13QTextDocument17findBlockByNumberEi@Base 5.0.2
 _ZNK13QTextDocument17isUndoRedoEnabledEv@Base 5.0.2
 _ZNK13QTextDocument17maximumBlockCountEv@Base 5.0.2
 _ZNK13QTextDocument18availableRedoStepsEv@Base 5.0.2
 _ZNK13QTextDocument18availableUndoStepsEv@Base 5.0.2
 _ZNK13QTextDocument21findBlockByLineNumberEi@Base 5.0.2
 _ZNK13QTextDocument22defaultCursorMoveStyleEv@Base 5.0.2
 _ZNK13QTextDocument3endEv@Base 5.0.2
 _ZNK13QTextDocument4findERK7QRegExpRK11QTextCursor6QFlagsINS_8FindFlagEE@Base 5.0.2
 _ZNK13QTextDocument4findERK7QRegExpi6QFlagsINS_8FindFlagEE@Base 5.0.2
 _ZNK13QTextDocument4findERK7QStringRK11QTextCursor6QFlagsINS_8FindFlagEE@Base 5.0.2
 _ZNK13QTextDocument4findERK7QStringi6QFlagsINS_8FindFlagEE@Base 5.0.2
 _ZNK13QTextDocument4sizeEv@Base 5.0.2
 _ZNK13QTextDocument5beginEv@Base 5.0.2
 _ZNK13QTextDocument5cloneEP7QObject@Base 5.0.2
 _ZNK13QTextDocument5printEP17QPagedPaintDevice@Base 5.0.2
 _ZNK13QTextDocument6objectEi@Base 5.0.2
 _ZNK13QTextDocument6toHtmlERK10QByteArray@Base 5.0.2
 _ZNK13QTextDocument7baseUrlEv@Base 5.3.0
 _ZNK13QTextDocument7frameAtEi@Base 5.0.2
 _ZNK13QTextDocument7isEmptyEv@Base 5.0.2
 _ZNK13QTextDocument8pageSizeEv@Base 5.0.2
 _ZNK13QTextDocument8resourceEiRK4QUrl@Base 5.0.2
 _ZNK13QTextDocument8revisionEv@Base 5.0.2
 _ZNK13QTextDocument9docHandleEv@Base 5.0.2
 _ZNK13QTextDocument9findBlockEi@Base 5.0.2
 _ZNK13QTextDocument9lastBlockEv@Base 5.0.2
 _ZNK13QTextDocument9lineCountEv@Base 5.0.2
 _ZNK13QTextDocument9pageCountEv@Base 5.0.2
 _ZNK13QTextDocument9rootFrameEv@Base 5.0.2
 _ZNK13QTextDocument9textWidthEv@Base 5.0.2
 _ZNK13QTextFragment10charFormatEv@Base 5.0.2
 _ZNK13QTextFragment15charFormatIndexEv@Base 5.0.2
 _ZNK13QTextFragment4textEv@Base 5.0.2
 _ZNK13QTextFragment6lengthEv@Base 5.0.2
 _ZNK13QTextFragment8containsEi@Base 5.0.2
 _ZNK13QTextFragment8positionEv@Base 5.0.2
 _ZNK13QTextFragment9glyphRunsEii@Base 5.0.2
 _ZNK14QDistanceField13constScanLineEi@Base 5.2.0~alpha1 1
 _ZNK14QDistanceField4bitsEv@Base 5.2.0~alpha1 1
 _ZNK14QDistanceField4copyERK5QRect@Base 5.2.0~alpha1 1
 _ZNK14QDistanceField5glyphEv@Base 5.2.0~alpha1 1
 _ZNK14QDistanceField5widthEv@Base 5.2.0~alpha1 1
 _ZNK14QDistanceField6heightEv@Base 5.2.0~alpha1 1
 _ZNK14QDistanceField6isNullEv@Base 5.2.0~alpha1 1
 _ZNK14QDistanceField7toImageEN6QImage6FormatE@Base 5.2.0~alpha1 1
 _ZNK14QDistanceField8scanLineEi@Base 5.2.0~alpha1 1
 _ZNK14QDistanceField9constBitsEv@Base 5.2.0~alpha1 1
 _ZNK14QFileOpenEvent8openFileER5QFile6QFlagsIN9QIODevice12OpenModeFlagEE@Base 5.0.2
 _ZNK14QFontEngineQPA10glyphIndexEj@Base 5.3.0 1
 _ZNK14QFontEngineQPA12maxCharWidthEv@Base 5.0.2 1
 _ZNK14QFontEngineQPA12stringToCMapEPK5QChariP12QGlyphLayoutPi6QFlagsIN11QFontEngine10ShaperFlagEE@Base 5.0.2 1
 _ZNK14QFontEngineQPA13lineThicknessEv@Base 5.0.2 1
 _ZNK14QFontEngineQPA14minLeftBearingEv@Base 5.0.2 1
 _ZNK14QFontEngineQPA14recalcAdvancesEP12QGlyphLayout6QFlagsIN11QFontEngine10ShaperFlagEE@Base 5.0.2 1
 _ZNK14QFontEngineQPA15minRightBearingEv@Base 5.0.2 1
 _ZNK14QFontEngineQPA16getSfntTableDataEjPhPj@Base 5.0.2 1
 _ZNK14QFontEngineQPA17underlinePositionEv@Base 5.0.2 1
 _ZNK14QFontEngineQPA6ascentEv@Base 5.0.2 1
 _ZNK14QFontEngineQPA7descentEv@Base 5.0.2 1
 _ZNK14QFontEngineQPA7isValidEv@Base 5.0.2 1
 _ZNK14QFontEngineQPA7leadingEv@Base 5.0.2 1
 _ZNK14QFontEngineQPA9findGlyphEj@Base 5.0.2 1
 _ZNK14QGenericPlugin10metaObjectEv@Base 5.0.2
 _ZNK14QImageIOPlugin10metaObjectEv@Base 5.0.2
 _ZNK14QOpenGLContext10extensionsEv@Base 5.0.2
 _ZNK14QOpenGLContext10isOpenGLESEv@Base 5.3.0
 _ZNK14QOpenGLContext10metaObjectEv@Base 5.0.2
 _ZNK14QOpenGLContext10shareGroupEv@Base 5.0.2
 _ZNK14QOpenGLContext11shareHandleEv@Base 5.0.2
 _ZNK14QOpenGLContext12hasExtensionERK10QByteArray@Base 5.0.2
 _ZNK14QOpenGLContext12shareContextEv@Base 5.0.2
 _ZNK14QOpenGLContext14getProcAddressERK10QByteArray@Base 5.0.2
 _ZNK14QOpenGLContext16functionsBackendERK20QOpenGLVersionStatus@Base 5.1.0
 _ZNK14QOpenGLContext16qGLContextHandleEv@Base 5.0.2
 _ZNK14QOpenGLContext16textureFunctionsEv@Base 5.2.0~alpha1
 _ZNK14QOpenGLContext16versionFunctionsERK21QOpenGLVersionProfile@Base 5.1.0
 _ZNK14QOpenGLContext24defaultFramebufferObjectEv@Base 5.0.2
 _ZNK14QOpenGLContext6formatEv@Base 5.0.2
 _ZNK14QOpenGLContext6handleEv@Base 5.0.2
 _ZNK14QOpenGLContext6screenEv@Base 5.0.2
 _ZNK14QOpenGLContext7isValidEv@Base 5.0.2
 _ZNK14QOpenGLContext7surfaceEv@Base 5.0.2
 _ZNK14QOpenGLContext9functionsEv@Base 5.0.2
 _ZNK14QOpenGLTexture11borderColorEPf@Base 5.2.0~alpha1
 _ZNK14QOpenGLTexture11borderColorEPi@Base 5.2.0~alpha1
 _ZNK14QOpenGLTexture11borderColorEPj@Base 5.2.0~alpha1
 _ZNK14QOpenGLTexture11borderColorEv@Base 5.2.0~alpha1
 _ZNK14QOpenGLTexture11mipMaxLevelEv@Base 5.2.0~alpha1
 _ZNK14QOpenGLTexture11swizzleMaskENS_16SwizzleComponentE@Base 5.2.0~alpha1
 _ZNK14QOpenGLTexture12mipBaseLevelEv@Base 5.2.0~alpha1
 _ZNK14QOpenGLTexture13isTextureViewEv@Base 5.2.0~alpha1
 _ZNK14QOpenGLTexture13minMagFiltersEv@Base 5.2.0~alpha1
 _ZNK14QOpenGLTexture13mipLevelRangeEv@Base 5.2.0~alpha1
 _ZNK14QOpenGLTexture16depthStencilModeEv@Base 5.2.0~alpha1
 _ZNK14QOpenGLTexture16maximumMipLevelsEv@Base 5.2.0~alpha1
 _ZNK14QOpenGLTexture17createTextureViewENS_6TargetENS_13TextureFormatEiiii@Base 5.2.0~alpha1
 _ZNK14QOpenGLTexture17levelofDetailBiasEv@Base 5.2.0~alpha1
 _ZNK14QOpenGLTexture17maximumAnisotropyEv@Base 5.2.0~alpha1
 _ZNK14QOpenGLTexture18isStorageAllocatedEv@Base 5.2.0~alpha1
 _ZNK14QOpenGLTexture18levelOfDetailRangeEv@Base 5.2.0~alpha1
 _ZNK14QOpenGLTexture18minificationFilterEv@Base 5.2.0~alpha1
 _ZNK14QOpenGLTexture19magnificationFilterEv@Base 5.2.0~alpha1
 _ZNK14QOpenGLTexture20maximumLevelOfDetailEv@Base 5.2.0~alpha1
 _ZNK14QOpenGLTexture20minimumLevelOfDetailEv@Base 5.2.0~alpha1
 _ZNK14QOpenGLTexture29isAutoMipMapGenerationEnabledEv@Base 5.2.0~alpha1
 _ZNK14QOpenGLTexture5depthEv@Base 5.2.0~alpha1
 _ZNK14QOpenGLTexture5facesEv@Base 5.2.0~alpha1
 _ZNK14QOpenGLTexture5widthEv@Base 5.2.0~alpha1
 _ZNK14QOpenGLTexture6formatEv@Base 5.2.0~alpha1
 _ZNK14QOpenGLTexture6heightEv@Base 5.2.0~alpha1
 _ZNK14QOpenGLTexture6layersEv@Base 5.2.0~alpha1
 _ZNK14QOpenGLTexture7isBoundEv@Base 5.2.0~alpha1
 _ZNK14QOpenGLTexture8wrapModeENS_19CoordinateDirectionE@Base 5.2.0~alpha1
 _ZNK14QOpenGLTexture9isCreatedEv@Base 5.2.0~alpha1
 _ZNK14QOpenGLTexture9mipLevelsEv@Base 5.2.0~alpha1
 _ZNK14QOpenGLTexture9textureIdEv@Base 5.2.0~alpha1
 _ZNK14QPaintEngineEx11createStateEP13QPainterState@Base 5.0.2 1
 _ZNK14QPaintEngineEx22shouldDrawCachedGlyphsEP11QFontEngineRK10QTransform@Base 5.0.2 1
 _ZNK14QPaintEngineEx36requiresPretransformedGlyphPositionsEP11QFontEngineRK10QTransform@Base 5.1.0 1
 _ZNK14QPlatformTheme11keyBindingsEN12QKeySequence11StandardKeyE@Base 5.2.0~alpha1 1
 _ZNK14QPlatformTheme14fileIconPixmapERK9QFileInfoRK6QSizeF6QFlagsINS_10IconOptionEE@Base 5.2.0~alpha1 1
 _ZNK14QPlatformTheme14standardPixmapENS_14StandardPixmapERK6QSizeF@Base 5.0.2 1
 _ZNK14QPlatformTheme16createIconEngineERK7QString@Base 5.1.0 1
 _ZNK14QPlatformTheme18createPlatformMenuEv@Base 5.0.2 1
 _ZNK14QPlatformTheme18standardButtonTextEi@Base 5.3.0 1
 _ZNK14QPlatformTheme21createPlatformMenuBarEv@Base 5.0.2 1
 _ZNK14QPlatformTheme22createPlatformMenuItemEv@Base 5.0.2 1
 _ZNK14QPlatformTheme23usePlatformNativeDialogENS_10DialogTypeE@Base 5.0.2 1
 _ZNK14QPlatformTheme26createPlatformDialogHelperENS_10DialogTypeE@Base 5.0.2 1
 _ZNK14QPlatformTheme28createPlatformSystemTrayIconEv@Base 5.0.2 1
 _ZNK14QPlatformTheme4fontENS_4FontE@Base 5.0.2 1
 _ZNK14QPlatformTheme7paletteENS_7PaletteE@Base 5.0.2 1
 _ZNK14QPlatformTheme9themeHintENS_9ThemeHintE@Base 5.0.2 1
 _ZNK14QSurfaceFormat10testOptionE6QFlagsINS_12FormatOptionEE@Base 5.0.2
 _ZNK14QSurfaceFormat10testOptionENS_12FormatOptionE@Base 5.3.0
 _ZNK14QSurfaceFormat12majorVersionEv@Base 5.0.2
 _ZNK14QSurfaceFormat12minorVersionEv@Base 5.0.2
 _ZNK14QSurfaceFormat12swapBehaviorEv@Base 5.0.2
 _ZNK14QSurfaceFormat12swapIntervalEv@Base 5.3.0
 _ZNK14QSurfaceFormat13redBufferSizeEv@Base 5.0.2
 _ZNK14QSurfaceFormat14blueBufferSizeEv@Base 5.0.2
 _ZNK14QSurfaceFormat14renderableTypeEv@Base 5.0.2
 _ZNK14QSurfaceFormat15alphaBufferSizeEv@Base 5.0.2
 _ZNK14QSurfaceFormat15depthBufferSizeEv@Base 5.0.2
 _ZNK14QSurfaceFormat15greenBufferSizeEv@Base 5.0.2
 _ZNK14QSurfaceFormat17stencilBufferSizeEv@Base 5.0.2
 _ZNK14QSurfaceFormat7optionsEv@Base 5.3.0
 _ZNK14QSurfaceFormat7profileEv@Base 5.0.2
 _ZNK14QSurfaceFormat7samplesEv@Base 5.0.2
 _ZNK14QSurfaceFormat7versionEv@Base 5.1.0
 _ZNK14QSurfaceFormat8hasAlphaEv@Base 5.0.2
 _ZNK14QTextTableCell10columnSpanEv@Base 5.0.2
 _ZNK14QTextTableCell12lastPositionEv@Base 5.0.2
 _ZNK14QTextTableCell13firstPositionEv@Base 5.0.2
 _ZNK14QTextTableCell18lastCursorPositionEv@Base 5.0.2
 _ZNK14QTextTableCell19firstCursorPositionEv@Base 5.0.2
 _ZNK14QTextTableCell20tableCellFormatIndexEv@Base 5.0.2
 _ZNK14QTextTableCell3endEv@Base 5.0.2
 _ZNK14QTextTableCell3rowEv@Base 5.0.2
 _ZNK14QTextTableCell5beginEv@Base 5.0.2
 _ZNK14QTextTableCell6columnEv@Base 5.0.2
 _ZNK14QTextTableCell6formatEv@Base 5.0.2
 _ZNK14QTextTableCell7rowSpanEv@Base 5.0.2
 _ZNK14QWindowPrivate14topLevelWindowEv@Base 5.3.0 1
 _ZNK15QGridLayoutItem10columnSpanEN2Qt11OrientationE@Base 5.3.0 1
 _ZNK15QGridLayoutItem10lastColumnEN2Qt11OrientationE@Base 5.3.0 1
 _ZNK15QGridLayoutItem11firstColumnEN2Qt11OrientationE@Base 5.3.0 1
 _ZNK15QGridLayoutItem12controlTypesE10LayoutSide@Base 5.3.0 1
 _ZNK15QGridLayoutItem13stretchFactorEN2Qt11OrientationE@Base 5.3.0 1
 _ZNK15QGridLayoutItem14geometryWithinEddddd6QFlagsIN2Qt13AlignmentFlagEE@Base 5.3.0 1
 _ZNK15QGridLayoutItem16effectiveMaxSizeERK6QSizeF@Base 5.3.0 1
 _ZNK15QGridLayoutItem3boxEN2Qt11OrientationEd@Base 5.3.0 1
 _ZNK15QGridLayoutItem7lastRowEN2Qt11OrientationE@Base 5.3.0 1
 _ZNK15QGridLayoutItem7rowSpanEN2Qt11OrientationE@Base 5.3.0 1
 _ZNK15QGridLayoutItem8firstRowEN2Qt11OrientationE@Base 5.3.0 1
 _ZNK15QGuiApplication10metaObjectEv@Base 5.0.2
 _ZNK15QGuiApplication10sessionKeyEv@Base 5.0.2
 _ZNK15QGuiApplication15isSavingSessionEv@Base 5.0.2
 _ZNK15QGuiApplication16devicePixelRatioEv@Base 5.0.2
 _ZNK15QGuiApplication17isSessionRestoredEv@Base 5.0.2
 _ZNK15QGuiApplication9sessionIdEv@Base 5.0.2
 _ZNK15QImageIOHandler10imageCountEv@Base 5.0.2
 _ZNK15QImageIOHandler14nextImageDelayEv@Base 5.0.2
 _ZNK15QImageIOHandler14supportsOptionENS_11ImageOptionE@Base 5.0.2
 _ZNK15QImageIOHandler16currentImageRectEv@Base 5.0.2
 _ZNK15QImageIOHandler18currentImageNumberEv@Base 5.0.2
 _ZNK15QImageIOHandler4nameEv@Base 5.0.2
 _ZNK15QImageIOHandler6deviceEv@Base 5.0.2
 _ZNK15QImageIOHandler6formatEv@Base 5.0.2
 _ZNK15QImageIOHandler6optionENS_11ImageOptionE@Base 5.0.2
 _ZNK15QImageIOHandler9loopCountEv@Base 5.0.2
 _ZNK15QImageIOHandler9setFormatERK10QByteArray@Base 5.0.2
 _ZNK15QLinearGradient5startEv@Base 5.0.2
 _ZNK15QLinearGradient9finalStopEv@Base 5.0.2
 _ZNK15QPlatformCursor3posEv@Base 5.0.2 1
 _ZNK15QPlatformPixmap11transformedERK10QTransformN2Qt18TransformationModeE@Base 5.0.2 1
 _ZNK15QPlatformPixmap30createCompatiblePlatformPixmapEv@Base 5.0.2 1
 _ZNK15QPlatformPixmap7toImageERK5QRect@Base 5.0.2 1
 (subst)_ZNK15QPlatformScreen10grabWindowE{quintptr}iiii@Base 5.0.2 1
 _ZNK15QPlatformScreen10logicalDpiEv@Base 5.0.2 1
 _ZNK15QPlatformScreen10topLevelAtERK6QPoint@Base 5.0.2 1
 _ZNK15QPlatformScreen11orientationEv@Base 5.0.2 1
 _ZNK15QPlatformScreen11pageFlipperEv@Base 5.0.2 1
 _ZNK15QPlatformScreen11refreshRateEv@Base 5.0.2 1
 _ZNK15QPlatformScreen12physicalSizeEv@Base 5.0.2 1
 _ZNK15QPlatformScreen15virtualSiblingsEv@Base 5.0.2 1
 _ZNK15QPlatformScreen16devicePixelRatioEv@Base 5.0.2 1
 _ZNK15QPlatformScreen17nativeOrientationEv@Base 5.0.2 1
 _ZNK15QPlatformScreen6cursorEv@Base 5.0.2 1
 _ZNK15QPlatformScreen6screenEv@Base 5.0.2 1
 _ZNK15QPlatformWindow10isEmbeddedEPKS_@Base 5.0.2 1
 _ZNK15QPlatformWindow11mapToGlobalERK6QPoint@Base 5.0.2 1
 _ZNK15QPlatformWindow12frameMarginsEv@Base 5.0.2 1
 _ZNK15QPlatformWindow12isAlertStateEv@Base 5.1.0 1
 _ZNK15QPlatformWindow13mapFromGlobalERK6QPoint@Base 5.0.2 1
 _ZNK15QPlatformWindow14normalGeometryEv@Base 5.3.0 1
 _ZNK15QPlatformWindow16devicePixelRatioEv@Base 5.0.2 1
 _ZNK15QPlatformWindow23frameStrutEventsEnabledEv@Base 5.0.2 1
 _ZNK15QPlatformWindow5winIdEv@Base 5.0.2 1
 _ZNK15QPlatformWindow6formatEv@Base 5.0.2 1
 _ZNK15QPlatformWindow6parentEv@Base 5.0.2 1
 _ZNK15QPlatformWindow6screenEv@Base 5.0.2 1
 _ZNK15QPlatformWindow6windowEv@Base 5.0.2 1
 _ZNK15QPlatformWindow8geometryEv@Base 5.0.2 1
 _ZNK15QPlatformWindow8isActiveEv@Base 5.0.2 1
 _ZNK15QPlatformWindow9isExposedEv@Base 5.0.2 1
 _ZNK15QRadialGradient10focalPointEv@Base 5.0.2
 _ZNK15QRadialGradient11focalRadiusEv@Base 5.0.2
 _ZNK15QRadialGradient12centerRadiusEv@Base 5.0.2
 _ZNK15QRadialGradient6centerEv@Base 5.0.2
 _ZNK15QRadialGradient6radiusEv@Base 5.0.2
 _ZNK15QSessionManager10metaObjectEv@Base 5.0.2
 _ZNK15QSessionManager10sessionKeyEv@Base 5.0.2
 _ZNK15QSessionManager11restartHintEv@Base 5.0.2
 _ZNK15QSessionManager14discardCommandEv@Base 5.0.2
 _ZNK15QSessionManager14restartCommandEv@Base 5.0.2
 _ZNK15QSessionManager8isPhase2Ev@Base 5.0.2
 _ZNK15QSessionManager9sessionIdEv@Base 5.0.2
 _ZNK15QTextBlockGroup10metaObjectEv@Base 5.0.2
 _ZNK15QTextBlockGroup9blockListEv@Base 5.0.2
 _ZNK15QTextCharFormat10anchorNameEv@Base 5.0.2
 _ZNK15QTextCharFormat11anchorNamesEv@Base 5.0.2
 _ZNK15QTextCharFormat13fontUnderlineEv@Base 5.0.2
 _ZNK15QTextCharFormat4fontEv@Base 5.0.2
 _ZNK15glyph_metrics_t11transformedERK10QTransform@Base 5.0.2
 _ZNK16QAccessibleCache10metaObjectEv@Base 5.3.0 1
 _ZNK16QAccessibleCache14interfaceForIdEj@Base 5.3.0 1
 _ZNK16QAccessibleCache6insertEP7QObjectP20QAccessibleInterface@Base 5.3.0 1
 _ZNK16QAccessibleCache9acquireIdEv@Base 5.3.0 1
 _ZNK16QAccessibleEvent19accessibleInterfaceEv@Base 5.0.2
 _ZNK16QAccessibleEvent8uniqueIdEv@Base 5.2.0~rc1
 _ZNK16QConicalGradient5angleEv@Base 5.0.2
 _ZNK16QConicalGradient6centerEv@Base 5.0.2
 _ZNK16QDoubleValidator10metaObjectEv@Base 5.0.2
 _ZNK16QDoubleValidator8notationEv@Base 5.0.2
 _ZNK16QDoubleValidator8validateER7QStringRi@Base 5.0.2
 _ZNK16QFontEngineMulti10glyphIndexEj@Base 5.3.0 1
 _ZNK16QFontEngineMulti12maxCharWidthEv@Base 5.0.2 1
 _ZNK16QFontEngineMulti12stringToCMapEPK5QChariP12QGlyphLayoutPi6QFlagsIN11QFontEngine10ShaperFlagEE@Base 5.0.2 1
 _ZNK16QFontEngineMulti13lineThicknessEv@Base 5.0.2 1
 _ZNK16QFontEngineMulti14minLeftBearingEv@Base 5.0.2 1
 _ZNK16QFontEngineMulti14recalcAdvancesEP12QGlyphLayout6QFlagsIN11QFontEngine10ShaperFlagEE@Base 5.0.2 1
 _ZNK16QFontEngineMulti15minRightBearingEv@Base 5.0.2 1
 _ZNK16QFontEngineMulti16averageCharWidthEv@Base 5.0.2 1
 _ZNK16QFontEngineMulti17underlinePositionEv@Base 5.0.2 1
 _ZNK16QFontEngineMulti32shouldLoadFontEngineForCharacterEij@Base 5.0.2 1
 _ZNK16QFontEngineMulti6ascentEv@Base 5.0.2 1
 _ZNK16QFontEngineMulti7descentEv@Base 5.0.2 1
 _ZNK16QFontEngineMulti7leadingEv@Base 5.0.2 1
 _ZNK16QFontEngineMulti7xHeightEv@Base 5.0.2 1
 _ZNK16QFontEngineMulti9canRenderEPK5QChari@Base 5.3.0 1
 _ZNK16QFontEngineMulti9doKerningEP12QGlyphLayout6QFlagsIN11QFontEngine10ShaperFlagEE@Base 5.0.2 1
 _ZNK16QOpenGLFunctions14openGLFeaturesEv@Base 5.0.2
 _ZNK16QOpenGLFunctions16hasOpenGLFeatureENS_13OpenGLFeatureE@Base 5.0.2
 _ZNK16QPlatformMenuBar10metaObjectEv@Base 5.0.2 1
 _ZNK16QPlatformSurface7surfaceEv@Base 5.0.2 1
 _ZNK16QRegExpValidator10metaObjectEv@Base 5.0.2
 _ZNK16QRegExpValidator8validateER7QStringRi@Base 5.0.2
 _ZNK16QTextBlockFormat12tabPositionsEv@Base 5.0.2
 _ZNK16QTextFrameFormat10leftMarginEv@Base 5.0.2
 _ZNK16QTextFrameFormat11rightMarginEv@Base 5.0.2
 _ZNK16QTextFrameFormat12bottomMarginEv@Base 5.0.2
 _ZNK16QTextFrameFormat9topMarginEv@Base 5.0.2
 _ZNK17QAccessibleObject4rectEv@Base 5.0.2
 _ZNK17QAccessibleObject6objectEv@Base 5.0.2
 _ZNK17QAccessibleObject7childAtEii@Base 5.0.2
 _ZNK17QAccessibleObject7isValidEv@Base 5.0.2
 _ZNK17QAccessiblePlugin10metaObjectEv@Base 5.0.2
 _ZNK17QGridLayoutEngine10rowSpacingEiN2Qt11OrientationE@Base 5.3.0 1
 _ZNK17QGridLayoutEngine11columnCountEN2Qt11OrientationE@Base 5.3.0 1
 _ZNK17QGridLayoutEngine11fillRowDataEP18QGridLayoutRowDataPKdS3_N2Qt11OrientationEPK24QAbstractLayoutStyleInfo@Base 5.3.0 1
 _ZNK17QGridLayoutEngine11rowSizeHintEN2Qt8SizeHintEiNS0_11OrientationE@Base 5.3.0 1
 _ZNK17QGridLayoutEngine12controlTypesE10LayoutSide@Base 5.3.0 1
 _ZNK17QGridLayoutEngine12rowAlignmentEiN2Qt11OrientationE@Base 5.3.0 1
 _ZNK17QGridLayoutEngine15visualDirectionEv@Base 5.3.0 1
 _ZNK17QGridLayoutEngine16effectiveLastRowEN2Qt11OrientationE@Base 5.3.0 1
 _ZNK17QGridLayoutEngine16ensureGeometriesERK6QSizeFPK24QAbstractLayoutStyleInfo@Base 5.3.0 1
 _ZNK17QGridLayoutEngine16rowStretchFactorEiN2Qt11OrientationE@Base 5.3.0 1
 _ZNK17QGridLayoutEngine17effectiveFirstRowEN2Qt11OrientationE@Base 5.3.0 1
 _ZNK17QGridLayoutEngine18effectiveAlignmentEPK15QGridLayoutItem@Base 5.3.0 1
 _ZNK17QGridLayoutEngine20hasDynamicConstraintEv@Base 5.3.0 1
 _ZNK17QGridLayoutEngine21constraintOrientationEv@Base 5.3.0 1
 _ZNK17QGridLayoutEngine22ensureColumnAndRowDataEP18QGridLayoutRowDataP14QGridLayoutBoxPKdS5_N2Qt11OrientationEPK24QAbstractLayoutStyleInfo@Base 5.3.0 1
 _ZNK17QGridLayoutEngine23ensureDynamicConstraintEv@Base 5.3.0 1
 _ZNK17QGridLayoutEngine31ensureEffectiveFirstAndLastRowsEv@Base 5.3.0 1
 _ZNK17QGridLayoutEngine6itemAtEi@Base 5.3.0 1
 _ZNK17QGridLayoutEngine6itemAtEiiN2Qt11OrientationE@Base 5.3.0 1
 _ZNK17QGridLayoutEngine7spacingEN2Qt11OrientationEPK24QAbstractLayoutStyleInfo@Base 5.3.0 1
 _ZNK17QGridLayoutEngine8cellRectERK6QRectFiiiiPK24QAbstractLayoutStyleInfo@Base 5.3.0 1
 _ZNK17QGridLayoutEngine8rowCountEN2Qt11OrientationE@Base 5.3.0 1
 _ZNK17QGridLayoutEngine8sizeHintEN2Qt8SizeHintERK6QSizeFPK24QAbstractLayoutStyleInfo@Base 5.3.0 1
 _ZNK17QGridLayoutEngine9itemCountEv@Base 5.3.0 1
 _ZNK17QIconEnginePlugin10metaObjectEv@Base 5.0.2
 _ZNK17QInternalMimeData10metaObjectEv@Base 5.0.2 1
 _ZNK17QInternalMimeData12retrieveDataERK7QStringN8QVariant4TypeE@Base 5.0.2 1
 _ZNK17QInternalMimeData7formatsEv@Base 5.0.2 1
 _ZNK17QInternalMimeData9hasFormatERK7QString@Base 5.0.2 1
 _ZNK17QOffscreenSurface10metaObjectEv@Base 5.1.0
 _ZNK17QOffscreenSurface11surfaceTypeEv@Base 5.1.0
 _ZNK17QOffscreenSurface13surfaceHandleEv@Base 5.1.0
 _ZNK17QOffscreenSurface15requestedFormatEv@Base 5.1.0
 _ZNK17QOffscreenSurface4sizeEv@Base 5.1.0
 _ZNK17QOffscreenSurface6formatEv@Base 5.1.0
 _ZNK17QOffscreenSurface6handleEv@Base 5.1.0
 _ZNK17QOffscreenSurface6screenEv@Base 5.1.0
 _ZNK17QOffscreenSurface7isValidEv@Base 5.1.0
 _ZNK17QOpenGLExtensions18hasOpenGLExtensionENS_15OpenGLExtensionE@Base 5.0.2 1
 (arch=!armel !armhf)_ZNK17QOpenGLTimerQuery10metaObjectEv@Base 5.1.0
 (arch=!armel !armhf)_ZNK17QOpenGLTimerQuery13waitForResultEv@Base 5.1.0
 (arch=!armel !armhf)_ZNK17QOpenGLTimerQuery16waitForTimestampEv@Base 5.1.0
 (arch=!armel !armhf)_ZNK17QOpenGLTimerQuery17isResultAvailableEv@Base 5.1.0
 (arch=!armel !armhf)_ZNK17QOpenGLTimerQuery8objectIdEv@Base 5.1.0
 (arch=!armel !armhf)_ZNK17QOpenGLTimerQuery9isCreatedEv@Base 5.1.0
 _ZNK17QPagedPaintDevice10pageLayoutEv@Base 5.3.0
 _ZNK17QPagedPaintDevice10pageSizeMMEv@Base 5.0.2
 _ZNK17QPagedPaintDevice16devicePageLayoutEv@Base 5.3.0
 _ZNK17QPagedPaintDevice7marginsEv@Base 5.0.2
 _ZNK17QPagedPaintDevice8pageSizeEv@Base 5.0.2
 _ZNK17QPaintEngineState10clipRegionEv@Base 5.0.2
 _ZNK17QPaintEngineState11brushOriginEv@Base 5.0.2
 _ZNK17QPaintEngineState11renderHintsEv@Base 5.0.2
 _ZNK17QPaintEngineState13clipOperationEv@Base 5.0.2
 _ZNK17QPaintEngineState13isClipEnabledEv@Base 5.0.2
 _ZNK17QPaintEngineState14backgroundModeEv@Base 5.0.2
 _ZNK17QPaintEngineState15backgroundBrushEv@Base 5.0.2
 _ZNK17QPaintEngineState15compositionModeEv@Base 5.0.2
 _ZNK17QPaintEngineState17penNeedsResolvingEv@Base 5.0.2
 _ZNK17QPaintEngineState19brushNeedsResolvingEv@Base 5.0.2
 _ZNK17QPaintEngineState3penEv@Base 5.0.2
 _ZNK17QPaintEngineState4fontEv@Base 5.0.2
 _ZNK17QPaintEngineState5brushEv@Base 5.0.2
 _ZNK17QPaintEngineState6matrixEv@Base 5.0.2
 _ZNK17QPaintEngineState7opacityEv@Base 5.0.2
 _ZNK17QPaintEngineState7painterEv@Base 5.0.2
 _ZNK17QPaintEngineState8clipPathEv@Base 5.0.2
 _ZNK17QPaintEngineState9transformEv@Base 5.0.2
 _ZNK17QPdfEnginePrivate10pageMatrixEv@Base 5.0.2 1
 _ZNK17QPlatformMenuItem10metaObjectEv@Base 5.0.2 1
 _ZNK17QPlatformServices18desktopEnvironmentEv@Base 5.0.2 1
 _ZNK17QTextImageHandler10metaObjectEv@Base 5.0.2 1
 _ZNK17QTextInlineObject11formatIndexEv@Base 5.0.2
 _ZNK17QTextInlineObject12textPositionEv@Base 5.0.2
 _ZNK17QTextInlineObject13textDirectionEv@Base 5.0.2
 _ZNK17QTextInlineObject4rectEv@Base 5.0.2
 _ZNK17QTextInlineObject5widthEv@Base 5.0.2
 _ZNK17QTextInlineObject6ascentEv@Base 5.0.2
 _ZNK17QTextInlineObject6formatEv@Base 5.0.2
 _ZNK17QTextInlineObject6heightEv@Base 5.0.2
 _ZNK17QTextInlineObject7descentEv@Base 5.0.2
 _ZNK18QFileDialogOptions10acceptModeEv@Base 5.0.2 1
 _ZNK18QFileDialogOptions10testOptionENS_16FileDialogOptionE@Base 5.0.2 1
 _ZNK18QFileDialogOptions11nameFiltersEv@Base 5.0.2 1
 _ZNK18QFileDialogOptions11sidebarUrlsEv@Base 5.0.2 1
 _ZNK18QFileDialogOptions11windowTitleEv@Base 5.0.2 1
 _ZNK18QFileDialogOptions13defaultSuffixEv@Base 5.0.2 1
 _ZNK18QFileDialogOptions15mimeTypeFiltersEv@Base 5.2.0~alpha1 1
 _ZNK18QFileDialogOptions16initialDirectoryEv@Base 5.0.2 1
 _ZNK18QFileDialogOptions22initiallySelectedFilesEv@Base 5.0.2 1
 _ZNK18QFileDialogOptions27initiallySelectedNameFilterEv@Base 5.0.2 1
 _ZNK18QFileDialogOptions6filterEv@Base 5.0.2 1
 _ZNK18QFileDialogOptions7historyEv@Base 5.0.2 1
 _ZNK18QFileDialogOptions7optionsEv@Base 5.0.2 1
 _ZNK18QFileDialogOptions8fileModeEv@Base 5.0.2 1
 _ZNK18QFileDialogOptions8viewModeEv@Base 5.0.2 1
 _ZNK18QFileDialogOptions9labelTextENS_11DialogLabelE@Base 5.0.2 1
 _ZNK18QFontDialogOptions10testOptionENS_16FontDialogOptionE@Base 5.0.2 1
 _ZNK18QFontDialogOptions11windowTitleEv@Base 5.0.2 1
 _ZNK18QFontDialogOptions7optionsEv@Base 5.0.2 1
 _ZNK18QOpenGLDebugLogger10metaObjectEv@Base 5.1.0
 _ZNK18QOpenGLDebugLogger11loggingModeEv@Base 5.1.0
 _ZNK18QOpenGLDebugLogger14loggedMessagesEv@Base 5.1.0
 _ZNK18QOpenGLDebugLogger20maximumMessageLengthEv@Base 5.1.0
 _ZNK18QOpenGLDebugLogger9isLoggingEv@Base 5.1.0
 _ZNK18QOpenGLPaintDevice11paintEngineEv@Base 5.0.2
 _ZNK18QOpenGLPaintDevice12paintFlippedEv@Base 5.0.2
 _ZNK18QOpenGLPaintDevice13dotsPerMeterXEv@Base 5.0.2
 _ZNK18QOpenGLPaintDevice13dotsPerMeterYEv@Base 5.0.2
 _ZNK18QOpenGLPaintDevice4sizeEv@Base 5.0.2
 _ZNK18QOpenGLPaintDevice6metricEN12QPaintDevice17PaintDeviceMetricE@Base 5.0.2
 _ZNK18QOpenGLPaintDevice7contextEv@Base 5.0.2
 (arch=!armel !armhf)_ZNK18QOpenGLTimeMonitor10metaObjectEv@Base 5.1.0
 (arch=!armel !armhf)_ZNK18QOpenGLTimeMonitor11sampleCountEv@Base 5.1.0
 (arch=!armel !armhf)_ZNK18QOpenGLTimeMonitor14waitForSamplesEv@Base 5.1.0
 (arch=!armel !armhf)_ZNK18QOpenGLTimeMonitor16waitForIntervalsEv@Base 5.1.0
 (arch=!armel !armhf)_ZNK18QOpenGLTimeMonitor17isResultAvailableEv@Base 5.1.0
 (arch=!armel !armhf)_ZNK18QOpenGLTimeMonitor9isCreatedEv@Base 5.1.0
 (arch=!armel !armhf)_ZNK18QOpenGLTimeMonitor9objectIdsEv@Base 5.1.0
 _ZNK18QPlatformClipboard12supportsModeEN10QClipboard4ModeE@Base 5.0.2 1
 _ZNK18QPlatformClipboard8ownsModeEN10QClipboard4ModeE@Base 5.0.2 1
 _ZNK18QRasterPaintEngine11createStateEP13QPainterState@Base 5.0.2 1
 _ZNK18QRasterPaintEngine16clipBoundingRectEv@Base 5.0.2 1
 _ZNK18QRasterPaintEngine16coordinateOffsetEv@Base 5.0.2 1
 _ZNK18QRasterPaintEngine22shouldDrawCachedGlyphsEP11QFontEngineRK10QTransform@Base 5.1.0 1
 _ZNK18QRasterPaintEngine36requiresPretransformedGlyphPositionsEP11QFontEngineRK10QTransform@Base 5.1.0 1
 _ZNK18QRasterPaintEngine4sizeEv@Base 5.0.2 1
 _ZNK18QRasterPaintEngine8clipTypeEv@Base 5.0.2 1
 _ZNK18QStandardItemModel10headerDataEiN2Qt11OrientationEi@Base 5.0.2
 _ZNK18QStandardItemModel10metaObjectEv@Base 5.0.2
 _ZNK18QStandardItemModel11columnCountERK11QModelIndex@Base 5.0.2
 _ZNK18QStandardItemModel11hasChildrenERK11QModelIndex@Base 5.0.2
 _ZNK18QStandardItemModel13indexFromItemEPK13QStandardItem@Base 5.0.2
 _ZNK18QStandardItemModel13itemFromIndexERK11QModelIndex@Base 5.0.2
 _ZNK18QStandardItemModel13itemPrototypeEv@Base 5.0.2
 _ZNK18QStandardItemModel17invisibleRootItemEv@Base 5.0.2
 _ZNK18QStandardItemModel18verticalHeaderItemEi@Base 5.0.2
 _ZNK18QStandardItemModel20horizontalHeaderItemEi@Base 5.0.2
 _ZNK18QStandardItemModel20supportedDropActionsEv@Base 5.0.2
 _ZNK18QStandardItemModel4dataERK11QModelIndexi@Base 5.0.2
 _ZNK18QStandardItemModel4itemEii@Base 5.0.2
 _ZNK18QStandardItemModel5flagsERK11QModelIndex@Base 5.0.2
 _ZNK18QStandardItemModel5indexEiiRK11QModelIndex@Base 5.0.2
 _ZNK18QStandardItemModel6parentERK11QModelIndex@Base 5.0.2
 _ZNK18QStandardItemModel7siblingEiiRK11QModelIndex@Base 5.0.2
 _ZNK18QStandardItemModel8itemDataERK11QModelIndex@Base 5.0.2
 _ZNK18QStandardItemModel8mimeDataERK5QListI11QModelIndexE@Base 5.0.2
 _ZNK18QStandardItemModel8rowCountERK11QModelIndex@Base 5.0.2
 _ZNK18QStandardItemModel8sortRoleEv@Base 5.0.2
 _ZNK18QStandardItemModel9findItemsERK7QString6QFlagsIN2Qt9MatchFlagEEi@Base 5.0.2
 _ZNK18QStandardItemModel9mimeTypesEv@Base 5.0.2
 _ZNK18QSyntaxHighlighter10metaObjectEv@Base 5.0.2
 _ZNK18QSyntaxHighlighter12currentBlockEv@Base 5.0.2
 _ZNK18QSyntaxHighlighter17currentBlockStateEv@Base 5.0.2
 _ZNK18QSyntaxHighlighter18previousBlockStateEv@Base 5.0.2
 _ZNK18QSyntaxHighlighter20currentBlockUserDataEv@Base 5.0.2
 _ZNK18QSyntaxHighlighter6formatEi@Base 5.0.2
 _ZNK18QSyntaxHighlighter8documentEv@Base 5.0.2
 _ZNK18QTextCursorPrivate11blockLayoutER10QTextBlock@Base 5.0.2 1
 _ZNK18QTextCursorPrivate18selectedTableCellsEPiS0_S0_S0_@Base 5.0.2 1
 _ZNK18QTextCursorPrivate21complexSelectionTableEv@Base 5.0.2 1
 _ZNK18QTextCursorPrivate9canDeleteEi@Base 5.0.2 1
 _ZNK18QTextureGlyphCache18textureMapForGlyphEj6QFixed@Base 5.0.2 1
 _ZNK18QTextureGlyphCache30calculateSubPixelPositionCountEj@Base 5.0.2 1
 _ZNK19QColorDialogOptions10testOptionENS_17ColorDialogOptionE@Base 5.0.2 1
 _ZNK19QColorDialogOptions11windowTitleEv@Base 5.0.2 1
 _ZNK19QColorDialogOptions7optionsEv@Base 5.0.2 1
 _ZNK19QOpenGLContextGroup10metaObjectEv@Base 5.0.2
 _ZNK19QOpenGLContextGroup6sharesEv@Base 5.0.2
 _ZNK19QOpenGLDebugMessage2idEv@Base 5.1.0
 _ZNK19QOpenGLDebugMessage4typeEv@Base 5.1.0
 _ZNK19QOpenGLDebugMessage6sourceEv@Base 5.1.0
 _ZNK19QOpenGLDebugMessage7messageEv@Base 5.1.0
 _ZNK19QOpenGLDebugMessage8severityEv@Base 5.1.0
 _ZNK19QOpenGLDebugMessageeqERKS_@Base 5.1.0
 _ZNK19QPainterPathStroker10dashOffsetEv@Base 5.0.2
 _ZNK19QPainterPathStroker10miterLimitEv@Base 5.0.2
 _ZNK19QPainterPathStroker11dashPatternEv@Base 5.0.2
 _ZNK19QPainterPathStroker12createStrokeERK12QPainterPath@Base 5.0.2
 _ZNK19QPainterPathStroker14curveThresholdEv@Base 5.0.2
 _ZNK19QPainterPathStroker5widthEv@Base 5.0.2
 _ZNK19QPainterPathStroker8capStyleEv@Base 5.0.2
 _ZNK19QPainterPathStroker9joinStyleEv@Base 5.0.2
 _ZNK19QScrollPrepareEvent10contentPosEv@Base 5.0.2
 _ZNK19QScrollPrepareEvent12viewportSizeEv@Base 5.0.2
 _ZNK19QScrollPrepareEvent15contentPosRangeEv@Base 5.0.2
 _ZNK19QScrollPrepareEvent8startPosEv@Base 5.0.2
 _ZNK19QTextDocumentLayout10idealWidthEv@Base 5.0.2 1
 _ZNK19QTextDocumentLayout10metaObjectEv@Base 5.0.2 1
 _ZNK19QTextDocumentLayout11cursorWidthEv@Base 5.0.2 1
 _ZNK19QTextDocumentLayout12documentSizeEv@Base 5.0.2 1
 _ZNK19QTextDocumentLayout12layoutStatusEv@Base 5.0.2 1
 _ZNK19QTextDocumentLayout16dynamicPageCountEv@Base 5.0.2 1
 _ZNK19QTextDocumentLayout17blockBoundingRectERK10QTextBlock@Base 5.0.2 1
 _ZNK19QTextDocumentLayout17frameBoundingRectEP10QTextFrame@Base 5.0.2 1
 _ZNK19QTextDocumentLayout17tableBoundingRectEP10QTextTable@Base 5.0.2 1
 _ZNK19QTextDocumentLayout19contentHasAlignmentEv@Base 5.0.2 1
 _ZNK19QTextDocumentLayout19dynamicDocumentSizeEv@Base 5.0.2 1
 _ZNK19QTextDocumentLayout21tableCellBoundingRectEP10QTextTableRK14QTextTableCell@Base 5.0.2 1
 _ZNK19QTextDocumentLayout7hitTestERK7QPointFN2Qt15HitTestAccuracyE@Base 5.0.2 1
 _ZNK19QTextDocumentLayout9pageCountEv@Base 5.0.2 1
 _ZNK19QTextDocumentWriter5codecEv@Base 5.0.2
 _ZNK19QTextDocumentWriter6deviceEv@Base 5.0.2
 _ZNK19QTextDocumentWriter6formatEv@Base 5.0.2
 _ZNK19QTextDocumentWriter8fileNameEv@Base 5.0.2
 _ZNK20QAccessibleInterface10focusChildEv@Base 5.0.2
 _ZNK20QAccessibleInterface15backgroundColorEv@Base 5.0.2
 _ZNK20QAccessibleInterface15foregroundColorEv@Base 5.0.2
 _ZNK20QAccessibleInterface6windowEv@Base 5.0.2
 _ZNK20QAccessibleInterface9relationsE6QFlagsIN11QAccessible12RelationFlagEE@Base 5.0.2
 _ZNK20QOpenGLShaderProgram10metaObjectEv@Base 5.0.2
 _ZNK20QOpenGLShaderProgram15uniformLocationEPKc@Base 5.0.2
 _ZNK20QOpenGLShaderProgram15uniformLocationERK10QByteArray@Base 5.0.2
 _ZNK20QOpenGLShaderProgram15uniformLocationERK7QString@Base 5.0.2
 _ZNK20QOpenGLShaderProgram16patchVertexCountEv@Base 5.1.0
 _ZNK20QOpenGLShaderProgram17attributeLocationEPKc@Base 5.0.2
 _ZNK20QOpenGLShaderProgram17attributeLocationERK10QByteArray@Base 5.0.2
 _ZNK20QOpenGLShaderProgram17attributeLocationERK7QString@Base 5.0.2
 _ZNK20QOpenGLShaderProgram25maxGeometryOutputVerticesEv@Base 5.1.0
 _ZNK20QOpenGLShaderProgram30defaultInnerTessellationLevelsEv@Base 5.1.0
 _ZNK20QOpenGLShaderProgram30defaultOuterTessellationLevelsEv@Base 5.1.0
 _ZNK20QOpenGLShaderProgram3logEv@Base 5.0.2
 _ZNK20QOpenGLShaderProgram7shadersEv@Base 5.0.2
 _ZNK20QOpenGLShaderProgram8isLinkedEv@Base 5.0.2
 _ZNK20QOpenGLShaderProgram9programIdEv@Base 5.0.2
 _ZNK20QPictureFormatPlugin10metaObjectEv@Base 5.0.2
 _ZNK20QPlatformIntegration10themeNamesEv@Base 5.0.2 1
 _ZNK20QPlatformIntegration12fontDatabaseEv@Base 5.0.2 1
 _ZNK20QPlatformIntegration12inputContextEv@Base 5.0.2 1
 _ZNK20QPlatformIntegration12possibleKeysEPK9QKeyEvent@Base 5.0.2 1
 _ZNK20QPlatformIntegration13accessibilityEv@Base 5.0.2 1
 _ZNK20QPlatformIntegration13hasCapabilityENS_10CapabilityE@Base 5.0.2 1
 _ZNK20QPlatformIntegration15nativeInterfaceEv@Base 5.0.2 1
 _ZNK20QPlatformIntegration18defaultWindowStateE6QFlagsIN2Qt10WindowTypeEE@Base 5.2.0~rc1 1
 _ZNK20QPlatformIntegration19createPlatformThemeERK7QString@Base 5.0.2 1
 _ZNK20QPlatformIntegration20createPlatformPixmapEN15QPlatformPixmap9PixelTypeE@Base 5.0.2 1
 _ZNK20QPlatformIntegration22createImagePaintEngineEP12QPaintDevice@Base 5.0.2 1
 _ZNK20QPlatformIntegration22queryKeyboardModifiersEv@Base 5.0.2 1
 _ZNK20QPlatformIntegration27createPlatformOpenGLContextEP14QOpenGLContext@Base 5.0.2 1
 _ZNK20QPlatformIntegration28createPlatformSessionManagerERK7QStringS2_@Base 5.2.0~alpha1 1
 _ZNK20QPlatformIntegration30createPlatformOffscreenSurfaceEP17QOffscreenSurface@Base 5.1.0 1
 _ZNK20QPlatformIntegration33createPlatformSharedGraphicsCacheEPKc@Base 5.0.2 1
 _ZNK20QPlatformIntegration4dragEv@Base 5.0.2 1
 _ZNK20QPlatformIntegration8servicesEv@Base 5.0.2 1
 _ZNK20QPlatformIntegration9clipboardEv@Base 5.0.2 1
 _ZNK20QPlatformIntegration9styleHintENS_9StyleHintE@Base 5.0.2 1
 _ZNK20QPlatformTextureList10metaObjectEv@Base 5.3.0 1
 _ZNK20QPlatformTextureList5countEv@Base 5.3.0 1
 _ZNK20QPlatformTextureList8geometryEi@Base 5.3.0 1
 _ZNK20QPlatformTextureList8isLockedEv@Base 5.3.0 1
 _ZNK20QPlatformTextureList9textureIdEi@Base 5.3.0 1
 _ZNK20QPlatformThemePlugin10metaObjectEv@Base 5.0.2 1
 _ZNK21QMessageDialogOptions11windowTitleEv@Base 5.2.0~alpha1 1
 _ZNK21QMessageDialogOptions12detailedTextEv@Base 5.2.0~alpha1 1
 _ZNK21QMessageDialogOptions15informativeTextEv@Base 5.2.0~alpha1 1
 _ZNK21QMessageDialogOptions15standardButtonsEv@Base 5.2.0~alpha1 1
 _ZNK21QMessageDialogOptions4iconEv@Base 5.2.0~alpha1 1
 _ZNK21QMessageDialogOptions4textEv@Base 5.2.0~alpha1 1
 _ZNK21QOpenGL2PaintEngineEx11createStateEP13QPainterState@Base 5.0.2 1
 _ZNK21QOpenGL2PaintEngineEx22isNativePaintingActiveEv@Base 5.0.2 1
 _ZNK21QOpenGL2PaintEngineEx22shouldDrawCachedGlyphsEP11QFontEngineRK10QTransform@Base 5.1.0 1
 _ZNK21QOpenGLTextureBlitter9isCreatedEv@Base 5.3.0 1
 _ZNK21QOpenGLVersionProfile11hasProfilesEv@Base 5.1.0
 _ZNK21QOpenGLVersionProfile15isLegacyVersionEv@Base 5.1.0
 _ZNK21QOpenGLVersionProfile7isValidEv@Base 5.1.0
 _ZNK21QOpenGLVersionProfile7profileEv@Base 5.1.0
 _ZNK21QOpenGLVersionProfile7versionEv@Base 5.1.0
 _ZNK21QPaintEngineExPrivate17hasClipOperationsEv@Base 5.0.2 1
 _ZNK21QPlatformBackingStore6windowEv@Base 5.0.2 1
 _ZNK21QPlatformBackingStore7toImageEv@Base 5.3.0 1
 _ZNK21QPlatformBackingStore9toTextureERK7QRegionP5QSize@Base 5.3.0 1
 _ZNK21QPlatformDialogHelper10metaObjectEv@Base 5.0.2 1
 _ZNK21QPlatformDialogHelper9styleHintENS_9StyleHintE@Base 5.0.2 1
 _ZNK21QPlatformFontDatabase11defaultFontEv@Base 5.0.2 1
 _ZNK21QPlatformFontDatabase13standardSizesEv@Base 5.0.2 1
 _ZNK21QPlatformFontDatabase18fallbacksForFamilyERK7QStringN5QFont5StyleENS3_9StyleHintEN5QChar6ScriptE@Base 5.1.0 1
 _ZNK21QPlatformFontDatabase19fontsAlwaysScalableEv@Base 5.0.2 1
 _ZNK21QPlatformFontDatabase19isPrivateFontFamilyERK7QString@Base 5.3.2 1
 _ZNK21QPlatformFontDatabase22resolveFontFamilyAliasERK7QString@Base 5.0.2 1
 _ZNK21QPlatformFontDatabase7fontDirEv@Base 5.0.2 1
 _ZNK21QPlatformInputContext10metaObjectEv@Base 5.0.2 1
 _ZNK21QPlatformInputContext11isAnimatingEv@Base 5.0.2 1
 _ZNK21QPlatformInputContext12keyboardRectEv@Base 5.0.2 1
 _ZNK21QPlatformInputContext14inputDirectionEv@Base 5.0.2 1
 _ZNK21QPlatformInputContext19inputMethodAcceptedEv@Base 5.0.2 1
 _ZNK21QPlatformInputContext19isInputPanelVisibleEv@Base 5.0.2 1
 _ZNK21QPlatformInputContext6localeEv@Base 5.0.2 1
 _ZNK21QPlatformInputContext7isValidEv@Base 5.0.2 1
 _ZNK21QPlatformScreenBuffer11isDestroyedEv@Base 5.0.2 1
 _ZNK21QPlatformScreenBuffer7isReadyEv@Base 5.0.2 1
 _ZNK21QRasterPlatformPixmap11paintEngineEv@Base 5.0.2 1
 _ZNK21QRasterPlatformPixmap15hasAlphaChannelEv@Base 5.0.2 1
 _ZNK21QRasterPlatformPixmap16devicePixelRatioEv@Base 5.0.2 1
 _ZNK21QRasterPlatformPixmap30createCompatiblePlatformPixmapEv@Base 5.0.2 1
 _ZNK21QRasterPlatformPixmap6metricEN12QPaintDevice17PaintDeviceMetricE@Base 5.0.2 1
 _ZNK21QRasterPlatformPixmap7toImageERK5QRect@Base 5.0.2 1
 _ZNK21QRasterPlatformPixmap7toImageEv@Base 5.0.2 1
 _ZNK21QTextDocumentFragment11toPlainTextEv@Base 5.0.2
 _ZNK21QTextDocumentFragment6toHtmlERK10QByteArray@Base 5.0.2
 _ZNK21QTextDocumentFragment7isEmptyEv@Base 5.0.2
 _ZNK21QTextFormatCollection15hasFormatCachedERK11QTextFormat@Base 5.0.2 1
 _ZNK21QTextFormatCollection17objectFormatIndexEi@Base 5.0.2 1
 _ZNK21QTextFormatCollection6formatEi@Base 5.0.2 1
 _ZNK22QAccessibleApplication10childCountEv@Base 5.0.2
 _ZNK22QAccessibleApplication10focusChildEv@Base 5.0.2
 _ZNK22QAccessibleApplication12indexOfChildEPK20QAccessibleInterface@Base 5.0.2
 _ZNK22QAccessibleApplication4roleEv@Base 5.0.2
 _ZNK22QAccessibleApplication4textEN11QAccessible4TextE@Base 5.0.2
 _ZNK22QAccessibleApplication5childEi@Base 5.0.2
 _ZNK22QAccessibleApplication5stateEv@Base 5.0.2
 _ZNK22QAccessibleApplication6parentEv@Base 5.0.2
 _ZNK22QAccessibleApplication6windowEv@Base 5.0.2
 _ZNK22QGuiApplicationPrivate15isWindowBlockedEP7QWindowPS1_@Base 5.0.2 1
 _ZNK22QInputMethodQueryEvent5valueEN2Qt16InputMethodQueryE@Base 5.0.2
 _ZNK22QPlatformOpenGLContext24defaultFramebufferObjectEP16QPlatformSurface@Base 5.0.2 1
 _ZNK22QPlatformOpenGLContext7contextEv@Base 5.0.2 1
 _ZNK23QAccessibleBridgePlugin10metaObjectEv@Base 5.0.2
 _ZNK23QPlatformDragQtResponse10answerRectEv@Base 5.0.2 1
 _ZNK23QPlatformDropQtResponse10isAcceptedEv@Base 5.0.2 1
 _ZNK23QPlatformDropQtResponse14acceptedActionEv@Base 5.0.2 1
 _ZNK23QPlatformSessionManager10sessionKeyEv@Base 5.2.0~alpha1 1
 _ZNK23QPlatformSessionManager11restartHintEv@Base 5.2.0~alpha1 1
 _ZNK23QPlatformSessionManager14discardCommandEv@Base 5.2.0~alpha1 1
 _ZNK23QPlatformSessionManager14restartCommandEv@Base 5.2.0~alpha1 1
 _ZNK23QPlatformSessionManager8isPhase2Ev@Base 5.2.0~alpha1 1
 _ZNK23QPlatformSessionManager9sessionIdEv@Base 5.2.0~alpha1 1
 _ZNK23QPlatformSystemTrayIcon10createMenuEv@Base 5.3.0 1
 _ZNK23QPlatformSystemTrayIcon10metaObjectEv@Base 5.0.2 1
 _ZNK23QWindowStateChangeEvent10isOverrideEv@Base 5.0.2
 _ZNK24QAbstractLayoutStyleInfo10hasChangedEv@Base 5.3.0 1
 _ZNK24QAccessibleTextInterface12textAtOffsetEiN11QAccessible16TextBoundaryTypeEPiS2_@Base 5.1.0 1
 _ZNK24QAccessibleTextInterface15textAfterOffsetEiN11QAccessible16TextBoundaryTypeEPiS2_@Base 5.1.0 1
 _ZNK24QAccessibleTextInterface16textBeforeOffsetEiN11QAccessible16TextBoundaryTypeEPiS2_@Base 5.1.0 1
 _ZNK24QBlittablePlatformPixmap11paintEngineEv@Base 5.0.2 1
 _ZNK24QBlittablePlatformPixmap15hasAlphaChannelEv@Base 5.0.2 1
 _ZNK24QBlittablePlatformPixmap16devicePixelRatioEv@Base 5.0.2 1
 _ZNK24QBlittablePlatformPixmap6metricEN12QPaintDevice17PaintDeviceMetricE@Base 5.0.2 1
 _ZNK24QBlittablePlatformPixmap7toImageEv@Base 5.0.2 1
 _ZNK24QBlittablePlatformPixmap9blittableEv@Base 5.0.2 1
 _ZNK24QOpenGLCustomShaderStage6sourceEv@Base 5.0.2 1
 _ZNK24QOpenGLFramebufferObject10attachmentEv@Base 5.0.2
 _ZNK24QOpenGLFramebufferObject4sizeEv@Base 5.0.2
 _ZNK24QOpenGLFramebufferObject6formatEv@Base 5.0.2
 _ZNK24QOpenGLFramebufferObject6handleEv@Base 5.0.2
 _ZNK24QOpenGLFramebufferObject7isBoundEv@Base 5.0.2
 _ZNK24QOpenGLFramebufferObject7isValidEv@Base 5.0.2
 _ZNK24QOpenGLFramebufferObject7textureEv@Base 5.0.2
 _ZNK24QOpenGLFramebufferObject7toImageEv@Base 5.0.2
 _ZNK24QOpenGLTextureGlyphCache12glyphPaddingEv@Base 5.0.2 1
 _ZNK24QOpenGLTextureGlyphCache15maxTextureWidthEv@Base 5.0.2 1
 _ZNK24QOpenGLTextureGlyphCache16maxTextureHeightEv@Base 5.0.2 1
 _ZNK24QOpenGLVertexArrayObject10metaObjectEv@Base 5.1.0
 _ZNK24QOpenGLVertexArrayObject8objectIdEv@Base 5.1.0
 _ZNK24QOpenGLVertexArrayObject9isCreatedEv@Base 5.1.0
 _ZNK24QPlatformNativeInterface10metaObjectEv@Base 5.0.2 1
 _ZNK24QPlatformNativeInterface14windowPropertyEP15QPlatformWindowRK7QString@Base 5.0.2 1
 _ZNK24QPlatformNativeInterface14windowPropertyEP15QPlatformWindowRK7QStringRK8QVariant@Base 5.0.2 1
 _ZNK24QPlatformNativeInterface16windowPropertiesEP15QPlatformWindow@Base 5.0.2 1
 _ZNK24QSupportedWritingSystems9supportedEN13QFontDatabase13WritingSystemE@Base 5.0.2 1
 _ZNK25QPlatformFileDialogHelper10metaObjectEv@Base 5.0.2 1
 _ZNK25QPlatformFileDialogHelper14isSupportedUrlERK4QUrl@Base 5.2.0~alpha1 1
 _ZNK25QPlatformFileDialogHelper7optionsEv@Base 5.0.2 1
 _ZNK25QPlatformFontDialogHelper10metaObjectEv@Base 5.0.2 1
 _ZNK25QPlatformFontDialogHelper7optionsEv@Base 5.0.2 1
 _ZNK25QPlatformOffscreenSurface16offscreenSurfaceEv@Base 5.1.0
 _ZNK25QPlatformOffscreenSurface6formatEv@Base 5.1.0
 _ZNK25QPlatformOffscreenSurface6screenEv@Base 5.1.0
 _ZNK25QPlatformOffscreenSurface7isValidEv@Base 5.1.0
 _ZNK26QAccessibleActionInterface19localizedActionNameERK7QString@Base 5.0.2 1
 _ZNK26QAccessibleActionInterface26localizedActionDescriptionERK7QString@Base 5.0.2 1
 _ZNK26QOpenGLEngineShaderManager10metaObjectEv@Base 5.0.2 1
 _ZNK26QPlatformColorDialogHelper10metaObjectEv@Base 5.0.2 1
 _ZNK26QPlatformColorDialogHelper7optionsEv@Base 5.0.2 1
 _ZNK26QPlatformIntegrationPlugin10metaObjectEv@Base 5.0.2 1
 _ZNK26QPlatformScreenPageFlipper10metaObjectEv@Base 5.0.2 1
 _ZNK27QAbstractTextDocumentLayout10metaObjectEv@Base 5.0.2
 _ZNK27QAbstractTextDocumentLayout11paintDeviceEv@Base 5.0.2
 _ZNK27QAbstractTextDocumentLayout16handlerForObjectEi@Base 5.0.2
 _ZNK27QAbstractTextDocumentLayout8anchorAtERK7QPointF@Base 5.0.2
 _ZNK27QAbstractTextDocumentLayout8documentEv@Base 5.0.2
 _ZNK27QOpenGLPixelTransferOptions10skipImagesEv@Base 5.2.0~alpha1
 _ZNK27QOpenGLPixelTransferOptions10skipPixelsEv@Base 5.2.0~alpha1
 _ZNK27QOpenGLPixelTransferOptions11imageHeightEv@Base 5.2.0~alpha1
 _ZNK27QOpenGLPixelTransferOptions18isSwapBytesEnabledEv@Base 5.2.0~alpha1
 _ZNK27QOpenGLPixelTransferOptions26isLeastSignificantBitFirstEv@Base 5.2.0~alpha1
 _ZNK27QOpenGLPixelTransferOptions8skipRowsEv@Base 5.2.0~alpha1
 _ZNK27QOpenGLPixelTransferOptions9alignmentEv@Base 5.2.0~alpha1
 _ZNK27QOpenGLPixelTransferOptions9rowLengthEv@Base 5.2.0~alpha1
 _ZNK27QPlatformInputContextPlugin10metaObjectEv@Base 5.0.2 1
 _ZNK27QRegularExpressionValidator10metaObjectEv@Base 5.1.0
 _ZNK27QRegularExpressionValidator17regularExpressionEv@Base 5.1.0
 _ZNK27QRegularExpressionValidator8validateER7QStringRi@Base 5.1.0
 _ZNK28QApplicationStateChangeEvent16applicationStateEv@Base 5.1.0
 _ZNK28QPlatformMessageDialogHelper10metaObjectEv@Base 5.2.0~alpha1 1
 _ZNK28QPlatformMessageDialogHelper7optionsEv@Base 5.2.0~alpha1 1
 _ZNK28QPlatformSharedGraphicsCache10metaObjectEv@Base 5.0.2
 _ZNK29QScreenOrientationChangeEvent11orientationEv@Base 5.0.2
 _ZNK29QScreenOrientationChangeEvent6screenEv@Base 5.0.2
 _ZNK30QOpenGLFramebufferObjectFormat10attachmentEv@Base 5.0.2
 _ZNK30QOpenGLFramebufferObjectFormat13textureTargetEv@Base 5.0.2
 _ZNK30QOpenGLFramebufferObjectFormat21internalTextureFormatEv@Base 5.0.2
 _ZNK30QOpenGLFramebufferObjectFormat6mipmapEv@Base 5.0.2
 _ZNK30QOpenGLFramebufferObjectFormat7samplesEv@Base 5.0.2
 _ZNK30QOpenGLFramebufferObjectFormateqERKS_@Base 5.0.2
 _ZNK30QOpenGLFramebufferObjectFormatneERKS_@Base 5.0.2
 _ZNK31QOpenGLMultiGroupSharedResource9resourcesEv@Base 5.0.2 1
 _ZNK4QCss11Declaration10brushValueERK8QPalette@Base 5.0.2
 _ZNK4QCss11Declaration10colorValueERK8QPalette@Base 5.0.2
 _ZNK4QCss11Declaration10styleValueEv@Base 5.0.2
 _ZNK4QCss11Declaration11brushValuesEP6QBrushRK8QPalette@Base 5.0.2
 _ZNK4QCss11Declaration11colorValuesEP6QColorRK8QPalette@Base 5.0.2
 _ZNK4QCss11Declaration11originValueEv@Base 5.0.2
 _ZNK4QCss11Declaration11repeatValueEv@Base 5.0.2
 _ZNK4QCss11Declaration11styleValuesEPNS_11BorderStyleE@Base 5.0.2
 _ZNK4QCss11Declaration13positionValueEv@Base 5.0.2
 _ZNK4QCss11Declaration14alignmentValueEv@Base 5.0.2
 _ZNK4QCss11Declaration15attachmentValueEv@Base 5.0.2
 _ZNK4QCss11Declaration16borderImageValueEP7QStringPiPNS_8TileModeES5_@Base 5.0.2
 _ZNK4QCss11Declaration18styleFeaturesValueEv@Base 5.0.2
 _ZNK4QCss11Declaration8intValueEPiPKc@Base 5.0.2
 _ZNK4QCss11Declaration8uriValueEv@Base 5.0.2
 _ZNK4QCss11Declaration9iconValueEv@Base 5.0.2
 _ZNK4QCss11Declaration9realValueEPdPKc@Base 5.2.0
 _ZNK4QCss11Declaration9rectValueEv@Base 5.0.2
 _ZNK4QCss11Declaration9sizeValueEv@Base 5.0.2
 _ZNK4QCss13StyleSelector14nodeNameEqualsENS0_7NodePtrERK7QString@Base 5.0.2 1
 _ZNK4QCss13StyleSelector7nodeIdsENS0_7NodePtrE@Base 5.0.2 1
 _ZNK4QCss5Value8toStringEv@Base 5.0.2
 _ZNK4QCss6Parser13unquotedLexemEv@Base 5.0.2 1
 _ZNK4QCss6Symbol5lexemEv@Base 5.0.2
 _ZNK4QCss8Selector11pseudoClassEPy@Base 5.0.2
 _ZNK4QCss8Selector11specificityEv@Base 5.0.2
 _ZNK4QCss8Selector13pseudoElementEv@Base 5.0.2
 _ZNK4QPen10dashOffsetEv@Base 5.0.2
 _ZNK4QPen10isCosmeticEv@Base 5.0.2
 _ZNK4QPen10miterLimitEv@Base 5.0.2
 _ZNK4QPen11dashPatternEv@Base 5.0.2
 _ZNK4QPen5brushEv@Base 5.0.2
 _ZNK4QPen5colorEv@Base 5.0.2
 _ZNK4QPen5styleEv@Base 5.0.2
 _ZNK4QPen5widthEv@Base 5.0.2
 _ZNK4QPen6widthFEv@Base 5.0.2
 _ZNK4QPen7isSolidEv@Base 5.0.2
 _ZNK4QPen8capStyleEv@Base 5.0.2
 _ZNK4QPen9joinStyleEv@Base 5.0.2
 _ZNK4QPencv8QVariantEv@Base 5.0.2
 _ZNK4QPeneqERKS_@Base 5.0.2
 _ZNK5QDrag10dragCursorEN2Qt10DropActionE@Base 5.0.2
 _ZNK5QDrag10metaObjectEv@Base 5.0.2
 _ZNK5QDrag13defaultActionEv@Base 5.0.2
 _ZNK5QDrag16supportedActionsEv@Base 5.0.2
 _ZNK5QDrag6pixmapEv@Base 5.0.2
 _ZNK5QDrag6sourceEv@Base 5.0.2
 _ZNK5QDrag6targetEv@Base 5.0.2
 _ZNK5QDrag7hotSpotEv@Base 5.0.2
 _ZNK5QDrag8mimeDataEv@Base 5.0.2
 _ZNK5QFont10exactMatchEv@Base 5.0.2
 _ZNK5QFont10fixedPitchEv@Base 5.0.2
 _ZNK5QFont10pointSizeFEv@Base 5.0.2
 _ZNK5QFont11wordSpacingEv@Base 5.0.2
 _ZNK5QFont13defaultFamilyEv@Base 5.0.2
 _ZNK5QFont13letterSpacingEv@Base 5.0.2
 _ZNK5QFont13styleStrategyEv@Base 5.0.2
 _ZNK5QFont14capitalizationEv@Base 5.0.2
 _ZNK5QFont14lastResortFontEv@Base 5.0.2
 _ZNK5QFont16lastResortFamilyEv@Base 5.0.2
 _ZNK5QFont17hintingPreferenceEv@Base 5.0.2
 _ZNK5QFont17letterSpacingTypeEv@Base 5.0.2
 _ZNK5QFont3keyEv@Base 5.0.2
 _ZNK5QFont5styleEv@Base 5.0.2
 _ZNK5QFont6familyEv@Base 5.0.2
 _ZNK5QFont6weightEv@Base 5.0.2
 _ZNK5QFont7kerningEv@Base 5.0.2
 _ZNK5QFont7rawModeEv@Base 5.0.2
 _ZNK5QFont7rawNameEv@Base 5.0.2
 _ZNK5QFont7resolveERKS_@Base 5.0.2
 _ZNK5QFont7stretchEv@Base 5.0.2
 _ZNK5QFont8isCopyOfERKS_@Base 5.0.2
 _ZNK5QFont8overlineEv@Base 5.0.2
 _ZNK5QFont8toStringEv@Base 5.0.2
 _ZNK5QFont9pixelSizeEv@Base 5.0.2
 _ZNK5QFont9pointSizeEv@Base 5.0.2
 _ZNK5QFont9strikeOutEv@Base 5.0.2
 _ZNK5QFont9styleHintEv@Base 5.0.2
 _ZNK5QFont9styleNameEv@Base 5.0.2
 _ZNK5QFont9underlineEv@Base 5.0.2
 _ZNK5QFontcv8QVariantEv@Base 5.0.2
 _ZNK5QFonteqERKS_@Base 5.0.2
 _ZNK5QFontltERKS_@Base 5.0.2
 _ZNK5QFontneERKS_@Base 5.0.2
 _ZNK5QIcon10actualSizeEP7QWindowRK5QSizeNS_4ModeENS_5StateE@Base 5.1.0
 _ZNK5QIcon10actualSizeERK5QSizeNS_4ModeENS_5StateE@Base 5.0.2
 _ZNK5QIcon10isDetachedEv@Base 5.0.2
 _ZNK5QIcon14availableSizesENS_4ModeENS_5StateE@Base 5.0.2
 _ZNK5QIcon4nameEv@Base 5.0.2
 _ZNK5QIcon5paintEP8QPainterRK5QRect6QFlagsIN2Qt13AlignmentFlagEENS_4ModeENS_5StateE@Base 5.0.2
 _ZNK5QIcon6isNullEv@Base 5.0.2
 _ZNK5QIcon6pixmapEP7QWindowRK5QSizeNS_4ModeENS_5StateE@Base 5.1.0
 _ZNK5QIcon6pixmapERK5QSizeNS_4ModeENS_5StateE@Base 5.0.2
 _ZNK5QIcon8cacheKeyEv@Base 5.0.2
 _ZNK5QIconcv8QVariantEv@Base 5.0.2
 _ZNK6QBrush12textureImageEv@Base 5.0.2
 _ZNK6QBrush7textureEv@Base 5.0.2
 _ZNK6QBrush8gradientEv@Base 5.0.2
 _ZNK6QBrush8isOpaqueEv@Base 5.0.2
 _ZNK6QBrushcv8QVariantEv@Base 5.0.2
 _ZNK6QBrusheqERKS_@Base 5.0.2
 _ZNK6QColor10lightnessFEv@Base 5.0.2
 _ZNK6QColor10saturationEv@Base 5.0.2
 _ZNK6QColor11saturationFEv@Base 5.0.2
 _ZNK6QColor13hslSaturationEv@Base 5.0.2
 _ZNK6QColor13hsvSaturationEv@Base 5.0.2
 _ZNK6QColor14hslSaturationFEv@Base 5.0.2
 _ZNK6QColor14hsvSaturationFEv@Base 5.0.2
 _ZNK6QColor3hueEv@Base 5.0.2
 _ZNK6QColor3redEv@Base 5.0.2
 _ZNK6QColor3rgbEv@Base 5.0.2
 _ZNK6QColor4blueEv@Base 5.0.2
 _ZNK6QColor4cyanEv@Base 5.0.2
 _ZNK6QColor4darkEi@Base 5.0.2
 _ZNK6QColor4hueFEv@Base 5.0.2
 _ZNK6QColor4nameENS_10NameFormatE@Base 5.2.0~alpha1
 _ZNK6QColor4nameEv@Base 5.0.2
 _ZNK6QColor4redFEv@Base 5.0.2
 _ZNK6QColor4rgbaEv@Base 5.0.2
 _ZNK6QColor5alphaEv@Base 5.0.2
 _ZNK6QColor5blackEv@Base 5.0.2
 _ZNK6QColor5blueFEv@Base 5.0.2
 _ZNK6QColor5cyanFEv@Base 5.0.2
 _ZNK6QColor5greenEv@Base 5.0.2
 _ZNK6QColor5lightEi@Base 5.0.2
 _ZNK6QColor5toHslEv@Base 5.0.2
 _ZNK6QColor5toHsvEv@Base 5.0.2
 _ZNK6QColor5toRgbEv@Base 5.0.2
 _ZNK6QColor5valueEv@Base 5.0.2
 _ZNK6QColor6alphaFEv@Base 5.0.2
 _ZNK6QColor6blackFEv@Base 5.0.2
 _ZNK6QColor6getHslEPiS0_S0_S0_@Base 5.0.2
 _ZNK6QColor6getHsvEPiS0_S0_S0_@Base 5.0.2
 _ZNK6QColor6getRgbEPiS0_S0_S0_@Base 5.0.2
 _ZNK6QColor6greenFEv@Base 5.0.2
 _ZNK6QColor6hslHueEv@Base 5.0.2
 _ZNK6QColor6hsvHueEv@Base 5.0.2
 _ZNK6QColor6toCmykEv@Base 5.0.2
 _ZNK6QColor6valueFEv@Base 5.0.2
 _ZNK6QColor6yellowEv@Base 5.0.2
 _ZNK6QColor7getHslFEPdS0_S0_S0_@Base 5.2.0
 _ZNK6QColor7getHsvFEPdS0_S0_S0_@Base 5.2.0
 _ZNK6QColor7getRgbFEPdS0_S0_S0_@Base 5.2.0
 _ZNK6QColor7hslHueFEv@Base 5.0.2
 _ZNK6QColor7hsvHueFEv@Base 5.0.2
 _ZNK6QColor7magentaEv@Base 5.0.2
 _ZNK6QColor7yellowFEv@Base 5.0.2
 _ZNK6QColor8magentaFEv@Base 5.0.2
 _ZNK6QColor9convertToENS_4SpecE@Base 5.0.2
 _ZNK6QColor9lightnessEv@Base 5.0.2
 _ZNK6QColorcv8QVariantEv@Base 5.0.2
 _ZNK6QColoreqERKS_@Base 5.0.2
 _ZNK6QColorneERKS_@Base 5.0.2
 _ZNK6QImage10colorCountEv@Base 5.0.2
 _ZNK6QImage10colorTableEv@Base 5.0.2
 _ZNK6QImage10isDetachedEv@Base 5.0.2
 _ZNK6QImage10pixelIndexEii@Base 5.0.2
 _ZNK6QImage10rgbSwappedEv@Base 5.0.2
 _ZNK6QImage11isGrayscaleEv@Base 5.0.2
 _ZNK6QImage11paintEngineEv@Base 5.0.2
 _ZNK6QImage11transformedERK10QTransformN2Qt18TransformationModeE@Base 5.0.2
 _ZNK6QImage11transformedERK7QMatrixN2Qt18TransformationModeE@Base 5.0.2
 _ZNK6QImage12alphaChannelEv@Base 5.0.2
 _ZNK6QImage12bytesPerLineEv@Base 5.0.2
 _ZNK6QImage13bitPlaneCountEv@Base 5.0.2
 _ZNK6QImage13constScanLineEi@Base 5.0.2
 _ZNK6QImage13dotsPerMeterXEv@Base 5.0.2
 _ZNK6QImage13dotsPerMeterYEv@Base 5.0.2
 _ZNK6QImage13scaledToWidthEiN2Qt18TransformationModeE@Base 5.0.2
 _ZNK6QImage14scaledToHeightEiN2Qt18TransformationModeE@Base 5.0.2
 _ZNK6QImage15convertToFormatENS_6FormatE6QFlagsIN2Qt19ImageConversionFlagEE@Base 5.0.2
 _ZNK6QImage15convertToFormatENS_6FormatERK7QVectorIjE6QFlagsIN2Qt19ImageConversionFlagEE@Base 5.0.2
 _ZNK6QImage15createAlphaMaskE6QFlagsIN2Qt19ImageConversionFlagEE@Base 5.0.2
 _ZNK6QImage15hasAlphaChannelEv@Base 5.0.2
 _ZNK6QImage15mirrored_helperEbb@Base 5.3.0
 _ZNK6QImage16devicePixelRatioEv@Base 5.0.2
 _ZNK6QImage17rgbSwapped_helperEv@Base 5.3.0
 _ZNK6QImage19createHeuristicMaskEb@Base 5.0.2
 _ZNK6QImage19createMaskFromColorEjN2Qt8MaskModeE@Base 5.0.2
 _ZNK6QImage22convertToFormat_helperENS_6FormatE6QFlagsIN2Qt19ImageConversionFlagEE@Base 5.3.0
 _ZNK6QImage4bitsEv@Base 5.0.2
 _ZNK6QImage4copyERK5QRect@Base 5.0.2
 _ZNK6QImage4rectEv@Base 5.0.2
 _ZNK6QImage4saveEP9QIODevicePKci@Base 5.0.2
 _ZNK6QImage4saveERK7QStringPKci@Base 5.0.2
 _ZNK6QImage4sizeEv@Base 5.0.2
 _ZNK6QImage4textERK7QString@Base 5.0.2
 _ZNK6QImage5colorEi@Base 5.0.2
 _ZNK6QImage5depthEv@Base 5.0.2
 _ZNK6QImage5pixelEii@Base 5.0.2
 _ZNK6QImage5validEii@Base 5.0.2
 _ZNK6QImage5widthEv@Base 5.0.2
 _ZNK6QImage6formatEv@Base 5.0.2
 _ZNK6QImage6heightEv@Base 5.0.2
 _ZNK6QImage6isNullEv@Base 5.0.2
 _ZNK6QImage6metricEN12QPaintDevice17PaintDeviceMetricE@Base 5.0.2
 _ZNK6QImage6offsetEv@Base 5.0.2
 _ZNK6QImage6scaledERK5QSizeN2Qt15AspectRatioModeENS3_18TransformationModeE@Base 5.0.2
 _ZNK6QImage7allGrayEv@Base 5.0.2
 _ZNK6QImage7devTypeEv@Base 5.0.2
 _ZNK6QImage8cacheKeyEv@Base 5.0.2
 _ZNK6QImage8mirroredEbb@Base 5.0.2
 _ZNK6QImage8scanLineEi@Base 5.0.2
 _ZNK6QImage8textKeysEv@Base 5.0.2
 _ZNK6QImage9byteCountEv@Base 5.0.2
 _ZNK6QImage9constBitsEv@Base 5.0.2
 _ZNK6QImagecv8QVariantEv@Base 5.0.2
 _ZNK6QImageeqERKS_@Base 5.0.2
 _ZNK6QImageneERKS_@Base 5.0.2
 _ZNK6QMovie10frameCountEv@Base 5.0.2
 _ZNK6QMovie10metaObjectEv@Base 5.0.2
 _ZNK6QMovie12currentImageEv@Base 5.0.2
 _ZNK6QMovie13currentPixmapEv@Base 5.0.2
 _ZNK6QMovie14nextFrameDelayEv@Base 5.0.2
 _ZNK6QMovie15backgroundColorEv@Base 5.0.2
 _ZNK6QMovie18currentFrameNumberEv@Base 5.0.2
 _ZNK6QMovie5speedEv@Base 5.0.2
 _ZNK6QMovie5stateEv@Base 5.0.2
 _ZNK6QMovie6deviceEv@Base 5.0.2
 _ZNK6QMovie6formatEv@Base 5.0.2
 _ZNK6QMovie7isValidEv@Base 5.0.2
 _ZNK6QMovie8fileNameEv@Base 5.0.2
 _ZNK6QMovie9cacheModeEv@Base 5.0.2
 _ZNK6QMovie9frameRectEv@Base 5.0.2
 _ZNK6QMovie9loopCountEv@Base 5.0.2
 _ZNK7QBezier10addIfCloseEPdd@Base 5.2.0 1
 _ZNK7QBezier11getSubRangeEdd@Base 5.2.0 1
 _ZNK7QBezier12addToPolygonEP9QPolygonFd@Base 5.2.0 1
 _ZNK7QBezier12addToPolygonER11QDataBufferI7QPointFEd@Base 5.2.0 1
 _ZNK7QBezier16bezierOnIntervalEdd@Base 5.2.0 1
 _ZNK7QBezier17stationaryYPointsERdS0_@Base 5.2.0 1
 _ZNK7QBezier5mapByERK10QTransform@Base 5.0.2 1
 _ZNK7QBezier5tForYEddd@Base 5.2.0 1
 _ZNK7QBezier6boundsEv@Base 5.0.2 1
 _ZNK7QBezier6lengthEd@Base 5.2.0 1
 _ZNK7QBezier7shiftedEPS_idf@Base 5.2.0 1
 _ZNK7QBezier9tAtLengthEd@Base 5.2.0 1
 _ZNK7QBezier9toPolygonEd@Base 5.2.0 1
 _ZNK7QBitmap11transformedERK10QTransform@Base 5.0.2
 _ZNK7QBitmap11transformedERK7QMatrix@Base 5.0.2
 _ZNK7QBitmapcv8QVariantEv@Base 5.0.2
 _ZNK7QCursor4maskEv@Base 5.0.2
 _ZNK7QCursor5shapeEv@Base 5.0.2
 _ZNK7QCursor6bitmapEv@Base 5.0.2
 _ZNK7QCursor6pixmapEv@Base 5.0.2
 _ZNK7QCursor7hotSpotEv@Base 5.0.2
 _ZNK7QCursorcv8QVariantEv@Base 5.0.2
 _ZNK7QMatrix12mapToPolygonERK5QRect@Base 5.0.2
 _ZNK7QMatrix3mapERK12QPainterPath@Base 5.0.2
 _ZNK7QMatrix3mapERK5QLine@Base 5.0.2
 _ZNK7QMatrix3mapERK6QLineF@Base 5.0.2
 _ZNK7QMatrix3mapERK6QPoint@Base 5.0.2
 _ZNK7QMatrix3mapERK7QPointF@Base 5.0.2
 _ZNK7QMatrix3mapERK7QRegion@Base 5.0.2
 _ZNK7QMatrix3mapERK8QPolygon@Base 5.0.2
 _ZNK7QMatrix3mapERK9QPolygonF@Base 5.0.2
 _ZNK7QMatrix3mapEddPdS0_@Base 5.2.0
 _ZNK7QMatrix3mapEiiPiS0_@Base 5.0.2
 _ZNK7QMatrix7mapRectERK5QRect@Base 5.0.2
 _ZNK7QMatrix7mapRectERK6QRectF@Base 5.0.2
 _ZNK7QMatrix8invertedEPb@Base 5.0.2
 _ZNK7QMatrixcv8QVariantEv@Base 5.0.2
 _ZNK7QMatrixeqERKS_@Base 5.0.2
 _ZNK7QMatrixmlERKS_@Base 5.0.2
 _ZNK7QMatrixneERKS_@Base 5.0.2
 _ZNK7QPixmap10isDetachedEv@Base 5.0.2
 _ZNK7QPixmap11paintEngineEv@Base 5.0.2
 _ZNK7QPixmap11transformedERK10QTransformN2Qt18TransformationModeE@Base 5.0.2
 _ZNK7QPixmap11transformedERK7QMatrixN2Qt18TransformationModeE@Base 5.0.2
 _ZNK7QPixmap13scaledToWidthEiN2Qt18TransformationModeE@Base 5.0.2
 _ZNK7QPixmap14scaledToHeightEiN2Qt18TransformationModeE@Base 5.0.2
 _ZNK7QPixmap15hasAlphaChannelEv@Base 5.0.2
 _ZNK7QPixmap16devicePixelRatioEv@Base 5.0.2
 _ZNK7QPixmap19createHeuristicMaskEb@Base 5.0.2
 _ZNK7QPixmap19createMaskFromColorERK6QColorN2Qt8MaskModeE@Base 5.0.2
 _ZNK7QPixmap4copyERK5QRect@Base 5.0.2
 _ZNK7QPixmap4maskEv@Base 5.0.2
 _ZNK7QPixmap4rectEv@Base 5.0.2
 _ZNK7QPixmap4saveEP9QIODevicePKci@Base 5.0.2
 _ZNK7QPixmap4saveERK7QStringPKci@Base 5.0.2
 _ZNK7QPixmap4sizeEv@Base 5.0.2
 _ZNK7QPixmap5depthEv@Base 5.0.2
 _ZNK7QPixmap5widthEv@Base 5.0.2
 _ZNK7QPixmap6handleEv@Base 5.0.2
 _ZNK7QPixmap6heightEv@Base 5.0.2
 _ZNK7QPixmap6isNullEv@Base 5.0.2
 _ZNK7QPixmap6metricEN12QPaintDevice17PaintDeviceMetricE@Base 5.0.2
 _ZNK7QPixmap6scaledERK5QSizeN2Qt15AspectRatioModeENS3_18TransformationModeE@Base 5.0.2
 _ZNK7QPixmap7devTypeEv@Base 5.0.2
 _ZNK7QPixmap7toImageEv@Base 5.0.2
 _ZNK7QPixmap8cacheKeyEv@Base 5.0.2
 _ZNK7QPixmap8hasAlphaEv@Base 5.0.2
 _ZNK7QPixmap9doImageIOEP12QImageWriteri@Base 5.0.2
 _ZNK7QPixmap9isQBitmapEv@Base 5.0.2
 _ZNK7QPixmapcv8QVariantEv@Base 5.0.2
 _ZNK7QRegion10intersectsERK5QRect@Base 5.0.2
 _ZNK7QRegion10intersectsERKS_@Base 5.0.2
 _ZNK7QRegion10subtractedERKS_@Base 5.0.2
 _ZNK7QRegion10translatedEii@Base 5.0.2
 _ZNK7QRegion11intersectedERK5QRect@Base 5.0.2
 _ZNK7QRegion11intersectedERKS_@Base 5.0.2
 _ZNK7QRegion12boundingRectEv@Base 5.0.2
 _ZNK7QRegion4copyEv@Base 5.0.2
 _ZNK7QRegion5rectsEv@Base 5.0.2
 _ZNK7QRegion5xoredERKS_@Base 5.0.2
 _ZNK7QRegion6isNullEv@Base 5.0.2
 _ZNK7QRegion6unitedERK5QRect@Base 5.0.2
 _ZNK7QRegion6unitedERKS_@Base 5.0.2
 _ZNK7QRegion7isEmptyEv@Base 5.0.2
 _ZNK7QRegion8containsERK5QRect@Base 5.0.2
 _ZNK7QRegion8containsERK6QPoint@Base 5.0.2
 _ZNK7QRegion9rectCountEv@Base 5.0.2
 _ZNK7QRegionanERK5QRect@Base 5.0.2
 _ZNK7QRegionanERKS_@Base 5.0.2
 _ZNK7QRegioncv8QVariantEv@Base 5.0.2
 _ZNK7QRegioneoERKS_@Base 5.0.2
 _ZNK7QRegioneqERKS_@Base 5.0.2
 _ZNK7QRegionmiERKS_@Base 5.0.2
 _ZNK7QRegionorERKS_@Base 5.0.2
 _ZNK7QRegionplERK5QRect@Base 5.0.2
 _ZNK7QRegionplERKS_@Base 5.0.2
 _ZNK7QScreen10isPortraitEN2Qt17ScreenOrientationE@Base 5.0.2
 _ZNK7QScreen10mapBetweenEN2Qt17ScreenOrientationES1_RK5QRect@Base 5.0.2
 _ZNK7QScreen10metaObjectEv@Base 5.0.2
 _ZNK7QScreen11isLandscapeEN2Qt17ScreenOrientationE@Base 5.0.2
 _ZNK7QScreen11orientationEv@Base 5.0.2
 _ZNK7QScreen11refreshRateEv@Base 5.0.2
 _ZNK7QScreen11virtualSizeEv@Base 5.0.2
 _ZNK7QScreen12angleBetweenEN2Qt17ScreenOrientationES1_@Base 5.0.2
 _ZNK7QScreen12physicalSizeEv@Base 5.0.2
 _ZNK7QScreen13availableSizeEv@Base 5.0.2
 _ZNK7QScreen15virtualGeometryEv@Base 5.0.2
 _ZNK7QScreen15virtualSiblingsEv@Base 5.0.2
 _ZNK7QScreen16devicePixelRatioEv@Base 5.0.2
 _ZNK7QScreen16transformBetweenEN2Qt17ScreenOrientationES1_RK5QRect@Base 5.0.2
 _ZNK7QScreen17availableGeometryEv@Base 5.0.2
 _ZNK7QScreen17nativeOrientationEv@Base 5.2.0~alpha1
 _ZNK7QScreen18logicalDotsPerInchEv@Base 5.0.2
 _ZNK7QScreen18primaryOrientationEv@Base 5.0.2
 _ZNK7QScreen19logicalDotsPerInchXEv@Base 5.0.2
 _ZNK7QScreen19logicalDotsPerInchYEv@Base 5.0.2
 _ZNK7QScreen19physicalDotsPerInchEv@Base 5.0.2
 _ZNK7QScreen20availableVirtualSizeEv@Base 5.0.2
 _ZNK7QScreen20physicalDotsPerInchXEv@Base 5.0.2
 _ZNK7QScreen20physicalDotsPerInchYEv@Base 5.0.2
 _ZNK7QScreen21orientationUpdateMaskEv@Base 5.0.2
 _ZNK7QScreen24availableVirtualGeometryEv@Base 5.0.2
 _ZNK7QScreen4nameEv@Base 5.0.2
 _ZNK7QScreen4sizeEv@Base 5.0.2
 _ZNK7QScreen5depthEv@Base 5.0.2
 _ZNK7QScreen6handleEv@Base 5.0.2
 _ZNK7QScreen8geometryEv@Base 5.0.2
 _ZNK7QWindow10isTopLevelEv@Base 5.0.2
 _ZNK7QWindow10metaObjectEv@Base 5.0.2
 _ZNK7QWindow10visibilityEv@Base 5.1.0
 _ZNK7QWindow11focusObjectEv@Base 5.0.2
 _ZNK7QWindow11mapToGlobalERK6QPoint@Base 5.0.2
 _ZNK7QWindow11maximumSizeEv@Base 5.0.2
 _ZNK7QWindow11minimumSizeEv@Base 5.0.2
 _ZNK7QWindow11surfaceTypeEv@Base 5.0.2
 _ZNK7QWindow11windowStateEv@Base 5.0.2
 _ZNK7QWindow12frameMarginsEv@Base 5.0.2
 _ZNK7QWindow12isAncestorOfEPKS_NS_12AncestorModeE@Base 5.0.2
 _ZNK7QWindow13frameGeometryEv@Base 5.0.2
 _ZNK7QWindow13framePositionEv@Base 5.0.2
 _ZNK7QWindow13mapFromGlobalERK6QPoint@Base 5.0.2
 _ZNK7QWindow13sizeIncrementEv@Base 5.0.2
 _ZNK7QWindow13surfaceHandleEv@Base 5.0.2
 _ZNK7QWindow14accessibleRootEv@Base 5.0.2
 _ZNK7QWindow15requestedFormatEv@Base 5.0.2
 _ZNK7QWindow15transientParentEv@Base 5.0.2
 _ZNK7QWindow16devicePixelRatioEv@Base 5.0.2
 _ZNK7QWindow18contentOrientationEv@Base 5.0.2
 _ZNK7QWindow4iconEv@Base 5.0.2
 _ZNK7QWindow4maskEv@Base 5.1.0
 _ZNK7QWindow4typeEv@Base 5.0.2
 _ZNK7QWindow5flagsEv@Base 5.0.2
 _ZNK7QWindow5titleEv@Base 5.0.2
 _ZNK7QWindow5winIdEv@Base 5.0.2
 _ZNK7QWindow6cursorEv@Base 5.0.2
 _ZNK7QWindow6formatEv@Base 5.0.2
 _ZNK7QWindow6handleEv@Base 5.0.2
 _ZNK7QWindow6parentEv@Base 5.0.2
 _ZNK7QWindow6screenEv@Base 5.0.2
 _ZNK7QWindow7isModalEv@Base 5.0.2
 _ZNK7QWindow7opacityEv@Base 5.1.0
 _ZNK7QWindow8baseSizeEv@Base 5.0.2
 _ZNK7QWindow8filePathEv@Base 5.0.2
 _ZNK7QWindow8geometryEv@Base 5.0.2
 _ZNK7QWindow8isActiveEv@Base 5.0.2
 _ZNK7QWindow8modalityEv@Base 5.0.2
 _ZNK7QWindow9isExposedEv@Base 5.0.2
 _ZNK7QWindow9isVisibleEv@Base 5.0.2
 _ZNK8QPainter10backgroundEv@Base 5.0.2
 _ZNK8QPainter10clipRegionEv@Base 5.0.2
 _ZNK8QPainter11brushOriginEv@Base 5.0.2
 _ZNK8QPainter11fontMetricsEv@Base 5.0.2
 _ZNK8QPainter11hasClippingEv@Base 5.0.2
 _ZNK8QPainter11paintEngineEv@Base 5.0.2
 _ZNK8QPainter11renderHintsEv@Base 5.0.2
 _ZNK8QPainter11worldMatrixEv@Base 5.0.2
 _ZNK8QPainter12deviceMatrixEv@Base 5.0.2
 _ZNK8QPainter13matrixEnabledEv@Base 5.0.2
 _ZNK8QPainter14backgroundModeEv@Base 5.0.2
 _ZNK8QPainter14combinedMatrixEv@Base 5.0.2
 _ZNK8QPainter14worldTransformEv@Base 5.0.2
 _ZNK8QPainter15compositionModeEv@Base 5.0.2
 _ZNK8QPainter15deviceTransformEv@Base 5.0.2
 _ZNK8QPainter15layoutDirectionEv@Base 5.0.2
 _ZNK8QPainter16clipBoundingRectEv@Base 5.0.2
 _ZNK8QPainter17combinedTransformEv@Base 5.0.2
 _ZNK8QPainter18worldMatrixEnabledEv@Base 5.0.2
 _ZNK8QPainter20viewTransformEnabledEv@Base 5.0.2
 _ZNK8QPainter3penEv@Base 5.0.2
 _ZNK8QPainter4fontEv@Base 5.0.2
 _ZNK8QPainter5brushEv@Base 5.0.2
 _ZNK8QPainter6deviceEv@Base 5.0.2
 _ZNK8QPainter6matrixEv@Base 5.0.2
 _ZNK8QPainter6windowEv@Base 5.0.2
 _ZNK8QPainter7opacityEv@Base 5.0.2
 _ZNK8QPainter8clipPathEv@Base 5.0.2
 _ZNK8QPainter8fontInfoEv@Base 5.0.2
 _ZNK8QPainter8isActiveEv@Base 5.0.2
 _ZNK8QPainter8viewportEv@Base 5.0.2
 _ZNK8QPainter9transformEv@Base 5.0.2
 _ZNK8QPalette10isBrushSetENS_10ColorGroupENS_9ColorRoleE@Base 5.0.2
 _ZNK8QPalette5brushENS_10ColorGroupENS_9ColorRoleE@Base 5.0.2
 _ZNK8QPalette7isEqualENS_10ColorGroupES0_@Base 5.0.2
 _ZNK8QPalette7resolveERKS_@Base 5.0.2
 _ZNK8QPalette8cacheKeyEv@Base 5.0.2
 _ZNK8QPalette8isCopyOfERKS_@Base 5.0.2
 _ZNK8QPalettecv8QVariantEv@Base 5.0.2
 _ZNK8QPaletteeqERKS_@Base 5.0.2
 _ZNK8QPicture10isDetachedEv@Base 5.0.2
 _ZNK8QPicture11paintEngineEv@Base 5.0.2
 _ZNK8QPicture12boundingRectEv@Base 5.0.2
 _ZNK8QPicture4dataEv@Base 5.0.2
 _ZNK8QPicture4sizeEv@Base 5.0.2
 _ZNK8QPicture6isNullEv@Base 5.0.2
 _ZNK8QPicture6metricEN12QPaintDevice17PaintDeviceMetricE@Base 5.0.2
 _ZNK8QPicture7devTypeEv@Base 5.0.2
 _ZNK8QPolygon10subtractedERKS_@Base 5.0.2
 _ZNK8QPolygon10translatedEii@Base 5.0.2
 _ZNK8QPolygon11intersectedERKS_@Base 5.0.2
 _ZNK8QPolygon12boundingRectEv@Base 5.0.2
 _ZNK8QPolygon13containsPointERK6QPointN2Qt8FillRuleE@Base 5.0.2
 _ZNK8QPolygon5pointEiPiS0_@Base 5.0.2
 _ZNK8QPolygon6unitedERKS_@Base 5.0.2
 _ZNK8QPolygoncv8QVariantEv@Base 5.0.2
 _ZNK8QRawFont10familyNameEv@Base 5.0.2
 _ZNK8QRawFont10unitsPerEmEv@Base 5.0.2
 _ZNK8QRawFont12boundingRectEj@Base 5.0.2
 _ZNK8QRawFont12maxCharWidthEv@Base 5.0.2
 _ZNK8QRawFont12pathForGlyphEj@Base 5.0.2
 _ZNK8QRawFont13lineThicknessEv@Base 5.0.2
 _ZNK8QRawFont16alphaMapForGlyphEjNS_16AntialiasingTypeERK10QTransform@Base 5.0.2
 _ZNK8QRawFont16averageCharWidthEv@Base 5.0.2
 _ZNK8QRawFont17hintingPreferenceEv@Base 5.0.2
 _ZNK8QRawFont17supportsCharacterE5QChar@Base 5.0.2
 _ZNK8QRawFont17supportsCharacterEj@Base 5.0.2
 _ZNK8QRawFont17underlinePositionEv@Base 5.0.2
 _ZNK8QRawFont20glyphIndexesForCharsEPK5QChariPjPi@Base 5.0.2
 _ZNK8QRawFont21glyphIndexesForStringERK7QString@Base 5.0.2
 _ZNK8QRawFont23advancesForGlyphIndexesEPKjP7QPointFi6QFlagsINS_10LayoutFlagEE@Base 5.1.0
 _ZNK8QRawFont23advancesForGlyphIndexesEPKjP7QPointFi@Base 5.0.2
 _ZNK8QRawFont23supportedWritingSystemsEv@Base 5.0.2
 _ZNK8QRawFont5styleEv@Base 5.0.2
 _ZNK8QRawFont6ascentEv@Base 5.0.2
 _ZNK8QRawFont6weightEv@Base 5.0.2
 _ZNK8QRawFont7descentEv@Base 5.0.2
 _ZNK8QRawFont7isValidEv@Base 5.0.2
 _ZNK8QRawFont7leadingEv@Base 5.0.2
 _ZNK8QRawFont7xHeightEv@Base 5.0.2
 _ZNK8QRawFont9fontTableEPKc@Base 5.0.2
 _ZNK8QRawFont9pixelSizeEv@Base 5.0.2
 _ZNK8QRawFont9styleNameEv@Base 5.0.2
 _ZNK8QRawFonteqERKS_@Base 5.0.2
 _ZNK8QSurface12surfaceClassEv@Base 5.0.2
 _ZNK8QSurface14supportsOpenGLEv@Base 5.3.0
 _ZNK9QFontInfo10exactMatchEv@Base 5.0.2
 _ZNK9QFontInfo10fixedPitchEv@Base 5.0.2
 _ZNK9QFontInfo10pointSizeFEv@Base 5.0.2
 _ZNK9QFontInfo5styleEv@Base 5.0.2
 _ZNK9QFontInfo6familyEv@Base 5.0.2
 _ZNK9QFontInfo6italicEv@Base 5.0.2
 _ZNK9QFontInfo6weightEv@Base 5.0.2
 _ZNK9QFontInfo7rawModeEv@Base 5.0.2
 _ZNK9QFontInfo8overlineEv@Base 5.0.2
 _ZNK9QFontInfo9pixelSizeEv@Base 5.0.2
 _ZNK9QFontInfo9pointSizeEv@Base 5.0.2
 _ZNK9QFontInfo9strikeOutEv@Base 5.0.2
 _ZNK9QFontInfo9styleHintEv@Base 5.0.2
 _ZNK9QFontInfo9styleNameEv@Base 5.0.2
 _ZNK9QFontInfo9underlineEv@Base 5.0.2
 _ZNK9QGlyphRun12boundingRectEv@Base 5.0.2
 _ZNK9QGlyphRun12glyphIndexesEv@Base 5.0.2
 _ZNK9QGlyphRun13isRightToLeftEv@Base 5.0.2
 _ZNK9QGlyphRun5flagsEv@Base 5.0.2
 _ZNK9QGlyphRun7isEmptyEv@Base 5.0.2
 _ZNK9QGlyphRun7rawFontEv@Base 5.0.2
 _ZNK9QGlyphRun8overlineEv@Base 5.0.2
 _ZNK9QGlyphRun9positionsEv@Base 5.0.2
 _ZNK9QGlyphRun9strikeOutEv@Base 5.0.2
 _ZNK9QGlyphRun9underlineEv@Base 5.0.2
 _ZNK9QGlyphRuneqERKS_@Base 5.0.2
 _ZNK9QGradient14coordinateModeEv@Base 5.0.2
 _ZNK9QGradient17interpolationModeEv@Base 5.0.2
 _ZNK9QGradient5stopsEv@Base 5.0.2
 _ZNK9QGradienteqERKS_@Base 5.0.2
 _ZNK9QKeyEvent7matchesEN12QKeySequence11StandardKeyE@Base 5.0.2
 _ZNK9QKeyEvent9modifiersEv@Base 5.0.2
 _ZNK9QPageSize10rectPixelsEi@Base 5.3.0
 _ZNK9QPageSize10rectPointsEv@Base 5.3.0
 _ZNK9QPageSize10sizePixelsEi@Base 5.3.0
 _ZNK9QPageSize10sizePointsEv@Base 5.3.0
 _ZNK9QPageSize14definitionSizeEv@Base 5.3.0
 _ZNK9QPageSize14isEquivalentToERKS_@Base 5.3.0
 _ZNK9QPageSize15definitionUnitsEv@Base 5.3.0
 _ZNK9QPageSize2idEv@Base 5.3.0
 _ZNK9QPageSize3keyEv@Base 5.3.0
 _ZNK9QPageSize4nameEv@Base 5.3.0
 _ZNK9QPageSize4rectENS_4UnitE@Base 5.3.0
 _ZNK9QPageSize4sizeENS_4UnitE@Base 5.3.0
 _ZNK9QPageSize7isValidEv@Base 5.3.0
 _ZNK9QPageSize9windowsIdEv@Base 5.3.0
 _ZNK9QPolygonF10subtractedERKS_@Base 5.0.2
 _ZNK9QPolygonF10translatedERK7QPointF@Base 5.0.2
 _ZNK9QPolygonF11intersectedERKS_@Base 5.0.2
 _ZNK9QPolygonF12boundingRectEv@Base 5.0.2
 _ZNK9QPolygonF13containsPointERK7QPointFN2Qt8FillRuleE@Base 5.0.2
 _ZNK9QPolygonF6unitedERKS_@Base 5.0.2
 _ZNK9QPolygonF9toPolygonEv@Base 5.0.2
 _ZNK9QPolygonFcv8QVariantEv@Base 5.0.2
 _ZNK9QTextItem11renderFlagsEv@Base 5.0.2
 _ZNK9QTextItem4fontEv@Base 5.0.2
 _ZNK9QTextItem4textEv@Base 5.0.2
 _ZNK9QTextItem5widthEv@Base 5.0.2
 _ZNK9QTextItem6ascentEv@Base 5.0.2
 _ZNK9QTextItem7descentEv@Base 5.0.2
 _ZNK9QTextLine10textLengthEv@Base 5.0.2
 _ZNK9QTextLine15leadingIncludedEv@Base 5.0.2
 _ZNK9QTextLine15naturalTextRectEv@Base 5.0.2
 _ZNK9QTextLine16naturalTextWidthEv@Base 5.0.2
 _ZNK9QTextLine17horizontalAdvanceEv@Base 5.0.2
 _ZNK9QTextLine1xEv@Base 5.0.2
 _ZNK9QTextLine1yEv@Base 5.0.2
 _ZNK9QTextLine4drawEP8QPainterRK7QPointFPKN11QTextLayout11FormatRangeE@Base 5.0.2
 _ZNK9QTextLine4rectEv@Base 5.0.2
 _ZNK9QTextLine5widthEv@Base 5.0.2
 _ZNK9QTextLine6ascentEv@Base 5.0.2
 _ZNK9QTextLine6heightEv@Base 5.0.2
 _ZNK9QTextLine7descentEv@Base 5.0.2
 _ZNK9QTextLine7leadingEv@Base 5.0.2
 _ZNK9QTextLine8positionEv@Base 5.0.2
 _ZNK9QTextLine9cursorToXEPiNS_4EdgeE@Base 5.0.2
 _ZNK9QTextLine9glyphRunsEii@Base 5.0.2
 _ZNK9QTextLine9textStartEv@Base 5.0.2
 _ZNK9QTextLine9xToCursorEdNS_14CursorPositionE@Base 5.2.0
 _ZNK9QTextList10itemNumberERK10QTextBlock@Base 5.0.2
 _ZNK9QTextList10metaObjectEv@Base 5.0.2
 _ZNK9QTextList4itemEi@Base 5.0.2
 _ZNK9QTextList5countEv@Base 5.0.2
 _ZNK9QTextList8itemTextERK10QTextBlock@Base 5.0.2
 _ZNK9QVector2D10normalizedEv@Base 5.0.2
 _ZNK9QVector2D10toVector3DEv@Base 5.0.2
 _ZNK9QVector2D10toVector4DEv@Base 5.0.2
 _ZNK9QVector2D13lengthSquaredEv@Base 5.0.2
 _ZNK9QVector2D14distanceToLineERKS_S1_@Base 5.1.0
 _ZNK9QVector2D15distanceToPointERKS_@Base 5.1.0
 _ZNK9QVector2D6lengthEv@Base 5.0.2
 _ZNK9QVector2Dcv8QVariantEv@Base 5.0.2
 _ZNK9QVector3D10normalizedEv@Base 5.0.2
 _ZNK9QVector3D10toVector2DEv@Base 5.0.2
 _ZNK9QVector3D10toVector4DEv@Base 5.0.2
 _ZNK9QVector3D13lengthSquaredEv@Base 5.0.2
 _ZNK9QVector3D14distanceToLineERKS_S1_@Base 5.0.2
 _ZNK9QVector3D15distanceToPlaneERKS_S1_@Base 5.0.2
 _ZNK9QVector3D15distanceToPlaneERKS_S1_S1_@Base 5.0.2
 _ZNK9QVector3D15distanceToPointERKS_@Base 5.1.0
 _ZNK9QVector3D6lengthEv@Base 5.0.2
 _ZNK9QVector3Dcv8QVariantEv@Base 5.0.2
 _ZNK9QVector4D10normalizedEv@Base 5.0.2
 _ZNK9QVector4D10toVector2DEv@Base 5.0.2
 _ZNK9QVector4D10toVector3DEv@Base 5.0.2
 _ZNK9QVector4D13lengthSquaredEv@Base 5.0.2
 _ZNK9QVector4D16toVector2DAffineEv@Base 5.0.2
 _ZNK9QVector4D16toVector3DAffineEv@Base 5.0.2
 _ZNK9QVector4D6lengthEv@Base 5.0.2
 _ZNK9QVector4Dcv8QVariantEv@Base 5.0.2
 (optional=templinst|arch=armel armhf hurd-i386 i386 kfreebsd-i386 mips mipsel powerpc)_ZSt4swapIN8QVariant7PrivateEEvRT_S3_@Base 5.0.2
 (optional=templinst|arch=ia64)_ZSt9make_heapIN5QListI10QByteArrayE8iteratorEEvT_S4_@Base 5.2.0
 _ZTI10QBasicDrag@Base 5.1.0 1
 _ZTI10QBlittable@Base 5.0.2 1
 _ZTI10QClipboard@Base 5.0.2
 _ZTI10QDropEvent@Base 5.0.2
 _ZTI10QHelpEvent@Base 5.0.2
 _ZTI10QHideEvent@Base 5.0.2
 _ZTI10QKeyMapper@Base 5.0.2 1
 _ZTI10QMoveEvent@Base 5.0.2
 _ZTI10QPdfEngine@Base 5.0.2 1
 _ZTI10QPdfWriter@Base 5.0.2
 _ZTI10QShowEvent@Base 5.0.2
 _ZTI10QTextFrame@Base 5.0.2
 _ZTI10QTextTable@Base 5.0.2
 _ZTI10QValidator@Base 5.0.2
 _ZTI11QCloseEvent@Base 5.0.2
 _ZTI11QEnterEvent@Base 5.0.2
 _ZTI11QFocusEvent@Base 5.0.2
 _ZTI11QFontEngine@Base 5.0.2 1
 _ZTI11QHoverEvent@Base 5.0.2
 _ZTI11QIconEngine@Base 5.0.2
 _ZTI11QIconLoader@Base 5.0.2 1
 _ZTI11QInputEvent@Base 5.0.2
 _ZTI11QMouseEvent@Base 5.0.2
 _ZTI11QPaintEvent@Base 5.0.2
 _ZTI11QSharedData@Base 5.0.2
 _ZTI11QSimpleDrag@Base 5.1.0 1
 _ZTI11QStrokerOps@Base 5.0.2 1
 _ZTI11QStyleHints@Base 5.0.2
 _ZTI11QTextObject@Base 5.0.2
 _ZTI11QTouchEvent@Base 5.0.2
 _ZTI11QWheelEvent@Base 5.0.2
 _ZTI12QActionEvent@Base 5.0.2
 _ZTI12QDashStroker@Base 5.0.2 1
 _ZTI12QDragManager@Base 5.0.2 1
 _ZTI12QExposeEvent@Base 5.0.2
 _ZTI12QInputMethod@Base 5.0.2
 _ZTI12QPaintBuffer@Base 5.0.2 1
 _ZTI12QPaintDevice@Base 5.0.2
 _ZTI12QPaintEngine@Base 5.0.2
 _ZTI12QResizeEvent@Base 5.0.2
 _ZTI12QScrollEvent@Base 5.0.2
 _ZTI12QTabletEvent@Base 5.0.2
 _ZTI13QIntValidator@Base 5.0.2
 _ZTI13QOpenGLShader@Base 5.0.2
 _ZTI13QPainterState@Base 5.0.2 1
 _ZTI13QPlatformDrag@Base 5.0.2 1
 _ZTI13QPlatformMenu@Base 5.0.2 1
 _ZTI13QStandardItem@Base 5.0.2
 _ZTI13QTextDocument@Base 5.0.2
 _ZTI14QDragMoveEvent@Base 5.0.2
 _ZTI14QFileOpenEvent@Base 5.0.2
 _ZTI14QFontEngineQPA@Base 5.0.2 1
 _ZTI14QGenericPlugin@Base 5.0.2
 _ZTI14QIconDragEvent@Base 5.0.2
 _ZTI14QImageIOPlugin@Base 5.0.2
 _ZTI14QOpenGLContext@Base 5.0.2
 _ZTI14QPaintEngineEx@Base 5.0.2 1
 _ZTI14QPlatformTheme@Base 5.0.2 1
 _ZTI14QShortcutEvent@Base 5.0.2
 _ZTI14QWindowPrivate@Base 5.0.2 1
 _ZTI15QDragEnterEvent@Base 5.0.2
 _ZTI15QDragLeaveEvent@Base 5.0.2
 _ZTI15QGridLayoutItem@Base 5.3.0 1
 _ZTI15QGuiApplication@Base 5.0.2
 _ZTI15QImageIOHandler@Base 5.0.2
 _ZTI15QPlatformCursor@Base 5.0.2 1
 _ZTI15QPlatformPixmap@Base 5.0.2 1
 _ZTI15QPlatformScreen@Base 5.0.2 1
 _ZTI15QPlatformWindow@Base 5.0.2 1
 _ZTI15QSessionManager@Base 5.0.2
 _ZTI15QStatusTipEvent@Base 5.0.2
 _ZTI15QTextBlockGroup@Base 5.0.2
 _ZTI16QAccessibleCache@Base 5.3.0 1
 _ZTI16QAccessibleEvent@Base 5.0.2
 _ZTI16QDoubleValidator@Base 5.0.2
 _ZTI16QFontEngineMulti@Base 5.0.2 1
 _ZTI16QPainterReplayer@Base 5.0.2 1
 _ZTI16QPlatformMenuBar@Base 5.0.2 1
 _ZTI16QPlatformSurface@Base 5.0.2 1
 _ZTI16QRegExpValidator@Base 5.0.2
 _ZTI17QAccessibleObject@Base 5.0.2
 _ZTI17QAccessiblePlugin@Base 5.0.2
 _ZTI17QContextMenuEvent@Base 5.0.2
 _ZTI17QIconEnginePlugin@Base 5.0.2
 _ZTI17QInputMethodEvent@Base 5.0.2
 _ZTI17QInternalMimeData@Base 5.0.2 1
 _ZTI17QOffscreenSurface@Base 5.1.0
 (arch=!armel !armhf)_ZTI17QOpenGLTimerQuery@Base 5.1.0
 _ZTI17QPagedPaintDevice@Base 5.0.2
 _ZTI17QPaintEngineState@Base 5.0.2
 _ZTI17QPdfEnginePrivate@Base 5.0.2 1
 _ZTI17QPlatformMenuItem@Base 5.0.2 1
 _ZTI17QPlatformServices@Base 5.0.2 1
 _ZTI17QTextImageHandler@Base 5.0.2 1
 _ZTI18QOpenGLDebugLogger@Base 5.1.0
 _ZTI18QOpenGLPaintDevice@Base 5.0.2
 (arch=!armel !armhf)_ZTI18QOpenGLTimeMonitor@Base 5.1.0
 _ZTI18QPlatformClipboard@Base 5.0.2 1
 _ZTI18QRasterPaintEngine@Base 5.0.2 1
 _ZTI18QStandardItemModel@Base 5.0.2
 _ZTI18QSyntaxHighlighter@Base 5.0.2
 _ZTI18QTextBlockUserData@Base 5.0.2
 _ZTI18QTextureGlyphCache@Base 5.0.2 1
 _ZTI19QBlitterPaintEngine@Base 5.0.2 1
 _ZTI19QFontEngineMultiQPA@Base 5.0.2 1
 _ZTI19QNativeGestureEvent@Base 5.2.0~beta1
 _ZTI19QOpenGLContextGroup@Base 5.0.2
 _ZTI19QOpenGLTextureCache@Base 5.0.2 1
 _ZTI19QPaintEnginePrivate@Base 5.0.2 1
 _ZTI19QScrollPrepareEvent@Base 5.0.2
 _ZTI19QTextDocumentLayout@Base 5.0.2 1
 _ZTI19QToolBarChangeEvent@Base 5.0.2
 _ZTI20QAccessibleInterface@Base 5.0.2
 (arch=!armel !armhf)_ZTI20QOpenGLFunctions_1_0@Base 5.1.0
 (arch=!armel !armhf)_ZTI20QOpenGLFunctions_1_1@Base 5.1.0
 (arch=!armel !armhf)_ZTI20QOpenGLFunctions_1_2@Base 5.1.0
 (arch=!armel !armhf)_ZTI20QOpenGLFunctions_1_3@Base 5.1.0
 (arch=!armel !armhf)_ZTI20QOpenGLFunctions_1_4@Base 5.1.0
 (arch=!armel !armhf)_ZTI20QOpenGLFunctions_1_5@Base 5.1.0
 (arch=!armel !armhf)_ZTI20QOpenGLFunctions_2_0@Base 5.1.0
 (arch=!armel !armhf)_ZTI20QOpenGLFunctions_2_1@Base 5.1.0
 (arch=!armel !armhf)_ZTI20QOpenGLFunctions_3_0@Base 5.1.0
 (arch=!armel !armhf)_ZTI20QOpenGLFunctions_3_1@Base 5.1.0
 (arch=armel armhf)_ZTI20QOpenGLFunctions_ES2@Base 5.2.0
 _ZTI20QOpenGLShaderProgram@Base 5.0.2
 _ZTI20QPictureFormatPlugin@Base 5.0.2
 _ZTI20QPlatformIntegration@Base 5.0.2 1
 _ZTI20QPlatformTextureList@Base 5.3.0 1
 _ZTI20QPlatformThemePlugin@Base 5.0.2 1
 _ZTI20QTextFrameLayoutData@Base 5.0.2
 _ZTI20QTextObjectInterface@Base 5.0.2
 _ZTI21QOpenGL2PaintEngineEx@Base 5.0.2 1
 _ZTI21QOpenGLContextPrivate@Base 5.0.2 1
 _ZTI21QOpenGLSharedResource@Base 5.0.2 1
 _ZTI21QPaintEngineExPrivate@Base 5.0.2 1
 _ZTI21QPlatformBackingStore@Base 5.0.2 1
 _ZTI21QPlatformDialogHelper@Base 5.0.2 1
 _ZTI21QPlatformFontDatabase@Base 5.0.2 1
 _ZTI21QPlatformInputContext@Base 5.0.2 1
 _ZTI21QPlatformScreenBuffer@Base 5.0.2 1
 _ZTI21QPlatformThemePrivate@Base 5.1.0 1
 _ZTI21QRasterPlatformPixmap@Base 5.0.2 1
 _ZTI22QAccessibleApplication@Base 5.0.2
 _ZTI22QGuiApplicationPrivate@Base 5.0.2 1
 _ZTI22QInputMethodQueryEvent@Base 5.0.2
 _ZTI22QPaintEngineExReplayer@Base 5.0.2 1
 _ZTI22QPlatformAccessibility@Base 5.0.2 1
 _ZTI22QPlatformOpenGLContext@Base 5.0.2 1
 _ZTI22QWhatsThisClickedEvent@Base 5.0.2
 _ZTI23QAccessibleBridgePlugin@Base 5.0.2
 _ZTI23QImageTextureGlyphCache@Base 5.0.2 1
 _ZTI23QPlatformSessionManager@Base 5.2.0~alpha1 1
 _ZTI23QPlatformSystemTrayIcon@Base 5.0.2 1
 _ZTI23QWindowStateChangeEvent@Base 5.0.2
 _ZTI24QAccessibleTextInterface@Base 5.0.2 1
 _ZTI24QBlittablePlatformPixmap@Base 5.0.2 1
 _ZTI24QOffscreenSurfacePrivate@Base 5.1.0
 _ZTI24QOpenGLCustomShaderStage@Base 5.0.2 1
 _ZTI24QOpenGLFramebufferObject@Base 5.0.2
 _ZTI24QOpenGLTextureGlyphCache@Base 5.0.2 1
 _ZTI24QOpenGLVertexArrayObject@Base 5.1.0
 _ZTI24QPagedPaintDevicePrivate@Base 5.3.0 1
 _ZTI24QPlatformNativeInterface@Base 5.0.2 1
 _ZTI25QAbstractItemModelPrivate@Base 5.0.2 1
 (arch=!armel !armhf)_ZTI25QOpenGLFunctions_3_2_Core@Base 5.1.0
 (arch=!armel !armhf)_ZTI25QOpenGLFunctions_3_3_Core@Base 5.1.0
 (arch=!armel !armhf)_ZTI25QOpenGLFunctions_4_0_Core@Base 5.1.0
 (arch=!armel !armhf)_ZTI25QOpenGLFunctions_4_1_Core@Base 5.1.0
 (arch=!armel !armhf)_ZTI25QOpenGLFunctions_4_2_Core@Base 5.1.0
 (arch=!armel !armhf)_ZTI25QOpenGLFunctions_4_3_Core@Base 5.1.0
 _ZTI25QPlatformFileDialogHelper@Base 5.0.2 1
 _ZTI25QPlatformFontDialogHelper@Base 5.0.2 1
 _ZTI25QPlatformOffscreenSurface@Base 5.1.0
 _ZTI26QAccessibleActionInterface@Base 5.0.2 1
 _ZTI26QOpenGLContextGroupPrivate@Base 5.0.2 1
 _ZTI26QOpenGLEngineShaderManager@Base 5.0.2 1
 _ZTI26QOpenGLSharedResourceGuard@Base 5.0.2 1
 _ZTI26QPlatformColorDialogHelper@Base 5.0.2 1
 _ZTI26QPlatformIntegrationPlugin@Base 5.0.2 1
 _ZTI26QPlatformScreenPageFlipper@Base 5.0.2 1
 _ZTI27QAbstractTextDocumentLayout@Base 5.0.2
 _ZTI27QAccessibleStateChangeEvent@Base 5.0.2
 _ZTI27QPlatformInputContextPlugin@Base 5.0.2 1
 _ZTI27QRegularExpressionValidator@Base 5.1.0
 _ZTI28QApplicationStateChangeEvent@Base 5.1.0
 _ZTI28QPlatformMessageDialogHelper@Base 5.2.0~alpha1 1
 _ZTI28QPlatformSharedGraphicsCache@Base 5.0.2
 _ZTI29QScreenOrientationChangeEvent@Base 5.0.2
 (arch=!armel !armhf)_ZTI34QOpenGLFunctions_3_2_Compatibility@Base 5.1.0
 (arch=!armel !armhf)_ZTI34QOpenGLFunctions_3_3_Compatibility@Base 5.1.0
 (arch=!armel !armhf)_ZTI34QOpenGLFunctions_4_0_Compatibility@Base 5.1.0
 (arch=!armel !armhf)_ZTI34QOpenGLFunctions_4_1_Compatibility@Base 5.1.0
 (arch=!armel !armhf)_ZTI34QOpenGLFunctions_4_2_Compatibility@Base 5.1.0
 (arch=!armel !armhf)_ZTI34QOpenGLFunctions_4_3_Compatibility@Base 5.1.0
 _ZTI5QDrag@Base 5.0.2
 _ZTI6QImage@Base 5.0.2
 _ZTI6QMovie@Base 5.0.2
 _ZTI7QBitmap@Base 5.0.2
 _ZTI7QPixmap@Base 5.0.2
 _ZTI7QScreen@Base 5.0.2
 _ZTI7QWindow@Base 5.0.2
 _ZTI8QPicture@Base 5.0.2
 _ZTI8QStroker@Base 5.0.2 1
 _ZTI8QSurface@Base 5.0.2
 _ZTI9QKeyEvent@Base 5.0.2
 _ZTI9QTextList@Base 5.0.2
 _ZTIN29QWindowSystemInterfacePrivate10CloseEventE@Base 5.0.2 1
 _ZTIN29QWindowSystemInterfacePrivate10EnterEventE@Base 5.0.2 1
 _ZTIN29QWindowSystemInterfacePrivate10InputEventE@Base 5.0.2 1
 _ZTIN29QWindowSystemInterfacePrivate10LeaveEventE@Base 5.0.2 1
 _ZTIN29QWindowSystemInterfacePrivate10MouseEventE@Base 5.0.2 1
 _ZTIN29QWindowSystemInterfacePrivate10TouchEventE@Base 5.0.2 1
 _ZTIN29QWindowSystemInterfacePrivate10WheelEventE@Base 5.0.2 1
 _ZTIN29QWindowSystemInterfacePrivate11ExposeEventE@Base 5.0.2 1
 _ZTIN29QWindowSystemInterfacePrivate11TabletEventE@Base 5.0.2 1
 _ZTIN29QWindowSystemInterfacePrivate12GestureEventE@Base 5.2.0~beta1 1
 _ZTIN29QWindowSystemInterfacePrivate13FileOpenEventE@Base 5.0.2 1
 _ZTIN29QWindowSystemInterfacePrivate16ContextMenuEventE@Base 5.0.2 1
 _ZTIN29QWindowSystemInterfacePrivate16FlushEventsEventE@Base 5.1.0 1
 _ZTIN29QWindowSystemInterfacePrivate16ThemeChangeEventE@Base 5.0.2 1
 _ZTIN29QWindowSystemInterfacePrivate17WindowSystemEventE@Base 5.0.2 1
 _ZTIN29QWindowSystemInterfacePrivate18PlatformPanelEventE@Base 5.0.2 1
 _ZTIN29QWindowSystemInterfacePrivate19GeometryChangeEventE@Base 5.0.2 1
 _ZTIN29QWindowSystemInterfacePrivate19ScreenGeometryEventE@Base 5.0.2 1
 _ZTIN29QWindowSystemInterfacePrivate20ActivatedWindowEventE@Base 5.0.2 1
 _ZTIN29QWindowSystemInterfacePrivate22ScreenOrientationEventE@Base 5.0.2 1
 _ZTIN29QWindowSystemInterfacePrivate22ScreenRefreshRateEventE@Base 5.0.2 1
 _ZTIN29QWindowSystemInterfacePrivate23WindowStateChangedEventE@Base 5.0.2 1
 _ZTIN29QWindowSystemInterfacePrivate24WindowScreenChangedEventE@Base 5.1.0 1
 _ZTIN29QWindowSystemInterfacePrivate25TabletEnterProximityEventE@Base 5.0.2 1
 _ZTIN29QWindowSystemInterfacePrivate25TabletLeaveProximityEventE@Base 5.0.2 1
 _ZTIN29QWindowSystemInterfacePrivate28ApplicationStateChangedEventE@Base 5.1.0 1
 _ZTIN29QWindowSystemInterfacePrivate28ScreenAvailableGeometryEventE@Base 5.0.2 1
 _ZTIN29QWindowSystemInterfacePrivate29ScreenLogicalDotsPerInchEventE@Base 5.0.2 1
 _ZTIN29QWindowSystemInterfacePrivate8KeyEventE@Base 5.0.2 1
 _ZTIN29QWindowSystemInterfacePrivate9UserEventE@Base 5.0.2 1
 _ZTIN4QCss13StyleSelectorE@Base 5.0.2 1
 _ZTS10QBasicDrag@Base 5.1.0 1
 _ZTS10QBlittable@Base 5.0.2 1
 _ZTS10QClipboard@Base 5.0.2
 _ZTS10QDropEvent@Base 5.0.2
 _ZTS10QHelpEvent@Base 5.0.2
 _ZTS10QHideEvent@Base 5.0.2
 _ZTS10QKeyMapper@Base 5.0.2 1
 _ZTS10QMoveEvent@Base 5.0.2
 _ZTS10QPdfEngine@Base 5.0.2 1
 _ZTS10QPdfWriter@Base 5.0.2
 _ZTS10QShowEvent@Base 5.0.2
 _ZTS10QTextFrame@Base 5.0.2
 _ZTS10QTextTable@Base 5.0.2
 _ZTS10QValidator@Base 5.0.2
 _ZTS11QCloseEvent@Base 5.0.2
 _ZTS11QEnterEvent@Base 5.0.2
 _ZTS11QFocusEvent@Base 5.0.2
 _ZTS11QFontEngine@Base 5.0.2 1
 _ZTS11QHoverEvent@Base 5.0.2
 _ZTS11QIconEngine@Base 5.0.2
 _ZTS11QIconLoader@Base 5.0.2 1
 _ZTS11QInputEvent@Base 5.0.2
 _ZTS11QMouseEvent@Base 5.0.2
 _ZTS11QPaintEvent@Base 5.0.2
 _ZTS11QSharedData@Base 5.0.2
 _ZTS11QSimpleDrag@Base 5.1.0 1
 _ZTS11QStrokerOps@Base 5.0.2 1
 _ZTS11QStyleHints@Base 5.0.2
 _ZTS11QTextObject@Base 5.0.2
 _ZTS11QTouchEvent@Base 5.0.2
 _ZTS11QWheelEvent@Base 5.0.2
 _ZTS12QActionEvent@Base 5.0.2
 _ZTS12QDashStroker@Base 5.0.2 1
 _ZTS12QDragManager@Base 5.0.2 1
 _ZTS12QExposeEvent@Base 5.0.2
 _ZTS12QInputMethod@Base 5.0.2
 _ZTS12QPaintBuffer@Base 5.0.2 1
 _ZTS12QPaintDevice@Base 5.0.2
 _ZTS12QPaintEngine@Base 5.0.2
 _ZTS12QResizeEvent@Base 5.0.2
 _ZTS12QScrollEvent@Base 5.0.2
 _ZTS12QTabletEvent@Base 5.0.2
 _ZTS13QIntValidator@Base 5.0.2
 _ZTS13QOpenGLShader@Base 5.0.2
 _ZTS13QPainterState@Base 5.0.2 1
 _ZTS13QPlatformDrag@Base 5.0.2 1
 _ZTS13QPlatformMenu@Base 5.0.2 1
 _ZTS13QStandardItem@Base 5.0.2
 _ZTS13QTextDocument@Base 5.0.2
 _ZTS14QDragMoveEvent@Base 5.0.2
 _ZTS14QFileOpenEvent@Base 5.0.2
 _ZTS14QFontEngineQPA@Base 5.0.2 1
 _ZTS14QGenericPlugin@Base 5.0.2
 _ZTS14QIconDragEvent@Base 5.0.2
 _ZTS14QImageIOPlugin@Base 5.0.2
 _ZTS14QOpenGLContext@Base 5.0.2
 _ZTS14QPaintEngineEx@Base 5.0.2 1
 _ZTS14QPlatformTheme@Base 5.0.2 1
 _ZTS14QShortcutEvent@Base 5.0.2
 _ZTS14QWindowPrivate@Base 5.0.2 1
 _ZTS15QDragEnterEvent@Base 5.0.2
 _ZTS15QDragLeaveEvent@Base 5.0.2
 _ZTS15QGridLayoutItem@Base 5.3.0 1
 _ZTS15QGuiApplication@Base 5.0.2
 _ZTS15QImageIOHandler@Base 5.0.2
 _ZTS15QPlatformCursor@Base 5.0.2 1
 _ZTS15QPlatformPixmap@Base 5.0.2 1
 _ZTS15QPlatformScreen@Base 5.0.2 1
 _ZTS15QPlatformWindow@Base 5.0.2 1
 _ZTS15QSessionManager@Base 5.0.2
 _ZTS15QStatusTipEvent@Base 5.0.2
 _ZTS15QTextBlockGroup@Base 5.0.2
 _ZTS16QAccessibleCache@Base 5.3.0 1
 _ZTS16QAccessibleEvent@Base 5.0.2
 _ZTS16QDoubleValidator@Base 5.0.2
 _ZTS16QFontEngineMulti@Base 5.0.2 1
 _ZTS16QPainterReplayer@Base 5.0.2 1
 _ZTS16QPlatformMenuBar@Base 5.0.2 1
 _ZTS16QPlatformSurface@Base 5.0.2 1
 _ZTS16QRegExpValidator@Base 5.0.2
 _ZTS17QAccessibleObject@Base 5.0.2
 _ZTS17QAccessiblePlugin@Base 5.0.2
 _ZTS17QContextMenuEvent@Base 5.0.2
 _ZTS17QIconEnginePlugin@Base 5.0.2
 _ZTS17QInputMethodEvent@Base 5.0.2
 _ZTS17QInternalMimeData@Base 5.0.2 1
 _ZTS17QOffscreenSurface@Base 5.1.0
 (arch=!armel !armhf)_ZTS17QOpenGLTimerQuery@Base 5.1.0
 _ZTS17QPagedPaintDevice@Base 5.0.2
 _ZTS17QPaintEngineState@Base 5.0.2
 _ZTS17QPdfEnginePrivate@Base 5.0.2 1
 _ZTS17QPlatformMenuItem@Base 5.0.2 1
 _ZTS17QPlatformServices@Base 5.0.2 1
 _ZTS17QTextImageHandler@Base 5.0.2 1
 _ZTS18QOpenGLDebugLogger@Base 5.1.0
 _ZTS18QOpenGLPaintDevice@Base 5.0.2
 (arch=!armel !armhf)_ZTS18QOpenGLTimeMonitor@Base 5.1.0
 _ZTS18QPlatformClipboard@Base 5.0.2 1
 _ZTS18QRasterPaintEngine@Base 5.0.2 1
 _ZTS18QStandardItemModel@Base 5.0.2
 _ZTS18QSyntaxHighlighter@Base 5.0.2
 _ZTS18QTextBlockUserData@Base 5.0.2
 _ZTS18QTextureGlyphCache@Base 5.0.2 1
 _ZTS19QBlitterPaintEngine@Base 5.0.2 1
 _ZTS19QFontEngineMultiQPA@Base 5.0.2 1
 _ZTS19QNativeGestureEvent@Base 5.2.0~beta1
 _ZTS19QOpenGLContextGroup@Base 5.0.2
 _ZTS19QOpenGLTextureCache@Base 5.0.2 1
 _ZTS19QPaintEnginePrivate@Base 5.0.2 1
 _ZTS19QScrollPrepareEvent@Base 5.0.2
 _ZTS19QTextDocumentLayout@Base 5.0.2 1
 _ZTS19QToolBarChangeEvent@Base 5.0.2
 _ZTS20QAccessibleInterface@Base 5.0.2
 (arch=!armel !armhf)_ZTS20QOpenGLFunctions_1_0@Base 5.1.0
 (arch=!armel !armhf)_ZTS20QOpenGLFunctions_1_1@Base 5.1.0
 (arch=!armel !armhf)_ZTS20QOpenGLFunctions_1_2@Base 5.1.0
 (arch=!armel !armhf)_ZTS20QOpenGLFunctions_1_3@Base 5.1.0
 (arch=!armel !armhf)_ZTS20QOpenGLFunctions_1_4@Base 5.1.0
 (arch=!armel !armhf)_ZTS20QOpenGLFunctions_1_5@Base 5.1.0
 (arch=!armel !armhf)_ZTS20QOpenGLFunctions_2_0@Base 5.1.0
 (arch=!armel !armhf)_ZTS20QOpenGLFunctions_2_1@Base 5.1.0
 (arch=!armel !armhf)_ZTS20QOpenGLFunctions_3_0@Base 5.1.0
 (arch=!armel !armhf)_ZTS20QOpenGLFunctions_3_1@Base 5.1.0
 (arch=armel armhf)_ZTS20QOpenGLFunctions_ES2@Base 5.2.0
 _ZTS20QOpenGLShaderProgram@Base 5.0.2
 _ZTS20QPictureFormatPlugin@Base 5.0.2
 _ZTS20QPlatformIntegration@Base 5.0.2 1
 _ZTS20QPlatformTextureList@Base 5.3.0 1
 _ZTS20QPlatformThemePlugin@Base 5.0.2 1
 _ZTS20QTextFrameLayoutData@Base 5.0.2
 _ZTS20QTextObjectInterface@Base 5.0.2
 _ZTS21QOpenGL2PaintEngineEx@Base 5.0.2 1
 _ZTS21QOpenGLContextPrivate@Base 5.0.2 1
 _ZTS21QOpenGLSharedResource@Base 5.0.2 1
 _ZTS21QPaintEngineExPrivate@Base 5.0.2 1
 _ZTS21QPlatformBackingStore@Base 5.0.2 1
 _ZTS21QPlatformDialogHelper@Base 5.0.2 1
 _ZTS21QPlatformFontDatabase@Base 5.0.2 1
 _ZTS21QPlatformInputContext@Base 5.0.2 1
 _ZTS21QPlatformScreenBuffer@Base 5.0.2 1
 _ZTS21QPlatformThemePrivate@Base 5.1.0 1
 _ZTS21QRasterPlatformPixmap@Base 5.0.2 1
 _ZTS22QAccessibleApplication@Base 5.0.2
 _ZTS22QGuiApplicationPrivate@Base 5.0.2 1
 _ZTS22QInputMethodQueryEvent@Base 5.0.2
 _ZTS22QPaintEngineExReplayer@Base 5.0.2 1
 _ZTS22QPlatformAccessibility@Base 5.0.2 1
 _ZTS22QPlatformOpenGLContext@Base 5.0.2 1
 _ZTS22QWhatsThisClickedEvent@Base 5.0.2
 _ZTS23QAccessibleBridgePlugin@Base 5.0.2
 _ZTS23QImageTextureGlyphCache@Base 5.0.2 1
 _ZTS23QPlatformSessionManager@Base 5.2.0~alpha1 1
 _ZTS23QPlatformSystemTrayIcon@Base 5.0.2 1
 _ZTS23QWindowStateChangeEvent@Base 5.0.2
 _ZTS24QAccessibleTextInterface@Base 5.0.2 1
 _ZTS24QBlittablePlatformPixmap@Base 5.0.2 1
 _ZTS24QOffscreenSurfacePrivate@Base 5.1.0
 _ZTS24QOpenGLCustomShaderStage@Base 5.0.2 1
 _ZTS24QOpenGLFramebufferObject@Base 5.0.2
 _ZTS24QOpenGLTextureGlyphCache@Base 5.0.2 1
 _ZTS24QOpenGLVertexArrayObject@Base 5.1.0
 _ZTS24QPagedPaintDevicePrivate@Base 5.3.0 1
 _ZTS24QPlatformNativeInterface@Base 5.0.2 1
 _ZTS25QAbstractItemModelPrivate@Base 5.0.2 1
 (arch=!armel !armhf)_ZTS25QOpenGLFunctions_3_2_Core@Base 5.1.0
 (arch=!armel !armhf)_ZTS25QOpenGLFunctions_3_3_Core@Base 5.1.0
 (arch=!armel !armhf)_ZTS25QOpenGLFunctions_4_0_Core@Base 5.1.0
 (arch=!armel !armhf)_ZTS25QOpenGLFunctions_4_1_Core@Base 5.1.0
 (arch=!armel !armhf)_ZTS25QOpenGLFunctions_4_2_Core@Base 5.1.0
 (arch=!armel !armhf)_ZTS25QOpenGLFunctions_4_3_Core@Base 5.1.0
 _ZTS25QPlatformFileDialogHelper@Base 5.0.2 1
 _ZTS25QPlatformFontDialogHelper@Base 5.0.2 1
 _ZTS25QPlatformOffscreenSurface@Base 5.1.0
 _ZTS26QAccessibleActionInterface@Base 5.0.2 1
 _ZTS26QOpenGLContextGroupPrivate@Base 5.0.2 1
 _ZTS26QOpenGLEngineShaderManager@Base 5.0.2 1
 _ZTS26QOpenGLSharedResourceGuard@Base 5.0.2 1
 _ZTS26QPlatformColorDialogHelper@Base 5.0.2 1
 _ZTS26QPlatformIntegrationPlugin@Base 5.0.2 1
 _ZTS26QPlatformScreenPageFlipper@Base 5.0.2 1
 _ZTS27QAbstractTextDocumentLayout@Base 5.0.2
 _ZTS27QAccessibleStateChangeEvent@Base 5.0.2
 _ZTS27QPlatformInputContextPlugin@Base 5.0.2 1
 _ZTS27QRegularExpressionValidator@Base 5.1.0
 _ZTS28QApplicationStateChangeEvent@Base 5.1.0
 _ZTS28QPlatformMessageDialogHelper@Base 5.2.0~alpha1 1
 _ZTS28QPlatformSharedGraphicsCache@Base 5.0.2
 _ZTS29QScreenOrientationChangeEvent@Base 5.0.2
 (arch=!armel !armhf)_ZTS34QOpenGLFunctions_3_2_Compatibility@Base 5.1.0
 (arch=!armel !armhf)_ZTS34QOpenGLFunctions_3_3_Compatibility@Base 5.1.0
 (arch=!armel !armhf)_ZTS34QOpenGLFunctions_4_0_Compatibility@Base 5.1.0
 (arch=!armel !armhf)_ZTS34QOpenGLFunctions_4_1_Compatibility@Base 5.1.0
 (arch=!armel !armhf)_ZTS34QOpenGLFunctions_4_2_Compatibility@Base 5.1.0
 (arch=!armel !armhf)_ZTS34QOpenGLFunctions_4_3_Compatibility@Base 5.1.0
 _ZTS5QDrag@Base 5.0.2
 _ZTS6QImage@Base 5.0.2
 _ZTS6QMovie@Base 5.0.2
 _ZTS7QBitmap@Base 5.0.2
 _ZTS7QPixmap@Base 5.0.2
 _ZTS7QScreen@Base 5.0.2
 _ZTS7QWindow@Base 5.0.2
 _ZTS8QPicture@Base 5.0.2
 _ZTS8QStroker@Base 5.0.2 1
 _ZTS8QSurface@Base 5.0.2
 _ZTS9QKeyEvent@Base 5.0.2
 _ZTS9QTextList@Base 5.0.2
 _ZTSN29QWindowSystemInterfacePrivate10CloseEventE@Base 5.0.2 1
 _ZTSN29QWindowSystemInterfacePrivate10EnterEventE@Base 5.0.2 1
 _ZTSN29QWindowSystemInterfacePrivate10InputEventE@Base 5.0.2 1
 _ZTSN29QWindowSystemInterfacePrivate10LeaveEventE@Base 5.0.2 1
 _ZTSN29QWindowSystemInterfacePrivate10MouseEventE@Base 5.0.2 1
 _ZTSN29QWindowSystemInterfacePrivate10TouchEventE@Base 5.0.2 1
 _ZTSN29QWindowSystemInterfacePrivate10WheelEventE@Base 5.0.2 1
 _ZTSN29QWindowSystemInterfacePrivate11ExposeEventE@Base 5.0.2 1
 _ZTSN29QWindowSystemInterfacePrivate11TabletEventE@Base 5.0.2 1
 _ZTSN29QWindowSystemInterfacePrivate12GestureEventE@Base 5.2.0~beta1 1
 _ZTSN29QWindowSystemInterfacePrivate13FileOpenEventE@Base 5.0.2 1
 _ZTSN29QWindowSystemInterfacePrivate16ContextMenuEventE@Base 5.0.2 1
 _ZTSN29QWindowSystemInterfacePrivate16FlushEventsEventE@Base 5.1.0 1
 _ZTSN29QWindowSystemInterfacePrivate16ThemeChangeEventE@Base 5.0.2 1
 _ZTSN29QWindowSystemInterfacePrivate17WindowSystemEventE@Base 5.0.2 1
 _ZTSN29QWindowSystemInterfacePrivate18PlatformPanelEventE@Base 5.0.2 1
 _ZTSN29QWindowSystemInterfacePrivate19GeometryChangeEventE@Base 5.0.2 1
 _ZTSN29QWindowSystemInterfacePrivate19ScreenGeometryEventE@Base 5.0.2 1
 _ZTSN29QWindowSystemInterfacePrivate20ActivatedWindowEventE@Base 5.0.2 1
 _ZTSN29QWindowSystemInterfacePrivate22ScreenOrientationEventE@Base 5.0.2 1
 _ZTSN29QWindowSystemInterfacePrivate22ScreenRefreshRateEventE@Base 5.0.2 1
 _ZTSN29QWindowSystemInterfacePrivate23WindowStateChangedEventE@Base 5.0.2 1
 _ZTSN29QWindowSystemInterfacePrivate24WindowScreenChangedEventE@Base 5.1.0 1
 _ZTSN29QWindowSystemInterfacePrivate25TabletEnterProximityEventE@Base 5.0.2 1
 _ZTSN29QWindowSystemInterfacePrivate25TabletLeaveProximityEventE@Base 5.0.2 1
 _ZTSN29QWindowSystemInterfacePrivate28ApplicationStateChangedEventE@Base 5.1.0 1
 _ZTSN29QWindowSystemInterfacePrivate28ScreenAvailableGeometryEventE@Base 5.0.2 1
 _ZTSN29QWindowSystemInterfacePrivate29ScreenLogicalDotsPerInchEventE@Base 5.0.2 1
 _ZTSN29QWindowSystemInterfacePrivate8KeyEventE@Base 5.0.2 1
 _ZTSN29QWindowSystemInterfacePrivate9UserEventE@Base 5.0.2 1
 _ZTSN4QCss13StyleSelectorE@Base 5.0.2 1
 _ZTV10QBasicDrag@Base 5.1.0 1
 _ZTV10QBlittable@Base 5.0.2 1
 _ZTV10QClipboard@Base 5.0.2
 _ZTV10QDropEvent@Base 5.0.2
 _ZTV10QHelpEvent@Base 5.0.2
 _ZTV10QHideEvent@Base 5.0.2
 _ZTV10QKeyMapper@Base 5.0.2 1
 _ZTV10QMoveEvent@Base 5.0.2
 _ZTV10QPdfEngine@Base 5.0.2 1
 _ZTV10QPdfWriter@Base 5.0.2
 _ZTV10QShowEvent@Base 5.0.2
 _ZTV10QTextFrame@Base 5.0.2
 _ZTV10QTextTable@Base 5.0.2
 _ZTV10QValidator@Base 5.0.2
 _ZTV11QCloseEvent@Base 5.0.2
 _ZTV11QEnterEvent@Base 5.0.2
 _ZTV11QFocusEvent@Base 5.0.2
 _ZTV11QFontEngine@Base 5.0.2 1
 _ZTV11QHoverEvent@Base 5.0.2
 _ZTV11QIconEngine@Base 5.0.2
 _ZTV11QIconLoader@Base 5.0.2 1
 _ZTV11QInputEvent@Base 5.0.2
 _ZTV11QMouseEvent@Base 5.0.2
 _ZTV11QPaintEvent@Base 5.0.2
 _ZTV11QSimpleDrag@Base 5.1.0 1
 _ZTV11QStrokerOps@Base 5.0.2 1
 _ZTV11QStyleHints@Base 5.0.2
 _ZTV11QTextObject@Base 5.0.2
 _ZTV11QTouchEvent@Base 5.0.2
 _ZTV11QWheelEvent@Base 5.0.2
 _ZTV12QActionEvent@Base 5.0.2
 _ZTV12QDashStroker@Base 5.0.2 1
 _ZTV12QDragManager@Base 5.0.2 1
 _ZTV12QExposeEvent@Base 5.0.2
 _ZTV12QInputMethod@Base 5.0.2
 _ZTV12QPaintBuffer@Base 5.0.2 1
 _ZTV12QPaintDevice@Base 5.0.2
 _ZTV12QPaintEngine@Base 5.0.2
 _ZTV12QResizeEvent@Base 5.0.2
 _ZTV12QScrollEvent@Base 5.0.2
 _ZTV12QTabletEvent@Base 5.0.2
 _ZTV13QIntValidator@Base 5.0.2
 _ZTV13QOpenGLShader@Base 5.0.2
 _ZTV13QPainterState@Base 5.0.2 1
 _ZTV13QPlatformDrag@Base 5.0.2 1
 _ZTV13QPlatformMenu@Base 5.0.2 1
 _ZTV13QStandardItem@Base 5.0.2
 _ZTV13QTextDocument@Base 5.0.2
 _ZTV14QDragMoveEvent@Base 5.0.2
 _ZTV14QFileOpenEvent@Base 5.0.2
 _ZTV14QFontEngineQPA@Base 5.0.2 1
 _ZTV14QGenericPlugin@Base 5.0.2
 _ZTV14QIconDragEvent@Base 5.0.2
 _ZTV14QImageIOPlugin@Base 5.0.2
 _ZTV14QOpenGLContext@Base 5.0.2
 _ZTV14QPaintEngineEx@Base 5.0.2 1
 _ZTV14QPlatformTheme@Base 5.0.2 1
 _ZTV14QShortcutEvent@Base 5.0.2
 _ZTV14QWindowPrivate@Base 5.0.2 1
 _ZTV15QDragEnterEvent@Base 5.0.2
 _ZTV15QDragLeaveEvent@Base 5.0.2
 _ZTV15QGridLayoutItem@Base 5.3.0 1
 _ZTV15QGuiApplication@Base 5.0.2
 _ZTV15QImageIOHandler@Base 5.0.2
 _ZTV15QPlatformCursor@Base 5.0.2 1
 _ZTV15QPlatformPixmap@Base 5.0.2 1
 _ZTV15QPlatformScreen@Base 5.0.2 1
 _ZTV15QPlatformWindow@Base 5.0.2 1
 _ZTV15QSessionManager@Base 5.0.2
 _ZTV15QStatusTipEvent@Base 5.0.2
 _ZTV15QTextBlockGroup@Base 5.0.2
 _ZTV16QAccessibleCache@Base 5.3.0 1
 _ZTV16QAccessibleEvent@Base 5.0.2
 _ZTV16QDoubleValidator@Base 5.0.2
 _ZTV16QFontEngineMulti@Base 5.0.2 1
 _ZTV16QPainterReplayer@Base 5.0.2 1
 _ZTV16QPlatformMenuBar@Base 5.0.2 1
 _ZTV16QPlatformSurface@Base 5.0.2 1
 _ZTV16QRegExpValidator@Base 5.0.2
 _ZTV17QAccessibleObject@Base 5.0.2
 _ZTV17QAccessiblePlugin@Base 5.0.2
 _ZTV17QContextMenuEvent@Base 5.0.2
 _ZTV17QIconEnginePlugin@Base 5.0.2
 _ZTV17QInputMethodEvent@Base 5.0.2
 _ZTV17QInternalMimeData@Base 5.0.2 1
 _ZTV17QOffscreenSurface@Base 5.1.0
 (arch=!armel !armhf)_ZTV17QOpenGLTimerQuery@Base 5.1.0
 _ZTV17QPagedPaintDevice@Base 5.0.2
 _ZTV17QPdfEnginePrivate@Base 5.0.2 1
 _ZTV17QPlatformMenuItem@Base 5.0.2 1
 _ZTV17QPlatformServices@Base 5.0.2 1
 _ZTV17QTextImageHandler@Base 5.0.2 1
 _ZTV18QOpenGLDebugLogger@Base 5.1.0
 _ZTV18QOpenGLPaintDevice@Base 5.0.2
 (arch=!armel !armhf)_ZTV18QOpenGLTimeMonitor@Base 5.1.0
 _ZTV18QPlatformClipboard@Base 5.0.2 1
 _ZTV18QRasterPaintEngine@Base 5.0.2 1
 _ZTV18QStandardItemModel@Base 5.0.2
 _ZTV18QSyntaxHighlighter@Base 5.0.2
 _ZTV18QTextBlockUserData@Base 5.0.2
 _ZTV18QTextureGlyphCache@Base 5.0.2 1
 _ZTV19QBlitterPaintEngine@Base 5.0.2 1
 _ZTV19QFontEngineMultiQPA@Base 5.0.2 1
 _ZTV19QNativeGestureEvent@Base 5.2.0~beta1
 _ZTV19QOpenGLContextGroup@Base 5.0.2
 _ZTV19QOpenGLTextureCache@Base 5.0.2 1
 _ZTV19QPaintEnginePrivate@Base 5.0.2 1
 _ZTV19QScrollPrepareEvent@Base 5.0.2
 _ZTV19QTextDocumentLayout@Base 5.0.2 1
 _ZTV19QToolBarChangeEvent@Base 5.0.2
 _ZTV20QAccessibleInterface@Base 5.0.2
 (arch=!armel !armhf)_ZTV20QOpenGLFunctions_1_0@Base 5.1.0
 (arch=!armel !armhf)_ZTV20QOpenGLFunctions_1_1@Base 5.1.0
 (arch=!armel !armhf)_ZTV20QOpenGLFunctions_1_2@Base 5.1.0
 (arch=!armel !armhf)_ZTV20QOpenGLFunctions_1_3@Base 5.1.0
 (arch=!armel !armhf)_ZTV20QOpenGLFunctions_1_4@Base 5.1.0
 (arch=!armel !armhf)_ZTV20QOpenGLFunctions_1_5@Base 5.1.0
 (arch=!armel !armhf)_ZTV20QOpenGLFunctions_2_0@Base 5.1.0
 (arch=!armel !armhf)_ZTV20QOpenGLFunctions_2_1@Base 5.1.0
 (arch=!armel !armhf)_ZTV20QOpenGLFunctions_3_0@Base 5.1.0
 (arch=!armel !armhf)_ZTV20QOpenGLFunctions_3_1@Base 5.1.0
 (arch=armel armhf)_ZTV20QOpenGLFunctions_ES2@Base 5.2.0
 _ZTV20QOpenGLShaderProgram@Base 5.0.2
 _ZTV20QPictureFormatPlugin@Base 5.0.2
 _ZTV20QPlatformIntegration@Base 5.0.2 1
 _ZTV20QPlatformTextureList@Base 5.3.0 1
 _ZTV20QPlatformThemePlugin@Base 5.0.2 1
 _ZTV20QTextFrameLayoutData@Base 5.0.2
 _ZTV20QTextObjectInterface@Base 5.0.2
 _ZTV21QOpenGL2PaintEngineEx@Base 5.0.2 1
 _ZTV21QOpenGLContextPrivate@Base 5.0.2 1
 _ZTV21QOpenGLSharedResource@Base 5.0.2 1
 _ZTV21QPaintEngineExPrivate@Base 5.0.2 1
 _ZTV21QPlatformBackingStore@Base 5.0.2 1
 _ZTV21QPlatformDialogHelper@Base 5.0.2 1
 _ZTV21QPlatformFontDatabase@Base 5.0.2 1
 _ZTV21QPlatformInputContext@Base 5.0.2 1
 _ZTV21QPlatformScreenBuffer@Base 5.0.2 1
 _ZTV21QPlatformThemePrivate@Base 5.1.0 1
 _ZTV21QRasterPlatformPixmap@Base 5.0.2 1
 _ZTV22QAccessibleApplication@Base 5.0.2
 _ZTV22QGuiApplicationPrivate@Base 5.0.2 1
 _ZTV22QInputMethodQueryEvent@Base 5.0.2
 _ZTV22QPaintEngineExReplayer@Base 5.0.2 1
 _ZTV22QPlatformAccessibility@Base 5.0.2 1
 _ZTV22QPlatformOpenGLContext@Base 5.0.2 1
 _ZTV22QWhatsThisClickedEvent@Base 5.0.2
 _ZTV23QAccessibleBridgePlugin@Base 5.0.2
 _ZTV23QImageTextureGlyphCache@Base 5.0.2 1
 _ZTV23QPlatformSessionManager@Base 5.2.0~alpha1 1
 _ZTV23QPlatformSystemTrayIcon@Base 5.0.2 1
 _ZTV23QWindowStateChangeEvent@Base 5.0.2
 _ZTV24QAccessibleTextInterface@Base 5.0.2 1
 _ZTV24QBlittablePlatformPixmap@Base 5.0.2 1
 _ZTV24QOffscreenSurfacePrivate@Base 5.1.0
 _ZTV24QOpenGLCustomShaderStage@Base 5.0.2 1
 _ZTV24QOpenGLFramebufferObject@Base 5.0.2
 _ZTV24QOpenGLTextureGlyphCache@Base 5.0.2 1
 _ZTV24QOpenGLVertexArrayObject@Base 5.1.0
 _ZTV24QPagedPaintDevicePrivate@Base 5.3.0 1
 _ZTV24QPlatformNativeInterface@Base 5.0.2 1
 _ZTV25QAbstractItemModelPrivate@Base 5.0.2 1
 (arch=!armel !armhf)_ZTV25QOpenGLFunctions_3_2_Core@Base 5.1.0
 (arch=!armel !armhf)_ZTV25QOpenGLFunctions_3_3_Core@Base 5.1.0
 (arch=!armel !armhf)_ZTV25QOpenGLFunctions_4_0_Core@Base 5.1.0
 (arch=!armel !armhf)_ZTV25QOpenGLFunctions_4_1_Core@Base 5.1.0
 (arch=!armel !armhf)_ZTV25QOpenGLFunctions_4_2_Core@Base 5.1.0
 (arch=!armel !armhf)_ZTV25QOpenGLFunctions_4_3_Core@Base 5.1.0
 _ZTV25QPlatformFileDialogHelper@Base 5.0.2 1
 _ZTV25QPlatformFontDialogHelper@Base 5.0.2 1
 _ZTV25QPlatformOffscreenSurface@Base 5.1.0
 _ZTV26QAccessibleActionInterface@Base 5.0.2 1
 _ZTV26QOpenGLContextGroupPrivate@Base 5.0.2 1
 _ZTV26QOpenGLEngineShaderManager@Base 5.0.2 1
 _ZTV26QOpenGLSharedResourceGuard@Base 5.0.2 1
 _ZTV26QPlatformColorDialogHelper@Base 5.0.2 1
 _ZTV26QPlatformIntegrationPlugin@Base 5.0.2 1
 _ZTV26QPlatformScreenPageFlipper@Base 5.0.2 1
 _ZTV27QAbstractTextDocumentLayout@Base 5.0.2
 _ZTV27QAccessibleStateChangeEvent@Base 5.0.2
 _ZTV27QPlatformInputContextPlugin@Base 5.0.2 1
 _ZTV27QRegularExpressionValidator@Base 5.1.0
 _ZTV28QApplicationStateChangeEvent@Base 5.1.0
 _ZTV28QPlatformMessageDialogHelper@Base 5.2.0~alpha1 1
 _ZTV28QPlatformSharedGraphicsCache@Base 5.0.2
 _ZTV29QScreenOrientationChangeEvent@Base 5.0.2
 (arch=!armel !armhf)_ZTV34QOpenGLFunctions_3_2_Compatibility@Base 5.1.0
 (arch=!armel !armhf)_ZTV34QOpenGLFunctions_3_3_Compatibility@Base 5.1.0
 (arch=!armel !armhf)_ZTV34QOpenGLFunctions_4_0_Compatibility@Base 5.1.0
 (arch=!armel !armhf)_ZTV34QOpenGLFunctions_4_1_Compatibility@Base 5.1.0
 (arch=!armel !armhf)_ZTV34QOpenGLFunctions_4_2_Compatibility@Base 5.1.0
 (arch=!armel !armhf)_ZTV34QOpenGLFunctions_4_3_Compatibility@Base 5.1.0
 _ZTV5QDrag@Base 5.0.2
 _ZTV6QImage@Base 5.0.2
 _ZTV6QMovie@Base 5.0.2
 _ZTV7QBitmap@Base 5.0.2
 _ZTV7QPixmap@Base 5.0.2
 _ZTV7QScreen@Base 5.0.2
 _ZTV7QWindow@Base 5.0.2
 _ZTV8QPicture@Base 5.0.2
 _ZTV8QStroker@Base 5.0.2 1
 _ZTV8QSurface@Base 5.0.2
 _ZTV9QKeyEvent@Base 5.0.2
 _ZTV9QTextList@Base 5.0.2
 _ZTVN29QWindowSystemInterfacePrivate10CloseEventE@Base 5.0.2 1
 _ZTVN29QWindowSystemInterfacePrivate10EnterEventE@Base 5.0.2 1
 _ZTVN29QWindowSystemInterfacePrivate10InputEventE@Base 5.0.2 1
 _ZTVN29QWindowSystemInterfacePrivate10LeaveEventE@Base 5.0.2 1
 _ZTVN29QWindowSystemInterfacePrivate10MouseEventE@Base 5.0.2 1
 _ZTVN29QWindowSystemInterfacePrivate10TouchEventE@Base 5.0.2 1
 _ZTVN29QWindowSystemInterfacePrivate10WheelEventE@Base 5.0.2 1
 _ZTVN29QWindowSystemInterfacePrivate11ExposeEventE@Base 5.0.2 1
 _ZTVN29QWindowSystemInterfacePrivate11TabletEventE@Base 5.0.2 1
 _ZTVN29QWindowSystemInterfacePrivate12GestureEventE@Base 5.2.0~beta1 1
 _ZTVN29QWindowSystemInterfacePrivate13FileOpenEventE@Base 5.0.2 1
 _ZTVN29QWindowSystemInterfacePrivate16ContextMenuEventE@Base 5.0.2 1
 _ZTVN29QWindowSystemInterfacePrivate16FlushEventsEventE@Base 5.1.0 1
 _ZTVN29QWindowSystemInterfacePrivate16ThemeChangeEventE@Base 5.0.2 1
 _ZTVN29QWindowSystemInterfacePrivate17WindowSystemEventE@Base 5.0.2 1
 _ZTVN29QWindowSystemInterfacePrivate18PlatformPanelEventE@Base 5.0.2 1
 _ZTVN29QWindowSystemInterfacePrivate19GeometryChangeEventE@Base 5.0.2 1
 _ZTVN29QWindowSystemInterfacePrivate19ScreenGeometryEventE@Base 5.0.2 1
 _ZTVN29QWindowSystemInterfacePrivate20ActivatedWindowEventE@Base 5.0.2 1
 _ZTVN29QWindowSystemInterfacePrivate22ScreenOrientationEventE@Base 5.0.2 1
 _ZTVN29QWindowSystemInterfacePrivate22ScreenRefreshRateEventE@Base 5.0.2 1
 _ZTVN29QWindowSystemInterfacePrivate23WindowStateChangedEventE@Base 5.0.2 1
 _ZTVN29QWindowSystemInterfacePrivate24WindowScreenChangedEventE@Base 5.1.0 1
 _ZTVN29QWindowSystemInterfacePrivate25TabletEnterProximityEventE@Base 5.0.2 1
 _ZTVN29QWindowSystemInterfacePrivate25TabletLeaveProximityEventE@Base 5.0.2 1
 _ZTVN29QWindowSystemInterfacePrivate28ApplicationStateChangedEventE@Base 5.1.0 1
 _ZTVN29QWindowSystemInterfacePrivate28ScreenAvailableGeometryEventE@Base 5.0.2 1
 _ZTVN29QWindowSystemInterfacePrivate29ScreenLogicalDotsPerInchEventE@Base 5.0.2 1
 _ZTVN29QWindowSystemInterfacePrivate8KeyEventE@Base 5.0.2 1
 _ZTVN29QWindowSystemInterfacePrivate9UserEventE@Base 5.0.2 1
 _ZTVN4QCss13StyleSelectorE@Base 5.0.2 1
 _ZdvRK10QMatrix4x4f@Base 5.0.2
 _ZeqRK11QPageLayoutS1_@Base 5.3.0
 _ZeqRK14QSurfaceFormatS1_@Base 5.0.2
 _ZeqRK9QPageSizeS1_@Base 5.3.0
 _ZeqRKN11QAccessible5StateES2_@Base 5.0.2
 _ZeqRKN22QGuiApplicationPrivate20ActiveTouchPointsKeyES2_@Base 5.0.2 1
 _Zls6QDebugN19QOpenGLDebugMessage4TypeE@Base 5.1.0
 _Zls6QDebugN19QOpenGLDebugMessage6SourceE@Base 5.1.0
 _Zls6QDebugN19QOpenGLDebugMessage8SeverityE@Base 5.1.0
 _Zls6QDebugPK20QAccessibleInterface@Base 5.0.2
 _Zls6QDebugPK6QEvent@Base 5.0.2
 _Zls6QDebugRK10QMatrix4x4@Base 5.0.2
 _Zls6QDebugRK10QTransform@Base 5.0.2
 _Zls6QDebugRK11QPageLayout@Base 5.3.0
 _Zls6QDebugRK11QQuaternion@Base 5.0.2
 _Zls6QDebugRK11QTextFormat@Base 5.0.2
 _Zls6QDebugRK11QTextLength@Base 5.0.2
 _Zls6QDebugRK12QKeySequence@Base 5.0.2
 _Zls6QDebugRK12QPainterPath@Base 5.0.2
 _Zls6QDebugRK14QSurfaceFormat@Base 5.0.2
 _Zls6QDebugRK16QAccessibleEvent@Base 5.0.2
 _Zls6QDebugRK19QOpenGLDebugMessage@Base 5.1.0
 _Zls6QDebugRK4QPen@Base 5.0.2
 _Zls6QDebugRK5QFont@Base 5.0.2
 _Zls6QDebugRK5QIcon@Base 5.0.2
 _Zls6QDebugRK6QBrush@Base 5.0.2
 _Zls6QDebugRK6QColor@Base 5.0.2
 _Zls6QDebugRK6QImage@Base 5.0.2
 _Zls6QDebugRK7QCursor@Base 5.0.2
 _Zls6QDebugRK7QMatrix@Base 5.0.2
 _Zls6QDebugRK7QPixmap@Base 5.0.2
 _Zls6QDebugRK7QRegion@Base 5.0.2
 _Zls6QDebugRK8QPalette@Base 5.0.2
 _Zls6QDebugRK8QPolygon@Base 5.0.2
 _Zls6QDebugRK9QPageSize@Base 5.3.0
 _Zls6QDebugRK9QPolygonF@Base 5.0.2
 _Zls6QDebugRK9QVector2D@Base 5.0.2
 _Zls6QDebugRK9QVector3D@Base 5.0.2
 _Zls6QDebugRK9QVector4D@Base 5.0.2
 _Zls6QDebugRKN22QWindowSystemInterface10TouchPointE@Base 5.1.0 1
 _ZlsR11QDataStreamRK10QMatrix4x4@Base 5.0.2
 _ZlsR11QDataStreamRK10QTransform@Base 5.0.2
 _ZlsR11QDataStreamRK11QQuaternion@Base 5.0.2
 _ZlsR11QDataStreamRK11QTextFormat@Base 5.0.2
 _ZlsR11QDataStreamRK11QTextLength@Base 5.0.2
 _ZlsR11QDataStreamRK12QKeySequence@Base 5.0.2
 _ZlsR11QDataStreamRK12QPaintBuffer@Base 5.0.2 1
 _ZlsR11QDataStreamRK12QPainterPath@Base 5.0.2
 _ZlsR11QDataStreamRK13QStandardItem@Base 5.0.2
 _ZlsR11QDataStreamRK4QPen@Base 5.0.2
 _ZlsR11QDataStreamRK5QFont@Base 5.0.2
 _ZlsR11QDataStreamRK5QIcon@Base 5.0.2
 _ZlsR11QDataStreamRK6QBrush@Base 5.0.2
 _ZlsR11QDataStreamRK6QColor@Base 5.0.2
 _ZlsR11QDataStreamRK6QImage@Base 5.0.2
 _ZlsR11QDataStreamRK7QCursor@Base 5.0.2
 _ZlsR11QDataStreamRK7QMatrix@Base 5.0.2
 _ZlsR11QDataStreamRK7QPixmap@Base 5.0.2
 _ZlsR11QDataStreamRK7QRegion@Base 5.0.2
 _ZlsR11QDataStreamRK8QPalette@Base 5.0.2
 _ZlsR11QDataStreamRK8QPicture@Base 5.0.2
 _ZlsR11QDataStreamRK8QPolygon@Base 5.0.2
 _ZlsR11QDataStreamRK9QPolygonF@Base 5.0.2
 _ZlsR11QDataStreamRK9QVector2D@Base 5.0.2
 _ZlsR11QDataStreamRK9QVector3D@Base 5.0.2
 _ZlsR11QDataStreamRK9QVector4D@Base 5.0.2
 _ZlsR6QDebugRK11QVectorPath@Base 5.0.2 1
 _ZmlRK12QPainterPathRK7QMatrix@Base 5.0.2
 _ZneRK14QSurfaceFormatS1_@Base 5.0.2
 _ZrsR11QDataStreamR10QMatrix4x4@Base 5.0.2
 _ZrsR11QDataStreamR10QTransform@Base 5.0.2
 _ZrsR11QDataStreamR11QQuaternion@Base 5.0.2
 _ZrsR11QDataStreamR11QTextFormat@Base 5.0.2
 _ZrsR11QDataStreamR11QTextLength@Base 5.0.2
 _ZrsR11QDataStreamR12QKeySequence@Base 5.0.2
 _ZrsR11QDataStreamR12QPaintBuffer@Base 5.0.2 1
 _ZrsR11QDataStreamR12QPainterPath@Base 5.0.2
 _ZrsR11QDataStreamR13QStandardItem@Base 5.0.2
 _ZrsR11QDataStreamR4QPen@Base 5.0.2
 _ZrsR11QDataStreamR5QFont@Base 5.0.2
 _ZrsR11QDataStreamR5QIcon@Base 5.0.2
 _ZrsR11QDataStreamR6QBrush@Base 5.0.2
 _ZrsR11QDataStreamR6QColor@Base 5.0.2
 _ZrsR11QDataStreamR6QImage@Base 5.0.2
 _ZrsR11QDataStreamR7QCursor@Base 5.0.2
 _ZrsR11QDataStreamR7QMatrix@Base 5.0.2
 _ZrsR11QDataStreamR7QPixmap@Base 5.0.2
 _ZrsR11QDataStreamR7QRegion@Base 5.0.2
 _ZrsR11QDataStreamR8QPalette@Base 5.0.2
 _ZrsR11QDataStreamR8QPicture@Base 5.0.2
 _ZrsR11QDataStreamR8QPolygon@Base 5.0.2
 _ZrsR11QDataStreamR9QPolygonF@Base 5.0.2
 _ZrsR11QDataStreamR9QVector2D@Base 5.0.2
 _ZrsR11QDataStreamR9QVector3D@Base 5.0.2
 _ZrsR11QDataStreamR9QVector4D@Base 5.0.2
 (c++)"non-virtual thunk to QBasicDrag::eventFilter(QObject*, QEvent*)@Base" 5.1.0
 (c++)"non-virtual thunk to QBasicDrag::~QBasicDrag()@Base" 5.1.0
 (c++)"non-virtual thunk to QOffscreenSurface::format() const@Base" 5.1.0
 (c++)"non-virtual thunk to QOffscreenSurface::size() const@Base" 5.1.0
 (c++)"non-virtual thunk to QOffscreenSurface::surfaceHandle() const@Base" 5.1.0
 (c++)"non-virtual thunk to QOffscreenSurface::surfaceType() const@Base" 5.1.0
 (c++)"non-virtual thunk to QOffscreenSurface::~QOffscreenSurface()@Base" 5.1.0
 (c++)"non-virtual thunk to QPdfWriter::metric(QPaintDevice::PaintDeviceMetric) const@Base" 5.0.2
 (c++)"non-virtual thunk to QPdfWriter::newPage()@Base" 5.0.2
 (c++)"non-virtual thunk to QPdfWriter::paintEngine() const@Base" 5.0.2
 (c++)"non-virtual thunk to QPdfWriter::setMargins(QPagedPaintDevice::Margins const&)@Base" 5.0.2
 (c++)"non-virtual thunk to QPdfWriter::setPageSize(QPagedPaintDevice::PageSize)@Base" 5.0.2
 (c++)"non-virtual thunk to QPdfWriter::setPageSizeMM(QSizeF const&)@Base" 5.0.2
 (c++)"non-virtual thunk to QPdfWriter::~QPdfWriter()@Base" 5.0.2
 (c++)"non-virtual thunk to QSimpleDrag::~QSimpleDrag()@Base" 5.1.0
 (c++)"non-virtual thunk to QTextImageHandler::drawObject(QPainter*, QRectF const&, QTextDocument*, int, QTextFormat const&)@Base" 5.0.2
 (c++)"non-virtual thunk to QTextImageHandler::intrinsicSize(QTextDocument*, int, QTextFormat const&)@Base" 5.0.2
 (c++)"non-virtual thunk to QTextImageHandler::~QTextImageHandler()@Base" 5.0.2
 (c++)"non-virtual thunk to QWindow::format() const@Base" 5.0.2
 (c++)"non-virtual thunk to QWindow::surfaceHandle() const@Base" 5.0.2
 (c++)"non-virtual thunk to QWindow::surfaceType() const@Base" 5.0.2
 (c++)"non-virtual thunk to QWindow::~QWindow()@Base" 5.0.2
 qt_inv_premul_factor@Base 5.3.0
 qt_is_gui_used@Base 5.0.2
