# SymbolsHelper-Confirmed: 5.3.0 amd64
libQt5PrintSupport.so.5 libqt5printsupport5 #MINVER#
| libqt5printsupport5 #MINVER#, qtbase-abi-5-3-2
 _Z19qt_printerPaperSizeN8QPrinter11OrientationEN17QPagedPaintDevice8PageSizeENS_4UnitEi@Base 5.0.2
 _Z20qt_multiplierForUnitN8QPrinter4UnitEi@Base 5.0.2
 _ZN12QCUPSSupport10setJobHoldEP8QPrinterNS_12JobHoldUntilERK5QTime@Base 5.2.0~alpha1 1
 _ZN12QCUPSSupport10setPageSetEP8QPrinterNS_7PageSetE@Base 5.2.0~alpha1 1
 _ZN12QCUPSSupport12setPageRangeEP8QPrinterii@Base 5.2.0~alpha1 1
 _ZN12QCUPSSupport13setCupsOptionER11QStringListRK7QStringS4_@Base 5.2.0~alpha1 1
 _ZN12QCUPSSupport13setJobBillingEP8QPrinterRK7QString@Base 5.2.0~alpha1 1
 _ZN12QCUPSSupport14setBannerPagesEP8QPrinterNS_10BannerPageES2_@Base 5.2.0~alpha1 1
 _ZN12QCUPSSupport14setCupsOptionsEP8QPrinterRK11QStringList@Base 5.2.0~alpha1 1
 _ZN12QCUPSSupport14setJobPriorityEP8QPrinteri@Base 5.2.0~alpha1 1
 _ZN12QCUPSSupport15cupsOptionsListEP8QPrinter@Base 5.2.0~alpha1 1
 _ZN12QCUPSSupport22setPagesPerSheetLayoutEP8QPrinterNS_13PagesPerSheetENS_19PagesPerSheetLayoutE@Base 5.2.0~alpha1 1
 _ZN12QPrintDeviceC1EP20QPlatformPrintDevice@Base 5.3.0 1
 _ZN12QPrintDeviceC1ERK7QString@Base 5.3.0 1
 _ZN12QPrintDeviceC1ERKS_@Base 5.3.0 1
 _ZN12QPrintDeviceC1Ev@Base 5.3.0 1
 _ZN12QPrintDeviceC2EP20QPlatformPrintDevice@Base 5.3.0 1
 _ZN12QPrintDeviceC2ERK7QString@Base 5.3.0 1
 _ZN12QPrintDeviceC2ERKS_@Base 5.3.0 1
 _ZN12QPrintDeviceC2Ev@Base 5.3.0 1
 _ZN12QPrintDeviceD1Ev@Base 5.3.0 1
 _ZN12QPrintDeviceD2Ev@Base 5.3.0 1
 _ZN12QPrintDeviceaSERKS_@Base 5.3.0 1
 _ZN12QPrintDialog10setOptionsE6QFlagsIN20QAbstractPrintDialog17PrintDialogOptionEE@Base 5.0.2
 _ZN12QPrintDialog10setVisibleEb@Base 5.0.2
 _ZN12QPrintDialog11qt_metacallEN11QMetaObject4CallEiPPv@Base 5.0.2
 _ZN12QPrintDialog11qt_metacastEPKc@Base 5.0.2
 _ZN12QPrintDialog16staticMetaObjectE@Base 5.0.2
 _ZN12QPrintDialog4doneEi@Base 5.0.2
 _ZN12QPrintDialog4execEv@Base 5.0.2
 _ZN12QPrintDialog4openEP7QObjectPKc@Base 5.0.2
 _ZN12QPrintDialog6acceptEv@Base 5.0.2
 _ZN12QPrintDialog8acceptedEP8QPrinter@Base 5.0.2
 _ZN12QPrintDialog9setOptionEN20QAbstractPrintDialog17PrintDialogOptionEb@Base 5.0.2
 _ZN12QPrintDialogC1EP7QWidget@Base 5.0.2
 _ZN12QPrintDialogC1EP8QPrinterP7QWidget@Base 5.0.2
 _ZN12QPrintDialogC2EP7QWidget@Base 5.0.2
 _ZN12QPrintDialogC2EP8QPrinterP7QWidget@Base 5.0.2
 _ZN12QPrintDialogD0Ev@Base 5.0.2
 _ZN12QPrintDialogD1Ev@Base 5.0.2
 _ZN12QPrintDialogD2Ev@Base 5.0.2
 _ZN12QPrinterInfo11printerInfoERK7QString@Base 5.0.2
 _ZN12QPrinterInfo14defaultPrinterEv@Base 5.0.2
 _ZN12QPrinterInfo17availablePrintersEv@Base 5.0.2
 _ZN12QPrinterInfo18defaultPrinterNameEv@Base 5.3.0
 _ZN12QPrinterInfo21availablePrinterNamesEv@Base 5.3.0
 _ZN12QPrinterInfoC1ERK7QString@Base 5.0.2
 _ZN12QPrinterInfoC1ERK8QPrinter@Base 5.0.2
 _ZN12QPrinterInfoC1ERKS_@Base 5.0.2
 _ZN12QPrinterInfoC1Ev@Base 5.0.2
 _ZN12QPrinterInfoC2ERK7QString@Base 5.0.2
 _ZN12QPrinterInfoC2ERK8QPrinter@Base 5.0.2
 _ZN12QPrinterInfoC2ERKS_@Base 5.0.2
 _ZN12QPrinterInfoC2Ev@Base 5.0.2
 _ZN12QPrinterInfoD1Ev@Base 5.0.2
 _ZN12QPrinterInfoD2Ev@Base 5.0.2
 _ZN12QPrinterInfoaSERKS_@Base 5.0.2
 _ZN15QPdfPrintEngine11setPropertyEN12QPrintEngine22PrintEnginePropertyKeyERK8QVariant@Base 5.0.2 1
 _ZN15QPdfPrintEngine3endEv@Base 5.0.2 1
 _ZN15QPdfPrintEngine5beginEP12QPaintDevice@Base 5.0.2 1
 _ZN15QPdfPrintEngine7newPageEv@Base 5.0.2 1
 _ZN15QPdfPrintEngineC1EN8QPrinter11PrinterModeE@Base 5.0.2 1
 _ZN15QPdfPrintEngineC1ER22QPdfPrintEnginePrivate@Base 5.0.2 1
 _ZN15QPdfPrintEngineC2EN8QPrinter11PrinterModeE@Base 5.0.2 1
 _ZN15QPdfPrintEngineC2ER22QPdfPrintEnginePrivate@Base 5.0.2 1
 _ZN15QPdfPrintEngineD0Ev@Base 5.0.2 1
 _ZN15QPdfPrintEngineD1Ev@Base 5.0.2 1
 _ZN15QPdfPrintEngineD2Ev@Base 5.0.2 1
 _ZN15QPrinterPrivate11initEnginesEN8QPrinter12OutputFormatERK12QPrinterInfo@Base 5.2.1 1
 _ZN15QPrinterPrivate11setPropertyEN12QPrintEngine22PrintEnginePropertyKeyERK8QVariant@Base 5.2.1 1
 _ZN15QPrinterPrivate13changeEnginesEN8QPrinter12OutputFormatERK12QPrinterInfo@Base 5.2.1 1
 _ZN15QPrinterPrivate14setPreviewModeEb@Base 5.0.2 1
 _ZN15QPrinterPrivate16findValidPrinterERK12QPrinterInfo@Base 5.2.1 1
 _ZN15QPrinterPrivate4initERK12QPrinterInfoN8QPrinter11PrinterModeE@Base 5.2.1 1
 _ZN16QPageSetupDialog11qt_metacallEN11QMetaObject4CallEiPPv@Base 5.0.2
 _ZN16QPageSetupDialog11qt_metacastEPKc@Base 5.0.2
 _ZN16QPageSetupDialog16staticMetaObjectE@Base 5.0.2
 _ZN16QPageSetupDialog4doneEi@Base 5.0.2
 _ZN16QPageSetupDialog4execEv@Base 5.0.2
 _ZN16QPageSetupDialog4openEP7QObjectPKc@Base 5.0.2
 _ZN16QPageSetupDialog7printerEv@Base 5.0.2
 _ZN16QPageSetupDialogC1EP7QWidget@Base 5.0.2
 _ZN16QPageSetupDialogC1EP8QPrinterP7QWidget@Base 5.0.2
 _ZN16QPageSetupDialogC2EP7QWidget@Base 5.0.2
 _ZN16QPageSetupDialogC2EP8QPrinterP7QWidget@Base 5.0.2
 _ZN16QPageSetupDialogD0Ev@Base 5.0.2
 _ZN16QPageSetupDialogD1Ev@Base 5.0.2
 _ZN16QPageSetupDialogD2Ev@Base 5.0.2
 _ZN17QAlphaPaintEngine10drawPixmapERK6QRectFRK7QPixmapS2_@Base 5.0.2 1
 _ZN17QAlphaPaintEngine11drawPolygonEPK7QPointFiN12QPaintEngine15PolygonDrawModeE@Base 5.0.2 1
 _ZN17QAlphaPaintEngine11updateStateERK17QPaintEngineState@Base 5.0.2 1
 _ZN17QAlphaPaintEngine12drawTextItemERK7QPointFRK9QTextItem@Base 5.0.2 1
 _ZN17QAlphaPaintEngine12flushAndInitEb@Base 5.0.2 1
 _ZN17QAlphaPaintEngine15drawTiledPixmapERK6QRectFRK7QPixmapRK7QPointF@Base 5.0.2 1
 _ZN17QAlphaPaintEngine3endEv@Base 5.0.2 1
 _ZN17QAlphaPaintEngine5beginEP12QPaintDevice@Base 5.0.2 1
 _ZN17QAlphaPaintEngine7cleanUpEv@Base 5.0.2 1
 _ZN17QAlphaPaintEngine8drawPathERK12QPainterPath@Base 5.0.2 1
 _ZN17QAlphaPaintEngineC1ER24QAlphaPaintEnginePrivate6QFlagsIN12QPaintEngine18PaintEngineFeatureEE@Base 5.0.2 1
 _ZN17QAlphaPaintEngineC2ER24QAlphaPaintEnginePrivate6QFlagsIN12QPaintEngine18PaintEngineFeatureEE@Base 5.0.2 1
 _ZN17QAlphaPaintEngineD0Ev@Base 5.0.2 1
 _ZN17QAlphaPaintEngineD1Ev@Base 5.0.2 1
 _ZN17QAlphaPaintEngineD2Ev@Base 5.0.2 1
 _ZN19QPrintPreviewDialog10setVisibleEb@Base 5.0.2
 _ZN19QPrintPreviewDialog11qt_metacallEN11QMetaObject4CallEiPPv@Base 5.0.2
 _ZN19QPrintPreviewDialog11qt_metacastEPKc@Base 5.0.2
 _ZN19QPrintPreviewDialog14paintRequestedEP8QPrinter@Base 5.0.2
 _ZN19QPrintPreviewDialog16staticMetaObjectE@Base 5.0.2
 _ZN19QPrintPreviewDialog4doneEi@Base 5.0.2
 _ZN19QPrintPreviewDialog4openEP7QObjectPKc@Base 5.0.2
 _ZN19QPrintPreviewDialog7printerEv@Base 5.0.2
 _ZN19QPrintPreviewDialogC1EP7QWidget6QFlagsIN2Qt10WindowTypeEE@Base 5.0.2
 _ZN19QPrintPreviewDialogC1EP8QPrinterP7QWidget6QFlagsIN2Qt10WindowTypeEE@Base 5.0.2
 _ZN19QPrintPreviewDialogC2EP7QWidget6QFlagsIN2Qt10WindowTypeEE@Base 5.0.2
 _ZN19QPrintPreviewDialogC2EP8QPrinterP7QWidget6QFlagsIN2Qt10WindowTypeEE@Base 5.0.2
 _ZN19QPrintPreviewDialogD0Ev@Base 5.0.2
 _ZN19QPrintPreviewDialogD1Ev@Base 5.0.2
 _ZN19QPrintPreviewDialogD2Ev@Base 5.0.2
 _ZN19QPrintPreviewWidget10fitToWidthEv@Base 5.0.2
 _ZN19QPrintPreviewWidget10setVisibleEb@Base 5.0.2
 _ZN19QPrintPreviewWidget11qt_metacallEN11QMetaObject4CallEiPPv@Base 5.0.2
 _ZN19QPrintPreviewWidget11qt_metacastEPKc@Base 5.0.2
 _ZN19QPrintPreviewWidget11setViewModeENS_8ViewModeE@Base 5.0.2
 _ZN19QPrintPreviewWidget11setZoomModeENS_8ZoomModeE@Base 5.0.2
 _ZN19QPrintPreviewWidget13setZoomFactorEd@Base 5.2.0
 _ZN19QPrintPreviewWidget13updatePreviewEv@Base 5.0.2
 _ZN19QPrintPreviewWidget14paintRequestedEP8QPrinter@Base 5.0.2
 _ZN19QPrintPreviewWidget14previewChangedEv@Base 5.0.2
 _ZN19QPrintPreviewWidget14setCurrentPageEi@Base 5.0.2
 _ZN19QPrintPreviewWidget14setOrientationEN8QPrinter11OrientationE@Base 5.0.2
 _ZN19QPrintPreviewWidget16staticMetaObjectE@Base 5.0.2
 _ZN19QPrintPreviewWidget19setAllPagesViewModeEv@Base 5.0.2
 _ZN19QPrintPreviewWidget21setSinglePageViewModeEv@Base 5.0.2
 _ZN19QPrintPreviewWidget22setFacingPagesViewModeEv@Base 5.0.2
 _ZN19QPrintPreviewWidget22setPortraitOrientationEv@Base 5.0.2
 _ZN19QPrintPreviewWidget23setLandscapeOrientationEv@Base 5.0.2
 _ZN19QPrintPreviewWidget5printEv@Base 5.0.2
 _ZN19QPrintPreviewWidget6zoomInEd@Base 5.2.0
 _ZN19QPrintPreviewWidget7zoomOutEd@Base 5.2.0
 _ZN19QPrintPreviewWidget9fitInViewEv@Base 5.0.2
 _ZN19QPrintPreviewWidgetC1EP7QWidget6QFlagsIN2Qt10WindowTypeEE@Base 5.0.2
 _ZN19QPrintPreviewWidgetC1EP8QPrinterP7QWidget6QFlagsIN2Qt10WindowTypeEE@Base 5.0.2
 _ZN19QPrintPreviewWidgetC2EP7QWidget6QFlagsIN2Qt10WindowTypeEE@Base 5.0.2
 _ZN19QPrintPreviewWidgetC2EP8QPrinterP7QWidget6QFlagsIN2Qt10WindowTypeEE@Base 5.0.2
 _ZN19QPrintPreviewWidgetD0Ev@Base 5.0.2
 _ZN19QPrintPreviewWidgetD1Ev@Base 5.0.2
 _ZN19QPrintPreviewWidgetD2Ev@Base 5.0.2
 _ZN20QAbstractPrintDialog11qt_metacallEN11QMetaObject4CallEiPPv@Base 5.0.2
 _ZN20QAbstractPrintDialog11qt_metacastEPKc@Base 5.0.2
 _ZN20QAbstractPrintDialog13setOptionTabsERK5QListIP7QWidgetE@Base 5.0.2
 _ZN20QAbstractPrintDialog13setPrintRangeENS_10PrintRangeE@Base 5.0.2
 _ZN20QAbstractPrintDialog16addEnabledOptionENS_17PrintDialogOptionE@Base 5.0.2
 _ZN20QAbstractPrintDialog16staticMetaObjectE@Base 5.0.2
 _ZN20QAbstractPrintDialog17setEnabledOptionsE6QFlagsINS_17PrintDialogOptionEE@Base 5.0.2
 _ZN20QAbstractPrintDialog9setFromToEii@Base 5.0.2
 _ZN20QAbstractPrintDialog9setMinMaxEii@Base 5.0.2
 _ZN20QAbstractPrintDialogC1EP8QPrinterP7QWidget@Base 5.0.2
 _ZN20QAbstractPrintDialogC1ER27QAbstractPrintDialogPrivateP8QPrinterP7QWidget@Base 5.0.2
 _ZN20QAbstractPrintDialogC2EP8QPrinterP7QWidget@Base 5.0.2
 _ZN20QAbstractPrintDialogC2ER27QAbstractPrintDialogPrivateP8QPrinterP7QWidget@Base 5.0.2
 _ZN20QAbstractPrintDialogD0Ev@Base 5.0.2
 _ZN20QAbstractPrintDialogD1Ev@Base 5.0.2
 _ZN20QAbstractPrintDialogD2Ev@Base 5.0.2
 _ZN20QPlatformPrintDevice14createPageSizeERK7QStringRK5QSizeS2_@Base 5.3.0 1
 _ZN20QPlatformPrintDevice14createPageSizeEiRK5QSizeRK7QString@Base 5.3.0 1
 _ZN20QPlatformPrintDeviceC1ERK7QString@Base 5.3.0 1
 _ZN20QPlatformPrintDeviceC1Ev@Base 5.3.0 1
 _ZN20QPlatformPrintDeviceC2ERK7QString@Base 5.3.0 1
 _ZN20QPlatformPrintDeviceC2Ev@Base 5.3.0 1
 _ZN20QPlatformPrintDeviceD0Ev@Base 5.3.0 1
 _ZN20QPlatformPrintDeviceD1Ev@Base 5.3.0 1
 _ZN20QPlatformPrintDeviceD2Ev@Base 5.3.0 1
 _ZN22QPdfPrintEnginePrivate15openPrintDeviceEv@Base 5.0.2 1
 _ZN22QPdfPrintEnginePrivate16closePrintDeviceEv@Base 5.0.2 1
 _ZN22QPdfPrintEnginePrivateC1EN8QPrinter11PrinterModeE@Base 5.0.2 1
 _ZN22QPdfPrintEnginePrivateC2EN8QPrinter11PrinterModeE@Base 5.0.2 1
 _ZN22QPdfPrintEnginePrivateD0Ev@Base 5.0.2 1
 _ZN22QPdfPrintEnginePrivateD1Ev@Base 5.0.2 1
 _ZN22QPdfPrintEnginePrivateD2Ev@Base 5.0.2 1
 _ZN23QPlatformPrinterSupport14createPageSizeERK7QString5QSizeS2_@Base 5.3.0 1
 _ZN23QPlatformPrinterSupport17createPaintEngineEP12QPrintEngineN8QPrinter11PrinterModeE@Base 5.0.2 1
 _ZN23QPlatformPrinterSupport17createPrintDeviceEP20QPlatformPrintDevice@Base 5.3.0 1
 _ZN23QPlatformPrinterSupport17createPrintDeviceERK7QString@Base 5.3.0 1
 _ZN23QPlatformPrinterSupport23createNativePrintEngineEN8QPrinter11PrinterModeE@Base 5.0.2 1
 _ZN23QPlatformPrinterSupport24createDefaultPrintDeviceEv@Base 5.3.0 1
 _ZN23QPlatformPrinterSupportC1Ev@Base 5.0.2 1
 _ZN23QPlatformPrinterSupportC2Ev@Base 5.0.2 1
 _ZN23QPlatformPrinterSupportD0Ev@Base 5.0.2 1
 _ZN23QPlatformPrinterSupportD1Ev@Base 5.0.2 1
 _ZN23QPlatformPrinterSupportD2Ev@Base 5.0.2 1
 _ZN29QPlatformPrinterSupportPlugin11qt_metacallEN11QMetaObject4CallEiPPv@Base 5.0.2 1
 _ZN29QPlatformPrinterSupportPlugin11qt_metacastEPKc@Base 5.0.2 1
 _ZN29QPlatformPrinterSupportPlugin16staticMetaObjectE@Base 5.0.2 1
 _ZN29QPlatformPrinterSupportPlugin3getEv@Base 5.0.2 1
 _ZN29QPlatformPrinterSupportPluginC1EP7QObject@Base 5.0.2 1
 _ZN29QPlatformPrinterSupportPluginC2EP7QObject@Base 5.0.2 1
 _ZN29QPlatformPrinterSupportPluginD0Ev@Base 5.0.2 1
 _ZN29QPlatformPrinterSupportPluginD1Ev@Base 5.0.2 1
 _ZN29QPlatformPrinterSupportPluginD2Ev@Base 5.0.2 1
 _ZN8QPrinter10setCreatorERK7QString@Base 5.0.2
 _ZN8QPrinter10setDocNameERK7QString@Base 5.0.2
 _ZN8QPrinter10setEnginesEP12QPrintEngineP12QPaintEngine@Base 5.0.2
 _ZN8QPrinter10setMarginsERKN17QPagedPaintDevice7MarginsE@Base 5.0.2
 _ZN8QPrinter11setFullPageEb@Base 5.0.2
 _ZN8QPrinter11setPageSizeEN17QPagedPaintDevice8PageSizeE@Base 5.0.2
 _ZN8QPrinter12setColorModeENS_9ColorModeE@Base 5.0.2
 _ZN8QPrinter12setCopyCountEi@Base 5.0.2
 _ZN8QPrinter12setNumCopiesEi@Base 5.0.2
 _ZN8QPrinter12setPageOrderENS_9PageOrderE@Base 5.0.2
 _ZN8QPrinter12setPaperNameERK7QString@Base 5.1.0
 _ZN8QPrinter12setPaperSizeEN17QPagedPaintDevice8PageSizeE@Base 5.0.2
 _ZN8QPrinter12setPaperSizeERK6QSizeFNS_4UnitE@Base 5.0.2
 _ZN8QPrinter13setPageSizeMMERK6QSizeF@Base 5.0.2
 _ZN8QPrinter13setPrintRangeENS_10PrintRangeE@Base 5.0.2
 _ZN8QPrinter13setResolutionEi@Base 5.0.2
 _ZN8QPrinter14setOrientationENS_11OrientationE@Base 5.0.2
 _ZN8QPrinter14setPageMarginsEddddNS_4UnitE@Base 5.2.0
 _ZN8QPrinter14setPaperSourceENS_11PaperSourceE@Base 5.0.2
 _ZN8QPrinter14setPrinterNameERK7QString@Base 5.0.2
 _ZN8QPrinter14setWinPageSizeEi@Base 5.3.0
 _ZN8QPrinter15setOutputFormatENS_12OutputFormatE@Base 5.0.2
 _ZN8QPrinter15setPrintProgramERK7QString@Base 5.0.2
 _ZN8QPrinter16setCollateCopiesEb@Base 5.0.2
 _ZN8QPrinter17setOutputFileNameERK7QString@Base 5.0.2
 _ZN8QPrinter22setDoubleSidedPrintingEb@Base 5.0.2
 _ZN8QPrinter23setFontEmbeddingEnabledEb@Base 5.0.2
 _ZN8QPrinter25setPrinterSelectionOptionERK7QString@Base 5.0.2
 _ZN8QPrinter5abortEv@Base 5.0.2
 _ZN8QPrinter7newPageEv@Base 5.0.2
 _ZN8QPrinter9setDuplexENS_10DuplexModeE@Base 5.0.2
 _ZN8QPrinter9setFromToEii@Base 5.0.2
 _ZN8QPrinterC1ENS_11PrinterModeE@Base 5.0.2
 _ZN8QPrinterC1ERK12QPrinterInfoNS_11PrinterModeE@Base 5.0.2
 _ZN8QPrinterC2ENS_11PrinterModeE@Base 5.0.2
 _ZN8QPrinterC2ERK12QPrinterInfoNS_11PrinterModeE@Base 5.0.2
 _ZN8QPrinterD0Ev@Base 5.0.2
 _ZN8QPrinterD1Ev@Base 5.0.2
 _ZN8QPrinterD2Ev@Base 5.0.2
 _ZNK12QPrintDevice12makeAndModelEv@Base 5.3.0 1
 _ZNK12QPrintDevice15defaultPageSizeEv@Base 5.3.0 1
 _ZNK12QPrintDevice16defaultColorModeEv@Base 5.3.0 1
 _ZNK12QPrintDevice16defaultInputSlotEv@Base 5.3.0 1
 _ZNK12QPrintDevice16defaultOutputBinEv@Base 5.3.0 1
 _ZNK12QPrintDevice16printableMarginsERK9QPageSizeN11QPageLayout11OrientationEi@Base 5.3.0 1
 _ZNK12QPrintDevice17defaultDuplexModeEv@Base 5.3.0 1
 _ZNK12QPrintDevice17defaultResolutionEv@Base 5.3.0 1
 _ZNK12QPrintDevice17isValidPageLayoutERK11QPageLayouti@Base 5.3.0 1
 _ZNK12QPrintDevice17supportedPageSizeEN9QPageSize10PageSizeIdE@Base 5.3.0 1
 _ZNK12QPrintDevice17supportedPageSizeERK5QSize@Base 5.3.0 1
 _ZNK12QPrintDevice17supportedPageSizeERK6QSizeFN9QPageSize4UnitE@Base 5.3.0 1
 _ZNK12QPrintDevice17supportedPageSizeERK7QString@Base 5.3.0 1
 _ZNK12QPrintDevice17supportedPageSizeERK9QPageSize@Base 5.3.0 1
 _ZNK12QPrintDevice18supportedMimeTypesEv@Base 5.3.0 1
 _ZNK12QPrintDevice18supportedPageSizesEv@Base 5.3.0 1
 _ZNK12QPrintDevice19supportedColorModesEv@Base 5.3.0 1
 _ZNK12QPrintDevice19supportedInputSlotsEv@Base 5.3.0 1
 _ZNK12QPrintDevice19supportedOutputBinsEv@Base 5.3.0 1
 _ZNK12QPrintDevice20supportedDuplexModesEv@Base 5.3.0 1
 _ZNK12QPrintDevice20supportedResolutionsEv@Base 5.3.0 1
 _ZNK12QPrintDevice21supportsCollateCopiesEv@Base 5.3.0 1
 _ZNK12QPrintDevice22supportsMultipleCopiesEv@Base 5.3.0 1
 _ZNK12QPrintDevice23maximumPhysicalPageSizeEv@Base 5.3.0 1
 _ZNK12QPrintDevice23minimumPhysicalPageSizeEv@Base 5.3.0 1
 _ZNK12QPrintDevice23supportsCustomPageSizesEv@Base 5.3.0 1
 _ZNK12QPrintDevice2idEv@Base 5.3.0 1
 _ZNK12QPrintDevice4nameEv@Base 5.3.0 1
 _ZNK12QPrintDevice5stateEv@Base 5.3.0 1
 _ZNK12QPrintDevice7isValidEv@Base 5.3.0 1
 _ZNK12QPrintDevice8isRemoteEv@Base 5.3.0 1
 _ZNK12QPrintDevice8locationEv@Base 5.3.0 1
 _ZNK12QPrintDevice9isDefaultEv@Base 5.3.0 1
 _ZNK12QPrintDeviceeqERKS_@Base 5.3.0 1
 _ZNK12QPrintDialog10metaObjectEv@Base 5.0.2
 _ZNK12QPrintDialog10testOptionEN20QAbstractPrintDialog17PrintDialogOptionE@Base 5.0.2
 _ZNK12QPrintDialog7optionsEv@Base 5.0.2
 _ZNK12QPrinterInfo11descriptionEv@Base 5.0.2
 _ZNK12QPrinterInfo11printerNameEv@Base 5.0.2
 _ZNK12QPrinterInfo12makeAndModelEv@Base 5.0.2
 _ZNK12QPrinterInfo15defaultPageSizeEv@Base 5.3.0
 _ZNK12QPrinterInfo18supportedPageSizesEv@Base 5.3.0
 _ZNK12QPrinterInfo19supportedPaperSizesEv@Base 5.0.2
 _ZNK12QPrinterInfo20supportedResolutionsEv@Base 5.3.0
 _ZNK12QPrinterInfo23maximumPhysicalPageSizeEv@Base 5.3.0
 _ZNK12QPrinterInfo23minimumPhysicalPageSizeEv@Base 5.3.0
 _ZNK12QPrinterInfo23supportedSizesWithNamesEv@Base 5.1.0
 _ZNK12QPrinterInfo23supportsCustomPageSizesEv@Base 5.3.0
 _ZNK12QPrinterInfo5stateEv@Base 5.3.0
 _ZNK12QPrinterInfo6isNullEv@Base 5.0.2
 _ZNK12QPrinterInfo8isRemoteEv@Base 5.3.0
 _ZNK12QPrinterInfo8locationEv@Base 5.0.2
 _ZNK12QPrinterInfo9isDefaultEv@Base 5.0.2
 _ZNK15QPdfPrintEngine6metricEN12QPaintDevice17PaintDeviceMetricE@Base 5.0.2 1
 _ZNK15QPdfPrintEngine8propertyEN12QPrintEngine22PrintEnginePropertyKeyE@Base 5.0.2 1
 _ZNK15QPrinterPrivate12previewPagesEv@Base 5.0.2 1
 _ZNK16QPageSetupDialog10metaObjectEv@Base 5.0.2
 _ZNK17QAlphaPaintEngine12continueCallEv@Base 5.0.2 1
 _ZNK17QAlphaPaintEngine13alphaClippingEv@Base 5.0.2 1
 _ZNK19QPrintPreviewDialog10metaObjectEv@Base 5.0.2
 _ZNK19QPrintPreviewWidget10metaObjectEv@Base 5.0.2
 _ZNK19QPrintPreviewWidget10zoomFactorEv@Base 5.0.2
 _ZNK19QPrintPreviewWidget11currentPageEv@Base 5.0.2
 _ZNK19QPrintPreviewWidget11orientationEv@Base 5.0.2
 _ZNK19QPrintPreviewWidget8viewModeEv@Base 5.0.2
 _ZNK19QPrintPreviewWidget8zoomModeEv@Base 5.0.2
 _ZNK19QPrintPreviewWidget9pageCountEv@Base 5.0.2
 _ZNK20QAbstractPrintDialog10metaObjectEv@Base 5.0.2
 _ZNK20QAbstractPrintDialog10printRangeEv@Base 5.0.2
 _ZNK20QAbstractPrintDialog14enabledOptionsEv@Base 5.0.2
 _ZNK20QAbstractPrintDialog15isOptionEnabledENS_17PrintDialogOptionE@Base 5.0.2
 _ZNK20QAbstractPrintDialog6toPageEv@Base 5.0.2
 _ZNK20QAbstractPrintDialog7maxPageEv@Base 5.0.2
 _ZNK20QAbstractPrintDialog7minPageEv@Base 5.0.2
 _ZNK20QAbstractPrintDialog7printerEv@Base 5.0.2
 _ZNK20QAbstractPrintDialog8fromPageEv@Base 5.0.2
 _ZNK20QPlatformPrintDevice12makeAndModelEv@Base 5.3.0 1
 _ZNK20QPlatformPrintDevice13loadMimeTypesEv@Base 5.3.0 1
 _ZNK20QPlatformPrintDevice13loadPageSizesEv@Base 5.3.0 1
 _ZNK20QPlatformPrintDevice14loadColorModesEv@Base 5.3.0 1
 _ZNK20QPlatformPrintDevice14loadInputSlotsEv@Base 5.3.0 1
 _ZNK20QPlatformPrintDevice14loadOutputBinsEv@Base 5.3.0 1
 _ZNK20QPlatformPrintDevice15defaultPageSizeEv@Base 5.3.0 1
 _ZNK20QPlatformPrintDevice15loadDuplexModesEv@Base 5.3.0 1
 _ZNK20QPlatformPrintDevice15loadResolutionsEv@Base 5.3.0 1
 _ZNK20QPlatformPrintDevice16defaultColorModeEv@Base 5.3.0 1
 _ZNK20QPlatformPrintDevice16defaultInputSlotEv@Base 5.3.0 1
 _ZNK20QPlatformPrintDevice16defaultOutputBinEv@Base 5.3.0 1
 _ZNK20QPlatformPrintDevice16printableMarginsERK9QPageSizeN11QPageLayout11OrientationEi@Base 5.3.0 1
 _ZNK20QPlatformPrintDevice17defaultDuplexModeEv@Base 5.3.0 1
 _ZNK20QPlatformPrintDevice17defaultResolutionEv@Base 5.3.0 1
 _ZNK20QPlatformPrintDevice17isValidPageLayoutERK11QPageLayouti@Base 5.3.0 1
 _ZNK20QPlatformPrintDevice17supportedPageSizeEN9QPageSize10PageSizeIdE@Base 5.3.0 1
 _ZNK20QPlatformPrintDevice17supportedPageSizeERK5QSize@Base 5.3.0 1
 _ZNK20QPlatformPrintDevice17supportedPageSizeERK6QSizeFN9QPageSize4UnitE@Base 5.3.0 1
 _ZNK20QPlatformPrintDevice17supportedPageSizeERK7QString@Base 5.3.0 1
 _ZNK20QPlatformPrintDevice17supportedPageSizeERK9QPageSize@Base 5.3.0 1
 _ZNK20QPlatformPrintDevice18supportedMimeTypesEv@Base 5.3.0 1
 _ZNK20QPlatformPrintDevice18supportedPageSizesEv@Base 5.3.0 1
 _ZNK20QPlatformPrintDevice19supportedColorModesEv@Base 5.3.0 1
 _ZNK20QPlatformPrintDevice19supportedInputSlotsEv@Base 5.3.0 1
 _ZNK20QPlatformPrintDevice19supportedOutputBinsEv@Base 5.3.0 1
 _ZNK20QPlatformPrintDevice20supportedDuplexModesEv@Base 5.3.0 1
 _ZNK20QPlatformPrintDevice20supportedResolutionsEv@Base 5.3.0 1
 _ZNK20QPlatformPrintDevice21supportsCollateCopiesEv@Base 5.3.0 1
 _ZNK20QPlatformPrintDevice22supportedPageSizeMatchERK9QPageSize@Base 5.3.0 1
 _ZNK20QPlatformPrintDevice22supportsMultipleCopiesEv@Base 5.3.0 1
 _ZNK20QPlatformPrintDevice23maximumPhysicalPageSizeEv@Base 5.3.0 1
 _ZNK20QPlatformPrintDevice23minimumPhysicalPageSizeEv@Base 5.3.0 1
 _ZNK20QPlatformPrintDevice23supportsCustomPageSizesEv@Base 5.3.0 1
 _ZNK20QPlatformPrintDevice2idEv@Base 5.3.0 1
 _ZNK20QPlatformPrintDevice4nameEv@Base 5.3.0 1
 _ZNK20QPlatformPrintDevice5stateEv@Base 5.3.0 1
 _ZNK20QPlatformPrintDevice7isValidEv@Base 5.3.0 1
 _ZNK20QPlatformPrintDevice8isRemoteEv@Base 5.3.0 1
 _ZNK20QPlatformPrintDevice8locationEv@Base 5.3.0 1
 _ZNK20QPlatformPrintDevice9isDefaultEv@Base 5.3.0 1
 _ZNK20QPlatformPrintDeviceeqERKS_@Base 5.3.0 1
 _ZNK23QPlatformPrinterSupport20defaultPrintDeviceIdEv@Base 5.3.0 1
 _ZNK23QPlatformPrinterSupport23availablePrintDeviceIdsEv@Base 5.3.0 1
 _ZNK29QPlatformPrinterSupportPlugin10metaObjectEv@Base 5.0.2 1
 _ZNK8QPrinter10printRangeEv@Base 5.0.2
 _ZNK8QPrinter10resolutionEv@Base 5.0.2
 _ZNK8QPrinter11orientationEv@Base 5.0.2
 _ZNK8QPrinter11paintEngineEv@Base 5.0.2
 _ZNK8QPrinter11paperSourceEv@Base 5.0.2
 _ZNK8QPrinter11printEngineEv@Base 5.0.2
 _ZNK8QPrinter11printerNameEv@Base 5.0.2
 _ZNK8QPrinter11winPageSizeEv@Base 5.3.0
 _ZNK8QPrinter12outputFormatEv@Base 5.0.2
 _ZNK8QPrinter12printProgramEv@Base 5.0.2
 _ZNK8QPrinter12printerStateEv@Base 5.0.2
 _ZNK8QPrinter13collateCopiesEv@Base 5.0.2
 _ZNK8QPrinter14getPageMarginsEPdS0_S0_S0_NS_4UnitE@Base 5.2.0
 _ZNK8QPrinter14outputFileNameEv@Base 5.0.2
 _ZNK8QPrinter15actualNumCopiesEv@Base 5.0.2
 _ZNK8QPrinter19doubleSidedPrintingEv@Base 5.0.2
 _ZNK8QPrinter20fontEmbeddingEnabledEv@Base 5.0.2
 _ZNK8QPrinter20supportedResolutionsEv@Base 5.0.2
 _ZNK8QPrinter22printerSelectionOptionEv@Base 5.0.2
 _ZNK8QPrinter22supportsMultipleCopiesEv@Base 5.0.2
 _ZNK8QPrinter6duplexEv@Base 5.0.2
 _ZNK8QPrinter6metricEN12QPaintDevice17PaintDeviceMetricE@Base 5.0.2
 _ZNK8QPrinter6toPageEv@Base 5.0.2
 _ZNK8QPrinter7creatorEv@Base 5.0.2
 _ZNK8QPrinter7devTypeEv@Base 5.0.2
 _ZNK8QPrinter7docNameEv@Base 5.0.2
 _ZNK8QPrinter7isValidEv@Base 5.0.2
 _ZNK8QPrinter8fromPageEv@Base 5.0.2
 _ZNK8QPrinter8fullPageEv@Base 5.0.2
 _ZNK8QPrinter8pageRectENS_4UnitE@Base 5.0.2
 _ZNK8QPrinter8pageRectEv@Base 5.0.2
 _ZNK8QPrinter8pageSizeEv@Base 5.0.2
 _ZNK8QPrinter9colorModeEv@Base 5.0.2
 _ZNK8QPrinter9copyCountEv@Base 5.0.2
 _ZNK8QPrinter9numCopiesEv@Base 5.0.2
 _ZNK8QPrinter9pageOrderEv@Base 5.0.2
 _ZNK8QPrinter9paperNameEv@Base 5.1.0
 _ZNK8QPrinter9paperRectENS_4UnitE@Base 5.0.2
 _ZNK8QPrinter9paperRectEv@Base 5.0.2
 _ZNK8QPrinter9paperSizeENS_4UnitE@Base 5.0.2
 _ZNK8QPrinter9paperSizeEv@Base 5.0.2
 _ZTI11QSharedData@Base 5.3.0
 _ZTI12QPrintDialog@Base 5.0.2
 _ZTI12QPrintEngine@Base 5.0.2
 _ZTI15QPdfPrintEngine@Base 5.0.2 1
 _ZTI16QPageSetupDialog@Base 5.0.2
 _ZTI17QAlphaPaintEngine@Base 5.0.2 1
 _ZTI19QPaintEnginePrivate@Base 5.0.2 1
 _ZTI19QPrintPreviewDialog@Base 5.0.2
 _ZTI19QPrintPreviewWidget@Base 5.0.2
 _ZTI20QAbstractPrintDialog@Base 5.0.2
 _ZTI20QPlatformPrintDevice@Base 5.3.0 1
 _ZTI22QPdfPrintEnginePrivate@Base 5.0.2 1
 _ZTI23QPlatformPrinterSupport@Base 5.0.2 1
 _ZTI24QPagedPaintDevicePrivate@Base 5.3.0 1
 _ZTI29QPlatformPrinterSupportPlugin@Base 5.0.2 1
 _ZTI8QPrinter@Base 5.0.2
 _ZTS11QSharedData@Base 5.3.0
 _ZTS12QPrintDialog@Base 5.0.2
 _ZTS12QPrintEngine@Base 5.0.2
 _ZTS15QPdfPrintEngine@Base 5.0.2 1
 _ZTS16QPageSetupDialog@Base 5.0.2
 _ZTS17QAlphaPaintEngine@Base 5.0.2 1
 _ZTS19QPaintEnginePrivate@Base 5.0.2 1
 _ZTS19QPrintPreviewDialog@Base 5.0.2
 _ZTS19QPrintPreviewWidget@Base 5.0.2
 _ZTS20QAbstractPrintDialog@Base 5.0.2
 _ZTS20QPlatformPrintDevice@Base 5.3.0 1
 _ZTS22QPdfPrintEnginePrivate@Base 5.0.2 1
 _ZTS23QPlatformPrinterSupport@Base 5.0.2 1
 _ZTS24QPagedPaintDevicePrivate@Base 5.3.0 1
 _ZTS29QPlatformPrinterSupportPlugin@Base 5.0.2 1
 _ZTS8QPrinter@Base 5.0.2
 _ZTV12QPrintDialog@Base 5.0.2
 _ZTV12QPrintEngine@Base 5.0.2
 _ZTV15QPdfPrintEngine@Base 5.0.2 1
 _ZTV16QPageSetupDialog@Base 5.0.2
 _ZTV17QAlphaPaintEngine@Base 5.0.2 1
 _ZTV19QPaintEnginePrivate@Base 5.0.2 1
 _ZTV19QPrintPreviewDialog@Base 5.0.2
 _ZTV19QPrintPreviewWidget@Base 5.0.2
 _ZTV20QAbstractPrintDialog@Base 5.0.2
 _ZTV20QPlatformPrintDevice@Base 5.3.0 1
 _ZTV22QPdfPrintEnginePrivate@Base 5.0.2 1
 _ZTV23QPlatformPrinterSupport@Base 5.0.2 1
 _ZTV24QPagedPaintDevicePrivate@Base 5.3.0 1
 _ZTV29QPlatformPrinterSupportPlugin@Base 5.0.2 1
 _ZTV8QPrinter@Base 5.0.2
 (c++)"non-virtual thunk to QAbstractPrintDialog::~QAbstractPrintDialog()@Base" 5.0.2
 (c++)"non-virtual thunk to QPageSetupDialog::~QPageSetupDialog()@Base" 5.0.2
 (c++)"non-virtual thunk to QPdfPrintEngine::metric(QPaintDevice::PaintDeviceMetric) const@Base" 5.0.2
 (c++)"non-virtual thunk to QPdfPrintEngine::newPage()@Base" 5.0.2
 (c++)"non-virtual thunk to QPdfPrintEngine::property(QPrintEngine::PrintEnginePropertyKey) const@Base" 5.0.2
 (c++)"non-virtual thunk to QPdfPrintEngine::setProperty(QPrintEngine::PrintEnginePropertyKey, QVariant const&)@Base" 5.0.2
 (c++)"non-virtual thunk to QPdfPrintEngine::~QPdfPrintEngine()@Base" 5.0.2
 (c++)"non-virtual thunk to QPrintDialog::~QPrintDialog()@Base" 5.0.2
 (c++)"non-virtual thunk to QPrintPreviewDialog::~QPrintPreviewDialog()@Base" 5.0.2
 (c++)"non-virtual thunk to QPrintPreviewWidget::~QPrintPreviewWidget()@Base" 5.0.2
