# SymbolsHelper-Confirmed: 5.4.0 amd64
libQt5WebSockets.so.5 libqt5websockets5 #MINVER#
 _ZN10QWebSocket11qt_metacallEN11QMetaObject4CallEiPPv@Base 5.3.0
 _ZN10QWebSocket11qt_metacastEPKc@Base 5.3.0
 _ZN10QWebSocket12aboutToCloseEv@Base 5.3.0
 _ZN10QWebSocket12bytesWrittenEx@Base 5.3.0
 _ZN10QWebSocket12disconnectedEv@Base 5.3.0
 _ZN10QWebSocket12setPauseModeE6QFlagsIN15QAbstractSocket9PauseModeEE@Base 5.3.0
 _ZN10QWebSocket12stateChangedEN15QAbstractSocket11SocketStateE@Base 5.3.0
 _ZN10QWebSocket15ignoreSslErrorsERK5QListI9QSslErrorE@Base 5.3.0
 _ZN10QWebSocket15ignoreSslErrorsEv@Base 5.3.0
 _ZN10QWebSocket15sendTextMessageERK7QString@Base 5.3.0
 _ZN10QWebSocket16setMaskGeneratorEPK14QMaskGenerator@Base 5.3.0
 _ZN10QWebSocket16staticMetaObjectE@Base 5.3.0
 _ZN10QWebSocket17sendBinaryMessageERK10QByteArray@Base 5.3.0
 _ZN10QWebSocket17setReadBufferSizeEx@Base 5.3.0
 _ZN10QWebSocket17textFrameReceivedERK7QStringb@Base 5.3.0
 _ZN10QWebSocket19binaryFrameReceivedERK10QByteArrayb@Base 5.3.0
 _ZN10QWebSocket19readChannelFinishedEv@Base 5.3.0
 _ZN10QWebSocket19setSslConfigurationERK17QSslConfiguration@Base 5.3.0
 _ZN10QWebSocket19textMessageReceivedERK7QString@Base 5.3.0
 _ZN10QWebSocket21binaryMessageReceivedERK10QByteArray@Base 5.3.0
 _ZN10QWebSocket27proxyAuthenticationRequiredERK13QNetworkProxyP14QAuthenticator@Base 5.3.0
 _ZN10QWebSocket4openERK4QUrl@Base 5.3.0
 _ZN10QWebSocket4pingERK10QByteArray@Base 5.3.0
 _ZN10QWebSocket4pongEyRK10QByteArray@Base 5.3.0
 _ZN10QWebSocket5abortEv@Base 5.3.0
 _ZN10QWebSocket5closeEN18QWebSocketProtocol9CloseCodeERK7QString@Base 5.3.0
 _ZN10QWebSocket5errorEN15QAbstractSocket11SocketErrorE@Base 5.3.0
 _ZN10QWebSocket5flushEv@Base 5.3.0
 _ZN10QWebSocket6resumeEv@Base 5.3.0
 _ZN10QWebSocket8setProxyERK13QNetworkProxy@Base 5.3.0
 _ZN10QWebSocket9connectedEv@Base 5.3.0
 _ZN10QWebSocket9sslErrorsERK5QListI9QSslErrorE@Base 5.3.0
 _ZN10QWebSocketC1EP10QTcpSocketN18QWebSocketProtocol7VersionEP7QObject@Base 5.3.0
 _ZN10QWebSocketC1ERK7QStringN18QWebSocketProtocol7VersionEP7QObject@Base 5.3.0
 _ZN10QWebSocketC2EP10QTcpSocketN18QWebSocketProtocol7VersionEP7QObject@Base 5.3.0
 _ZN10QWebSocketC2ERK7QStringN18QWebSocketProtocol7VersionEP7QObject@Base 5.3.0
 _ZN10QWebSocketD0Ev@Base 5.3.0
 _ZN10QWebSocketD1Ev@Base 5.3.0
 _ZN10QWebSocketD2Ev@Base 5.3.0
 _ZN14QMaskGeneratorC1EP7QObject@Base 5.3.0
 _ZN14QMaskGeneratorC2EP7QObject@Base 5.3.0
 _ZN14QMaskGeneratorD0Ev@Base 5.3.0
 _ZN14QMaskGeneratorD1Ev@Base 5.3.0
 _ZN14QMaskGeneratorD2Ev@Base 5.3.0
 _ZN16QWebSocketServer11acceptErrorEN15QAbstractSocket11SocketErrorE@Base 5.3.0
 _ZN16QWebSocketServer11qt_metacallEN11QMetaObject4CallEiPPv@Base 5.3.0
 _ZN16QWebSocketServer11qt_metacastEPKc@Base 5.3.0
 _ZN16QWebSocketServer11serverErrorEN18QWebSocketProtocol9CloseCodeE@Base 5.3.0
 _ZN16QWebSocketServer13newConnectionEv@Base 5.3.0
 _ZN16QWebSocketServer13setServerNameERK7QString@Base 5.3.0
 _ZN16QWebSocketServer14pauseAcceptingEv@Base 5.3.0
 _ZN16QWebSocketServer15peerVerifyErrorERK9QSslError@Base 5.3.0
 _ZN16QWebSocketServer15resumeAcceptingEv@Base 5.3.0
 _ZN16QWebSocketServer16staticMetaObjectE@Base 5.3.0
 _ZN16QWebSocketServer19setSocketDescriptorEi@Base 5.3.0
 _ZN16QWebSocketServer19setSslConfigurationERK17QSslConfiguration@Base 5.3.0
 _ZN16QWebSocketServer21nextPendingConnectionEv@Base 5.3.0
 _ZN16QWebSocketServer24setMaxPendingConnectionsEi@Base 5.3.0
 _ZN16QWebSocketServer28originAuthenticationRequiredEP27QWebSocketCorsAuthenticator@Base 5.3.0
 _ZN16QWebSocketServer5closeEv@Base 5.3.0
 _ZN16QWebSocketServer6closedEv@Base 5.3.0
 _ZN16QWebSocketServer6listenERK12QHostAddresst@Base 5.3.0
 _ZN16QWebSocketServer8setProxyERK13QNetworkProxy@Base 5.3.0
 _ZN16QWebSocketServer9sslErrorsERK5QListI9QSslErrorE@Base 5.3.0
 _ZN16QWebSocketServerC1ERK7QStringNS_7SslModeEP7QObject@Base 5.3.0
 _ZN16QWebSocketServerC2ERK7QStringNS_7SslModeEP7QObject@Base 5.3.0
 _ZN16QWebSocketServerD0Ev@Base 5.3.0
 _ZN16QWebSocketServerD1Ev@Base 5.3.0
 _ZN16QWebSocketServerD2Ev@Base 5.3.0
 _ZN27QWebSocketCorsAuthenticator10setAllowedEb@Base 5.3.0
 _ZN27QWebSocketCorsAuthenticator4swapERS_@Base 5.3.0
 _ZN27QWebSocketCorsAuthenticatorC1EOS_@Base 5.3.0
 _ZN27QWebSocketCorsAuthenticatorC1ERK7QString@Base 5.3.0
 _ZN27QWebSocketCorsAuthenticatorC1ERKS_@Base 5.3.0
 _ZN27QWebSocketCorsAuthenticatorC2EOS_@Base 5.3.0
 _ZN27QWebSocketCorsAuthenticatorC2ERK7QString@Base 5.3.0
 _ZN27QWebSocketCorsAuthenticatorC2ERKS_@Base 5.3.0
 _ZN27QWebSocketCorsAuthenticatorD1Ev@Base 5.3.0
 _ZN27QWebSocketCorsAuthenticatorD2Ev@Base 5.3.0
 _ZN27QWebSocketCorsAuthenticatoraSEOS_@Base 5.3.0
 _ZN27QWebSocketCorsAuthenticatoraSERKS_@Base 5.3.0
 _ZNK10QWebSocket10metaObjectEv@Base 5.3.0
 _ZNK10QWebSocket10requestUrlEv@Base 5.3.0
 _ZNK10QWebSocket11closeReasonEv@Base 5.3.0
 _ZNK10QWebSocket11errorStringEv@Base 5.3.0
 _ZNK10QWebSocket11peerAddressEv@Base 5.3.0
 _ZNK10QWebSocket12localAddressEv@Base 5.3.0
 _ZNK10QWebSocket12resourceNameEv@Base 5.3.0
 _ZNK10QWebSocket13maskGeneratorEv@Base 5.3.0
 _ZNK10QWebSocket14readBufferSizeEv@Base 5.3.0
 _ZNK10QWebSocket16sslConfigurationEv@Base 5.3.0
 _ZNK10QWebSocket5errorEv@Base 5.3.0
 _ZNK10QWebSocket5proxyEv@Base 5.3.0
 _ZNK10QWebSocket5stateEv@Base 5.3.0
 _ZNK10QWebSocket6originEv@Base 5.3.0
 _ZNK10QWebSocket7isValidEv@Base 5.3.0
 _ZNK10QWebSocket7versionEv@Base 5.3.0
 _ZNK10QWebSocket8peerNameEv@Base 5.3.0
 _ZNK10QWebSocket8peerPortEv@Base 5.3.0
 _ZNK10QWebSocket9closeCodeEv@Base 5.3.0
 _ZNK10QWebSocket9localPortEv@Base 5.3.0
 _ZNK10QWebSocket9pauseModeEv@Base 5.3.0
 _ZNK16QWebSocketServer10metaObjectEv@Base 5.3.0
 _ZNK16QWebSocketServer10secureModeEv@Base 5.3.0
 _ZNK16QWebSocketServer10serverNameEv@Base 5.3.0
 _ZNK16QWebSocketServer10serverPortEv@Base 5.3.0
 _ZNK16QWebSocketServer11errorStringEv@Base 5.3.0
 _ZNK16QWebSocketServer11isListeningEv@Base 5.3.0
 _ZNK16QWebSocketServer13serverAddressEv@Base 5.3.0
 _ZNK16QWebSocketServer16socketDescriptorEv@Base 5.3.0
 _ZNK16QWebSocketServer16sslConfigurationEv@Base 5.3.0
 _ZNK16QWebSocketServer17supportedVersionsEv@Base 5.3.0
 _ZNK16QWebSocketServer21hasPendingConnectionsEv@Base 5.3.0
 _ZNK16QWebSocketServer21maxPendingConnectionsEv@Base 5.3.0
 _ZNK16QWebSocketServer5errorEv@Base 5.3.0
 _ZNK16QWebSocketServer5proxyEv@Base 5.3.0
 _ZNK16QWebSocketServer9serverUrlEv@Base 5.4.0
 _ZNK27QWebSocketCorsAuthenticator6originEv@Base 5.3.0
 _ZNK27QWebSocketCorsAuthenticator7allowedEv@Base 5.3.0
 _ZTI10QWebSocket@Base 5.3.0
 _ZTI14QMaskGenerator@Base 5.3.0
 _ZTI16QWebSocketServer@Base 5.3.0
 _ZTS10QWebSocket@Base 5.3.0
 _ZTS14QMaskGenerator@Base 5.3.0
 _ZTS16QWebSocketServer@Base 5.3.0
 _ZTV10QWebSocket@Base 5.3.0
 _ZTV14QMaskGenerator@Base 5.3.0
 _ZTV16QWebSocketServer@Base 5.3.0
