# SymbolsHelper-Confirmed: 5.7.1 m68k
libQt5DBus.so.5 libqt5dbus5 #MINVER#
| libqt5dbus5 #MINVER#, qtbase-abi-5-7-1
* Build-Depends-Package: qtbase5-dev
 Qt_5.0@Qt_5.0 5.6.0~beta
 Qt_5.1@Qt_5.1 5.6.0~beta
 Qt_5.2@Qt_5.2 5.6.0~beta
 Qt_5.3@Qt_5.3 5.6.0~beta
 Qt_5.4@Qt_5.4 5.6.0~beta
 Qt_5.5@Qt_5.5 5.6.0~beta
 Qt_5.6@Qt_5.6 5.6.0~beta
 Qt_5.7@Qt_5.7 5.7.0
 Qt_5@Qt_5 5.6.0~beta
 Qt_5_PRIVATE_API@Qt_5_PRIVATE_API 5.6.0~beta 1
 _Z14qDBusReplyFillRK12QDBusMessageR10QDBusErrorR8QVariant@Qt_5 5.0.2
 _Z15qDBusAddSpyHookPFvRK12QDBusMessageE@Qt_5 5.0.2
 _Z18qDBusCheckAsyncTagPKc@Qt_5 5.1.0
 _Z22qDBusBindToApplicationv@Qt_5 5.0.2
 _Z24qDBusParametersForMethodRK5QListI10QByteArrayER7QVectorIiER7QString@Qt_5 5.2.0~alpha1
 _Z26qDBusGenerateMetaObjectXml7QStringPK11QMetaObjectS2_i@Qt_5 5.0.2
 _ZN10QByteArray7reserveEi@Qt_5 5.6.0~beta
 _ZN10QDBusError11errorStringENS_9ErrorTypeE@Qt_5 5.0.2
 _ZN10QDBusErrorC1ENS_9ErrorTypeERK7QString@Qt_5 5.0.2
 _ZN10QDBusErrorC1EPK9DBusError@Qt_5 5.0.2
 _ZN10QDBusErrorC1ERK12QDBusMessage@Qt_5 5.0.2
 _ZN10QDBusErrorC1ERKS_@Qt_5 5.0.2
 _ZN10QDBusErrorC1Ev@Qt_5 5.0.2
 _ZN10QDBusErrorC2ENS_9ErrorTypeERK7QString@Qt_5 5.0.2
 _ZN10QDBusErrorC2EPK9DBusError@Qt_5 5.0.2
 _ZN10QDBusErrorC2ERK12QDBusMessage@Qt_5 5.0.2
 _ZN10QDBusErrorC2ERKS_@Qt_5 5.0.2
 _ZN10QDBusErrorC2Ev@Qt_5 5.0.2
 _ZN10QDBusErroraSERK12QDBusMessage@Qt_5 5.0.2
 _ZN10QDBusErroraSERKS_@Qt_5 5.0.2
 _ZN11QDBusServer11qt_metacallEN11QMetaObject4CallEiPPv@Qt_5 5.0.2
 _ZN11QDBusServer11qt_metacastEPKc@Qt_5 5.0.2
 _ZN11QDBusServer13newConnectionERK15QDBusConnection@Qt_5 5.0.2
 _ZN11QDBusServer16staticMetaObjectE@Qt_5 5.0.2
 _ZN11QDBusServer33setAnonymousAuthenticationAllowedEb@Qt_5 5.3.0
 _ZN11QDBusServerC1EP7QObject@Qt_5 5.0.2
 _ZN11QDBusServerC1ERK7QStringP7QObject@Qt_5 5.0.2
 _ZN11QDBusServerC2EP7QObject@Qt_5 5.0.2
 _ZN11QDBusServerC2ERK7QStringP7QObject@Qt_5 5.0.2
 _ZN11QDBusServerD0Ev@Qt_5 5.0.2
 _ZN11QDBusServerD1Ev@Qt_5 5.0.2
 _ZN11QDBusServerD2Ev@Qt_5 5.0.2
 _ZN12QDBusContextC1Ev@Qt_5 5.0.2
 _ZN12QDBusContextC2Ev@Qt_5 5.0.2
 _ZN12QDBusContextD1Ev@Qt_5 5.0.2
 _ZN12QDBusContextD2Ev@Qt_5 5.0.2
 _ZN12QDBusMessage11createErrorERK7QStringS2_@Qt_5 5.0.2
 _ZN12QDBusMessage12createSignalERK7QStringS2_S2_@Qt_5 5.0.2
 _ZN12QDBusMessage12setArgumentsERK5QListI8QVariantE@Qt_5 5.0.2
 _ZN12QDBusMessage16createMethodCallERK7QStringS2_S2_S2_@Qt_5 5.0.2
 _ZN12QDBusMessage19setAutoStartServiceEb@Qt_5 5.0.2
 _ZN12QDBusMessage20createTargetedSignalERK7QStringS2_S2_S2_@Qt_5 5.6.0~beta
 _ZN12QDBusMessageC1ERKS_@Qt_5 5.0.2
 _ZN12QDBusMessageC1Ev@Qt_5 5.0.2
 _ZN12QDBusMessageC2ERKS_@Qt_5 5.0.2
 _ZN12QDBusMessageC2Ev@Qt_5 5.0.2
 _ZN12QDBusMessageD1Ev@Qt_5 5.0.2
 _ZN12QDBusMessageD2Ev@Qt_5 5.0.2
 _ZN12QDBusMessageaSERKS_@Qt_5 5.0.2
 _ZN12QDBusMessagelsERK8QVariant@Qt_5 5.0.2
 _ZN13QDBusArgument10beginArrayEi@Qt_5 5.0.2
 _ZN13QDBusArgument11endMapEntryEv@Qt_5 5.0.2
 _ZN13QDBusArgument12endStructureEv@Qt_5 5.0.2
 _ZN13QDBusArgument13appendVariantERK8QVariant@Qt_5 5.0.2
 _ZN13QDBusArgument13beginMapEntryEv@Qt_5 5.0.2
 _ZN13QDBusArgument14beginStructureEv@Qt_5 5.0.2
 _ZN13QDBusArgument6endMapEv@Qt_5 5.0.2
 _ZN13QDBusArgument8beginMapEii@Qt_5 5.0.2
 _ZN13QDBusArgument8endArrayEv@Qt_5 5.0.2
 _ZN13QDBusArgumentC1EP20QDBusArgumentPrivate@Qt_5 5.0.2
 _ZN13QDBusArgumentC1ERKS_@Qt_5 5.0.2
 _ZN13QDBusArgumentC1Ev@Qt_5 5.0.2
 _ZN13QDBusArgumentC2EP20QDBusArgumentPrivate@Qt_5 5.0.2
 _ZN13QDBusArgumentC2ERKS_@Qt_5 5.0.2
 _ZN13QDBusArgumentC2Ev@Qt_5 5.0.2
 _ZN13QDBusArgumentD1Ev@Qt_5 5.0.2
 _ZN13QDBusArgumentD2Ev@Qt_5 5.0.2
 _ZN13QDBusArgumentaSERKS_@Qt_5 5.0.2
 _ZN13QDBusArgumentlsERK10QByteArray@Qt_5 5.0.2
 _ZN13QDBusArgumentlsERK11QStringList@Qt_5 5.0.2
 _ZN13QDBusArgumentlsERK12QDBusVariant@Qt_5 5.0.2
 _ZN13QDBusArgumentlsERK14QDBusSignature@Qt_5 5.0.2
 _ZN13QDBusArgumentlsERK15QDBusObjectPath@Qt_5 5.0.2
 _ZN13QDBusArgumentlsERK23QDBusUnixFileDescriptor@Qt_5 5.0.2
 _ZN13QDBusArgumentlsERK7QString@Qt_5 5.0.2
 _ZN13QDBusArgumentlsEb@Qt_5 5.0.2
 _ZN13QDBusArgumentlsEd@Qt_5 5.0.2
 _ZN13QDBusArgumentlsEh@Qt_5 5.0.2
 _ZN13QDBusArgumentlsEi@Qt_5 5.0.2
 _ZN13QDBusArgumentlsEj@Qt_5 5.0.2
 _ZN13QDBusArgumentlsEs@Qt_5 5.0.2
 _ZN13QDBusArgumentlsEt@Qt_5 5.0.2
 _ZN13QDBusArgumentlsEx@Qt_5 5.0.2
 _ZN13QDBusArgumentlsEy@Qt_5 5.0.2
 _ZN13QDBusMetaType10demarshallERK13QDBusArgumentiPv@Qt_5 5.0.2
 _ZN13QDBusMetaType15signatureToTypeEPKc@Qt_5 5.0.2
 _ZN13QDBusMetaType15typeToSignatureEi@Qt_5 5.0.2
 _ZN13QDBusMetaType25registerMarshallOperatorsEiPFvR13QDBusArgumentPKvEPFvRKS0_PvE@Qt_5 5.0.2
 _ZN13QDBusMetaType8marshallER13QDBusArgumentiPKv@Qt_5 5.0.2
 _ZN14QDBusInterface11qt_metacallEN11QMetaObject4CallEiPPv@Qt_5 5.0.2
 _ZN14QDBusInterface11qt_metacastEPKc@Qt_5 5.0.2
 _ZN14QDBusInterfaceC1ERK7QStringS2_S2_RK15QDBusConnectionP7QObject@Qt_5 5.0.2
 _ZN14QDBusInterfaceC2ERK7QStringS2_S2_RK15QDBusConnectionP7QObject@Qt_5 5.0.2
 _ZN14QDBusInterfaceD0Ev@Qt_5 5.0.2
 _ZN14QDBusInterfaceD1Ev@Qt_5 5.0.2
 _ZN14QDBusInterfaceD2Ev@Qt_5 5.0.2
 _ZN14QDBusSignature7doCheckEv@Qt_5 5.0.2
 _ZN15QDBusConnection10disconnectERK7QStringS2_S2_S2_P7QObjectPKc@Qt_5 5.0.2
 _ZN15QDBusConnection10disconnectERK7QStringS2_S2_S2_RK11QStringListS2_P7QObjectPKc@Qt_5 5.0.2
 _ZN15QDBusConnection10disconnectERK7QStringS2_S2_S2_S2_P7QObjectPKc@Qt_5 5.0.2
 _ZN15QDBusConnection10sessionBusEv@Qt_5 5.0.2
 _ZN15QDBusConnection12connectToBusENS_7BusTypeERK7QString@Qt_5 5.0.2
 _ZN15QDBusConnection12connectToBusERK7QStringS2_@Qt_5 5.0.2
 _ZN15QDBusConnection13connectToPeerERK7QStringS2_@Qt_5 5.0.2
 _ZN15QDBusConnection14localMachineIdEv@Qt_5 5.0.2
 _ZN15QDBusConnection14registerObjectERK7QStringP7QObject6QFlagsINS_14RegisterOptionEE@Qt_5 5.0.2
 _ZN15QDBusConnection14registerObjectERK7QStringS2_P7QObject6QFlagsINS_14RegisterOptionEE@Qt_5 5.5.0
 _ZN15QDBusConnection15registerServiceERK7QString@Qt_5 5.0.2
 _ZN15QDBusConnection16staticMetaObjectE@Qt_5 5.0.2
 _ZN15QDBusConnection16unregisterObjectERK7QStringNS_14UnregisterModeE@Qt_5 5.0.2
 _ZN15QDBusConnection17disconnectFromBusERK7QString@Qt_5 5.0.2
 _ZN15QDBusConnection17unregisterServiceERK7QString@Qt_5 5.0.2
 _ZN15QDBusConnection18disconnectFromPeerERK7QString@Qt_5 5.0.2
 _ZN15QDBusConnection21registerVirtualObjectERK7QStringP18QDBusVirtualObjectNS_27VirtualObjectRegisterOptionE@Qt_5 5.0.2
 _ZN15QDBusConnection6senderEv@Qt_5 5.0.2
 _ZN15QDBusConnection7connectERK7QStringS2_S2_S2_P7QObjectPKc@Qt_5 5.0.2
 _ZN15QDBusConnection7connectERK7QStringS2_S2_S2_RK11QStringListS2_P7QObjectPKc@Qt_5 5.0.2
 _ZN15QDBusConnection7connectERK7QStringS2_S2_S2_S2_P7QObjectPKc@Qt_5 5.0.2
 _ZN15QDBusConnection9systemBusEv@Qt_5 5.0.2
 _ZN15QDBusConnectionC1EP22QDBusConnectionPrivate@Qt_5 5.0.2
 _ZN15QDBusConnectionC1ERK7QString@Qt_5 5.0.2
 _ZN15QDBusConnectionC1ERKS_@Qt_5 5.0.2
 _ZN15QDBusConnectionC2EP22QDBusConnectionPrivate@Qt_5 5.0.2
 _ZN15QDBusConnectionC2ERK7QString@Qt_5 5.0.2
 _ZN15QDBusConnectionC2ERKS_@Qt_5 5.0.2
 _ZN15QDBusConnectionD1Ev@Qt_5 5.0.2
 _ZN15QDBusConnectionD2Ev@Qt_5 5.0.2
 _ZN15QDBusConnectionaSERKS_@Qt_5 5.0.2
 _ZN15QDBusMetaObject16createMetaObjectERK7QStringS2_R5QHashIS0_PS_ER10QDBusError@Qt_5_PRIVATE_API 5.0.2 1
 _ZN15QDBusMetaObjectC1Ev@Qt_5_PRIVATE_API 5.0.2 1
 _ZN15QDBusMetaObjectC2Ev@Qt_5_PRIVATE_API 5.0.2 1
 _ZN15QDBusObjectPath7doCheckEv@Qt_5 5.0.2
 _ZN16QDBusPendingCall15waitForFinishedEv@Qt_5 5.0.2
 _ZN16QDBusPendingCall17fromCompletedCallERK12QDBusMessage@Qt_5 5.0.2
 _ZN16QDBusPendingCall9fromErrorERK10QDBusError@Qt_5 5.0.2
 _ZN16QDBusPendingCallC1EP23QDBusPendingCallPrivate@Qt_5 5.0.2
 _ZN16QDBusPendingCallC1ERKS_@Qt_5 5.0.2
 _ZN16QDBusPendingCallC2EP23QDBusPendingCallPrivate@Qt_5 5.0.2
 _ZN16QDBusPendingCallC2ERKS_@Qt_5 5.0.2
 _ZN16QDBusPendingCallD1Ev@Qt_5 5.0.2
 _ZN16QDBusPendingCallD2Ev@Qt_5 5.0.2
 _ZN16QDBusPendingCallaSERKS_@Qt_5 5.0.2
 _ZN18QDBusIntrospection11parseObjectERK7QStringS2_S2_@Qt_5_PRIVATE_API 5.0.2 1
 _ZN18QDBusIntrospection14parseInterfaceERK7QString@Qt_5_PRIVATE_API 5.0.2 1
 _ZN18QDBusIntrospection15parseInterfacesERK7QString@Qt_5_PRIVATE_API 5.0.2 1
 _ZN18QDBusVirtualObject11qt_metacallEN11QMetaObject4CallEiPPv@Qt_5 5.0.2
 _ZN18QDBusVirtualObject11qt_metacastEPKc@Qt_5 5.0.2
 _ZN18QDBusVirtualObject16staticMetaObjectE@Qt_5 5.0.2
 _ZN18QDBusVirtualObjectC1EP7QObject@Qt_5 5.0.2
 _ZN18QDBusVirtualObjectC2EP7QObject@Qt_5 5.0.2
 _ZN18QDBusVirtualObjectD0Ev@Qt_5 5.0.2
 _ZN18QDBusVirtualObjectD1Ev@Qt_5 5.0.2
 _ZN18QDBusVirtualObjectD2Ev@Qt_5 5.0.2
 _ZN19QDBusServiceWatcher11qt_metacallEN11QMetaObject4CallEiPPv@Qt_5 5.0.2
 _ZN19QDBusServiceWatcher11qt_metacastEPKc@Qt_5 5.0.2
 _ZN19QDBusServiceWatcher12setWatchModeE6QFlagsINS_13WatchModeFlagEE@Qt_5 5.0.2
 _ZN19QDBusServiceWatcher13setConnectionERK15QDBusConnection@Qt_5 5.0.2
 _ZN19QDBusServiceWatcher16staticMetaObjectE@Qt_5 5.0.2
 _ZN19QDBusServiceWatcher17addWatchedServiceERK7QString@Qt_5 5.0.2
 _ZN19QDBusServiceWatcher17serviceRegisteredERK7QString@Qt_5 5.0.2
 _ZN19QDBusServiceWatcher18setWatchedServicesERK11QStringList@Qt_5 5.0.2
 _ZN19QDBusServiceWatcher19serviceOwnerChangedERK7QStringS2_S2_@Qt_5 5.0.2
 _ZN19QDBusServiceWatcher19serviceUnregisteredERK7QString@Qt_5 5.0.2
 _ZN19QDBusServiceWatcher20removeWatchedServiceERK7QString@Qt_5 5.0.2
 _ZN19QDBusServiceWatcherC1EP7QObject@Qt_5 5.0.2
 _ZN19QDBusServiceWatcherC1ERK7QStringRK15QDBusConnection6QFlagsINS_13WatchModeFlagEEP7QObject@Qt_5 5.0.2
 _ZN19QDBusServiceWatcherC2EP7QObject@Qt_5 5.0.2
 _ZN19QDBusServiceWatcherC2ERK7QStringRK15QDBusConnection6QFlagsINS_13WatchModeFlagEEP7QObject@Qt_5 5.0.2
 _ZN19QDBusServiceWatcherD0Ev@Qt_5 5.0.2
 _ZN19QDBusServiceWatcherD1Ev@Qt_5 5.0.2
 _ZN19QDBusServiceWatcherD2Ev@Qt_5 5.0.2
 _ZN20QDBusAbstractAdaptor11qt_metacallEN11QMetaObject4CallEiPPv@Qt_5 5.0.2
 _ZN20QDBusAbstractAdaptor11qt_metacastEPKc@Qt_5 5.0.2
 _ZN20QDBusAbstractAdaptor16staticMetaObjectE@Qt_5 5.0.2
 _ZN20QDBusAbstractAdaptor19setAutoRelaySignalsEb@Qt_5 5.0.2
 _ZN20QDBusAbstractAdaptorC1EP7QObject@Qt_5 5.0.2
 _ZN20QDBusAbstractAdaptorC2EP7QObject@Qt_5 5.0.2
 _ZN20QDBusAbstractAdaptorD0Ev@Qt_5 5.0.2
 _ZN20QDBusAbstractAdaptorD1Ev@Qt_5 5.0.2
 _ZN20QDBusAbstractAdaptorD2Ev@Qt_5 5.0.2
 _ZN21QDBusPendingReplyData12setMetaTypesEiPKi@Qt_5 5.0.2
 _ZN21QDBusPendingReplyData6assignERK12QDBusMessage@Qt_5 5.0.2
 _ZN21QDBusPendingReplyData6assignERK16QDBusPendingCall@Qt_5 5.0.2
 _ZN21QDBusPendingReplyDataC1Ev@Qt_5 5.0.2
 _ZN21QDBusPendingReplyDataC2Ev@Qt_5 5.0.2
 _ZN21QDBusPendingReplyDataD1Ev@Qt_5 5.0.2
 _ZN21QDBusPendingReplyDataD2Ev@Qt_5 5.0.2
 _ZN22QDBusAbstractInterface10setTimeoutEi@Qt_5 5.0.2
 _ZN22QDBusAbstractInterface11qt_metacallEN11QMetaObject4CallEiPPv@Qt_5 5.0.2
 _ZN22QDBusAbstractInterface11qt_metacastEPKc@Qt_5 5.0.2
 _ZN22QDBusAbstractInterface13connectNotifyERK11QMetaMethod@Qt_5 5.0.2
 _ZN22QDBusAbstractInterface15internalPropSetEPKcRK8QVariant@Qt_5 5.0.2
 _ZN22QDBusAbstractInterface16callWithCallbackERK7QStringRK5QListI8QVariantEP7QObjectPKc@Qt_5 5.0.2
 _ZN22QDBusAbstractInterface16callWithCallbackERK7QStringRK5QListI8QVariantEP7QObjectPKcSB_@Qt_5 5.0.2
 _ZN22QDBusAbstractInterface16disconnectNotifyERK11QMetaMethod@Qt_5 5.0.2
 _ZN22QDBusAbstractInterface16staticMetaObjectE@Qt_5 5.0.2
 _ZN22QDBusAbstractInterface20callWithArgumentListEN5QDBus8CallModeERK7QStringRK5QListI8QVariantE@Qt_5 5.0.2
 _ZN22QDBusAbstractInterface25asyncCallWithArgumentListERK7QStringRK5QListI8QVariantE@Qt_5 5.0.2
 _ZN22QDBusAbstractInterface4callEN5QDBus8CallModeERK7QStringRK8QVariantS7_S7_S7_S7_S7_S7_S7_@Qt_5 5.0.2
 _ZN22QDBusAbstractInterface4callERK7QStringRK8QVariantS5_S5_S5_S5_S5_S5_S5_@Qt_5 5.0.2
 _ZN22QDBusAbstractInterface9asyncCallERK7QStringRK8QVariantS5_S5_S5_S5_S5_S5_S5_@Qt_5 5.0.2
 _ZN22QDBusAbstractInterfaceC1ER29QDBusAbstractInterfacePrivateP7QObject@Qt_5 5.0.2
 _ZN22QDBusAbstractInterfaceC1ERK7QStringS2_PKcRK15QDBusConnectionP7QObject@Qt_5 5.0.2
 _ZN22QDBusAbstractInterfaceC2ER29QDBusAbstractInterfacePrivateP7QObject@Qt_5 5.0.2
 _ZN22QDBusAbstractInterfaceC2ERK7QStringS2_PKcRK15QDBusConnectionP7QObject@Qt_5 5.0.2
 _ZN22QDBusAbstractInterfaceD0Ev@Qt_5 5.0.2
 _ZN22QDBusAbstractInterfaceD1Ev@Qt_5 5.0.2
 _ZN22QDBusAbstractInterfaceD2Ev@Qt_5 5.0.2
 _ZN23QDBusPendingCallWatcher11qt_metacallEN11QMetaObject4CallEiPPv@Qt_5 5.0.2
 _ZN23QDBusPendingCallWatcher11qt_metacastEPKc@Qt_5 5.0.2
 _ZN23QDBusPendingCallWatcher15waitForFinishedEv@Qt_5 5.0.2
 _ZN23QDBusPendingCallWatcher16staticMetaObjectE@Qt_5 5.0.2
 _ZN23QDBusPendingCallWatcher8finishedEPS_@Qt_5 5.0.2
 _ZN23QDBusPendingCallWatcherC1ERK16QDBusPendingCallP7QObject@Qt_5 5.0.2
 _ZN23QDBusPendingCallWatcherC2ERK16QDBusPendingCallP7QObject@Qt_5 5.0.2
 _ZN23QDBusPendingCallWatcherD0Ev@Qt_5 5.0.2
 _ZN23QDBusPendingCallWatcherD1Ev@Qt_5 5.0.2
 _ZN23QDBusPendingCallWatcherD2Ev@Qt_5 5.0.2
 _ZN23QDBusUnixFileDescriptor11isSupportedEv@Qt_5 5.0.2
 _ZN23QDBusUnixFileDescriptor17setFileDescriptorEi@Qt_5 5.0.2
 _ZN23QDBusUnixFileDescriptor18giveFileDescriptorEi@Qt_5 5.0.2
 _ZN23QDBusUnixFileDescriptor18takeFileDescriptorEv@Qt_5 5.0.2
 _ZN23QDBusUnixFileDescriptorC1ERKS_@Qt_5 5.0.2
 _ZN23QDBusUnixFileDescriptorC1Ei@Qt_5 5.0.2
 _ZN23QDBusUnixFileDescriptorC1Ev@Qt_5 5.0.2
 _ZN23QDBusUnixFileDescriptorC2ERKS_@Qt_5 5.0.2
 _ZN23QDBusUnixFileDescriptorC2Ei@Qt_5 5.0.2
 _ZN23QDBusUnixFileDescriptorC2Ev@Qt_5 5.0.2
 _ZN23QDBusUnixFileDescriptorD1Ev@Qt_5 5.0.2
 _ZN23QDBusUnixFileDescriptorD2Ev@Qt_5 5.0.2
 _ZN23QDBusUnixFileDescriptoraSERKS_@Qt_5 5.0.2
 _ZN24QDBusConnectionInterface11qt_metacallEN11QMetaObject4CallEiPPv@Qt_5 5.0.2
 _ZN24QDBusConnectionInterface11qt_metacastEPKc@Qt_5 5.0.2
 _ZN24QDBusConnectionInterface12NameAcquiredERK7QString@Qt_5 5.0.2
 _ZN24QDBusConnectionInterface12startServiceERK7QString@Qt_5 5.0.2
 _ZN24QDBusConnectionInterface13connectNotifyERK11QMetaMethod@Qt_5 5.0.2
 _ZN24QDBusConnectionInterface15registerServiceERK7QStringNS_19ServiceQueueOptionsENS_25ServiceReplacementOptionsE@Qt_5 5.0.2
 _ZN24QDBusConnectionInterface16NameOwnerChangedERK7QStringS2_S2_@Qt_5 5.0.2
 _ZN24QDBusConnectionInterface16disconnectNotifyERK11QMetaMethod@Qt_5 5.0.2
 _ZN24QDBusConnectionInterface16staticMetaObjectE@Qt_5 5.0.2
 _ZN24QDBusConnectionInterface17serviceRegisteredERK7QString@Qt_5 5.0.2
 _ZN24QDBusConnectionInterface17unregisterServiceERK7QString@Qt_5 5.0.2
 _ZN24QDBusConnectionInterface19serviceOwnerChangedERK7QStringS2_S2_@Qt_5 5.0.2
 _ZN24QDBusConnectionInterface19serviceUnregisteredERK7QString@Qt_5 5.0.2
 _ZN24QDBusConnectionInterface22callWithCallbackFailedERK10QDBusErrorRK12QDBusMessage@Qt_5 5.0.2
 _ZN24QDBusConnectionInterface8NameLostERK7QString@Qt_5 5.0.2
 _ZN24QDBusConnectionInterfaceC1ERK15QDBusConnectionP7QObject@Qt_5 5.0.2
 _ZN24QDBusConnectionInterfaceC2ERK15QDBusConnectionP7QObject@Qt_5 5.0.2
 _ZN24QDBusConnectionInterfaceD0Ev@Qt_5 5.0.2
 _ZN24QDBusConnectionInterfaceD1Ev@Qt_5 5.0.2
 _ZN24QDBusConnectionInterfaceD2Ev@Qt_5 5.0.2
 _ZN26QDBusAbstractInterfaceBase11qt_metacallEN11QMetaObject4CallEiPPv@Qt_5 5.0.2
 _ZN26QDBusAbstractInterfaceBaseC1ER29QDBusAbstractInterfacePrivateP7QObject@Qt_5 5.0.2
 _ZN26QDBusAbstractInterfaceBaseC2ER29QDBusAbstractInterfacePrivateP7QObject@Qt_5 5.0.2
 _ZN9QDBusUtil14isValidBusNameERK7QString@Qt_5 5.0.2
 _ZN9QDBusUtil16argumentToStringERK8QVariant@Qt_5 5.0.2
 _ZN9QDBusUtil16isValidBasicTypeEi@Qt_5 5.0.2
 _ZN9QDBusUtil16isValidErrorNameERK7QString@Qt_5 5.0.2
 _ZN9QDBusUtil16isValidFixedTypeEi@Qt_5 5.0.2
 _ZN9QDBusUtil16isValidSignatureERK7QString@Qt_5 5.0.2
 _ZN9QDBusUtil17isValidMemberNameERK10QStringRef@Qt_5 5.7.0
 _ZN9QDBusUtil17isValidObjectPathERK7QString@Qt_5 5.0.2
 _ZN9QDBusUtil20isValidInterfaceNameERK7QString@Qt_5 5.0.2
 _ZN9QDBusUtil22isValidSingleSignatureERK7QString@Qt_5 5.0.2
 _ZN9QDBusUtil23isValidPartOfObjectPathERK10QStringRef@Qt_5 5.7.0
 _ZN9QDBusUtil27isValidUniqueConnectionNameERK10QStringRef@Qt_5 5.7.0
 _ZNK10QDBusError4nameEv@Qt_5 5.0.2
 _ZNK10QDBusError4typeEv@Qt_5 5.0.2
 _ZNK10QDBusError7isValidEv@Qt_5 5.0.2
 _ZNK10QDBusError7messageEv@Qt_5 5.0.2
 _ZNK11QDBusServer10metaObjectEv@Qt_5 5.0.2
 _ZNK11QDBusServer11isConnectedEv@Qt_5 5.0.2
 _ZNK11QDBusServer32isAnonymousAuthenticationAllowedEv@Qt_5 5.3.0
 _ZNK11QDBusServer7addressEv@Qt_5 5.0.2
 _ZNK11QDBusServer9lastErrorEv@Qt_5 5.0.2
 _ZNK12QDBusContext10connectionEv@Qt_5 5.0.2
 _ZNK12QDBusContext14calledFromDBusEv@Qt_5 5.0.2
 _ZNK12QDBusContext14isDelayedReplyEv@Qt_5 5.0.2
 _ZNK12QDBusContext14sendErrorReplyEN10QDBusError9ErrorTypeERK7QString@Qt_5 5.0.2
 _ZNK12QDBusContext14sendErrorReplyERK7QStringS2_@Qt_5 5.0.2
 _ZNK12QDBusContext15setDelayedReplyEb@Qt_5 5.0.2
 _ZNK12QDBusContext7messageEv@Qt_5 5.0.2
 _ZNK12QDBusMessage11createReplyERK5QListI8QVariantE@Qt_5 5.0.2
 _ZNK12QDBusMessage12errorMessageEv@Qt_5 5.0.2
 _ZNK12QDBusMessage14isDelayedReplyEv@Qt_5 5.0.2
 _ZNK12QDBusMessage15isReplyRequiredEv@Qt_5 5.0.2
 _ZNK12QDBusMessage15setDelayedReplyEb@Qt_5 5.0.2
 _ZNK12QDBusMessage16autoStartServiceEv@Qt_5 5.0.2
 _ZNK12QDBusMessage16createErrorReplyE7QStringRKS0_@Qt_5 5.0.2
 _ZNK12QDBusMessage16createErrorReplyEN10QDBusError9ErrorTypeERK7QString@Qt_5 5.0.2
 _ZNK12QDBusMessage4pathEv@Qt_5 5.0.2
 _ZNK12QDBusMessage4typeEv@Qt_5 5.0.2
 _ZNK12QDBusMessage6memberEv@Qt_5 5.0.2
 _ZNK12QDBusMessage7serviceEv@Qt_5 5.0.2
 _ZNK12QDBusMessage9argumentsEv@Qt_5 5.0.2
 _ZNK12QDBusMessage9errorNameEv@Qt_5 5.0.2
 _ZNK12QDBusMessage9interfaceEv@Qt_5 5.0.2
 _ZNK12QDBusMessage9signatureEv@Qt_5 5.0.2
 _ZNK13QDBusArgument10beginArrayEv@Qt_5 5.0.2
 _ZNK13QDBusArgument11currentTypeEv@Qt_5 5.0.2
 _ZNK13QDBusArgument11endMapEntryEv@Qt_5 5.0.2
 _ZNK13QDBusArgument12endStructureEv@Qt_5 5.0.2
 _ZNK13QDBusArgument13beginMapEntryEv@Qt_5 5.0.2
 _ZNK13QDBusArgument14beginStructureEv@Qt_5 5.0.2
 _ZNK13QDBusArgument16currentSignatureEv@Qt_5 5.0.2
 _ZNK13QDBusArgument5atEndEv@Qt_5 5.0.2
 _ZNK13QDBusArgument6endMapEv@Qt_5 5.0.2
 _ZNK13QDBusArgument8beginMapEv@Qt_5 5.0.2
 _ZNK13QDBusArgument8endArrayEv@Qt_5 5.0.2
 _ZNK13QDBusArgument9asVariantEv@Qt_5 5.0.2
 _ZNK13QDBusArgumentrsER10QByteArray@Qt_5 5.0.2
 _ZNK13QDBusArgumentrsER11QStringList@Qt_5 5.0.2
 _ZNK13QDBusArgumentrsER12QDBusVariant@Qt_5 5.0.2
 _ZNK13QDBusArgumentrsER14QDBusSignature@Qt_5 5.0.2
 _ZNK13QDBusArgumentrsER15QDBusObjectPath@Qt_5 5.0.2
 _ZNK13QDBusArgumentrsER23QDBusUnixFileDescriptor@Qt_5 5.0.2
 _ZNK13QDBusArgumentrsER7QString@Qt_5 5.0.2
 _ZNK13QDBusArgumentrsERb@Qt_5 5.0.2
 _ZNK13QDBusArgumentrsERd@Qt_5 5.0.2
 _ZNK13QDBusArgumentrsERh@Qt_5 5.0.2
 _ZNK13QDBusArgumentrsERi@Qt_5 5.0.2
 _ZNK13QDBusArgumentrsERj@Qt_5 5.0.2
 _ZNK13QDBusArgumentrsERs@Qt_5 5.0.2
 _ZNK13QDBusArgumentrsERt@Qt_5 5.0.2
 _ZNK13QDBusArgumentrsERx@Qt_5 5.0.2
 _ZNK13QDBusArgumentrsERy@Qt_5 5.0.2
 _ZNK14QDBusInterface10metaObjectEv@Qt_5 5.0.2
 _ZNK15QDBusConnection11baseServiceEv@Qt_5 5.0.2
 _ZNK15QDBusConnection11isConnectedEv@Qt_5 5.0.2
 _ZNK15QDBusConnection15internalPointerEv@Qt_5 5.0.2
 _ZNK15QDBusConnection16callWithCallbackERK12QDBusMessageP7QObjectPKcS6_i@Qt_5 5.0.2
 _ZNK15QDBusConnection16callWithCallbackERK12QDBusMessageP7QObjectPKci@Qt_5 5.0.2
 _ZNK15QDBusConnection18objectRegisteredAtERK7QString@Qt_5 5.0.2
 _ZNK15QDBusConnection22connectionCapabilitiesEv@Qt_5 5.0.2
 _ZNK15QDBusConnection4callERK12QDBusMessageN5QDBus8CallModeEi@Qt_5 5.0.2
 _ZNK15QDBusConnection4nameEv@Qt_5 5.0.2
 _ZNK15QDBusConnection4sendERK12QDBusMessage@Qt_5 5.0.2
 _ZNK15QDBusConnection9asyncCallERK12QDBusMessagei@Qt_5 5.0.2
 _ZNK15QDBusConnection9interfaceEv@Qt_5 5.0.2
 _ZNK15QDBusConnection9lastErrorEv@Qt_5 5.0.2
 _ZNK15QDBusMetaObject16propertyMetaTypeEi@Qt_5_PRIVATE_API 5.0.2 1
 _ZNK15QDBusMetaObject19inputTypesForMethodEi@Qt_5_PRIVATE_API 5.0.2 1
 _ZNK15QDBusMetaObject20outputTypesForMethodEi@Qt_5_PRIVATE_API 5.0.2 1
 _ZNK16QDBusPendingCall10isFinishedEv@Qt_5 5.0.2
 _ZNK16QDBusPendingCall5errorEv@Qt_5 5.0.2
 _ZNK16QDBusPendingCall5replyEv@Qt_5 5.0.2
 _ZNK16QDBusPendingCall7isErrorEv@Qt_5 5.0.2
 _ZNK16QDBusPendingCall7isValidEv@Qt_5 5.0.2
 _ZNK18QDBusVirtualObject10metaObjectEv@Qt_5 5.0.2
 _ZNK19QDBusServiceWatcher10connectionEv@Qt_5 5.0.2
 _ZNK19QDBusServiceWatcher10metaObjectEv@Qt_5 5.0.2
 _ZNK19QDBusServiceWatcher15watchedServicesEv@Qt_5 5.0.2
 _ZNK19QDBusServiceWatcher9watchModeEv@Qt_5 5.0.2
 _ZNK20QDBusAbstractAdaptor10metaObjectEv@Qt_5 5.0.2
 _ZNK20QDBusAbstractAdaptor16autoRelaySignalsEv@Qt_5 5.0.2
 _ZNK21QDBusPendingReplyData10argumentAtEi@Qt_5 5.0.2
 _ZNK22QDBusAbstractInterface10connectionEv@Qt_5 5.0.2
 _ZNK22QDBusAbstractInterface10metaObjectEv@Qt_5 5.0.2
 _ZNK22QDBusAbstractInterface15internalPropGetEPKc@Qt_5 5.0.2
 _ZNK22QDBusAbstractInterface17internalConstCallEN5QDBus8CallModeERK7QStringRK5QListI8QVariantE@Qt_5 5.0.2
 _ZNK22QDBusAbstractInterface4pathEv@Qt_5 5.0.2
 _ZNK22QDBusAbstractInterface7isValidEv@Qt_5 5.0.2
 _ZNK22QDBusAbstractInterface7serviceEv@Qt_5 5.0.2
 _ZNK22QDBusAbstractInterface7timeoutEv@Qt_5 5.0.2
 _ZNK22QDBusAbstractInterface9interfaceEv@Qt_5 5.0.2
 _ZNK22QDBusAbstractInterface9lastErrorEv@Qt_5 5.0.2
 _ZNK23QDBusPendingCallWatcher10metaObjectEv@Qt_5 5.0.2
 _ZNK23QDBusUnixFileDescriptor14fileDescriptorEv@Qt_5 5.0.2
 _ZNK23QDBusUnixFileDescriptor7isValidEv@Qt_5 5.0.2
 _ZNK24QDBusConnectionInterface10metaObjectEv@Qt_5 5.0.2
 _ZNK24QDBusConnectionInterface10servicePidERK7QString@Qt_5 5.0.2
 _ZNK24QDBusConnectionInterface10serviceUidERK7QString@Qt_5 5.0.2
 _ZNK24QDBusConnectionInterface12serviceOwnerERK7QString@Qt_5 5.0.2
 _ZNK24QDBusConnectionInterface19isServiceRegisteredERK7QString@Qt_5 5.0.2
 _ZNK24QDBusConnectionInterface22registeredServiceNamesEv@Qt_5 5.0.2
 (optional=templinst|arch=armel armhf hurd-i386 i386 kfreebsd-i386 m68k mips mipsel powerpc powerpcspe)_ZSt4swapIN8QVariant7PrivateEENSt9enable_ifIXsrSt6__and_IJSt21is_move_constructibleIT_ESt18is_move_assignableIS5_EEE5valueEvE4typeERS5_SC_@Qt_5 5.7.1
 _ZTI11QDBusServer@Qt_5 5.0.2
 _ZTI14QDBusInterface@Qt_5 5.0.2
 _ZTI16QDBusPendingCall@Qt_5 5.0.2
 _ZTI18QDBusVirtualObject@Qt_5 5.0.2
 _ZTI19QDBusServiceWatcher@Qt_5 5.0.2
 _ZTI20QDBusAbstractAdaptor@Qt_5 5.0.2
 _ZTI22QDBusAbstractInterface@Qt_5 5.0.2
 _ZTI23QDBusPendingCallWatcher@Qt_5 5.0.2
 _ZTI24QDBusConnectionInterface@Qt_5 5.0.2
 _ZTI26QDBusAbstractInterfaceBase@Qt_5 5.0.2
 _ZTS11QDBusServer@Qt_5 5.0.2
 _ZTS14QDBusInterface@Qt_5 5.0.2
 _ZTS16QDBusPendingCall@Qt_5 5.0.2
 _ZTS18QDBusVirtualObject@Qt_5 5.0.2
 _ZTS19QDBusServiceWatcher@Qt_5 5.0.2
 _ZTS20QDBusAbstractAdaptor@Qt_5 5.0.2
 _ZTS22QDBusAbstractInterface@Qt_5 5.0.2
 _ZTS23QDBusPendingCallWatcher@Qt_5 5.0.2
 _ZTS24QDBusConnectionInterface@Qt_5 5.0.2
 _ZTS26QDBusAbstractInterfaceBase@Qt_5 5.0.2
 _ZTV11QDBusServer@Qt_5 5.0.2
 _ZTV14QDBusInterface@Qt_5 5.0.2
 _ZTV18QDBusVirtualObject@Qt_5 5.0.2
 _ZTV19QDBusServiceWatcher@Qt_5 5.0.2
 _ZTV20QDBusAbstractAdaptor@Qt_5 5.0.2
 _ZTV22QDBusAbstractInterface@Qt_5 5.0.2
 _ZTV23QDBusPendingCallWatcher@Qt_5 5.0.2
 _ZTV24QDBusConnectionInterface@Qt_5 5.0.2
 _ZTV26QDBusAbstractInterfaceBase@Qt_5 5.0.2
 _Zls6QDebugRK10QDBusError@Qt_5 5.0.2
 _Zls6QDebugRK12QDBusMessage@Qt_5 5.0.2
 _ZlsR13QDBusArgumentRK5QDate@Qt_5 5.0.2
 _ZlsR13QDBusArgumentRK5QLine@Qt_5 5.0.2
 _ZlsR13QDBusArgumentRK5QRect@Qt_5 5.0.2
 _ZlsR13QDBusArgumentRK5QSize@Qt_5 5.0.2
 _ZlsR13QDBusArgumentRK5QTime@Qt_5 5.0.2
 _ZlsR13QDBusArgumentRK6QLineF@Qt_5 5.0.2
 _ZlsR13QDBusArgumentRK6QPoint@Qt_5 5.0.2
 _ZlsR13QDBusArgumentRK6QRectF@Qt_5 5.0.2
 _ZlsR13QDBusArgumentRK6QSizeF@Qt_5 5.0.2
 _ZlsR13QDBusArgumentRK7QPointF@Qt_5 5.0.2
 _ZlsR13QDBusArgumentRK9QDateTime@Qt_5 5.0.2
 _ZrsRK13QDBusArgumentR5QDate@Qt_5 5.0.2
 _ZrsRK13QDBusArgumentR5QLine@Qt_5 5.0.2
 _ZrsRK13QDBusArgumentR5QRect@Qt_5 5.0.2
 _ZrsRK13QDBusArgumentR5QSize@Qt_5 5.0.2
 _ZrsRK13QDBusArgumentR5QTime@Qt_5 5.0.2
 _ZrsRK13QDBusArgumentR6QLineF@Qt_5 5.0.2
 _ZrsRK13QDBusArgumentR6QPoint@Qt_5 5.0.2
 _ZrsRK13QDBusArgumentR6QRectF@Qt_5 5.0.2
 _ZrsRK13QDBusArgumentR6QSizeF@Qt_5 5.0.2
 _ZrsRK13QDBusArgumentR7QPointF@Qt_5 5.0.2
 _ZrsRK13QDBusArgumentR8QVariant@Qt_5 5.0.2
 _ZrsRK13QDBusArgumentR9QDateTime@Qt_5 5.0.2
 qt_dbus_metaobject_skip_annotations@Qt_5 5.0.2
