# SymbolsHelper-Confirmed: 5.7.1 m68k
libQt5Gui.so.5 libqt5gui5 #MINVER#
| libqt5gui5 #MINVER#, qtbase-abi-5-7-1
* Build-Depends-Package: qtbase5-dev
 Qt_5.0@Qt_5.0 5.6.0~beta
 Qt_5.1@Qt_5.1 5.6.0~beta
 Qt_5.2@Qt_5.2 5.6.0~beta
 Qt_5.3@Qt_5.3 5.6.0~beta
 Qt_5.4@Qt_5.4 5.6.0~beta
 Qt_5.5@Qt_5.5 5.6.0~beta
 Qt_5.6@Qt_5.6 5.6.0~beta
 Qt_5.7@Qt_5.7 5.7.0
 Qt_5@Qt_5 5.6.0~beta
 Qt_5_PRIVATE_API@Qt_5_PRIVATE_API 5.6.0~beta 1
 _Z11qDrawBorderP8QPainterRK5QRectPKN4QCss11BorderStyleEPKiPK6QBrushPK5QSize@Qt_5 5.0.2
 _Z12qTriangulatePKdijRK10QTransform@Qt_5 5.2.0
 _Z12qTriangulateRK11QVectorPathRK10QTransformd@Qt_5_PRIVATE_API 5.2.0 1
 _Z12qTriangulateRK12QPainterPathRK10QTransformd@Qt_5 5.2.0
 _Z13qgpu_featuresRK7QString@Qt_5 5.5.0
 _Z13qt_defaultDpiv@Qt_5 5.0.2
 _Z14qt_defaultDpiXv@Qt_5 5.0.2
 _Z14qt_defaultDpiYv@Qt_5 5.0.2
 _Z14qt_draw_helperP15QPainterPrivateRK12QPainterPathNS_13DrawOperationE@Qt_5 5.0.2
 _Z14qt_memrotate90PK7quint24iiiPS_i@Qt_5 5.0.2
 _Z14qt_memrotate90PKhiiiPhi@Qt_5 5.0.2
 _Z14qt_memrotate90PKjiiiPji@Qt_5 5.0.2
 _Z14qt_memrotate90PKtiiiPti@Qt_5 5.0.2
 _Z15qNormalizeRadiiRK5QRectPK5QSizePS2_S5_S5_S5_@Qt_5 5.0.2
 _Z15qt_findAtNxFileRK7QStringdPd@Qt_5 5.6.0~beta
 _Z15qt_memrotate180PK7quint24iiiPS_i@Qt_5 5.0.2
 _Z15qt_memrotate180PKhiiiPhi@Qt_5 5.0.2
 _Z15qt_memrotate180PKjiiiPji@Qt_5 5.0.2
 _Z15qt_memrotate180PKtiiiPti@Qt_5 5.0.2
 _Z15qt_memrotate270PK7quint24iiiPS_i@Qt_5 5.0.2
 _Z15qt_memrotate270PKhiiiPhi@Qt_5 5.0.2
 _Z15qt_memrotate270PKjiiiPji@Qt_5 5.0.2
 _Z15qt_memrotate270PKtiiiPti@Qt_5 5.0.2
 _Z15qt_regionToPathRK7QRegion@Qt_5 5.0.2
 _Z16qt_fusionPalettev@Qt_5 5.1.0
 _Z16qt_imageForBrushib@Qt_5 5.0.2
 _Z17qHasPixmapTextureRK6QBrush@Qt_5 5.0.2
 _Z17qt_convertMarginsRK9QMarginsFN11QPageLayout4UnitES3_@Qt_5 5.3.0
 _Z17qt_handleKeyEventP7QWindowN6QEvent4TypeEi6QFlagsIN2Qt16KeyboardModifierEERK7QStringbt@Qt_5 5.0.2
 _Z17qt_imageTransformR6QImage6QFlagsIN15QImageIOHandler14TransformationEE@Qt_5 5.5.0
 _Z17qt_window_privateP7QWindow@Qt_5 5.0.2
 _Z18qt_addBitmapToPathddPKhiiiP12QPainterPath@Qt_5 5.2.0
 _Z18qt_pixelMultiplieri@Qt_5 5.3.0
 _Z18qt_pointMultiplierN11QPageLayout4UnitE@Qt_5 5.3.0
 _Z19qtVectorPathForPathRK12QPainterPath@Qt_5 5.0.2
 _Z19qt_handleMouseEventP7QWindowRK7QPointFS3_6QFlagsIN2Qt11MouseButtonEES4_INS5_16KeyboardModifierEEi@Qt_5 5.6.0~beta
 _Z19qt_handleTouchEventP7QWindowP12QTouchDeviceRK5QListIN11QTouchEvent10TouchPointEE6QFlagsIN2Qt16KeyboardModifierEE@Qt_5 5.0.2
 _Z20hb_qt_get_font_funcsv@Qt_5 5.2.0
 _Z20qt_scaleForTransformRK10QTransformPd@Qt_5 5.2.0
 _Z20qt_scrollRectInImageR6QImageRK5QRectRK6QPoint@Qt_5 5.0.2
 _Z21qAccessibleRoleStringN11QAccessible4RoleE@Qt_5 5.0.2
 _Z22hb_qt_script_to_scriptN5QChar6ScriptE@Qt_5 5.2.0
 _Z22qAccessibleEventStringN11QAccessible5EventE@Qt_5 5.0.2
 _Z22qt_find_ellipse_coordsRK6QRectFddP7QPointFS3_@Qt_5 5.2.0
 _Z22qt_fontdata_from_indexi@Qt_5 5.0.2
 _Z22qt_gl_read_framebufferRK5QSizebb@Qt_5 5.0.2
 _Z22qt_paint_device_metricPK12QPaintDeviceNS_17PaintDeviceMetricE@Qt_5 5.0.2
 _Z23hb_qt_get_unicode_funcsv@Qt_5 5.2.0
 _Z24hb_qt_script_from_script11hb_script_t@Qt_5 5.2.0
 _Z24qt_fontHasNarrowOutlinesP11QFontEngine@Qt_5_PRIVATE_API 5.0.2 1
 _Z24qt_fontHasNarrowOutlinesRK8QRawFont@Qt_5 5.0.2
 _Z24qt_region_strictContainsRK7QRegionRK5QRect@Qt_5 5.0.2
 _Z25hb_qt_face_get_for_engineP11QFontEngine@Qt_5_PRIVATE_API 5.2.0 1
 _Z25hb_qt_font_get_for_engineP11QFontEngine@Qt_5_PRIVATE_API 5.2.0 1
 _Z26qt_convert_rgb888_to_rgb32PjPKhi@Qt_5 5.5.0
 _Z26qt_gl_global_share_contextv@Qt_5 5.4.0
 _Z27qt_isExtendedRadialGradientRK6QBrush@Qt_5 5.0.2
 _Z28qt_painterPathFromVectorPathRK11QVectorPath@Qt_5_PRIVATE_API 5.0.2 1
 _Z28qt_script_for_writing_systemN13QFontDatabase13WritingSystemE@Qt_5 5.3.0
 _Z28qt_sendShortcutOverrideEventP7QObjectmi6QFlagsIN2Qt16KeyboardModifierEERK7QStringbt@Qt_5 5.6.0~rc
 _Z29qt_convert_rgb888_to_rgbx8888PjPKhi@Qt_5 5.5.0
 _Z29qt_draw_decoration_for_glyphsP8QPainterPKjPK11QFixedPointiP11QFontEngineRK5QFontRK15QTextCharFormat@Qt_5_PRIVATE_API 5.0.2 1
 _Z29qt_set_sequence_auto_mnemonicb@Qt_5 5.0.2
 _Z30qt_gl_set_global_share_contextP14QOpenGLContext@Qt_5 5.4.0
 (arch=arm64)_Z31qt_convert_rgb888_to_rgb32_neonPjPKhi@Qt_5 5.6.0~beta
 _Z32qGamma_correct_back_to_linear_csP6QImage@Qt_5 5.0.2
 (optional=gccinternal|arch=amd64 kfreebsd-amd64 x32)_Z32qt_convert_rgb888_to_rgb32_ssse3PjPKhi@Qt_5 5.0.2
 _Z33hb_qt_font_get_use_design_metricsP9hb_font_t@Qt_5 5.2.0
 _Z33hb_qt_font_set_use_design_metricsP9hb_font_tj@Qt_5 5.2.0
 _Z35qtInitializeVertexArrayObjectHelperP30QOpenGLVertexArrayObjectHelperP14QOpenGLContext@Qt_5 5.4.0
 _Z37qAccessibleLocalizedActionDescriptionRK7QString@Qt_5 5.4.0
 _Z5qHashRK10QTransformj@Qt_5 5.6.0~beta
 _Z5qHashRK12QKeySequencej@Qt_5 5.6.0~beta
 _Z5qHashRK5QFontj@Qt_5 5.3.0
 _Z5qHashRK7QMatrixj@Qt_5 5.6.0~beta
 _Z5qHashRKN22QGuiApplicationPrivate20ActiveTouchPointsKeyE@Qt_5_PRIVATE_API 5.0.2 1
 _Z9qPolylineRK12QPainterPathRK10QTransformd@Qt_5 5.2.0
 _ZN10QBasicDrag10cancelDragEv@Qt_5_PRIVATE_API 5.7.0 1
 _ZN10QBasicDrag11eventFilterEP7QObjectP6QEvent@Qt_5_PRIVATE_API 5.1.0 1
 _ZN10QBasicDrag12updateCursorEN2Qt10DropActionE@Qt_5_PRIVATE_API 5.1.0 1
 _ZN10QBasicDrag13restoreCursorEv@Qt_5_PRIVATE_API 5.1.0 1
 _ZN10QBasicDrag16exitDndEventLoopEv@Qt_5_PRIVATE_API 5.1.0 1
 _ZN10QBasicDrag17enableEventFilterEv@Qt_5_PRIVATE_API 5.1.0 1
 _ZN10QBasicDrag18disableEventFilterEv@Qt_5_PRIVATE_API 5.1.0 1
 _ZN10QBasicDrag22moveShapedPixmapWindowERK6QPoint@Qt_5_PRIVATE_API 5.6.0~beta 1
 _ZN10QBasicDrag26recreateShapedPixmapWindowEP7QScreenRK6QPoint@Qt_5_PRIVATE_API 5.6.0~beta 1
 _ZN10QBasicDrag4dragEP5QDrag@Qt_5_PRIVATE_API 5.1.0 1
 _ZN10QBasicDrag4dropERK6QPoint@Qt_5_PRIVATE_API 5.6.0~beta 1
 _ZN10QBasicDrag6cancelEv@Qt_5_PRIVATE_API 5.1.0 1
 _ZN10QBasicDrag7endDragEv@Qt_5_PRIVATE_API 5.1.0 1
 _ZN10QBasicDrag9startDragEv@Qt_5_PRIVATE_API 5.1.0 1
 _ZN10QBasicDragC1Ev@Qt_5_PRIVATE_API 5.1.0 1
 _ZN10QBasicDragC2Ev@Qt_5_PRIVATE_API 5.1.0 1
 _ZN10QBasicDragD0Ev@Qt_5_PRIVATE_API 5.1.0 1
 _ZN10QBasicDragD1Ev@Qt_5_PRIVATE_API 5.1.0 1
 _ZN10QBasicDragD2Ev@Qt_5_PRIVATE_API 5.1.0 1
 _ZN10QBlittable4lockEv@Qt_5_PRIVATE_API 5.0.2 1
 _ZN10QBlittable6unlockEv@Qt_5_PRIVATE_API 5.0.2 1
 _ZN10QBlittableC1ERK5QSize6QFlagsINS_10CapabilityEE@Qt_5_PRIVATE_API 5.0.2 1
 _ZN10QBlittableC2ERK5QSize6QFlagsINS_10CapabilityEE@Qt_5_PRIVATE_API 5.0.2 1
 _ZN10QBlittableD0Ev@Qt_5_PRIVATE_API 5.0.2 1
 _ZN10QBlittableD1Ev@Qt_5_PRIVATE_API 5.0.2 1
 _ZN10QBlittableD2Ev@Qt_5_PRIVATE_API 5.0.2 1
 _ZN10QClipboard11dataChangedEv@Qt_5 5.0.2
 _ZN10QClipboard11emitChangedENS_4ModeE@Qt_5 5.0.2
 _ZN10QClipboard11qt_metacallEN11QMetaObject4CallEiPPv@Qt_5 5.0.2
 _ZN10QClipboard11qt_metacastEPKc@Qt_5 5.0.2
 _ZN10QClipboard11setMimeDataEP9QMimeDataNS_4ModeE@Qt_5 5.0.2
 _ZN10QClipboard16selectionChangedEv@Qt_5 5.0.2
 _ZN10QClipboard16staticMetaObjectE@Qt_5 5.0.2
 _ZN10QClipboard17findBufferChangedEv@Qt_5 5.0.2
 _ZN10QClipboard5clearENS_4ModeE@Qt_5 5.0.2
 _ZN10QClipboard7changedENS_4ModeE@Qt_5 5.0.2
 _ZN10QClipboard7setTextERK7QStringNS_4ModeE@Qt_5 5.0.2
 _ZN10QClipboard8setImageERK6QImageNS_4ModeE@Qt_5 5.0.2
 _ZN10QClipboard9setPixmapERK7QPixmapNS_4ModeE@Qt_5 5.0.2
 _ZN10QClipboardC1EP7QObject@Qt_5 5.0.2
 _ZN10QClipboardC2EP7QObject@Qt_5 5.0.2
 _ZN10QClipboardD0Ev@Qt_5 5.0.2
 _ZN10QClipboardD1Ev@Qt_5 5.0.2
 _ZN10QClipboardD2Ev@Qt_5 5.0.2
 _ZN10QDropEvent13setDropActionEN2Qt10DropActionE@Qt_5 5.0.2
 _ZN10QDropEventC1ERK7QPointF6QFlagsIN2Qt10DropActionEEPK9QMimeDataS3_INS4_11MouseButtonEES3_INS4_16KeyboardModifierEEN6QEvent4TypeE@Qt_5 5.0.2
 _ZN10QDropEventC2ERK7QPointF6QFlagsIN2Qt10DropActionEEPK9QMimeDataS3_INS4_11MouseButtonEES3_INS4_16KeyboardModifierEEN6QEvent4TypeE@Qt_5 5.0.2
 _ZN10QDropEventD0Ev@Qt_5 5.0.2
 _ZN10QDropEventD1Ev@Qt_5 5.0.2
 _ZN10QDropEventD2Ev@Qt_5 5.0.2
 _ZN10QHelpEventC1EN6QEvent4TypeERK6QPointS4_@Qt_5 5.0.2
 _ZN10QHelpEventC2EN6QEvent4TypeERK6QPointS4_@Qt_5 5.0.2
 _ZN10QHelpEventD0Ev@Qt_5 5.0.2
 _ZN10QHelpEventD1Ev@Qt_5 5.0.2
 _ZN10QHelpEventD2Ev@Qt_5 5.0.2
 _ZN10QHideEventC1Ev@Qt_5 5.0.2
 _ZN10QHideEventC2Ev@Qt_5 5.0.2
 _ZN10QHideEventD0Ev@Qt_5 5.0.2
 _ZN10QHideEventD1Ev@Qt_5 5.0.2
 _ZN10QHideEventD2Ev@Qt_5 5.0.2
 _ZN10QImageData14convertInPlaceEN6QImage6FormatE6QFlagsIN2Qt19ImageConversionFlagEE@Qt_5_PRIVATE_API 5.0.2 1
 _ZN10QImageData6createEPhiiiN6QImage6FormatEbPFvPvES3_@Qt_5_PRIVATE_API 5.0.2 1
 _ZN10QImageData6createERK5QSizeN6QImage6FormatE@Qt_5_PRIVATE_API 5.6.1 1
 _ZN10QImageDataC1Ev@Qt_5_PRIVATE_API 5.0.2 1
 _ZN10QImageDataC2Ev@Qt_5_PRIVATE_API 5.0.2 1
 _ZN10QImageDataD1Ev@Qt_5_PRIVATE_API 5.0.2 1
 _ZN10QImageDataD2Ev@Qt_5_PRIVATE_API 5.0.2 1
 _ZN10QKeyMapper11qt_metacallEN11QMetaObject4CallEiPPv@Qt_5_PRIVATE_API 5.0.2 1
 _ZN10QKeyMapper11qt_metacastEPKc@Qt_5_PRIVATE_API 5.0.2 1
 _ZN10QKeyMapper12possibleKeysEP9QKeyEvent@Qt_5_PRIVATE_API 5.0.2 1
 _ZN10QKeyMapper14changeKeyboardEv@Qt_5_PRIVATE_API 5.0.2 1
 _ZN10QKeyMapper16staticMetaObjectE@Qt_5_PRIVATE_API 5.0.2 1
 _ZN10QKeyMapper8instanceEv@Qt_5_PRIVATE_API 5.0.2 1
 _ZN10QKeyMapperC1Ev@Qt_5_PRIVATE_API 5.0.2 1
 _ZN10QKeyMapperC2Ev@Qt_5_PRIVATE_API 5.0.2 1
 _ZN10QKeyMapperD0Ev@Qt_5_PRIVATE_API 5.0.2 1
 _ZN10QKeyMapperD1Ev@Qt_5_PRIVATE_API 5.0.2 1
 _ZN10QKeyMapperD2Ev@Qt_5_PRIVATE_API 5.0.2 1
 _ZN10QMatrix4x411perspectiveEffff@Qt_5 5.0.2
 _ZN10QMatrix4x415flipCoordinatesEv@Qt_5 5.0.2
 _ZN10QMatrix4x415projectedRotateEffff@Qt_5 5.0.2
 _ZN10QMatrix4x45orthoERK5QRect@Qt_5 5.0.2
 _ZN10QMatrix4x45orthoERK6QRectF@Qt_5 5.0.2
 _ZN10QMatrix4x45orthoEffffff@Qt_5 5.0.2
 _ZN10QMatrix4x45scaleERK9QVector3D@Qt_5 5.0.2
 _ZN10QMatrix4x45scaleEf@Qt_5 5.0.2
 _ZN10QMatrix4x45scaleEff@Qt_5 5.0.2
 _ZN10QMatrix4x45scaleEfff@Qt_5 5.0.2
 _ZN10QMatrix4x46lookAtERK9QVector3DS2_S2_@Qt_5 5.0.2
 _ZN10QMatrix4x46rotateERK11QQuaternion@Qt_5 5.0.2
 _ZN10QMatrix4x46rotateEfRK9QVector3D@Qt_5 5.0.2
 _ZN10QMatrix4x46rotateEffff@Qt_5 5.0.2
 _ZN10QMatrix4x47frustumEffffff@Qt_5 5.0.2
 _ZN10QMatrix4x48optimizeEv@Qt_5 5.0.2
 _ZN10QMatrix4x48viewportEffffff@Qt_5 5.4.0
 _ZN10QMatrix4x49translateERK9QVector3D@Qt_5 5.0.2
 _ZN10QMatrix4x49translateEff@Qt_5 5.0.2
 _ZN10QMatrix4x49translateEfff@Qt_5 5.0.2
 _ZN10QMatrix4x4C1EPKf@Qt_5 5.0.2
 _ZN10QMatrix4x4C1EPKfii@Qt_5 5.0.2
 _ZN10QMatrix4x4C1ERK10QTransform@Qt_5 5.0.2
 _ZN10QMatrix4x4C1ERK7QMatrix@Qt_5 5.0.2
 _ZN10QMatrix4x4C2EPKf@Qt_5 5.0.2
 _ZN10QMatrix4x4C2EPKfii@Qt_5 5.0.2
 _ZN10QMatrix4x4C2ERK10QTransform@Qt_5 5.0.2
 _ZN10QMatrix4x4C2ERK7QMatrix@Qt_5 5.0.2
 _ZN10QMatrix4x4dVEf@Qt_5 5.0.2
 _ZN10QMoveEventC1ERK6QPointS2_@Qt_5 5.0.2
 _ZN10QMoveEventC2ERK6QPointS2_@Qt_5 5.0.2
 _ZN10QMoveEventD0Ev@Qt_5 5.0.2
 _ZN10QMoveEventD1Ev@Qt_5 5.0.2
 _ZN10QMoveEventD2Ev@Qt_5 5.0.2
 _ZN10QPdfEngine10drawPixmapERK6QRectFRK7QPixmapS2_@Qt_5_PRIVATE_API 5.0.2 1
 _ZN10QPdfEngine10drawPointsEPK7QPointFi@Qt_5_PRIVATE_API 5.0.2 1
 _ZN10QPdfEngine11drawPolygonEPK7QPointFiN12QPaintEngine15PolygonDrawModeE@Qt_5_PRIVATE_API 5.0.2 1
 _ZN10QPdfEngine11setPageSizeERK9QPageSize@Qt_5_PRIVATE_API 5.3.0 1
 _ZN10QPdfEngine11updateStateERK17QPaintEngineState@Qt_5_PRIVATE_API 5.0.2 1
 _ZN10QPdfEngine12drawTextItemERK7QPointFRK9QTextItem@Qt_5_PRIVATE_API 5.0.2 1
 _ZN10QPdfEngine13drawHyperlinkERK6QRectFRK4QUrl@Qt_5_PRIVATE_API 5.6.0~beta 1
 _ZN10QPdfEngine13setPageLayoutERK11QPageLayout@Qt_5_PRIVATE_API 5.3.0 1
 _ZN10QPdfEngine13setResolutionEi@Qt_5_PRIVATE_API 5.3.0 1
 _ZN10QPdfEngine14setPageMarginsERK9QMarginsFN11QPageLayout4UnitE@Qt_5_PRIVATE_API 5.3.0 1
 _ZN10QPdfEngine14updateClipPathERK12QPainterPathN2Qt13ClipOperationE@Qt_5_PRIVATE_API 5.0.2 1
 _ZN10QPdfEngine15drawTiledPixmapERK6QRectFRK7QPixmapRK7QPointF@Qt_5_PRIVATE_API 5.0.2 1
 _ZN10QPdfEngine17setOutputFilenameERK7QString@Qt_5_PRIVATE_API 5.0.2 1
 _ZN10QPdfEngine18setPageOrientationEN11QPageLayout11OrientationE@Qt_5_PRIVATE_API 5.3.0 1
 _ZN10QPdfEngine18setupGraphicsStateE6QFlagsIN12QPaintEngine9DirtyFlagEE@Qt_5_PRIVATE_API 5.0.2 1
 _ZN10QPdfEngine3endEv@Qt_5_PRIVATE_API 5.0.2 1
 _ZN10QPdfEngine5beginEP12QPaintDevice@Qt_5_PRIVATE_API 5.0.2 1
 _ZN10QPdfEngine6setPenEv@Qt_5_PRIVATE_API 5.0.2 1
 _ZN10QPdfEngine7newPageEv@Qt_5_PRIVATE_API 5.0.2 1
 _ZN10QPdfEngine8drawPathERK12QPainterPath@Qt_5_PRIVATE_API 5.0.2 1
 _ZN10QPdfEngine8setBrushEv@Qt_5_PRIVATE_API 5.0.2 1
 _ZN10QPdfEngine9drawImageERK6QRectFRK6QImageS2_6QFlagsIN2Qt19ImageConversionFlagEE@Qt_5_PRIVATE_API 5.0.2 1
 _ZN10QPdfEngine9drawLinesEPK6QLineFi@Qt_5_PRIVATE_API 5.0.2 1
 _ZN10QPdfEngine9drawRectsEPK6QRectFi@Qt_5_PRIVATE_API 5.0.2 1
 _ZN10QPdfEngineC1ER17QPdfEnginePrivate@Qt_5_PRIVATE_API 5.0.2 1
 _ZN10QPdfEngineC1Ev@Qt_5_PRIVATE_API 5.0.2 1
 _ZN10QPdfEngineC2ER17QPdfEnginePrivate@Qt_5_PRIVATE_API 5.0.2 1
 _ZN10QPdfEngineC2Ev@Qt_5_PRIVATE_API 5.0.2 1
 _ZN10QPdfWriter10setCreatorERK7QString@Qt_5 5.0.2
 _ZN10QPdfWriter10setMarginsERKN17QPagedPaintDevice7MarginsE@Qt_5 5.0.2
 _ZN10QPdfWriter11qt_metacallEN11QMetaObject4CallEiPPv@Qt_5 5.0.2
 _ZN10QPdfWriter11qt_metacastEPKc@Qt_5 5.0.2
 _ZN10QPdfWriter11setPageSizeEN17QPagedPaintDevice8PageSizeE@Qt_5 5.0.2
 _ZN10QPdfWriter13setPageSizeMMERK6QSizeF@Qt_5 5.0.2
 _ZN10QPdfWriter13setResolutionEi@Qt_5 5.3.0
 _ZN10QPdfWriter16staticMetaObjectE@Qt_5 5.0.2
 _ZN10QPdfWriter7newPageEv@Qt_5 5.0.2
 _ZN10QPdfWriter8setTitleERK7QString@Qt_5 5.0.2
 _ZN10QPdfWriterC1EP9QIODevice@Qt_5 5.0.2
 _ZN10QPdfWriterC1ERK7QString@Qt_5 5.0.2
 _ZN10QPdfWriterC2EP9QIODevice@Qt_5 5.0.2
 _ZN10QPdfWriterC2ERK7QString@Qt_5 5.0.2
 _ZN10QPdfWriterD0Ev@Qt_5 5.0.2
 _ZN10QPdfWriterD1Ev@Qt_5 5.0.2
 _ZN10QPdfWriterD2Ev@Qt_5 5.0.2
 _ZN10QPictureIO10setPictureERK8QPicture@Qt_5 5.0.2
 _ZN10QPictureIO10setQualityEi@Qt_5 5.0.2
 _ZN10QPictureIO11setFileNameERK7QString@Qt_5 5.0.2
 _ZN10QPictureIO11setIODeviceEP9QIODevice@Qt_5 5.0.2
 _ZN10QPictureIO12inputFormatsEv@Qt_5 5.0.2
 _ZN10QPictureIO13outputFormatsEv@Qt_5 5.0.2
 _ZN10QPictureIO13pictureFormatEP9QIODevice@Qt_5 5.0.2
 _ZN10QPictureIO13pictureFormatERK7QString@Qt_5 5.0.2
 _ZN10QPictureIO13setParametersEPKc@Qt_5 5.0.2
 _ZN10QPictureIO14setDescriptionERK7QString@Qt_5 5.0.2
 _ZN10QPictureIO15defineIOHandlerEPKcS1_S1_PFvPS_ES4_@Qt_5 5.0.2
 _ZN10QPictureIO4initEv@Qt_5 5.0.2
 _ZN10QPictureIO4readEv@Qt_5 5.0.2
 _ZN10QPictureIO5writeEv@Qt_5 5.0.2
 _ZN10QPictureIO8setGammaEf@Qt_5 5.0.2
 _ZN10QPictureIO9setFormatEPKc@Qt_5 5.0.2
 _ZN10QPictureIO9setStatusEi@Qt_5 5.0.2
 _ZN10QPictureIOC1EP9QIODevicePKc@Qt_5 5.0.2
 _ZN10QPictureIOC1ERK7QStringPKc@Qt_5 5.0.2
 _ZN10QPictureIOC1Ev@Qt_5 5.0.2
 _ZN10QPictureIOC2EP9QIODevicePKc@Qt_5 5.0.2
 _ZN10QPictureIOC2ERK7QStringPKc@Qt_5 5.0.2
 _ZN10QPictureIOC2Ev@Qt_5 5.0.2
 _ZN10QPictureIOD1Ev@Qt_5 5.0.2
 _ZN10QPictureIOD2Ev@Qt_5 5.0.2
 _ZN10QShowEventC1Ev@Qt_5 5.0.2
 _ZN10QShowEventC2Ev@Qt_5 5.0.2
 _ZN10QShowEventD0Ev@Qt_5 5.0.2
 _ZN10QShowEventD1Ev@Qt_5 5.0.2
 _ZN10QShowEventD2Ev@Qt_5 5.0.2
 _ZN10QTextBlock10setVisibleEb@Qt_5 5.0.2
 _ZN10QTextBlock11clearLayoutEv@Qt_5 5.0.2
 _ZN10QTextBlock11setRevisionEi@Qt_5 5.0.2
 _ZN10QTextBlock11setUserDataEP18QTextBlockUserData@Qt_5 5.0.2
 _ZN10QTextBlock12setLineCountEi@Qt_5 5.0.2
 _ZN10QTextBlock12setUserStateEi@Qt_5 5.0.2
 _ZN10QTextBlock8iteratormmEv@Qt_5 5.0.2
 _ZN10QTextBlock8iteratorppEv@Qt_5 5.0.2
 _ZN10QTextFrame11qt_metacallEN11QMetaObject4CallEiPPv@Qt_5 5.0.2
 _ZN10QTextFrame11qt_metacastEPKc@Qt_5 5.0.2
 _ZN10QTextFrame13setLayoutDataEP20QTextFrameLayoutData@Qt_5 5.0.2
 _ZN10QTextFrame16staticMetaObjectE@Qt_5 5.0.2
 _ZN10QTextFrame8iteratorC1EPS_iii@Qt_5 5.0.2
 _ZN10QTextFrame8iteratorC1ERKS0_@Qt_5 5.0.2
 _ZN10QTextFrame8iteratorC1Ev@Qt_5 5.0.2
 _ZN10QTextFrame8iteratorC2EPS_iii@Qt_5 5.0.2
 _ZN10QTextFrame8iteratorC2ERKS0_@Qt_5 5.0.2
 _ZN10QTextFrame8iteratorC2Ev@Qt_5 5.0.2
 _ZN10QTextFrame8iteratoraSERKS0_@Qt_5 5.0.2
 _ZN10QTextFrame8iteratormmEv@Qt_5 5.0.2
 _ZN10QTextFrame8iteratorppEv@Qt_5 5.0.2
 _ZN10QTextFrameC1EP13QTextDocument@Qt_5 5.0.2
 _ZN10QTextFrameC1ER17QTextFramePrivateP13QTextDocument@Qt_5 5.0.2
 _ZN10QTextFrameC2EP13QTextDocument@Qt_5 5.0.2
 _ZN10QTextFrameC2ER17QTextFramePrivateP13QTextDocument@Qt_5 5.0.2
 _ZN10QTextFrameD0Ev@Qt_5 5.0.2
 _ZN10QTextFrameD1Ev@Qt_5 5.0.2
 _ZN10QTextFrameD2Ev@Qt_5 5.0.2
 _ZN10QTextTable10appendRowsEi@Qt_5 5.0.2
 _ZN10QTextTable10insertRowsEii@Qt_5 5.0.2
 _ZN10QTextTable10mergeCellsERK11QTextCursor@Qt_5 5.0.2
 _ZN10QTextTable10mergeCellsEiiii@Qt_5 5.0.2
 _ZN10QTextTable10removeRowsEii@Qt_5 5.0.2
 _ZN10QTextTable11qt_metacallEN11QMetaObject4CallEiPPv@Qt_5 5.0.2
 _ZN10QTextTable11qt_metacastEPKc@Qt_5 5.0.2
 _ZN10QTextTable13appendColumnsEi@Qt_5 5.0.2
 _ZN10QTextTable13insertColumnsEii@Qt_5 5.0.2
 _ZN10QTextTable13removeColumnsEii@Qt_5 5.0.2
 _ZN10QTextTable16staticMetaObjectE@Qt_5 5.0.2
 _ZN10QTextTable6resizeEii@Qt_5 5.0.2
 _ZN10QTextTable9setFormatERK16QTextTableFormat@Qt_5 5.0.2
 _ZN10QTextTable9splitCellEiiii@Qt_5 5.0.2
 _ZN10QTextTableC1EP13QTextDocument@Qt_5 5.0.2
 _ZN10QTextTableC2EP13QTextDocument@Qt_5 5.0.2
 _ZN10QTextTableD0Ev@Qt_5 5.0.2
 _ZN10QTextTableD1Ev@Qt_5 5.0.2
 _ZN10QTextTableD2Ev@Qt_5 5.0.2
 _ZN10QTransform10quadToQuadERK9QPolygonFS2_RS_@Qt_5 5.0.2
 _ZN10QTransform12quadToSquareERK9QPolygonFRS_@Qt_5 5.0.2
 _ZN10QTransform12squareToQuadERK9QPolygonFRS_@Qt_5 5.0.2
 _ZN10QTransform13fromTranslateEdd@Qt_5 5.2.0
 _ZN10QTransform13rotateRadiansEdN2Qt4AxisE@Qt_5 5.2.0
 _ZN10QTransform5resetEv@Qt_5 5.0.2
 _ZN10QTransform5scaleEdd@Qt_5 5.2.0
 _ZN10QTransform5shearEdd@Qt_5 5.2.0
 _ZN10QTransform6rotateEdN2Qt4AxisE@Qt_5 5.2.0
 _ZN10QTransform9fromScaleEdd@Qt_5 5.2.0
 _ZN10QTransform9setMatrixEddddddddd@Qt_5 5.2.0
 _ZN10QTransform9translateEdd@Qt_5 5.2.0
 _ZN10QTransformC1ERK7QMatrix@Qt_5 5.0.2
 _ZN10QTransformC1Edddddd@Qt_5 5.2.0
 _ZN10QTransformC1Eddddddddd@Qt_5 5.2.0
 _ZN10QTransformC1Ev@Qt_5 5.0.2
 _ZN10QTransformC2ERK7QMatrix@Qt_5 5.0.2
 _ZN10QTransformC2Edddddd@Qt_5 5.2.0
 _ZN10QTransformC2Eddddddddd@Qt_5 5.2.0
 _ZN10QTransformC2Ev@Qt_5 5.0.2
 _ZN10QTransformaSERKS_@Qt_5 5.0.2
 _ZN10QTransformmLERKS_@Qt_5 5.0.2
 _ZN10QValidator11qt_metacallEN11QMetaObject4CallEiPPv@Qt_5 5.0.2
 _ZN10QValidator11qt_metacastEPKc@Qt_5 5.0.2
 _ZN10QValidator16staticMetaObjectE@Qt_5 5.0.2
 _ZN10QValidator7changedEv@Qt_5 5.0.2
 _ZN10QValidator9setLocaleERK7QLocale@Qt_5 5.0.2
 _ZN10QValidatorC1EP7QObject@Qt_5 5.0.2
 _ZN10QValidatorC1ER14QObjectPrivateP7QObject@Qt_5 5.0.2
 _ZN10QValidatorC1ER17QValidatorPrivateP7QObject@Qt_5 5.0.2
 _ZN10QValidatorC2EP7QObject@Qt_5 5.0.2
 _ZN10QValidatorC2ER14QObjectPrivateP7QObject@Qt_5 5.0.2
 _ZN10QValidatorC2ER17QValidatorPrivateP7QObject@Qt_5 5.0.2
 _ZN10QValidatorD0Ev@Qt_5 5.0.2
 _ZN10QValidatorD1Ev@Qt_5 5.0.2
 _ZN10QValidatorD2Ev@Qt_5 5.0.2
 _ZN10QZipReader5closeEv@Qt_5_PRIVATE_API 5.0.2 1
 _ZN10QZipReaderC1EP9QIODevice@Qt_5_PRIVATE_API 5.0.2 1
 _ZN10QZipReaderC1ERK7QString6QFlagsIN9QIODevice12OpenModeFlagEE@Qt_5_PRIVATE_API 5.0.2 1
 _ZN10QZipReaderC2EP9QIODevice@Qt_5_PRIVATE_API 5.0.2 1
 _ZN10QZipReaderC2ERK7QString6QFlagsIN9QIODevice12OpenModeFlagEE@Qt_5_PRIVATE_API 5.0.2 1
 _ZN10QZipReaderD1Ev@Qt_5_PRIVATE_API 5.0.2 1
 _ZN10QZipReaderD2Ev@Qt_5_PRIVATE_API 5.0.2 1
 _ZN10QZipWriter10addSymLinkERK7QStringS2_@Qt_5_PRIVATE_API 5.0.2 1
 _ZN10QZipWriter12addDirectoryERK7QString@Qt_5_PRIVATE_API 5.0.2 1
 _ZN10QZipWriter20setCompressionPolicyENS_17CompressionPolicyE@Qt_5_PRIVATE_API 5.0.2 1
 _ZN10QZipWriter22setCreationPermissionsE6QFlagsIN11QFileDevice10PermissionEE@Qt_5_PRIVATE_API 5.0.2 1
 _ZN10QZipWriter5closeEv@Qt_5_PRIVATE_API 5.0.2 1
 _ZN10QZipWriter7addFileERK7QStringP9QIODevice@Qt_5_PRIVATE_API 5.0.2 1
 _ZN10QZipWriter7addFileERK7QStringRK10QByteArray@Qt_5_PRIVATE_API 5.0.2 1
 _ZN10QZipWriterC1EP9QIODevice@Qt_5_PRIVATE_API 5.0.2 1
 _ZN10QZipWriterC1ERK7QString6QFlagsIN9QIODevice12OpenModeFlagEE@Qt_5_PRIVATE_API 5.0.2 1
 _ZN10QZipWriterC2EP9QIODevice@Qt_5_PRIVATE_API 5.0.2 1
 _ZN10QZipWriterC2ERK7QString6QFlagsIN9QIODevice12OpenModeFlagEE@Qt_5_PRIVATE_API 5.0.2 1
 _ZN10QZipWriterD1Ev@Qt_5_PRIVATE_API 5.0.2 1
 _ZN10QZipWriterD2Ev@Qt_5_PRIVATE_API 5.0.2 1
 _ZN11QAccessible13removeFactoryEPFP20QAccessibleInterfaceRK7QStringP7QObjectE@Qt_5 5.0.2
 _ZN11QAccessible13setRootObjectEP7QObject@Qt_5 5.0.2
 _ZN11QAccessible13updateHandlerE@Qt_5 5.0.2
 _ZN11QAccessible14installFactoryEPFP20QAccessibleInterfaceRK7QStringP7QObjectE@Qt_5 5.0.2
 _ZN11QAccessible16staticMetaObjectE@Qt_5 5.0.2
 _ZN11QAccessible17rootObjectHandlerE@Qt_5 5.0.2
 _ZN11QAccessible18ActivationObserverD0Ev@Qt_5 5.6.0~beta
 _ZN11QAccessible18ActivationObserverD1Ev@Qt_5 5.6.0~beta
 _ZN11QAccessible18ActivationObserverD2Ev@Qt_5 5.6.0~beta
 _ZN11QAccessible19accessibleInterfaceEj@Qt_5 5.1.0
 _ZN11QAccessible19updateAccessibilityEP16QAccessibleEvent@Qt_5 5.0.2
 _ZN11QAccessible20installUpdateHandlerEPFvP16QAccessibleEventE@Qt_5 5.0.2
 _ZN11QAccessible24installRootObjectHandlerEPFvP7QObjectE@Qt_5 5.0.2
 _ZN11QAccessible24queryAccessibleInterfaceEP7QObject@Qt_5 5.0.2
 _ZN11QAccessible24removeActivationObserverEPNS_18ActivationObserverE@Qt_5 5.4.0
 _ZN11QAccessible25deleteAccessibleInterfaceEj@Qt_5 5.1.0
 _ZN11QAccessible25installActivationObserverEPNS_18ActivationObserverE@Qt_5 5.4.0
 _ZN11QAccessible27registerAccessibleInterfaceEP20QAccessibleInterface@Qt_5 5.1.0
 _ZN11QAccessible29qAccessibleTextBoundaryHelperERK11QTextCursorNS_16TextBoundaryTypeE@Qt_5 5.1.0
 _ZN11QAccessible7cleanupEv@Qt_5 5.0.2
 _ZN11QAccessible8isActiveEv@Qt_5 5.0.2
 _ZN11QAccessible8uniqueIdEP20QAccessibleInterface@Qt_5 5.1.0
 _ZN11QAccessible9setActiveEb@Qt_5 5.4.0
 _ZN11QCloseEventC1Ev@Qt_5 5.0.2
 _ZN11QCloseEventC2Ev@Qt_5 5.0.2
 _ZN11QCloseEventD0Ev@Qt_5 5.0.2
 _ZN11QCloseEventD1Ev@Qt_5 5.0.2
 _ZN11QCloseEventD2Ev@Qt_5 5.0.2
 _ZN11QEnterEventC1ERK7QPointFS2_S2_@Qt_5 5.0.2
 _ZN11QEnterEventC2ERK7QPointFS2_S2_@Qt_5 5.0.2
 _ZN11QEnterEventD0Ev@Qt_5 5.0.2
 _ZN11QEnterEventD1Ev@Qt_5 5.0.2
 _ZN11QEnterEventD2Ev@Qt_5 5.0.2
 _ZN11QFocusEventC1EN6QEvent4TypeEN2Qt11FocusReasonE@Qt_5 5.0.2
 _ZN11QFocusEventC2EN6QEvent4TypeEN2Qt11FocusReasonE@Qt_5 5.0.2
 _ZN11QFocusEventD0Ev@Qt_5 5.0.2
 _ZN11QFocusEventD1Ev@Qt_5 5.0.2
 _ZN11QFocusEventD2Ev@Qt_5 5.0.2
 _ZN11QFontEngine11boundingBoxEjRK10QTransform@Qt_5_PRIVATE_API 5.0.2 1
 _ZN11QFontEngine13setGlyphCacheEPKvP21QFontEngineGlyphCache@Qt_5_PRIVATE_API 5.0.2 1
 _ZN11QFontEngine14bitmapForGlyphEj6QFixedRK10QTransform@Qt_5_PRIVATE_API 5.1.0 1
 _ZN11QFontEngine15GlyphCacheEntryC1ERKS0_@Qt_5_PRIVATE_API 5.3.0 1
 _ZN11QFontEngine15GlyphCacheEntryC1Ev@Qt_5_PRIVATE_API 5.3.0 1
 _ZN11QFontEngine15GlyphCacheEntryC2ERKS0_@Qt_5_PRIVATE_API 5.3.0 1
 _ZN11QFontEngine15GlyphCacheEntryC2Ev@Qt_5_PRIVATE_API 5.3.0 1
 _ZN11QFontEngine15GlyphCacheEntryD1Ev@Qt_5_PRIVATE_API 5.3.0 1
 _ZN11QFontEngine15GlyphCacheEntryD2Ev@Qt_5_PRIVATE_API 5.3.0 1
 _ZN11QFontEngine15GlyphCacheEntryaSERKS0_@Qt_5_PRIVATE_API 5.3.0 1
 _ZN11QFontEngine15addGlyphsToPathEPjP11QFixedPointiP12QPainterPath6QFlagsIN9QTextItem10RenderFlagEE@Qt_5_PRIVATE_API 5.0.2 1
 _ZN11QFontEngine15clearGlyphCacheEPKv@Qt_5_PRIVATE_API 5.2.0~beta1 1
 _ZN11QFontEngine16addOutlineToPathEddRK12QGlyphLayoutP12QPainterPath6QFlagsIN9QTextItem10RenderFlagEE@Qt_5_PRIVATE_API 5.2.0 1
 _ZN11QFontEngine16alphaMapForGlyphEj6QFixed@Qt_5_PRIVATE_API 5.0.2 1
 _ZN11QFontEngine16alphaMapForGlyphEj6QFixedRK10QTransform@Qt_5_PRIVATE_API 5.0.2 1
 _ZN11QFontEngine16alphaMapForGlyphEj@Qt_5_PRIVATE_API 5.0.2 1
 _ZN11QFontEngine16alphaMapForGlyphEjRK10QTransform@Qt_5_PRIVATE_API 5.0.2 1
 _ZN11QFontEngine16getGlyphBearingsEjPdS0_@Qt_5_PRIVATE_API 5.2.0 1
 _ZN11QFontEngine16getUnscaledGlyphEjP12QPainterPathP15glyph_metrics_t@Qt_5_PRIVATE_API 5.0.2 1
 _ZN11QFontEngine16lastRightBearingERK12QGlyphLayoutb@Qt_5_PRIVATE_API 5.0.2 1
 _ZN11QFontEngine16loadKerningPairsE6QFixed@Qt_5_PRIVATE_API 5.0.2 1
 _ZN11QFontEngine16tightBoundingBoxERK12QGlyphLayout@Qt_5_PRIVATE_API 5.0.2 1
 _ZN11QFontEngine17getGlyphPositionsERK12QGlyphLayoutRK10QTransform6QFlagsIN9QTextItem10RenderFlagEER15QVarLengthArrayIjLi256EERSA_I11QFixedPointLi256EE@Qt_5_PRIVATE_API 5.0.2 1
 _ZN11QFontEngine17getPointInOutlineEjijP6QFixedS1_Pj@Qt_5_PRIVATE_API 5.1.0 1
 _ZN11QFontEngine19addBitmapFontToPathEddRK12QGlyphLayoutP12QPainterPath6QFlagsIN9QTextItem10RenderFlagEE@Qt_5_PRIVATE_API 5.2.0 1
 _ZN11QFontEngine19alphaRGBMapForGlyphEj6QFixedRK10QTransform@Qt_5_PRIVATE_API 5.0.2 1
 _ZN11QFontEngine20removeGlyphFromCacheEj@Qt_5_PRIVATE_API 5.0.2 1
 _ZN11QFontEngine21getTrueTypeGlyphIndexEPKhij@Qt_5_PRIVATE_API 5.5.1 1
 _ZN11QFontEngine22lockedAlphaMapForGlyphEj6QFixedNS_11GlyphFormatERK10QTransformP6QPoint@Qt_5_PRIVATE_API 5.0.2 1
 _ZN11QFontEngine22unlockAlphaMapForGlyphEv@Qt_5_PRIVATE_API 5.0.2 1
 _ZN11QFontEngine33convertToPostscriptFontFamilyNameERK10QByteArray@Qt_5_PRIVATE_API 5.0.2 1
 _ZN11QFontEngine7getCMapEPKhjPbPi@Qt_5_PRIVATE_API 5.0.2 1
 _ZN11QFontEngineC1ENS_4TypeE@Qt_5_PRIVATE_API 5.3.0 1
 _ZN11QFontEngineC2ENS_4TypeE@Qt_5_PRIVATE_API 5.3.0 1
 _ZN11QFontEngineD0Ev@Qt_5_PRIVATE_API 5.0.2 1
 _ZN11QFontEngineD1Ev@Qt_5_PRIVATE_API 5.0.2 1
 _ZN11QFontEngineD2Ev@Qt_5_PRIVATE_API 5.0.2 1
 _ZN11QHoverEventC1EN6QEvent4TypeERK7QPointFS4_6QFlagsIN2Qt16KeyboardModifierEE@Qt_5 5.0.2
 _ZN11QHoverEventC2EN6QEvent4TypeERK7QPointFS4_6QFlagsIN2Qt16KeyboardModifierEE@Qt_5 5.0.2
 _ZN11QHoverEventD0Ev@Qt_5 5.0.2
 _ZN11QHoverEventD1Ev@Qt_5 5.0.2
 _ZN11QHoverEventD2Ev@Qt_5 5.0.2
 _ZN11QIconEngine10actualSizeERK5QSizeN5QIcon4ModeENS3_5StateE@Qt_5 5.0.2
 _ZN11QIconEngine12virtual_hookEiPv@Qt_5 5.0.2
 _ZN11QIconEngine4readER11QDataStream@Qt_5 5.0.2
 _ZN11QIconEngine6pixmapERK5QSizeN5QIcon4ModeENS3_5StateE@Qt_5 5.0.2
 _ZN11QIconEngine7addFileERK7QStringRK5QSizeN5QIcon4ModeENS6_5StateE@Qt_5 5.0.2
 _ZN11QIconEngine9addPixmapERK7QPixmapN5QIcon4ModeENS3_5StateE@Qt_5 5.0.2
 _ZN11QIconEngineC1Ev@Qt_5 5.6.0~beta
 _ZN11QIconEngineC2Ev@Qt_5 5.6.0~beta
 _ZN11QIconEngineD0Ev@Qt_5 5.0.2
 _ZN11QIconEngineD1Ev@Qt_5 5.0.2
 _ZN11QIconEngineD2Ev@Qt_5 5.0.2
 _ZN11QIconLoader12setThemeNameERK7QString@Qt_5_PRIVATE_API 5.0.2 1
 _ZN11QIconLoader17ensureInitializedEv@Qt_5_PRIVATE_API 5.0.2 1
 _ZN11QIconLoader17updateSystemThemeEv@Qt_5_PRIVATE_API 5.0.2 1
 _ZN11QIconLoader18setThemeSearchPathERK11QStringList@Qt_5_PRIVATE_API 5.0.2 1
 _ZN11QIconLoader8instanceEv@Qt_5_PRIVATE_API 5.0.2 1
 _ZN11QIconLoaderC1Ev@Qt_5_PRIVATE_API 5.0.2 1
 _ZN11QIconLoaderC2Ev@Qt_5_PRIVATE_API 5.0.2 1
 _ZN11QInputEventC1EN6QEvent4TypeE6QFlagsIN2Qt16KeyboardModifierEE@Qt_5 5.0.2
 _ZN11QInputEventC2EN6QEvent4TypeE6QFlagsIN2Qt16KeyboardModifierEE@Qt_5 5.0.2
 _ZN11QInputEventD0Ev@Qt_5 5.0.2
 _ZN11QInputEventD1Ev@Qt_5 5.0.2
 _ZN11QInputEventD2Ev@Qt_5 5.0.2
 _ZN11QMouseEventC1EN6QEvent4TypeERK7QPointFN2Qt11MouseButtonE6QFlagsIS6_ES7_INS5_16KeyboardModifierEE@Qt_5 5.0.2
 _ZN11QMouseEventC1EN6QEvent4TypeERK7QPointFS4_N2Qt11MouseButtonE6QFlagsIS6_ES7_INS5_16KeyboardModifierEE@Qt_5 5.0.2
 _ZN11QMouseEventC1EN6QEvent4TypeERK7QPointFS4_S4_N2Qt11MouseButtonE6QFlagsIS6_ES7_INS5_16KeyboardModifierEE@Qt_5 5.0.2
 _ZN11QMouseEventC1EN6QEvent4TypeERK7QPointFS4_S4_N2Qt11MouseButtonE6QFlagsIS6_ES7_INS5_16KeyboardModifierEENS5_16MouseEventSourceE@Qt_5 5.6.0~beta
 _ZN11QMouseEventC2EN6QEvent4TypeERK7QPointFN2Qt11MouseButtonE6QFlagsIS6_ES7_INS5_16KeyboardModifierEE@Qt_5 5.0.2
 _ZN11QMouseEventC2EN6QEvent4TypeERK7QPointFS4_N2Qt11MouseButtonE6QFlagsIS6_ES7_INS5_16KeyboardModifierEE@Qt_5 5.0.2
 _ZN11QMouseEventC2EN6QEvent4TypeERK7QPointFS4_S4_N2Qt11MouseButtonE6QFlagsIS6_ES7_INS5_16KeyboardModifierEE@Qt_5 5.0.2
 _ZN11QMouseEventC2EN6QEvent4TypeERK7QPointFS4_S4_N2Qt11MouseButtonE6QFlagsIS6_ES7_INS5_16KeyboardModifierEENS5_16MouseEventSourceE@Qt_5 5.6.0~beta
 _ZN11QMouseEventD0Ev@Qt_5 5.0.2
 _ZN11QMouseEventD1Ev@Qt_5 5.0.2
 _ZN11QMouseEventD2Ev@Qt_5 5.0.2
 _ZN11QPageLayout10setMarginsERK9QMarginsF@Qt_5 5.3.0
 _ZN11QPageLayout11setPageSizeERK9QPageSizeRK9QMarginsF@Qt_5 5.3.0
 _ZN11QPageLayout12setTopMarginEd@Qt_5 5.3.0
 _ZN11QPageLayout13setLeftMarginEd@Qt_5 5.3.0
 _ZN11QPageLayout14setOrientationENS_11OrientationE@Qt_5 5.3.0
 _ZN11QPageLayout14setRightMarginEd@Qt_5 5.3.0
 _ZN11QPageLayout15setBottomMarginEd@Qt_5 5.3.0
 _ZN11QPageLayout17setMinimumMarginsERK9QMarginsF@Qt_5 5.3.0
 _ZN11QPageLayout7setModeENS_4ModeE@Qt_5 5.3.0
 _ZN11QPageLayout8setUnitsENS_4UnitE@Qt_5 5.3.0
 _ZN11QPageLayoutC1ERK9QPageSizeNS_11OrientationERK9QMarginsFNS_4UnitES6_@Qt_5 5.3.0
 _ZN11QPageLayoutC1ERKS_@Qt_5 5.3.0
 _ZN11QPageLayoutC1Ev@Qt_5 5.3.0
 _ZN11QPageLayoutC2ERK9QPageSizeNS_11OrientationERK9QMarginsFNS_4UnitES6_@Qt_5 5.3.0
 _ZN11QPageLayoutC2ERKS_@Qt_5 5.3.0
 _ZN11QPageLayoutC2Ev@Qt_5 5.3.0
 _ZN11QPageLayoutD1Ev@Qt_5 5.3.0
 _ZN11QPageLayoutD2Ev@Qt_5 5.3.0
 _ZN11QPageLayoutaSERKS_@Qt_5 5.3.0
 _ZN11QPaintEventC1ERK5QRect@Qt_5 5.0.2
 _ZN11QPaintEventC1ERK7QRegion@Qt_5 5.0.2
 _ZN11QPaintEventC2ERK5QRect@Qt_5 5.0.2
 _ZN11QPaintEventC2ERK7QRegion@Qt_5 5.0.2
 _ZN11QPaintEventD0Ev@Qt_5 5.0.2
 _ZN11QPaintEventD1Ev@Qt_5 5.0.2
 _ZN11QPaintEventD2Ev@Qt_5 5.0.2
 _ZN11QQuaternion10rotationToERK9QVector3DS2_@Qt_5 5.5.0
 _ZN11QQuaternion13fromDirectionERK9QVector3DS2_@Qt_5 5.5.0
 _ZN11QQuaternion15fromEulerAnglesEfff@Qt_5 5.5.0
 _ZN11QQuaternion16fromAxisAndAngleERK9QVector3Df@Qt_5 5.0.2
 _ZN11QQuaternion16fromAxisAndAngleEffff@Qt_5 5.0.2
 _ZN11QQuaternion18fromRotationMatrixERK14QGenericMatrixILi3ELi3EfE@Qt_5 5.5.0
 _ZN11QQuaternion5nlerpERKS_S1_f@Qt_5 5.0.2
 _ZN11QQuaternion5slerpERKS_S1_f@Qt_5 5.0.2
 _ZN11QQuaternion8fromAxesERK9QVector3DS2_S2_@Qt_5 5.5.0
 _ZN11QQuaternion9normalizeEv@Qt_5 5.0.2
 _ZN11QSimpleDrag16platformDropDataEv@Qt_5_PRIVATE_API 5.1.0 1
 _ZN11QSimpleDrag4dropERK6QPoint@Qt_5_PRIVATE_API 5.6.0~beta 1
 _ZN11QSimpleDrag4moveERK6QPoint@Qt_5_PRIVATE_API 5.6.0~beta 1
 _ZN11QSimpleDrag6cancelEv@Qt_5_PRIVATE_API 5.1.0 1
 _ZN11QSimpleDrag9startDragEv@Qt_5_PRIVATE_API 5.1.0 1
 _ZN11QSimpleDragC1Ev@Qt_5_PRIVATE_API 5.1.0 1
 _ZN11QSimpleDragC2Ev@Qt_5_PRIVATE_API 5.1.0 1
 _ZN11QStaticText12setTextWidthEd@Qt_5 5.2.0
 _ZN11QStaticText13setTextFormatEN2Qt10TextFormatE@Qt_5 5.0.2
 _ZN11QStaticText13setTextOptionERK11QTextOption@Qt_5 5.0.2
 _ZN11QStaticText18setPerformanceHintENS_15PerformanceHintE@Qt_5 5.0.2
 _ZN11QStaticText6detachEv@Qt_5 5.0.2
 _ZN11QStaticText7prepareERK10QTransformRK5QFont@Qt_5 5.0.2
 _ZN11QStaticText7setTextERK7QString@Qt_5 5.0.2
 _ZN11QStaticTextC1ERK7QString@Qt_5 5.0.2
 _ZN11QStaticTextC1ERKS_@Qt_5 5.0.2
 _ZN11QStaticTextC1Ev@Qt_5 5.0.2
 _ZN11QStaticTextC2ERK7QString@Qt_5 5.0.2
 _ZN11QStaticTextC2ERKS_@Qt_5 5.0.2
 _ZN11QStaticTextC2Ev@Qt_5 5.0.2
 _ZN11QStaticTextD1Ev@Qt_5 5.0.2
 _ZN11QStaticTextD2Ev@Qt_5 5.0.2
 _ZN11QStaticTextaSERKS_@Qt_5 5.0.2
 _ZN11QStrokerOps10strokePathERK12QPainterPathPvRK10QTransform@Qt_5_PRIVATE_API 5.0.2 1
 _ZN11QStrokerOps13strokeEllipseERK6QRectFPvRK10QTransform@Qt_5_PRIVATE_API 5.0.2 1
 _ZN11QStrokerOps13strokePolygonEPK7QPointFibPvRK10QTransform@Qt_5_PRIVATE_API 5.0.2 1
 _ZN11QStrokerOps3endEv@Qt_5_PRIVATE_API 5.0.2 1
 _ZN11QStrokerOps5beginEPv@Qt_5_PRIVATE_API 5.0.2 1
 _ZN11QStrokerOpsC1Ev@Qt_5_PRIVATE_API 5.0.2 1
 _ZN11QStrokerOpsC2Ev@Qt_5_PRIVATE_API 5.0.2 1
 _ZN11QStrokerOpsD0Ev@Qt_5_PRIVATE_API 5.0.2 1
 _ZN11QStrokerOpsD1Ev@Qt_5_PRIVATE_API 5.0.2 1
 _ZN11QStrokerOpsD2Ev@Qt_5_PRIVATE_API 5.0.2 1
 _ZN11QStyleHints11qt_metacallEN11QMetaObject4CallEiPPv@Qt_5 5.0.2
 _ZN11QStyleHints11qt_metacastEPKc@Qt_5 5.0.2
 _ZN11QStyleHints16setStartDragTimeEi@Qt_5 5.3.0
 _ZN11QStyleHints16staticMetaObjectE@Qt_5 5.0.2
 _ZN11QStyleHints18setCursorFlashTimeEi@Qt_5 5.3.0
 _ZN11QStyleHints19setTabFocusBehaviorEN2Qt16TabFocusBehaviorE@Qt_5 5.7.0
 _ZN11QStyleHints20setStartDragDistanceEi@Qt_5 5.3.0
 _ZN11QStyleHints20startDragTimeChangedEi@Qt_5 5.5.0
 _ZN11QStyleHints22cursorFlashTimeChangedEi@Qt_5 5.5.0
 _ZN11QStyleHints23tabFocusBehaviorChangedEN2Qt16TabFocusBehaviorE@Qt_5 5.7.0
 _ZN11QStyleHints24setKeyboardInputIntervalEi@Qt_5 5.3.0
 _ZN11QStyleHints24startDragDistanceChangedEi@Qt_5 5.5.0
 _ZN11QStyleHints27setMouseDoubleClickIntervalEi@Qt_5 5.3.0
 _ZN11QStyleHints28keyboardInputIntervalChangedEi@Qt_5 5.5.0
 _ZN11QStyleHints28setMousePressAndHoldIntervalEi@Qt_5 5.7.0
 _ZN11QStyleHints31mouseDoubleClickIntervalChangedEi@Qt_5 5.5.0
 _ZN11QStyleHints32mousePressAndHoldIntervalChangedEi@Qt_5 5.7.0
 _ZN11QStyleHintsC1Ev@Qt_5 5.0.2
 _ZN11QStyleHintsC2Ev@Qt_5 5.0.2
 _ZN11QTextCursor10createListEN15QTextListFormat5StyleE@Qt_5 5.0.2
 _ZN11QTextCursor10createListERK15QTextListFormat@Qt_5 5.0.2
 _ZN11QTextCursor10deleteCharEv@Qt_5 5.0.2
 _ZN11QTextCursor10insertHtmlERK7QString@Qt_5 5.0.2
 _ZN11QTextCursor10insertListEN15QTextListFormat5StyleE@Qt_5 5.0.2
 _ZN11QTextCursor10insertListERK15QTextListFormat@Qt_5 5.0.2
 _ZN11QTextCursor10insertTextERK7QString@Qt_5 5.0.2
 _ZN11QTextCursor10insertTextERK7QStringRK15QTextCharFormat@Qt_5 5.0.2
 _ZN11QTextCursor11insertBlockERK16QTextBlockFormat@Qt_5 5.0.2
 _ZN11QTextCursor11insertBlockERK16QTextBlockFormatRK15QTextCharFormat@Qt_5 5.0.2
 _ZN11QTextCursor11insertBlockEv@Qt_5 5.0.2
 _ZN11QTextCursor11insertFrameERK16QTextFrameFormat@Qt_5 5.0.2
 _ZN11QTextCursor11insertImageERK16QTextImageFormat@Qt_5 5.0.2
 _ZN11QTextCursor11insertImageERK16QTextImageFormatN16QTextFrameFormat8PositionE@Qt_5 5.0.2
 _ZN11QTextCursor11insertImageERK6QImageRK7QString@Qt_5 5.0.2
 _ZN11QTextCursor11insertImageERK7QString@Qt_5 5.0.2
 _ZN11QTextCursor11insertTableEii@Qt_5 5.0.2
 _ZN11QTextCursor11insertTableEiiRK16QTextTableFormat@Qt_5 5.0.2
 _ZN11QTextCursor11setPositionEiNS_8MoveModeE@Qt_5 5.0.2
 _ZN11QTextCursor12endEditBlockEv@Qt_5 5.0.2
 _ZN11QTextCursor12movePositionENS_13MoveOperationENS_8MoveModeEi@Qt_5 5.0.2
 _ZN11QTextCursor13setCharFormatERK15QTextCharFormat@Qt_5 5.0.2
 _ZN11QTextCursor14beginEditBlockEv@Qt_5 5.0.2
 _ZN11QTextCursor14clearSelectionEv@Qt_5 5.0.2
 _ZN11QTextCursor14insertFragmentERK21QTextDocumentFragment@Qt_5 5.0.2
 _ZN11QTextCursor14setBlockFormatERK16QTextBlockFormat@Qt_5 5.0.2
 _ZN11QTextCursor15mergeCharFormatERK15QTextCharFormat@Qt_5 5.0.2
 _ZN11QTextCursor16mergeBlockFormatERK16QTextBlockFormat@Qt_5 5.0.2
 _ZN11QTextCursor18deletePreviousCharEv@Qt_5 5.0.2
 _ZN11QTextCursor18removeSelectedTextEv@Qt_5 5.0.2
 _ZN11QTextCursor18setBlockCharFormatERK15QTextCharFormat@Qt_5 5.0.2
 _ZN11QTextCursor19setVisualNavigationEb@Qt_5 5.0.2
 _ZN11QTextCursor20mergeBlockCharFormatERK15QTextCharFormat@Qt_5 5.0.2
 _ZN11QTextCursor20setVerticalMovementXEi@Qt_5 5.0.2
 _ZN11QTextCursor21joinPreviousEditBlockEv@Qt_5 5.0.2
 _ZN11QTextCursor23setKeepPositionOnInsertEb@Qt_5 5.0.2
 _ZN11QTextCursor6selectENS_13SelectionTypeE@Qt_5 5.0.2
 _ZN11QTextCursorC1EP10QTextFrame@Qt_5 5.0.2
 _ZN11QTextCursorC1EP13QTextDocument@Qt_5 5.0.2
 _ZN11QTextCursorC1EP18QTextCursorPrivate@Qt_5_PRIVATE_API 5.0.2 1
 _ZN11QTextCursorC1EP20QTextDocumentPrivatei@Qt_5_PRIVATE_API 5.0.2 1
 _ZN11QTextCursorC1ERK10QTextBlock@Qt_5 5.0.2
 _ZN11QTextCursorC1ERKS_@Qt_5 5.0.2
 _ZN11QTextCursorC1Ev@Qt_5 5.0.2
 _ZN11QTextCursorC2EP10QTextFrame@Qt_5 5.0.2
 _ZN11QTextCursorC2EP13QTextDocument@Qt_5 5.0.2
 _ZN11QTextCursorC2EP18QTextCursorPrivate@Qt_5_PRIVATE_API 5.0.2 1
 _ZN11QTextCursorC2EP20QTextDocumentPrivatei@Qt_5_PRIVATE_API 5.0.2 1
 _ZN11QTextCursorC2ERK10QTextBlock@Qt_5 5.0.2
 _ZN11QTextCursorC2ERKS_@Qt_5 5.0.2
 _ZN11QTextCursorC2Ev@Qt_5 5.0.2
 _ZN11QTextCursorD1Ev@Qt_5 5.0.2
 _ZN11QTextCursorD2Ev@Qt_5 5.0.2
 _ZN11QTextCursoraSERKS_@Qt_5 5.0.2
 _ZN11QTextEngine10LayoutData10reallocateEi@Qt_5_PRIVATE_API 5.0.2 1
 _ZN11QTextEngine10LayoutDataC1ERK7QStringPPvi@Qt_5_PRIVATE_API 5.0.2 1
 _ZN11QTextEngine10LayoutDataC1Ev@Qt_5_PRIVATE_API 5.0.2 1
 _ZN11QTextEngine10LayoutDataC2ERK7QStringPPvi@Qt_5_PRIVATE_API 5.0.2 1
 _ZN11QTextEngine10LayoutDataC2Ev@Qt_5_PRIVATE_API 5.0.2 1
 _ZN11QTextEngine10LayoutDataD1Ev@Qt_5_PRIVATE_API 5.0.2 1
 _ZN11QTextEngine10LayoutDataD2Ev@Qt_5_PRIVATE_API 5.0.2 1
 _ZN11QTextEngine10freeMemoryEv@Qt_5_PRIVATE_API 5.0.2 1
 _ZN11QTextEngine10invalidateEv@Qt_5_PRIVATE_API 5.0.2 1
 _ZN11QTextEngine10setFormatsERK7QVectorIN11QTextLayout11FormatRangeEE@Qt_5_PRIVATE_API 5.6.0~beta 1
 _ZN11QTextEngine11addOverlineEP8QPainterRK6QLineF@Qt_5_PRIVATE_API 5.0.2 1
 _ZN11QTextEngine11bidiReorderEiPKhPi@Qt_5_PRIVATE_API 5.0.2 1
 _ZN11QTextEngine12addStrikeOutEP8QPainterRK6QLineF@Qt_5_PRIVATE_API 5.0.2 1
 _ZN11QTextEngine12addUnderlineEP8QPainterRK6QLineF@Qt_5_PRIVATE_API 5.0.2 1
 _ZN11QTextEngine12indexFormatsEv@Qt_5_PRIVATE_API 5.4.0 1
 _ZN11QTextEngine13clearLineDataEv@Qt_5_PRIVATE_API 5.0.2 1
 _ZN11QTextEngine14setPreeditAreaEiRK7QString@Qt_5_PRIVATE_API 5.1.0 1
 _ZN11QTextEngine15FontEngineCacheC1Ev@Qt_5_PRIVATE_API 5.0.2 1
 _ZN11QTextEngine15FontEngineCacheC2Ev@Qt_5_PRIVATE_API 5.0.2 1
 _ZN11QTextEngine15beginningOfLineEi@Qt_5_PRIVATE_API 5.0.2 1
 _ZN11QTextEngine15drawDecorationsEP8QPainter@Qt_5_PRIVATE_API 5.0.2 1
 _ZN11QTextEngine16adjustUnderlinesEPNS_14ItemDecorationES1_dd@Qt_5_PRIVATE_API 5.6.0~beta 1
 _ZN11QTextEngine16adjustUnderlinesEv@Qt_5_PRIVATE_API 5.0.2 1
 _ZN11QTextEngine16clearDecorationsEv@Qt_5_PRIVATE_API 5.0.2 1
 _ZN11QTextEngine16getClusterLengthEPtPK15QCharAttributesiiiPi@Qt_5_PRIVATE_API 5.0.2 1
 _ZN11QTextEngine16offsetInLigatureEPK11QScriptItemiii@Qt_5_PRIVATE_API 5.0.2 1
 _ZN11QTextEngine17addItemDecorationEP8QPainterRK6QLineFP7QVectorINS_14ItemDecorationEE@Qt_5_PRIVATE_API 5.6.0~beta 1
 _ZN11QTextEngine17leadingSpaceWidthERK11QScriptLine@Qt_5_PRIVATE_API 5.0.2 1
 _ZN11QTextEngine18positionInLigatureEPK11QScriptItemi6QFixedS3_ib@Qt_5_PRIVATE_API 5.0.2 1
 _ZN11QTextEngine20resetFontEngineCacheEv@Qt_5_PRIVATE_API 5.0.2 1
 _ZN11QTextEngine22drawItemDecorationListEP8QPainterRK7QVectorINS_14ItemDecorationEE@Qt_5_PRIVATE_API 5.6.0~beta 1
 _ZN11QTextEngine22insertionPointsForLineEiR7QVectorIiE@Qt_5_PRIVATE_API 5.0.2 1
 _ZN11QTextEngine25lineNumberForTextPositionEi@Qt_5_PRIVATE_API 5.0.2 1
 _ZN11QTextEngine27positionAfterVisualMovementEiN11QTextCursor13MoveOperationE@Qt_5_PRIVATE_API 5.0.2 1
 _ZN11QTextEngine4initEPS_@Qt_5_PRIVATE_API 5.1.0 1
 _ZN11QTextEngine7justifyERK11QScriptLine@Qt_5_PRIVATE_API 5.0.2 1
 _ZN11QTextEngine9alignLineERK11QScriptLine@Qt_5_PRIVATE_API 5.0.2 1
 _ZN11QTextEngine9endOfLineEi@Qt_5_PRIVATE_API 5.0.2 1
 _ZN11QTextEngine9shapeLineERK11QScriptLine@Qt_5_PRIVATE_API 5.0.2 1
 _ZN11QTextEngineC1ERK7QStringRK5QFont@Qt_5_PRIVATE_API 5.0.2 1
 _ZN11QTextEngineC1Ev@Qt_5_PRIVATE_API 5.0.2 1
 _ZN11QTextEngineC2ERK7QStringRK5QFont@Qt_5_PRIVATE_API 5.0.2 1
 _ZN11QTextEngineC2Ev@Qt_5_PRIVATE_API 5.0.2 1
 _ZN11QTextEngineD1Ev@Qt_5_PRIVATE_API 5.0.2 1
 _ZN11QTextEngineD2Ev@Qt_5_PRIVATE_API 5.0.2 1
 _ZN11QTextFormat11setPropertyEiRK7QVectorI11QTextLengthE@Qt_5 5.0.2
 _ZN11QTextFormat11setPropertyEiRK8QVariant@Qt_5 5.0.2
 _ZN11QTextFormat13clearPropertyEi@Qt_5 5.0.2
 _ZN11QTextFormat14setObjectIndexEi@Qt_5 5.0.2
 _ZN11QTextFormat16staticMetaObjectE@Qt_5 5.0.2
 _ZN11QTextFormat5mergeERKS_@Qt_5 5.0.2
 _ZN11QTextFormatC1ERKS_@Qt_5 5.0.2
 _ZN11QTextFormatC1Ei@Qt_5 5.0.2
 _ZN11QTextFormatC1Ev@Qt_5 5.0.2
 _ZN11QTextFormatC2ERKS_@Qt_5 5.0.2
 _ZN11QTextFormatC2Ei@Qt_5 5.0.2
 _ZN11QTextFormatC2Ev@Qt_5 5.0.2
 _ZN11QTextFormatD1Ev@Qt_5 5.0.2
 _ZN11QTextFormatD2Ev@Qt_5 5.0.2
 _ZN11QTextFormataSERKS_@Qt_5 5.0.2
 _ZN11QTextLayout10createLineEv@Qt_5 5.0.2
 _ZN11QTextLayout10setFormatsERK7QVectorINS_11FormatRangeEE@Qt_5 5.6.0~beta
 _ZN11QTextLayout10setRawFontERK8QRawFont@Qt_5 5.0.2
 _ZN11QTextLayout11beginLayoutEv@Qt_5 5.0.2
 _ZN11QTextLayout11clearLayoutEv@Qt_5 5.0.2
 _ZN11QTextLayout11setPositionERK7QPointF@Qt_5 5.0.2
 _ZN11QTextLayout12clearFormatsEv@Qt_5 5.6.0~beta
 _ZN11QTextLayout13setTextOptionERK11QTextOption@Qt_5 5.0.2
 _ZN11QTextLayout14setPreeditAreaEiRK7QString@Qt_5 5.0.2
 _ZN11QTextLayout15setCacheEnabledEb@Qt_5 5.0.2
 _ZN11QTextLayout18setCursorMoveStyleEN2Qt15CursorMoveStyleE@Qt_5 5.0.2
 _ZN11QTextLayout20setAdditionalFormatsERK5QListINS_11FormatRangeEE@Qt_5 5.0.2
 _ZN11QTextLayout22clearAdditionalFormatsEv@Qt_5 5.0.2
 _ZN11QTextLayout7setFontERK5QFont@Qt_5 5.0.2
 _ZN11QTextLayout7setTextERK7QString@Qt_5 5.0.2
 _ZN11QTextLayout8setFlagsEi@Qt_5 5.0.2
 _ZN11QTextLayout9endLayoutEv@Qt_5 5.0.2
 _ZN11QTextLayoutC1ERK10QTextBlock@Qt_5 5.0.2
 _ZN11QTextLayoutC1ERK7QString@Qt_5 5.0.2
 _ZN11QTextLayoutC1ERK7QStringRK5QFontP12QPaintDevice@Qt_5 5.0.2
 _ZN11QTextLayoutC1Ev@Qt_5 5.0.2
 _ZN11QTextLayoutC2ERK10QTextBlock@Qt_5 5.0.2
 _ZN11QTextLayoutC2ERK7QString@Qt_5 5.0.2
 _ZN11QTextLayoutC2ERK7QStringRK5QFontP12QPaintDevice@Qt_5 5.0.2
 _ZN11QTextLayoutC2Ev@Qt_5 5.0.2
 _ZN11QTextLayoutD1Ev@Qt_5 5.0.2
 _ZN11QTextLayoutD2Ev@Qt_5 5.0.2
 _ZN11QTextObject11qt_metacallEN11QMetaObject4CallEiPPv@Qt_5 5.0.2
 _ZN11QTextObject11qt_metacastEPKc@Qt_5 5.0.2
 _ZN11QTextObject16staticMetaObjectE@Qt_5 5.0.2
 _ZN11QTextObject9setFormatERK11QTextFormat@Qt_5 5.0.2
 _ZN11QTextObjectC1EP13QTextDocument@Qt_5 5.0.2
 _ZN11QTextObjectC1ER18QTextObjectPrivateP13QTextDocument@Qt_5 5.0.2
 _ZN11QTextObjectC2EP13QTextDocument@Qt_5 5.0.2
 _ZN11QTextObjectC2ER18QTextObjectPrivateP13QTextDocument@Qt_5 5.0.2
 _ZN11QTextObjectD0Ev@Qt_5 5.0.2
 _ZN11QTextObjectD1Ev@Qt_5 5.0.2
 _ZN11QTextObjectD2Ev@Qt_5 5.0.2
 _ZN11QTextOption11setTabArrayERK5QListIdE@Qt_5 5.2.0
 _ZN11QTextOption7setTabsERK5QListINS_3TabEE@Qt_5 5.0.2
 _ZN11QTextOptionC1E6QFlagsIN2Qt13AlignmentFlagEE@Qt_5 5.0.2
 _ZN11QTextOptionC1ERKS_@Qt_5 5.0.2
 _ZN11QTextOptionC1Ev@Qt_5 5.0.2
 _ZN11QTextOptionC2E6QFlagsIN2Qt13AlignmentFlagEE@Qt_5 5.0.2
 _ZN11QTextOptionC2ERKS_@Qt_5 5.0.2
 _ZN11QTextOptionC2Ev@Qt_5 5.0.2
 _ZN11QTextOptionD1Ev@Qt_5 5.0.2
 _ZN11QTextOptionD2Ev@Qt_5 5.0.2
 _ZN11QTextOptionaSERKS_@Qt_5 5.0.2
 _ZN11QTouchEvent10TouchPoint10setLastPosERK7QPointF@Qt_5 5.0.2
 _ZN11QTouchEvent10TouchPoint11setPressureEd@Qt_5 5.2.0
 _ZN11QTouchEvent10TouchPoint11setScenePosERK7QPointF@Qt_5 5.0.2
 _ZN11QTouchEvent10TouchPoint11setStartPosERK7QPointF@Qt_5 5.0.2
 _ZN11QTouchEvent10TouchPoint11setVelocityERK9QVector2D@Qt_5 5.0.2
 _ZN11QTouchEvent10TouchPoint12setSceneRectERK6QRectF@Qt_5 5.0.2
 _ZN11QTouchEvent10TouchPoint12setScreenPosERK7QPointF@Qt_5 5.0.2
 _ZN11QTouchEvent10TouchPoint13setScreenRectERK6QRectF@Qt_5 5.0.2
 _ZN11QTouchEvent10TouchPoint15setLastScenePosERK7QPointF@Qt_5 5.0.2
 _ZN11QTouchEvent10TouchPoint16setLastScreenPosERK7QPointF@Qt_5 5.0.2
 _ZN11QTouchEvent10TouchPoint16setNormalizedPosERK7QPointF@Qt_5 5.0.2
 _ZN11QTouchEvent10TouchPoint16setStartScenePosERK7QPointF@Qt_5 5.0.2
 _ZN11QTouchEvent10TouchPoint17setStartScreenPosERK7QPointF@Qt_5 5.0.2
 _ZN11QTouchEvent10TouchPoint20setLastNormalizedPosERK7QPointF@Qt_5 5.0.2
 _ZN11QTouchEvent10TouchPoint21setRawScreenPositionsERK7QVectorI7QPointFE@Qt_5 5.0.2
 _ZN11QTouchEvent10TouchPoint21setStartNormalizedPosERK7QPointF@Qt_5 5.0.2
 _ZN11QTouchEvent10TouchPoint5setIdEi@Qt_5 5.0.2
 _ZN11QTouchEvent10TouchPoint6setPosERK7QPointF@Qt_5 5.0.2
 _ZN11QTouchEvent10TouchPoint7setRectERK6QRectF@Qt_5 5.0.2
 _ZN11QTouchEvent10TouchPoint8setFlagsE6QFlagsINS0_8InfoFlagEE@Qt_5 5.0.2
 _ZN11QTouchEvent10TouchPoint8setStateE6QFlagsIN2Qt15TouchPointStateEE@Qt_5 5.0.2
 _ZN11QTouchEvent10TouchPointC1ERKS0_@Qt_5 5.0.2
 _ZN11QTouchEvent10TouchPointC1Ei@Qt_5 5.0.2
 _ZN11QTouchEvent10TouchPointC2ERKS0_@Qt_5 5.0.2
 _ZN11QTouchEvent10TouchPointC2Ei@Qt_5 5.0.2
 _ZN11QTouchEvent10TouchPointD1Ev@Qt_5 5.0.2
 _ZN11QTouchEvent10TouchPointD2Ev@Qt_5 5.0.2
 _ZN11QTouchEventC1EN6QEvent4TypeEP12QTouchDevice6QFlagsIN2Qt16KeyboardModifierEES4_INS5_15TouchPointStateEERK5QListINS_10TouchPointEE@Qt_5 5.0.2
 _ZN11QTouchEventC2EN6QEvent4TypeEP12QTouchDevice6QFlagsIN2Qt16KeyboardModifierEES4_INS5_15TouchPointStateEERK5QListINS_10TouchPointEE@Qt_5 5.0.2
 _ZN11QTouchEventD0Ev@Qt_5 5.0.2
 _ZN11QTouchEventD1Ev@Qt_5 5.0.2
 _ZN11QTouchEventD2Ev@Qt_5 5.0.2
 _ZN11QVectorPathD1Ev@Qt_5_PRIVATE_API 5.0.2 1
 _ZN11QVectorPathD2Ev@Qt_5_PRIVATE_API 5.0.2 1
 _ZN11QWheelEventC1ERK7QPointFS2_6QPointS3_iN2Qt11OrientationE6QFlagsINS4_11MouseButtonEES6_INS4_16KeyboardModifierEE@Qt_5 5.0.2
 _ZN11QWheelEventC1ERK7QPointFS2_6QPointS3_iN2Qt11OrientationE6QFlagsINS4_11MouseButtonEES6_INS4_16KeyboardModifierEENS4_11ScrollPhaseE@Qt_5 5.2.0~alpha1
 _ZN11QWheelEventC1ERK7QPointFS2_6QPointS3_iN2Qt11OrientationE6QFlagsINS4_11MouseButtonEES6_INS4_16KeyboardModifierEENS4_11ScrollPhaseENS4_16MouseEventSourceE@Qt_5 5.5.0
 _ZN11QWheelEventC1ERK7QPointFS2_6QPointS3_iN2Qt11OrientationE6QFlagsINS4_11MouseButtonEES6_INS4_16KeyboardModifierEENS4_11ScrollPhaseENS4_16MouseEventSourceEb@Qt_5 5.7.0
 _ZN11QWheelEventC1ERK7QPointFS2_i6QFlagsIN2Qt11MouseButtonEES3_INS4_16KeyboardModifierEENS4_11OrientationE@Qt_5 5.0.2
 _ZN11QWheelEventC1ERK7QPointFi6QFlagsIN2Qt11MouseButtonEES3_INS4_16KeyboardModifierEENS4_11OrientationE@Qt_5 5.0.2
 _ZN11QWheelEventC2ERK7QPointFS2_6QPointS3_iN2Qt11OrientationE6QFlagsINS4_11MouseButtonEES6_INS4_16KeyboardModifierEE@Qt_5 5.0.2
 _ZN11QWheelEventC2ERK7QPointFS2_6QPointS3_iN2Qt11OrientationE6QFlagsINS4_11MouseButtonEES6_INS4_16KeyboardModifierEENS4_11ScrollPhaseE@Qt_5 5.2.0~alpha1
 _ZN11QWheelEventC2ERK7QPointFS2_6QPointS3_iN2Qt11OrientationE6QFlagsINS4_11MouseButtonEES6_INS4_16KeyboardModifierEENS4_11ScrollPhaseENS4_16MouseEventSourceE@Qt_5 5.5.0
 _ZN11QWheelEventC2ERK7QPointFS2_6QPointS3_iN2Qt11OrientationE6QFlagsINS4_11MouseButtonEES6_INS4_16KeyboardModifierEENS4_11ScrollPhaseENS4_16MouseEventSourceEb@Qt_5 5.7.0
 _ZN11QWheelEventC2ERK7QPointFS2_i6QFlagsIN2Qt11MouseButtonEES3_INS4_16KeyboardModifierEENS4_11OrientationE@Qt_5 5.0.2
 _ZN11QWheelEventC2ERK7QPointFi6QFlagsIN2Qt11MouseButtonEES3_INS4_16KeyboardModifierEENS4_11OrientationE@Qt_5 5.0.2
 _ZN11QWheelEventD0Ev@Qt_5 5.0.2
 _ZN11QWheelEventD1Ev@Qt_5 5.0.2
 _ZN11QWheelEventD2Ev@Qt_5 5.0.2
 _ZN12QActionEventC1EiP7QActionS1_@Qt_5 5.0.2
 _ZN12QActionEventC2EiP7QActionS1_@Qt_5 5.0.2
 _ZN12QActionEventD0Ev@Qt_5 5.0.2
 _ZN12QActionEventD1Ev@Qt_5 5.0.2
 _ZN12QActionEventD2Ev@Qt_5 5.0.2
 _ZN12QDashStroker15patternForStyleEN2Qt8PenStyleE@Qt_5_PRIVATE_API 5.0.2 1
 _ZN12QDashStroker21processCurrentSubpathEv@Qt_5_PRIVATE_API 5.0.2 1
 _ZN12QDashStroker3endEv@Qt_5_PRIVATE_API 5.0.2 1
 _ZN12QDashStroker5beginEPv@Qt_5_PRIVATE_API 5.0.2 1
 _ZN12QDashStrokerC1EP8QStroker@Qt_5_PRIVATE_API 5.0.2 1
 _ZN12QDashStrokerC2EP8QStroker@Qt_5_PRIVATE_API 5.0.2 1
 _ZN12QDashStrokerD0Ev@Qt_5_PRIVATE_API 5.0.2 1
 _ZN12QDashStrokerD1Ev@Qt_5_PRIVATE_API 5.0.2 1
 _ZN12QDashStrokerD2Ev@Qt_5_PRIVATE_API 5.0.2 1
 _ZN12QDragManager10m_instanceE@Qt_5_PRIVATE_API 5.0.2 1
 _ZN12QDragManager11qt_metacallEN11QMetaObject4CallEiPPv@Qt_5_PRIVATE_API 5.0.2 1
 _ZN12QDragManager11qt_metacastEPKc@Qt_5_PRIVATE_API 5.0.2 1
 _ZN12QDragManager16setCurrentTargetEP7QObjectb@Qt_5_PRIVATE_API 5.0.2 1
 _ZN12QDragManager16staticMetaObjectE@Qt_5_PRIVATE_API 5.0.2 1
 _ZN12QDragManager4dragEP5QDrag@Qt_5_PRIVATE_API 5.0.2 1
 _ZN12QDragManager4selfEv@Qt_5_PRIVATE_API 5.0.2 1
 _ZN12QDragManagerC1Ev@Qt_5_PRIVATE_API 5.0.2 1
 _ZN12QDragManagerC2Ev@Qt_5_PRIVATE_API 5.0.2 1
 _ZN12QDragManagerD0Ev@Qt_5_PRIVATE_API 5.0.2 1
 _ZN12QDragManagerD1Ev@Qt_5_PRIVATE_API 5.0.2 1
 _ZN12QDragManagerD2Ev@Qt_5_PRIVATE_API 5.0.2 1
 _ZN12QExposeEventC1ERK7QRegion@Qt_5 5.0.2
 _ZN12QExposeEventC2ERK7QRegion@Qt_5 5.0.2
 _ZN12QExposeEventD0Ev@Qt_5 5.0.2
 _ZN12QExposeEventD1Ev@Qt_5 5.0.2
 _ZN12QExposeEventD2Ev@Qt_5 5.0.2
 _ZN12QFontMetricsC1ERK5QFont@Qt_5 5.0.2
 _ZN12QFontMetricsC1ERK5QFontP12QPaintDevice@Qt_5 5.0.2
 _ZN12QFontMetricsC1ERKS_@Qt_5 5.0.2
 _ZN12QFontMetricsC2ERK5QFont@Qt_5 5.0.2
 _ZN12QFontMetricsC2ERK5QFontP12QPaintDevice@Qt_5 5.0.2
 _ZN12QFontMetricsC2ERKS_@Qt_5 5.0.2
 _ZN12QFontMetricsD1Ev@Qt_5 5.0.2
 _ZN12QFontMetricsD2Ev@Qt_5 5.0.2
 _ZN12QFontMetricsaSERKS_@Qt_5 5.0.2
 _ZN12QFontPrivate23detachButKeepEngineDataEP5QFont@Qt_5_PRIVATE_API 5.0.2 1
 _ZN12QFontPrivate7resolveEjPKS_@Qt_5_PRIVATE_API 5.0.2 1
 _ZN12QFontPrivateC1ERKS_@Qt_5_PRIVATE_API 5.0.2 1
 _ZN12QFontPrivateC1Ev@Qt_5_PRIVATE_API 5.0.2 1
 _ZN12QFontPrivateC2ERKS_@Qt_5_PRIVATE_API 5.0.2 1
 _ZN12QFontPrivateC2Ev@Qt_5_PRIVATE_API 5.0.2 1
 _ZN12QFontPrivateD1Ev@Qt_5_PRIVATE_API 5.0.2 1
 _ZN12QFontPrivateD2Ev@Qt_5_PRIVATE_API 5.0.2 1
 _ZN12QImageReader10setQualityEi@Qt_5 5.0.2
 _ZN12QImageReader11imageFormatEP9QIODevice@Qt_5 5.0.2
 _ZN12QImageReader11imageFormatERK7QString@Qt_5 5.0.2
 _ZN12QImageReader11jumpToImageEi@Qt_5 5.0.2
 _ZN12QImageReader11setClipRectERK5QRect@Qt_5 5.0.2
 _ZN12QImageReader11setFileNameERK7QString@Qt_5 5.0.2
 _ZN12QImageReader13setScaledSizeERK5QSize@Qt_5 5.0.2
 _ZN12QImageReader15jumpToNextImageEv@Qt_5 5.0.2
 _ZN12QImageReader16setAutoTransformEb@Qt_5 5.5.0
 _ZN12QImageReader17setScaledClipRectERK5QRect@Qt_5 5.0.2
 _ZN12QImageReader18setBackgroundColorERK6QColor@Qt_5 5.0.2
 _ZN12QImageReader18supportedMimeTypesEv@Qt_5 5.1.0
 _ZN12QImageReader21supportedImageFormatsEv@Qt_5 5.0.2
 _ZN12QImageReader24setAutoDetectImageFormatEb@Qt_5 5.0.2
 _ZN12QImageReader26setDecideFormatFromContentEb@Qt_5 5.0.2
 _ZN12QImageReader4readEP6QImage@Qt_5 5.0.2
 _ZN12QImageReader4readEv@Qt_5 5.0.2
 _ZN12QImageReader8setGammaEf@Qt_5 5.6.0~beta
 _ZN12QImageReader9setDeviceEP9QIODevice@Qt_5 5.0.2
 _ZN12QImageReader9setFormatERK10QByteArray@Qt_5 5.0.2
 _ZN12QImageReaderC1EP9QIODeviceRK10QByteArray@Qt_5 5.0.2
 _ZN12QImageReaderC1ERK7QStringRK10QByteArray@Qt_5 5.0.2
 _ZN12QImageReaderC1Ev@Qt_5 5.0.2
 _ZN12QImageReaderC2EP9QIODeviceRK10QByteArray@Qt_5 5.0.2
 _ZN12QImageReaderC2ERK7QStringRK10QByteArray@Qt_5 5.0.2
 _ZN12QImageReaderC2Ev@Qt_5 5.0.2
 _ZN12QImageReaderD1Ev@Qt_5 5.0.2
 _ZN12QImageReaderD2Ev@Qt_5 5.0.2
 _ZN12QImageWriter10setQualityEi@Qt_5 5.0.2
 _ZN12QImageWriter10setSubTypeERK10QByteArray@Qt_5 5.4.0
 _ZN12QImageWriter11setFileNameERK7QString@Qt_5 5.0.2
 _ZN12QImageWriter14setCompressionEi@Qt_5 5.0.2
 _ZN12QImageWriter14setDescriptionERK7QString@Qt_5 5.0.2
 _ZN12QImageWriter17setOptimizedWriteEb@Qt_5 5.5.0
 _ZN12QImageWriter17setTransformationE6QFlagsIN15QImageIOHandler14TransformationEE@Qt_5 5.5.0
 _ZN12QImageWriter18supportedMimeTypesEv@Qt_5 5.1.0
 _ZN12QImageWriter21supportedImageFormatsEv@Qt_5 5.0.2
 _ZN12QImageWriter23setProgressiveScanWriteEb@Qt_5 5.5.0
 _ZN12QImageWriter5writeERK6QImage@Qt_5 5.0.2
 _ZN12QImageWriter7setTextERK7QStringS2_@Qt_5 5.0.2
 _ZN12QImageWriter8setGammaEf@Qt_5 5.0.2
 _ZN12QImageWriter9setDeviceEP9QIODevice@Qt_5 5.0.2
 _ZN12QImageWriter9setFormatERK10QByteArray@Qt_5 5.0.2
 _ZN12QImageWriterC1EP9QIODeviceRK10QByteArray@Qt_5 5.0.2
 _ZN12QImageWriterC1ERK7QStringRK10QByteArray@Qt_5 5.0.2
 _ZN12QImageWriterC1Ev@Qt_5 5.0.2
 _ZN12QImageWriterC2EP9QIODeviceRK10QByteArray@Qt_5 5.0.2
 _ZN12QImageWriterC2ERK7QStringRK10QByteArray@Qt_5 5.0.2
 _ZN12QImageWriterC2Ev@Qt_5 5.0.2
 _ZN12QImageWriterD1Ev@Qt_5 5.0.2
 _ZN12QImageWriterD2Ev@Qt_5 5.0.2
 _ZN12QInputMethod10setVisibleEb@Qt_5 5.0.2
 _ZN12QInputMethod11qt_metacallEN11QMetaObject4CallEiPPv@Qt_5 5.0.2
 _ZN12QInputMethod11qt_metacastEPKc@Qt_5 5.0.2
 _ZN12QInputMethod12invokeActionENS_6ActionEi@Qt_5 5.0.2
 _ZN12QInputMethod13localeChangedEv@Qt_5 5.0.2
 _ZN12QInputMethod14visibleChangedEv@Qt_5 5.0.2
 _ZN12QInputMethod16animatingChangedEv@Qt_5 5.0.2
 _ZN12QInputMethod16queryFocusObjectEN2Qt16InputMethodQueryE8QVariant@Qt_5 5.3.0
 _ZN12QInputMethod16staticMetaObjectE@Qt_5 5.0.2
 _ZN12QInputMethod21inputDirectionChangedEN2Qt15LayoutDirectionE@Qt_5 5.0.2
 _ZN12QInputMethod21setInputItemRectangleERK6QRectF@Qt_5 5.1.0
 _ZN12QInputMethod21setInputItemTransformERK10QTransform@Qt_5 5.0.2
 _ZN12QInputMethod22anchorRectangleChangedEv@Qt_5 5.7.0
 _ZN12QInputMethod22cursorRectangleChangedEv@Qt_5 5.0.2
 _ZN12QInputMethod24keyboardRectangleChangedEv@Qt_5 5.0.2
 _ZN12QInputMethod29inputItemClipRectangleChangedEv@Qt_5 5.7.0
 _ZN12QInputMethod4hideEv@Qt_5 5.0.2
 _ZN12QInputMethod4showEv@Qt_5 5.0.2
 _ZN12QInputMethod5resetEv@Qt_5 5.0.2
 _ZN12QInputMethod6commitEv@Qt_5 5.0.2
 _ZN12QInputMethod6updateE6QFlagsIN2Qt16InputMethodQueryEE@Qt_5 5.0.2
 _ZN12QInputMethodC1Ev@Qt_5 5.0.2
 _ZN12QInputMethodC2Ev@Qt_5 5.0.2
 _ZN12QInputMethodD0Ev@Qt_5 5.0.2
 _ZN12QInputMethodD1Ev@Qt_5 5.0.2
 _ZN12QInputMethodD2Ev@Qt_5 5.0.2
 _ZN12QKeySequence10fromStringERK7QStringNS_14SequenceFormatE@Qt_5 5.0.2
 _ZN12QKeySequence11keyBindingsENS_11StandardKeyE@Qt_5 5.0.2
 _ZN12QKeySequence12decodeStringERK7QString@Qt_5 5.0.2
 _ZN12QKeySequence12encodeStringEi@Qt_5 5.0.2
 _ZN12QKeySequence12listToStringERK5QListIS_ENS_14SequenceFormatE@Qt_5 5.1.0
 _ZN12QKeySequence14listFromStringERK7QStringNS_14SequenceFormatE@Qt_5 5.1.0
 _ZN12QKeySequence16staticMetaObjectE@Qt_5 5.2.0~alpha1
 _ZN12QKeySequence6assignERK7QString@Qt_5 5.0.2
 _ZN12QKeySequence6assignERK7QStringNS_14SequenceFormatE@Qt_5 5.0.2
 _ZN12QKeySequence6setKeyEii@Qt_5 5.0.2
 _ZN12QKeySequence8mnemonicERK7QString@Qt_5 5.0.2
 _ZN12QKeySequenceC1ENS_11StandardKeyE@Qt_5 5.0.2
 _ZN12QKeySequenceC1ERK7QStringNS_14SequenceFormatE@Qt_5 5.0.2
 _ZN12QKeySequenceC1ERKS_@Qt_5 5.0.2
 _ZN12QKeySequenceC1Eiiii@Qt_5 5.0.2
 _ZN12QKeySequenceC1Ev@Qt_5 5.0.2
 _ZN12QKeySequenceC2ENS_11StandardKeyE@Qt_5 5.0.2
 _ZN12QKeySequenceC2ERK7QStringNS_14SequenceFormatE@Qt_5 5.0.2
 _ZN12QKeySequenceC2ERKS_@Qt_5 5.0.2
 _ZN12QKeySequenceC2Eiiii@Qt_5 5.0.2
 _ZN12QKeySequenceC2Ev@Qt_5 5.0.2
 _ZN12QKeySequenceD1Ev@Qt_5 5.0.2
 _ZN12QKeySequenceD2Ev@Qt_5 5.0.2
 _ZN12QKeySequenceaSERKS_@Qt_5 5.0.2
 _ZN12QPaintDeviceC1Ev@Qt_5 5.0.2
 _ZN12QPaintDeviceC2Ev@Qt_5 5.0.2
 _ZN12QPaintDeviceD0Ev@Qt_5 5.0.2
 _ZN12QPaintDeviceD1Ev@Qt_5 5.0.2
 _ZN12QPaintDeviceD2Ev@Qt_5 5.0.2
 _ZN12QPaintEngine10drawPointsEPK6QPointi@Qt_5 5.0.2
 _ZN12QPaintEngine10drawPointsEPK7QPointFi@Qt_5 5.0.2
 _ZN12QPaintEngine11drawEllipseERK5QRect@Qt_5 5.0.2
 _ZN12QPaintEngine11drawEllipseERK6QRectF@Qt_5 5.0.2
 _ZN12QPaintEngine11drawPolygonEPK6QPointiNS_15PolygonDrawModeE@Qt_5 5.0.2
 _ZN12QPaintEngine11drawPolygonEPK7QPointFiNS_15PolygonDrawModeE@Qt_5 5.0.2
 _ZN12QPaintEngine12drawTextItemERK7QPointFRK9QTextItem@Qt_5 5.0.2
 _ZN12QPaintEngine13setSystemClipERK7QRegion@Qt_5 5.0.2
 _ZN12QPaintEngine13setSystemRectERK5QRect@Qt_5 5.0.2
 _ZN12QPaintEngine14setPaintDeviceEP12QPaintDevice@Qt_5 5.0.2
 _ZN12QPaintEngine15drawTiledPixmapERK6QRectFRK7QPixmapRK7QPointF@Qt_5 5.0.2
 _ZN12QPaintEngine8drawPathERK12QPainterPath@Qt_5 5.0.2
 _ZN12QPaintEngine9drawImageERK6QRectFRK6QImageS2_6QFlagsIN2Qt19ImageConversionFlagEE@Qt_5 5.0.2
 _ZN12QPaintEngine9drawLinesEPK5QLinei@Qt_5 5.0.2
 _ZN12QPaintEngine9drawLinesEPK6QLineFi@Qt_5 5.0.2
 _ZN12QPaintEngine9drawRectsEPK5QRecti@Qt_5 5.0.2
 _ZN12QPaintEngine9drawRectsEPK6QRectFi@Qt_5 5.0.2
 _ZN12QPaintEngine9syncStateEv@Qt_5 5.0.2
 _ZN12QPaintEngineC1E6QFlagsINS_18PaintEngineFeatureEE@Qt_5 5.0.2
 _ZN12QPaintEngineC1ER19QPaintEnginePrivate6QFlagsINS_18PaintEngineFeatureEE@Qt_5_PRIVATE_API 5.0.2 1
 _ZN12QPaintEngineC2E6QFlagsINS_18PaintEngineFeatureEE@Qt_5 5.0.2
 _ZN12QPaintEngineC2ER19QPaintEnginePrivate6QFlagsINS_18PaintEngineFeatureEE@Qt_5_PRIVATE_API 5.0.2 1
 _ZN12QPaintEngineD0Ev@Qt_5 5.0.2
 _ZN12QPaintEngineD1Ev@Qt_5 5.0.2
 _ZN12QPaintEngineD2Ev@Qt_5 5.0.2
 _ZN12QPainterPath10addEllipseERK6QRectF@Qt_5 5.0.2
 _ZN12QPainterPath10addPolygonERK9QPolygonF@Qt_5 5.0.2
 _ZN12QPainterPath11connectPathERKS_@Qt_5 5.0.2
 _ZN12QPainterPath11setFillRuleEN2Qt8FillRuleE@Qt_5 5.0.2
 _ZN12QPainterPath12addRoundRectERK6QRectFii@Qt_5 5.0.2
 _ZN12QPainterPath12closeSubpathEv@Qt_5 5.0.2
 _ZN12QPainterPath13detach_helperEv@Qt_5 5.0.2
 _ZN12QPainterPath14addRoundedRectERK6QRectFddN2Qt8SizeModeE@Qt_5 5.2.0
 _ZN12QPainterPath17ensureData_helperEv@Qt_5 5.0.2
 _ZN12QPainterPath20setElementPositionAtEidd@Qt_5 5.2.0
 _ZN12QPainterPath5arcToERK6QRectFdd@Qt_5 5.2.0
 _ZN12QPainterPath6detachEv@Qt_5 5.0.2
 _ZN12QPainterPath6lineToERK7QPointF@Qt_5 5.0.2
 _ZN12QPainterPath6moveToERK7QPointF@Qt_5 5.0.2
 _ZN12QPainterPath6quadToERK7QPointFS2_@Qt_5 5.0.2
 _ZN12QPainterPath7addPathERKS_@Qt_5 5.0.2
 _ZN12QPainterPath7addRectERK6QRectF@Qt_5 5.0.2
 _ZN12QPainterPath7addTextERK7QPointFRK5QFontRK7QString@Qt_5 5.0.2
 _ZN12QPainterPath7cubicToERK7QPointFS2_S2_@Qt_5 5.0.2
 _ZN12QPainterPath8setDirtyEb@Qt_5 5.0.2
 _ZN12QPainterPath9addRegionERK7QRegion@Qt_5 5.0.2
 _ZN12QPainterPath9arcMoveToERK6QRectFd@Qt_5 5.2.0
 _ZN12QPainterPath9translateEdd@Qt_5 5.2.0
 _ZN12QPainterPathC1ERK7QPointF@Qt_5 5.0.2
 _ZN12QPainterPathC1ERKS_@Qt_5 5.0.2
 _ZN12QPainterPathC1Ev@Qt_5 5.0.2
 _ZN12QPainterPathC2ERK7QPointF@Qt_5 5.0.2
 _ZN12QPainterPathC2ERKS_@Qt_5 5.0.2
 _ZN12QPainterPathC2Ev@Qt_5 5.0.2
 _ZN12QPainterPathD1Ev@Qt_5 5.0.2
 _ZN12QPainterPathD2Ev@Qt_5 5.0.2
 _ZN12QPainterPathaNERKS_@Qt_5 5.0.2
 _ZN12QPainterPathaSERKS_@Qt_5 5.0.2
 _ZN12QPainterPathmIERKS_@Qt_5 5.0.2
 _ZN12QPainterPathoRERKS_@Qt_5 5.0.2
 _ZN12QPainterPathpLERKS_@Qt_5 5.0.2
 _ZN12QPathClipper10pathToRectERK12QPainterPathP6QRectF@Qt_5_PRIVATE_API 5.0.2 1
 _ZN12QPathClipper19handleCrossingEdgesER11QWingedEdgedNS_11ClipperModeE@Qt_5_PRIVATE_API 5.2.0 1
 _ZN12QPathClipper4clipENS_9OperationE@Qt_5_PRIVATE_API 5.0.2 1
 _ZN12QPathClipper6doClipER11QWingedEdgeNS_11ClipperModeE@Qt_5_PRIVATE_API 5.0.2 1
 _ZN12QPathClipper8containsEv@Qt_5_PRIVATE_API 5.0.2 1
 _ZN12QPathClipper9intersectERK12QPainterPathRK6QRectF@Qt_5_PRIVATE_API 5.0.2 1
 _ZN12QPathClipper9intersectEv@Qt_5_PRIVATE_API 5.0.2 1
 _ZN12QPathClipperC1ERK12QPainterPathS2_@Qt_5_PRIVATE_API 5.0.2 1
 _ZN12QPathClipperC2ERK12QPainterPathS2_@Qt_5_PRIVATE_API 5.0.2 1
 _ZN12QPixmapCache10cacheLimitEv@Qt_5 5.0.2
 _ZN12QPixmapCache13setCacheLimitEi@Qt_5 5.0.2
 _ZN12QPixmapCache20flushDetachedPixmapsEv@Qt_5 5.0.2
 _ZN12QPixmapCache3KeyC1ERKS0_@Qt_5 5.0.2
 _ZN12QPixmapCache3KeyC1Ev@Qt_5 5.0.2
 _ZN12QPixmapCache3KeyC2ERKS0_@Qt_5 5.0.2
 _ZN12QPixmapCache3KeyC2Ev@Qt_5 5.0.2
 _ZN12QPixmapCache3KeyD1Ev@Qt_5 5.0.2
 _ZN12QPixmapCache3KeyD2Ev@Qt_5 5.0.2
 _ZN12QPixmapCache3KeyaSERKS0_@Qt_5 5.0.2
 _ZN12QPixmapCache4findERK7QString@Qt_5 5.0.2
 _ZN12QPixmapCache4findERK7QStringP7QPixmap@Qt_5 5.0.2
 _ZN12QPixmapCache4findERK7QStringR7QPixmap@Qt_5 5.0.2
 _ZN12QPixmapCache4findERKNS_3KeyEP7QPixmap@Qt_5 5.0.2
 _ZN12QPixmapCache5clearEv@Qt_5 5.0.2
 _ZN12QPixmapCache6insertERK7QPixmap@Qt_5 5.0.2
 _ZN12QPixmapCache6insertERK7QStringRK7QPixmap@Qt_5 5.0.2
 _ZN12QPixmapCache6removeERK7QString@Qt_5 5.0.2
 _ZN12QPixmapCache6removeERKNS_3KeyE@Qt_5 5.0.2
 _ZN12QPixmapCache7replaceERKNS_3KeyERK7QPixmap@Qt_5 5.0.2
 _ZN12QPixmapCache9totalUsedEv@Qt_5 5.0.2
 _ZN12QResizeEventC1ERK5QSizeS2_@Qt_5 5.0.2
 _ZN12QResizeEventC2ERK5QSizeS2_@Qt_5 5.0.2
 _ZN12QResizeEventD0Ev@Qt_5 5.0.2
 _ZN12QResizeEventD1Ev@Qt_5 5.0.2
 _ZN12QResizeEventD2Ev@Qt_5 5.0.2
 _ZN12QScrollEventC1ERK7QPointFS2_NS_11ScrollStateE@Qt_5 5.0.2
 _ZN12QScrollEventC2ERK7QPointFS2_NS_11ScrollStateE@Qt_5 5.0.2
 _ZN12QScrollEventD0Ev@Qt_5 5.0.2
 _ZN12QScrollEventD1Ev@Qt_5 5.0.2
 _ZN12QScrollEventD2Ev@Qt_5 5.0.2
 _ZN12QShortcutMap10resetStateEv@Qt_5_PRIVATE_API 5.0.2 1
 _ZN12QShortcutMap11addShortcutEP7QObjectRK12QKeySequenceN2Qt15ShortcutContextEPFbS1_S6_E@Qt_5_PRIVATE_API 5.0.2 1
 _ZN12QShortcutMap11tryShortcutEP9QKeyEvent@Qt_5_PRIVATE_API 5.6.0~beta 1
 _ZN12QShortcutMap13clearSequenceER7QVectorI12QKeySequenceE@Qt_5_PRIVATE_API 5.0.2 1
 _ZN12QShortcutMap13dispatchEventEP9QKeyEvent@Qt_5_PRIVATE_API 5.0.2 1
 _ZN12QShortcutMap14removeShortcutEiP7QObjectRK12QKeySequence@Qt_5_PRIVATE_API 5.0.2 1
 _ZN12QShortcutMap18createNewSequencesEP9QKeyEventR7QVectorI12QKeySequenceEi@Qt_5_PRIVATE_API 5.5.1 1
 _ZN12QShortcutMap18setShortcutEnabledEbiP7QObjectRK12QKeySequence@Qt_5_PRIVATE_API 5.0.2 1
 _ZN12QShortcutMap18translateModifiersE6QFlagsIN2Qt16KeyboardModifierEE@Qt_5_PRIVATE_API 5.0.2 1
 _ZN12QShortcutMap21setShortcutAutoRepeatEbiP7QObjectRK12QKeySequence@Qt_5_PRIVATE_API 5.0.2 1
 _ZN12QShortcutMap4findEP9QKeyEventi@Qt_5_PRIVATE_API 5.5.1 1
 _ZN12QShortcutMap5stateEv@Qt_5_PRIVATE_API 5.0.2 1
 _ZN12QShortcutMap9nextStateEP9QKeyEvent@Qt_5_PRIVATE_API 5.0.2 1
 _ZN12QShortcutMapC1Ev@Qt_5_PRIVATE_API 5.0.2 1
 _ZN12QShortcutMapC2Ev@Qt_5_PRIVATE_API 5.0.2 1
 _ZN12QShortcutMapD1Ev@Qt_5_PRIVATE_API 5.0.2 1
 _ZN12QShortcutMapD2Ev@Qt_5_PRIVATE_API 5.0.2 1
 _ZN12QTabletEvent16staticMetaObjectE@Qt_5 5.4.0
 _ZN12QTabletEventC1EN6QEvent4TypeERK7QPointFS4_iidiiddi6QFlagsIN2Qt16KeyboardModifierEEx@Qt_5 5.2.0
 _ZN12QTabletEventC1EN6QEvent4TypeERK7QPointFS4_iidiiddi6QFlagsIN2Qt16KeyboardModifierEExNS6_11MouseButtonES5_IS9_E@Qt_5 5.4.0
 _ZN12QTabletEventC2EN6QEvent4TypeERK7QPointFS4_iidiiddi6QFlagsIN2Qt16KeyboardModifierEEx@Qt_5 5.2.0
 _ZN12QTabletEventC2EN6QEvent4TypeERK7QPointFS4_iidiiddi6QFlagsIN2Qt16KeyboardModifierEExNS6_11MouseButtonES5_IS9_E@Qt_5 5.4.0
 _ZN12QTabletEventD0Ev@Qt_5 5.0.2
 _ZN12QTabletEventD1Ev@Qt_5 5.0.2
 _ZN12QTabletEventD2Ev@Qt_5 5.0.2
 _ZN12QTouchDevice15setCapabilitiesE6QFlagsINS_14CapabilityFlagEE@Qt_5 5.0.2
 _ZN12QTouchDevice16staticMetaObjectE@Qt_5 5.5.0
 _ZN12QTouchDevice21setMaximumTouchPointsEi@Qt_5 5.2.0~alpha1
 _ZN12QTouchDevice7devicesEv@Qt_5 5.0.2
 _ZN12QTouchDevice7setNameERK7QString@Qt_5 5.0.2
 _ZN12QTouchDevice7setTypeENS_10DeviceTypeE@Qt_5 5.0.2
 _ZN12QTouchDeviceC1Ev@Qt_5 5.0.2
 _ZN12QTouchDeviceC2Ev@Qt_5 5.0.2
 _ZN12QTouchDeviceD1Ev@Qt_5 5.0.2
 _ZN12QTouchDeviceD2Ev@Qt_5 5.0.2
 _ZN13QBackingStore10beginPaintERK7QRegion@Qt_5 5.0.2
 _ZN13QBackingStore11paintDeviceEv@Qt_5 5.0.2
 _ZN13QBackingStore17setStaticContentsERK7QRegion@Qt_5 5.0.2
 _ZN13QBackingStore5flushERK7QRegionP7QWindowRK6QPoint@Qt_5 5.0.2
 _ZN13QBackingStore6resizeERK5QSize@Qt_5 5.0.2
 _ZN13QBackingStore6scrollERK7QRegionii@Qt_5 5.0.2
 _ZN13QBackingStore8endPaintEv@Qt_5 5.0.2
 _ZN13QBackingStoreC1EP7QWindow@Qt_5 5.0.2
 _ZN13QBackingStoreC2EP7QWindow@Qt_5 5.0.2
 _ZN13QBackingStoreD1Ev@Qt_5 5.0.2
 _ZN13QBackingStoreD2Ev@Qt_5 5.0.2
 _ZN13QFontDatabase10pointSizesERK7QStringS2_@Qt_5 5.0.2
 _ZN13QFontDatabase10systemFontENS_10SystemFontE@Qt_5 5.2.0~alpha1
 _ZN13QFontDatabase11smoothSizesERK7QStringS2_@Qt_5 5.0.2
 _ZN13QFontDatabase11styleStringERK5QFont@Qt_5 5.0.2
 _ZN13QFontDatabase11styleStringERK9QFontInfo@Qt_5 5.0.2
 _ZN13QFontDatabase13parseFontNameERK7QStringRS0_S3_@Qt_5 5.0.2
 _ZN13QFontDatabase13standardSizesEv@Qt_5 5.0.2
 _ZN13QFontDatabase14createDatabaseEv@Qt_5 5.0.2
 _ZN13QFontDatabase16staticMetaObjectE@Qt_5 5.0.2
 _ZN13QFontDatabase17writingSystemNameENS_13WritingSystemE@Qt_5 5.0.2
 _ZN13QFontDatabase18addApplicationFontERK7QString@Qt_5 5.0.2
 _ZN13QFontDatabase19writingSystemSampleENS_13WritingSystemE@Qt_5 5.0.2
 _ZN13QFontDatabase21removeApplicationFontEi@Qt_5 5.0.2
 _ZN13QFontDatabase22resolveFontFamilyAliasERK7QString@Qt_5 5.0.2
 _ZN13QFontDatabase23applicationFontFamiliesEi@Qt_5 5.0.2
 _ZN13QFontDatabase25removeAllApplicationFontsEv@Qt_5 5.0.2
 _ZN13QFontDatabase26addApplicationFontFromDataERK10QByteArray@Qt_5 5.0.2
 _ZN13QFontDatabase29supportsThreadedFontRenderingEv@Qt_5 5.2.0~beta1
 _ZN13QFontDatabase4loadEPK12QFontPrivatei@Qt_5_PRIVATE_API 5.0.2 1
 _ZN13QFontDatabase8findFontERK8QFontDefi@Qt_5 5.5.0
 _ZN13QFontDatabaseC1Ev@Qt_5 5.0.2
 _ZN13QFontDatabaseC2Ev@Qt_5 5.0.2
 _ZN13QFontMetricsFC1ERK12QFontMetrics@Qt_5 5.0.2
 _ZN13QFontMetricsFC1ERK5QFont@Qt_5 5.0.2
 _ZN13QFontMetricsFC1ERK5QFontP12QPaintDevice@Qt_5 5.0.2
 _ZN13QFontMetricsFC1ERKS_@Qt_5 5.0.2
 _ZN13QFontMetricsFC2ERK12QFontMetrics@Qt_5 5.0.2
 _ZN13QFontMetricsFC2ERK5QFont@Qt_5 5.0.2
 _ZN13QFontMetricsFC2ERK5QFontP12QPaintDevice@Qt_5 5.0.2
 _ZN13QFontMetricsFC2ERKS_@Qt_5 5.0.2
 _ZN13QFontMetricsFD1Ev@Qt_5 5.0.2
 _ZN13QFontMetricsFD2Ev@Qt_5 5.0.2
 _ZN13QFontMetricsFaSERK12QFontMetrics@Qt_5 5.0.2
 _ZN13QFontMetricsFaSERKS_@Qt_5 5.0.2
 _ZN13QIntValidator10topChangedEi@Qt_5 5.0.2
 _ZN13QIntValidator11qt_metacallEN11QMetaObject4CallEiPPv@Qt_5 5.0.2
 _ZN13QIntValidator11qt_metacastEPKc@Qt_5 5.0.2
 _ZN13QIntValidator13bottomChangedEi@Qt_5 5.0.2
 _ZN13QIntValidator16staticMetaObjectE@Qt_5 5.0.2
 _ZN13QIntValidator6setTopEi@Qt_5 5.0.2
 _ZN13QIntValidator8setRangeEii@Qt_5 5.0.2
 _ZN13QIntValidator9setBottomEi@Qt_5 5.0.2
 _ZN13QIntValidatorC1EP7QObject@Qt_5 5.0.2
 _ZN13QIntValidatorC1EiiP7QObject@Qt_5 5.0.2
 _ZN13QIntValidatorC2EP7QObject@Qt_5 5.0.2
 _ZN13QIntValidatorC2EiiP7QObject@Qt_5 5.0.2
 _ZN13QIntValidatorD0Ev@Qt_5 5.0.2
 _ZN13QIntValidatorD1Ev@Qt_5 5.0.2
 _ZN13QIntValidatorD2Ev@Qt_5 5.0.2
 _ZN13QLayoutPolicy14setControlTypeENS_11ControlTypeE@Qt_5_PRIVATE_API 5.3.0 1
 _ZN13QOpenGLBuffer15setUsagePatternENS_12UsagePatternE@Qt_5 5.0.2
 _ZN13QOpenGLBuffer3mapENS_6AccessE@Qt_5 5.0.2
 _ZN13QOpenGLBuffer4bindEv@Qt_5 5.0.2
 _ZN13QOpenGLBuffer4readEiPvi@Qt_5 5.0.2
 _ZN13QOpenGLBuffer5unmapEv@Qt_5 5.0.2
 _ZN13QOpenGLBuffer5writeEiPKvi@Qt_5 5.0.2
 _ZN13QOpenGLBuffer6createEv@Qt_5 5.0.2
 _ZN13QOpenGLBuffer7destroyEv@Qt_5 5.0.2
 _ZN13QOpenGLBuffer7releaseENS_4TypeE@Qt_5 5.0.2
 _ZN13QOpenGLBuffer7releaseEv@Qt_5 5.0.2
 _ZN13QOpenGLBuffer8allocateEPKvi@Qt_5 5.0.2
 _ZN13QOpenGLBuffer8mapRangeEii6QFlagsINS_15RangeAccessFlagEE@Qt_5 5.4.0
 _ZN13QOpenGLBufferC1ENS_4TypeE@Qt_5 5.0.2
 _ZN13QOpenGLBufferC1ERKS_@Qt_5 5.0.2
 _ZN13QOpenGLBufferC1Ev@Qt_5 5.0.2
 _ZN13QOpenGLBufferC2ENS_4TypeE@Qt_5 5.0.2
 _ZN13QOpenGLBufferC2ERKS_@Qt_5 5.0.2
 _ZN13QOpenGLBufferC2Ev@Qt_5 5.0.2
 _ZN13QOpenGLBufferD1Ev@Qt_5 5.0.2
 _ZN13QOpenGLBufferD2Ev@Qt_5 5.0.2
 _ZN13QOpenGLBufferaSERKS_@Qt_5 5.0.2
 _ZN13QOpenGLConfig11gpuFeaturesERKNS_3GpuERK13QJsonDocument@Qt_5_PRIVATE_API 5.5.0 1
 _ZN13QOpenGLConfig11gpuFeaturesERKNS_3GpuERK7QString@Qt_5_PRIVATE_API 5.5.0 1
 _ZN13QOpenGLConfig11gpuFeaturesERKNS_3GpuERK7QStringRK14QVersionNumberS5_RK13QJsonDocument@Qt_5_PRIVATE_API 5.6.0~beta 1
 _ZN13QOpenGLConfig11gpuFeaturesERKNS_3GpuERK7QStringRK14QVersionNumberS5_S5_@Qt_5_PRIVATE_API 5.6.0~beta 1
 _ZN13QOpenGLConfig3Gpu11fromContextEv@Qt_5_PRIVATE_API 5.5.0 1
 _ZN13QOpenGLShader11qt_metacallEN11QMetaObject4CallEiPPv@Qt_5 5.0.2
 _ZN13QOpenGLShader11qt_metacastEPKc@Qt_5 5.0.2
 _ZN13QOpenGLShader16hasOpenGLShadersE6QFlagsINS_13ShaderTypeBitEEP14QOpenGLContext@Qt_5 5.0.2
 _ZN13QOpenGLShader16staticMetaObjectE@Qt_5 5.0.2
 _ZN13QOpenGLShader17compileSourceCodeEPKc@Qt_5 5.0.2
 _ZN13QOpenGLShader17compileSourceCodeERK10QByteArray@Qt_5 5.0.2
 _ZN13QOpenGLShader17compileSourceCodeERK7QString@Qt_5 5.0.2
 _ZN13QOpenGLShader17compileSourceFileERK7QString@Qt_5 5.0.2
 _ZN13QOpenGLShaderC1E6QFlagsINS_13ShaderTypeBitEEP7QObject@Qt_5 5.0.2
 _ZN13QOpenGLShaderC2E6QFlagsINS_13ShaderTypeBitEEP7QObject@Qt_5 5.0.2
 _ZN13QOpenGLShaderD0Ev@Qt_5 5.0.2
 _ZN13QOpenGLShaderD1Ev@Qt_5 5.0.2
 _ZN13QOpenGLShaderD2Ev@Qt_5 5.0.2
 _ZN13QOpenGLWindow10paintEventEP11QPaintEvent@Qt_5 5.4.0
 _ZN13QOpenGLWindow11doneCurrentEv@Qt_5 5.4.0
 _ZN13QOpenGLWindow11makeCurrentEv@Qt_5 5.4.0
 _ZN13QOpenGLWindow11paintOverGLEv@Qt_5 5.4.0
 _ZN13QOpenGLWindow11qt_metacallEN11QMetaObject4CallEiPPv@Qt_5 5.4.0
 _ZN13QOpenGLWindow11qt_metacastEPKc@Qt_5 5.4.0
 _ZN13QOpenGLWindow11resizeEventEP12QResizeEvent@Qt_5 5.4.0
 _ZN13QOpenGLWindow12frameSwappedEv@Qt_5 5.4.0
 _ZN13QOpenGLWindow12initializeGLEv@Qt_5 5.4.0
 _ZN13QOpenGLWindow12paintUnderGLEv@Qt_5 5.4.0
 _ZN13QOpenGLWindow15grabFramebufferEv@Qt_5 5.4.0
 _ZN13QOpenGLWindow16staticMetaObjectE@Qt_5 5.4.0
 _ZN13QOpenGLWindow7paintGLEv@Qt_5 5.4.0
 _ZN13QOpenGLWindow8resizeGLEii@Qt_5 5.4.0
 _ZN13QOpenGLWindowC1ENS_14UpdateBehaviorEP7QWindow@Qt_5 5.4.0
 _ZN13QOpenGLWindowC1EP14QOpenGLContextNS_14UpdateBehaviorEP7QWindow@Qt_5 5.5.0
 _ZN13QOpenGLWindowC2ENS_14UpdateBehaviorEP7QWindow@Qt_5 5.4.0
 _ZN13QOpenGLWindowC2EP14QOpenGLContextNS_14UpdateBehaviorEP7QWindow@Qt_5 5.5.0
 (optional=gccinternal)_ZN13QOpenGLWindowD0Ev@Qt_5 5.4.0
 (optional=gccinternal)_ZN13QOpenGLWindowD1Ev@Qt_5 5.4.0
 (optional=gccinternal)_ZN13QOpenGLWindowD2Ev@Qt_5 5.4.0
 _ZN13QPainterState4initEP8QPainter@Qt_5_PRIVATE_API 5.0.2 1
 _ZN13QPainterStateC1EPKS_@Qt_5_PRIVATE_API 5.0.2 1
 _ZN13QPainterStateC1Ev@Qt_5_PRIVATE_API 5.0.2 1
 _ZN13QPainterStateC2EPKS_@Qt_5_PRIVATE_API 5.0.2 1
 _ZN13QPainterStateC2Ev@Qt_5_PRIVATE_API 5.0.2 1
 _ZN13QPainterStateD0Ev@Qt_5_PRIVATE_API 5.0.2 1
 _ZN13QPainterStateD1Ev@Qt_5_PRIVATE_API 5.0.2 1
 _ZN13QPainterStateD2Ev@Qt_5_PRIVATE_API 5.0.2 1
 _ZN13QPlatformDrag10cancelDragEv@Qt_5 5.7.0
 _ZN13QPlatformDrag12updateActionEN2Qt10DropActionE@Qt_5 5.0.2
 _ZN13QPlatformDrag13defaultPixmapEv@Qt_5 5.0.2
 _ZN13QPlatformDragC1Ev@Qt_5 5.0.2
 _ZN13QPlatformDragC2Ev@Qt_5 5.0.2
 _ZN13QPlatformDragD0Ev@Qt_5 5.0.2
 _ZN13QPlatformDragD1Ev@Qt_5 5.0.2
 _ZN13QPlatformDragD2Ev@Qt_5 5.0.2
 _ZN13QPlatformMenu11aboutToHideEv@Qt_5 5.0.2
 _ZN13QPlatformMenu11aboutToShowEv@Qt_5 5.0.2
 _ZN13QPlatformMenu11qt_metacallEN11QMetaObject4CallEiPPv@Qt_5 5.0.2
 _ZN13QPlatformMenu11qt_metacastEPKc@Qt_5 5.0.2
 _ZN13QPlatformMenu16staticMetaObjectE@Qt_5 5.0.2
 _ZN13QRasterWindow11qt_metacallEN11QMetaObject4CallEiPPv@Qt_5 5.4.0
 _ZN13QRasterWindow11qt_metacastEPKc@Qt_5 5.4.0
 _ZN13QRasterWindow16staticMetaObjectE@Qt_5 5.4.0
 _ZN13QRasterWindowC1EP7QWindow@Qt_5 5.4.0
 _ZN13QRasterWindowC2EP7QWindow@Qt_5 5.4.0
 _ZN13QStandardItem10insertRowsEiRK5QListIPS_E@Qt_5 5.0.2
 _ZN13QStandardItem10insertRowsEii@Qt_5 5.0.2
 _ZN13QStandardItem10removeRowsEii@Qt_5 5.0.2
 _ZN13QStandardItem10setEnabledEb@Qt_5 5.0.2
 _ZN13QStandardItem10takeColumnEi@Qt_5 5.0.2
 _ZN13QStandardItem11setEditableEb@Qt_5 5.0.2
 _ZN13QStandardItem11setRowCountEi@Qt_5 5.0.2
 _ZN13QStandardItem11setTristateEb@Qt_5 5.0.2
 _ZN13QStandardItem12insertColumnEiRK5QListIPS_E@Qt_5 5.0.2
 _ZN13QStandardItem12removeColumnEi@Qt_5 5.0.2
 _ZN13QStandardItem12setCheckableEb@Qt_5 5.0.2
 _ZN13QStandardItem12sortChildrenEiN2Qt9SortOrderE@Qt_5 5.0.2
 _ZN13QStandardItem13insertColumnsEii@Qt_5 5.0.2
 _ZN13QStandardItem13removeColumnsEii@Qt_5 5.0.2
 _ZN13QStandardItem13setSelectableEb@Qt_5 5.0.2
 _ZN13QStandardItem14setColumnCountEi@Qt_5 5.0.2
 _ZN13QStandardItem14setDragEnabledEb@Qt_5 5.0.2
 _ZN13QStandardItem14setDropEnabledEb@Qt_5 5.0.2
 _ZN13QStandardItem15emitDataChangedEv@Qt_5 5.0.2
 _ZN13QStandardItem15setAutoTristateEb@Qt_5 5.6.0~beta
 _ZN13QStandardItem15setUserTristateEb@Qt_5 5.6.0~beta
 _ZN13QStandardItem4readER11QDataStream@Qt_5 5.0.2
 _ZN13QStandardItem7setDataERK8QVarianti@Qt_5 5.0.2
 _ZN13QStandardItem7takeRowEi@Qt_5 5.0.2
 _ZN13QStandardItem8setChildEiiPS_@Qt_5 5.0.2
 _ZN13QStandardItem8setFlagsE6QFlagsIN2Qt8ItemFlagEE@Qt_5 5.0.2
 _ZN13QStandardItem9insertRowEiRK5QListIPS_E@Qt_5 5.0.2
 _ZN13QStandardItem9removeRowEi@Qt_5 5.0.2
 _ZN13QStandardItem9takeChildEii@Qt_5 5.0.2
 _ZN13QStandardItemC1ER20QStandardItemPrivate@Qt_5 5.0.2
 _ZN13QStandardItemC1ERK5QIconRK7QString@Qt_5 5.0.2
 _ZN13QStandardItemC1ERK7QString@Qt_5 5.0.2
 _ZN13QStandardItemC1ERKS_@Qt_5 5.0.2
 _ZN13QStandardItemC1Eii@Qt_5 5.0.2
 _ZN13QStandardItemC1Ev@Qt_5 5.0.2
 _ZN13QStandardItemC2ER20QStandardItemPrivate@Qt_5 5.0.2
 _ZN13QStandardItemC2ERK5QIconRK7QString@Qt_5 5.0.2
 _ZN13QStandardItemC2ERK7QString@Qt_5 5.0.2
 _ZN13QStandardItemC2ERKS_@Qt_5 5.0.2
 _ZN13QStandardItemC2Eii@Qt_5 5.0.2
 _ZN13QStandardItemC2Ev@Qt_5 5.0.2
 _ZN13QStandardItemD0Ev@Qt_5 5.0.2
 _ZN13QStandardItemD1Ev@Qt_5 5.0.2
 _ZN13QStandardItemD2Ev@Qt_5 5.0.2
 _ZN13QStandardItemaSERKS_@Qt_5 5.0.2
 _ZN13QTextDocument10adjustSizeEv@Qt_5 5.0.2
 _ZN13QTextDocument10setBaseUrlERK4QUrl@Qt_5 5.3.0
 _ZN13QTextDocument11addResourceEiRK4QUrlRK8QVariant@Qt_5 5.0.2
 _ZN13QTextDocument11qt_metacallEN11QMetaObject4CallEiPPv@Qt_5 5.0.2
 _ZN13QTextDocument11qt_metacastEPKc@Qt_5 5.0.2
 _ZN13QTextDocument11setModifiedEb@Qt_5 5.0.2
 _ZN13QTextDocument11setPageSizeERK6QSizeF@Qt_5 5.0.2
 _ZN13QTextDocument12createObjectERK11QTextFormat@Qt_5 5.0.2
 _ZN13QTextDocument12drawContentsEP8QPainterRK6QRectF@Qt_5 5.0.2
 _ZN13QTextDocument12loadResourceEiRK4QUrl@Qt_5 5.0.2
 _ZN13QTextDocument12setPlainTextERK7QString@Qt_5 5.0.2
 _ZN13QTextDocument12setTextWidthEd@Qt_5 5.2.0
 _ZN13QTextDocument13redoAvailableEb@Qt_5 5.0.2
 _ZN13QTextDocument13undoAvailableEb@Qt_5 5.0.2
 _ZN13QTextDocument14appendUndoItemEP17QAbstractUndoItem@Qt_5 5.0.2
 _ZN13QTextDocument14baseUrlChangedERK4QUrl@Qt_5 5.3.0
 _ZN13QTextDocument14contentsChangeEiii@Qt_5 5.0.2
 _ZN13QTextDocument14setDefaultFontERK5QFont@Qt_5 5.0.2
 _ZN13QTextDocument14setIndentWidthEd@Qt_5 5.2.0
 _ZN13QTextDocument15contentsChangedEv@Qt_5 5.0.2
 _ZN13QTextDocument16staticMetaObjectE@Qt_5 5.0.2
 _ZN13QTextDocument16undoCommandAddedEv@Qt_5 5.0.2
 _ZN13QTextDocument17blockCountChangedEi@Qt_5 5.0.2
 _ZN13QTextDocument17markContentsDirtyEii@Qt_5 5.0.2
 _ZN13QTextDocument17setDocumentLayoutEP27QAbstractTextDocumentLayout@Qt_5 5.0.2
 _ZN13QTextDocument17setDocumentMarginEd@Qt_5 5.2.0
 _ZN13QTextDocument18setMetaInformationENS_15MetaInformationERK7QString@Qt_5 5.0.2
 _ZN13QTextDocument18setUndoRedoEnabledEb@Qt_5 5.0.2
 _ZN13QTextDocument19clearUndoRedoStacksENS_6StacksE@Qt_5 5.0.2
 _ZN13QTextDocument19modificationChangedEb@Qt_5 5.0.2
 _ZN13QTextDocument19setUseDesignMetricsEb@Qt_5 5.0.2
 _ZN13QTextDocument20setDefaultStyleSheetERK7QString@Qt_5 5.0.2
 _ZN13QTextDocument20setDefaultTextOptionERK11QTextOption@Qt_5 5.0.2
 _ZN13QTextDocument20setMaximumBlockCountEi@Qt_5 5.0.2
 _ZN13QTextDocument21cursorPositionChangedERK11QTextCursor@Qt_5 5.0.2
 _ZN13QTextDocument21documentLayoutChangedEv@Qt_5 5.0.2
 _ZN13QTextDocument25setDefaultCursorMoveStyleEN2Qt15CursorMoveStyleE@Qt_5 5.0.2
 _ZN13QTextDocument4redoEP11QTextCursor@Qt_5 5.0.2
 _ZN13QTextDocument4redoEv@Qt_5 5.0.2
 _ZN13QTextDocument4undoEP11QTextCursor@Qt_5 5.0.2
 _ZN13QTextDocument4undoEv@Qt_5 5.0.2
 _ZN13QTextDocument5clearEv@Qt_5 5.0.2
 _ZN13QTextDocument7setHtmlERK7QString@Qt_5 5.0.2
 _ZN13QTextDocumentC1EP7QObject@Qt_5 5.0.2
 _ZN13QTextDocumentC1ER20QTextDocumentPrivateP7QObject@Qt_5_PRIVATE_API 5.0.2 1
 _ZN13QTextDocumentC1ERK7QStringP7QObject@Qt_5 5.0.2
 _ZN13QTextDocumentC2EP7QObject@Qt_5 5.0.2
 _ZN13QTextDocumentC2ER20QTextDocumentPrivateP7QObject@Qt_5_PRIVATE_API 5.0.2 1
 _ZN13QTextDocumentC2ERK7QStringP7QObject@Qt_5 5.0.2
 _ZN13QTextDocumentD0Ev@Qt_5 5.0.2
 _ZN13QTextDocumentD1Ev@Qt_5 5.0.2
 _ZN13QTextDocumentD2Ev@Qt_5 5.0.2
 _ZN14QDistanceField4bitsEv@Qt_5_PRIVATE_API 5.2.0~alpha1 1
 _ZN14QDistanceField8scanLineEi@Qt_5_PRIVATE_API 5.2.0~alpha1 1
 _ZN14QDistanceField8setGlyphEP11QFontEnginejb@Qt_5_PRIVATE_API 5.2.0~alpha1 1
 _ZN14QDistanceField8setGlyphERK8QRawFontjb@Qt_5_PRIVATE_API 5.2.0~alpha1 1
 _ZN14QDistanceFieldC1EP11QFontEnginejb@Qt_5_PRIVATE_API 5.2.0~alpha1 1
 _ZN14QDistanceFieldC1EP18QDistanceFieldData@Qt_5_PRIVATE_API 5.2.0~alpha1 1
 _ZN14QDistanceFieldC1ERK12QPainterPathjb@Qt_5_PRIVATE_API 5.5.0 1
 _ZN14QDistanceFieldC1ERK8QRawFontjb@Qt_5_PRIVATE_API 5.2.0~alpha1 1
 _ZN14QDistanceFieldC1ERKS_@Qt_5_PRIVATE_API 5.2.0~alpha1 1
 _ZN14QDistanceFieldC1Eii@Qt_5_PRIVATE_API 5.2.0~alpha1 1
 _ZN14QDistanceFieldC1Ev@Qt_5_PRIVATE_API 5.2.0~alpha1 1
 _ZN14QDistanceFieldC2EP11QFontEnginejb@Qt_5_PRIVATE_API 5.2.0~alpha1 1
 _ZN14QDistanceFieldC2EP18QDistanceFieldData@Qt_5_PRIVATE_API 5.2.0~alpha1 1
 _ZN14QDistanceFieldC2ERK12QPainterPathjb@Qt_5_PRIVATE_API 5.5.0 1
 _ZN14QDistanceFieldC2ERK8QRawFontjb@Qt_5_PRIVATE_API 5.2.0~alpha1 1
 _ZN14QDistanceFieldC2ERKS_@Qt_5_PRIVATE_API 5.2.0~alpha1 1
 _ZN14QDistanceFieldC2Eii@Qt_5_PRIVATE_API 5.2.0~alpha1 1
 _ZN14QDistanceFieldC2Ev@Qt_5_PRIVATE_API 5.2.0~alpha1 1
 _ZN14QDragMoveEventC1ERK6QPoint6QFlagsIN2Qt10DropActionEEPK9QMimeDataS3_INS4_11MouseButtonEES3_INS4_16KeyboardModifierEEN6QEvent4TypeE@Qt_5 5.0.2
 _ZN14QDragMoveEventC2ERK6QPoint6QFlagsIN2Qt10DropActionEEPK9QMimeDataS3_INS4_11MouseButtonEES3_INS4_16KeyboardModifierEEN6QEvent4TypeE@Qt_5 5.0.2
 _ZN14QDragMoveEventD0Ev@Qt_5 5.0.2
 _ZN14QDragMoveEventD1Ev@Qt_5 5.0.2
 _ZN14QDragMoveEventD2Ev@Qt_5 5.0.2
 _ZN14QFileOpenEventC1ERK4QUrl@Qt_5 5.0.2
 _ZN14QFileOpenEventC1ERK7QString@Qt_5 5.0.2
 _ZN14QFileOpenEventC2ERK4QUrl@Qt_5 5.0.2
 _ZN14QFileOpenEventC2ERK7QString@Qt_5 5.0.2
 _ZN14QFileOpenEventD0Ev@Qt_5 5.0.2
 _ZN14QFileOpenEventD1Ev@Qt_5 5.0.2
 _ZN14QFileOpenEventD2Ev@Qt_5 5.0.2
 _ZN14QGenericPlugin11qt_metacallEN11QMetaObject4CallEiPPv@Qt_5 5.0.2
 _ZN14QGenericPlugin11qt_metacastEPKc@Qt_5 5.0.2
 _ZN14QGenericPlugin16staticMetaObjectE@Qt_5 5.0.2
 _ZN14QGenericPluginC1EP7QObject@Qt_5 5.0.2
 _ZN14QGenericPluginC2EP7QObject@Qt_5 5.0.2
 _ZN14QGenericPluginD0Ev@Qt_5 5.0.2
 _ZN14QGenericPluginD1Ev@Qt_5 5.0.2
 _ZN14QGenericPluginD2Ev@Qt_5 5.0.2
 _ZN14QGridLayoutBox3addERKS_id@Qt_5_PRIVATE_API 5.3.0 1
 _ZN14QGridLayoutBox7combineERKS_@Qt_5_PRIVATE_API 5.3.0 1
 _ZN14QGridLayoutBox9normalizeEv@Qt_5_PRIVATE_API 5.3.0 1
 _ZN14QIconDragEventC1Ev@Qt_5 5.0.2
 _ZN14QIconDragEventC2Ev@Qt_5 5.0.2
 _ZN14QIconDragEventD0Ev@Qt_5 5.0.2
 _ZN14QIconDragEventD1Ev@Qt_5 5.0.2
 _ZN14QIconDragEventD2Ev@Qt_5 5.0.2
 _ZN14QImageIOPlugin11qt_metacallEN11QMetaObject4CallEiPPv@Qt_5 5.0.2
 _ZN14QImageIOPlugin11qt_metacastEPKc@Qt_5 5.0.2
 _ZN14QImageIOPlugin16staticMetaObjectE@Qt_5 5.0.2
 _ZN14QImageIOPluginC1EP7QObject@Qt_5 5.0.2
 _ZN14QImageIOPluginC2EP7QObject@Qt_5 5.0.2
 _ZN14QImageIOPluginD0Ev@Qt_5 5.0.2
 _ZN14QImageIOPluginD1Ev@Qt_5 5.0.2
 _ZN14QImageIOPluginD2Ev@Qt_5 5.0.2
 _ZN14QOpenGLContext10areSharingEPS_S0_@Qt_5 5.0.2
 _ZN14QOpenGLContext11doneCurrentEv@Qt_5 5.0.2
 _ZN14QOpenGLContext11makeCurrentEP8QSurface@Qt_5 5.0.2
 _ZN14QOpenGLContext11qt_metacallEN11QMetaObject4CallEiPPv@Qt_5 5.0.2
 _ZN14QOpenGLContext11qt_metacastEPKc@Qt_5 5.0.2
 _ZN14QOpenGLContext11swapBuffersEP8QSurface@Qt_5 5.0.2
 _ZN14QOpenGLContext14currentContextEv@Qt_5 5.0.2
 _ZN14QOpenGLContext15setNativeHandleERK8QVariant@Qt_5 5.4.0
 _ZN14QOpenGLContext15setShareContextEPS_@Qt_5 5.0.2
 _ZN14QOpenGLContext16deleteQGLContextEv@Qt_5 5.0.2
 _ZN14QOpenGLContext16openGLModuleTypeEv@Qt_5 5.3.0
 _ZN14QOpenGLContext16staticMetaObjectE@Qt_5 5.0.2
 _ZN14QOpenGLContext18aboutToBeDestroyedEv@Qt_5 5.0.2
 _ZN14QOpenGLContext18globalShareContextEv@Qt_5 5.5.0
 _ZN14QOpenGLContext18openGLModuleHandleEv@Qt_5 5.3.0
 _ZN14QOpenGLContext19setQGLContextHandleEPvPFvS0_E@Qt_5 5.0.2
 _ZN14QOpenGLContext19setTextureFunctionsEP20QOpenGLTextureHelper@Qt_5 5.2.0~alpha1
 _ZN14QOpenGLContext22supportsThreadedOpenGLEv@Qt_5 5.5.0
 _ZN14QOpenGLContext23insertExternalFunctionsEP24QAbstractOpenGLFunctions@Qt_5 5.5.0
 _ZN14QOpenGLContext23removeExternalFunctionsEP24QAbstractOpenGLFunctions@Qt_5 5.5.0
 _ZN14QOpenGLContext6createEv@Qt_5 5.0.2
 _ZN14QOpenGLContext7destroyEv@Qt_5 5.0.2
 _ZN14QOpenGLContext9setFormatERK14QSurfaceFormat@Qt_5 5.0.2
 _ZN14QOpenGLContext9setScreenEP7QScreen@Qt_5 5.0.2
 _ZN14QOpenGLContextC1EP7QObject@Qt_5 5.0.2
 _ZN14QOpenGLContextC2EP7QObject@Qt_5 5.0.2
 _ZN14QOpenGLContextD0Ev@Qt_5 5.0.2
 _ZN14QOpenGLContextD1Ev@Qt_5 5.0.2
 _ZN14QOpenGLContextD2Ev@Qt_5 5.0.2
 _ZN14QOpenGLTexture10hasFeatureENS_7FeatureE@Qt_5 5.2.0~alpha1
 _ZN14QOpenGLTexture10setSamplesEi@Qt_5 5.4.0
 _ZN14QOpenGLTexture11setWrapModeENS_19CoordinateDirectionENS_8WrapModeE@Qt_5 5.2.0~alpha1
 _ZN14QOpenGLTexture11setWrapModeENS_8WrapModeE@Qt_5 5.2.0~alpha1
 _ZN14QOpenGLTexture12setMipLevelsEi@Qt_5 5.2.0~alpha1
 _ZN14QOpenGLTexture14boundTextureIdENS_13BindingTargetE@Qt_5 5.2.0~alpha1
 _ZN14QOpenGLTexture14boundTextureIdEjNS_13BindingTargetE@Qt_5 5.2.0~alpha1
 _ZN14QOpenGLTexture14setBorderColorE6QColor@Qt_5 5.2.0~alpha1
 _ZN14QOpenGLTexture14setBorderColorEffff@Qt_5 5.2.0~alpha1
 _ZN14QOpenGLTexture14setBorderColorEiiii@Qt_5 5.2.0~alpha1
 _ZN14QOpenGLTexture14setBorderColorEjjjj@Qt_5 5.2.0~alpha1
 _ZN14QOpenGLTexture14setMipMaxLevelEi@Qt_5 5.2.0~alpha1
 _ZN14QOpenGLTexture14setSwizzleMaskENS_12SwizzleValueES0_S0_S0_@Qt_5 5.2.0~alpha1
 _ZN14QOpenGLTexture14setSwizzleMaskENS_16SwizzleComponentENS_12SwizzleValueE@Qt_5 5.2.0~alpha1
 _ZN14QOpenGLTexture15allocateStorageENS_11PixelFormatENS_9PixelTypeE@Qt_5 5.5.0
 _ZN14QOpenGLTexture15allocateStorageEv@Qt_5 5.2.0~alpha1
 _ZN14QOpenGLTexture15generateMipMapsEib@Qt_5 5.2.0~alpha1
 _ZN14QOpenGLTexture15generateMipMapsEv@Qt_5 5.2.0~alpha1
 _ZN14QOpenGLTexture15setMipBaseLevelEi@Qt_5 5.2.0~alpha1
 _ZN14QOpenGLTexture16setMinMagFiltersENS_6FilterES0_@Qt_5 5.2.0~alpha1
 _ZN14QOpenGLTexture16setMipLevelRangeEii@Qt_5 5.2.0~alpha1
 _ZN14QOpenGLTexture16staticMetaObjectE@Qt_5 5.7.0
 _ZN14QOpenGLTexture17setComparisonModeENS_14ComparisonModeE@Qt_5 5.5.0
 _ZN14QOpenGLTexture17setCompressedDataEiPKvPK27QOpenGLPixelTransferOptions@Qt_5 5.3.0
 _ZN14QOpenGLTexture17setCompressedDataEiPvPK27QOpenGLPixelTransferOptions@Qt_5 5.2.0~alpha1
 _ZN14QOpenGLTexture17setCompressedDataEiiNS_11CubeMapFaceEiPKvPK27QOpenGLPixelTransferOptions@Qt_5 5.3.0
 _ZN14QOpenGLTexture17setCompressedDataEiiNS_11CubeMapFaceEiPvPK27QOpenGLPixelTransferOptions@Qt_5 5.2.0~alpha1
 _ZN14QOpenGLTexture17setCompressedDataEiiPKvPK27QOpenGLPixelTransferOptions@Qt_5 5.3.0
 _ZN14QOpenGLTexture17setCompressedDataEiiPvPK27QOpenGLPixelTransferOptions@Qt_5 5.2.0~alpha1
 _ZN14QOpenGLTexture17setCompressedDataEiiiPKvPK27QOpenGLPixelTransferOptions@Qt_5 5.3.0
 _ZN14QOpenGLTexture17setCompressedDataEiiiPvPK27QOpenGLPixelTransferOptions@Qt_5 5.2.0~alpha1
 _ZN14QOpenGLTexture19setDepthStencilModeENS_16DepthStencilModeE@Qt_5 5.2.0~alpha1
 _ZN14QOpenGLTexture20setLevelofDetailBiasEf@Qt_5 5.2.0~alpha1
 _ZN14QOpenGLTexture20setMaximumAnisotropyEf@Qt_5 5.2.0~alpha1
 _ZN14QOpenGLTexture21setComparisonFunctionENS_18ComparisonFunctionE@Qt_5 5.5.0
 _ZN14QOpenGLTexture21setLevelOfDetailRangeEff@Qt_5 5.2.0~alpha1
 _ZN14QOpenGLTexture21setMinificationFilterENS_6FilterE@Qt_5 5.2.0~alpha1
 _ZN14QOpenGLTexture22setMagnificationFilterENS_6FilterE@Qt_5 5.2.0~alpha1
 _ZN14QOpenGLTexture23setFixedSamplePositionsEb@Qt_5 5.4.0
 _ZN14QOpenGLTexture23setMaximumLevelOfDetailEf@Qt_5 5.2.0~alpha1
 _ZN14QOpenGLTexture23setMinimumLevelOfDetailEf@Qt_5 5.2.0~alpha1
 _ZN14QOpenGLTexture30setAutoMipMapGenerationEnabledEb@Qt_5 5.2.0~alpha1
 _ZN14QOpenGLTexture4bindEjNS_16TextureUnitResetE@Qt_5 5.2.0~alpha1
 _ZN14QOpenGLTexture4bindEv@Qt_5 5.2.0~alpha1
 _ZN14QOpenGLTexture6createEv@Qt_5 5.2.0~alpha1
 _ZN14QOpenGLTexture7destroyEv@Qt_5 5.2.0~alpha1
 _ZN14QOpenGLTexture7isBoundEj@Qt_5 5.2.0~alpha1
 _ZN14QOpenGLTexture7releaseEjNS_16TextureUnitResetE@Qt_5 5.2.0~alpha1
 _ZN14QOpenGLTexture7releaseEv@Qt_5 5.2.0~alpha1
 _ZN14QOpenGLTexture7setDataENS_11PixelFormatENS_9PixelTypeEPKvPK27QOpenGLPixelTransferOptions@Qt_5 5.3.0
 _ZN14QOpenGLTexture7setDataENS_11PixelFormatENS_9PixelTypeEPvPK27QOpenGLPixelTransferOptions@Qt_5 5.2.0~alpha1
 _ZN14QOpenGLTexture7setDataERK6QImageNS_16MipMapGenerationE@Qt_5 5.2.0~alpha1
 _ZN14QOpenGLTexture7setDataEiNS_11PixelFormatENS_9PixelTypeEPKvPK27QOpenGLPixelTransferOptions@Qt_5 5.3.0
 _ZN14QOpenGLTexture7setDataEiNS_11PixelFormatENS_9PixelTypeEPvPK27QOpenGLPixelTransferOptions@Qt_5 5.2.0~alpha1
 _ZN14QOpenGLTexture7setDataEiiNS_11CubeMapFaceENS_11PixelFormatENS_9PixelTypeEPKvPK27QOpenGLPixelTransferOptions@Qt_5 5.3.0
 _ZN14QOpenGLTexture7setDataEiiNS_11CubeMapFaceENS_11PixelFormatENS_9PixelTypeEPvPK27QOpenGLPixelTransferOptions@Qt_5 5.2.0~alpha1
 _ZN14QOpenGLTexture7setDataEiiNS_11PixelFormatENS_9PixelTypeEPKvPK27QOpenGLPixelTransferOptions@Qt_5 5.3.0
 _ZN14QOpenGLTexture7setDataEiiNS_11PixelFormatENS_9PixelTypeEPvPK27QOpenGLPixelTransferOptions@Qt_5 5.2.0~alpha1
 _ZN14QOpenGLTexture7setSizeEiii@Qt_5 5.2.0~alpha1
 _ZN14QOpenGLTexture9setFormatENS_13TextureFormatE@Qt_5 5.2.0~alpha1
 _ZN14QOpenGLTexture9setLayersEi@Qt_5 5.2.0~alpha1
 _ZN14QOpenGLTextureC1ENS_6TargetE@Qt_5 5.2.0~alpha1
 _ZN14QOpenGLTextureC1ERK6QImageNS_16MipMapGenerationE@Qt_5 5.2.0~alpha1
 _ZN14QOpenGLTextureC2ENS_6TargetE@Qt_5 5.2.0~alpha1
 _ZN14QOpenGLTextureC2ERK6QImageNS_16MipMapGenerationE@Qt_5 5.2.0~alpha1
 _ZN14QOpenGLTextureD1Ev@Qt_5 5.2.0~alpha1
 _ZN14QOpenGLTextureD2Ev@Qt_5 5.2.0~alpha1
 _ZN14QPaintEngineEx10drawPixmapERK7QPointFRK7QPixmap@Qt_5_PRIVATE_API 5.0.2 1
 _ZN14QPaintEngineEx10drawPointsEPK6QPointi@Qt_5_PRIVATE_API 5.0.2 1
 _ZN14QPaintEngineEx10drawPointsEPK7QPointFi@Qt_5_PRIVATE_API 5.0.2 1
 _ZN14QPaintEngineEx11drawEllipseERK5QRect@Qt_5_PRIVATE_API 5.0.2 1
 _ZN14QPaintEngineEx11drawEllipseERK6QRectF@Qt_5_PRIVATE_API 5.0.2 1
 _ZN14QPaintEngineEx11drawPolygonEPK6QPointiN12QPaintEngine15PolygonDrawModeE@Qt_5_PRIVATE_API 5.0.2 1
 _ZN14QPaintEngineEx11drawPolygonEPK7QPointFiN12QPaintEngine15PolygonDrawModeE@Qt_5_PRIVATE_API 5.0.2 1
 _ZN14QPaintEngineEx11updateStateERK17QPaintEngineState@Qt_5_PRIVATE_API 5.0.2 1
 _ZN14QPaintEngineEx15drawRoundedRectERK6QRectFddN2Qt8SizeModeE@Qt_5_PRIVATE_API 5.2.0 1
 _ZN14QPaintEngineEx15drawTiledPixmapERK6QRectFRK7QPixmapRK7QPointF@Qt_5_PRIVATE_API 5.0.2 1
 _ZN14QPaintEngineEx18drawStaticTextItemEP15QStaticTextItem@Qt_5_PRIVATE_API 5.0.2 1
 _ZN14QPaintEngineEx19drawPixmapFragmentsEPKN8QPainter14PixmapFragmentEiRK7QPixmap6QFlagsINS0_18PixmapFragmentHintEE@Qt_5_PRIVATE_API 5.0.2 1
 _ZN14QPaintEngineEx4clipERK12QPainterPathN2Qt13ClipOperationE@Qt_5_PRIVATE_API 5.0.2 1
 _ZN14QPaintEngineEx4clipERK5QRectN2Qt13ClipOperationE@Qt_5_PRIVATE_API 5.0.2 1
 _ZN14QPaintEngineEx4clipERK7QRegionN2Qt13ClipOperationE@Qt_5_PRIVATE_API 5.0.2 1
 _ZN14QPaintEngineEx4drawERK11QVectorPath@Qt_5_PRIVATE_API 5.0.2 1
 _ZN14QPaintEngineEx6strokeERK11QVectorPathRK4QPen@Qt_5_PRIVATE_API 5.0.2 1
 _ZN14QPaintEngineEx8drawPathERK12QPainterPath@Qt_5_PRIVATE_API 5.0.2 1
 _ZN14QPaintEngineEx8fillRectERK6QRectFRK6QBrush@Qt_5_PRIVATE_API 5.0.2 1
 _ZN14QPaintEngineEx8fillRectERK6QRectFRK6QColor@Qt_5_PRIVATE_API 5.0.2 1
 _ZN14QPaintEngineEx8setStateEP13QPainterState@Qt_5_PRIVATE_API 5.0.2 1
 _ZN14QPaintEngineEx9drawImageERK7QPointFRK6QImage@Qt_5_PRIVATE_API 5.0.2 1
 _ZN14QPaintEngineEx9drawLinesEPK5QLinei@Qt_5_PRIVATE_API 5.0.2 1
 _ZN14QPaintEngineEx9drawLinesEPK6QLineFi@Qt_5_PRIVATE_API 5.0.2 1
 _ZN14QPaintEngineEx9drawRectsEPK5QRecti@Qt_5_PRIVATE_API 5.0.2 1
 _ZN14QPaintEngineEx9drawRectsEPK6QRectFi@Qt_5_PRIVATE_API 5.0.2 1
 _ZN14QPaintEngineExC1ER21QPaintEngineExPrivate@Qt_5_PRIVATE_API 5.0.2 1
 _ZN14QPaintEngineExC1Ev@Qt_5_PRIVATE_API 5.0.2 1
 _ZN14QPaintEngineExC2ER21QPaintEngineExPrivate@Qt_5_PRIVATE_API 5.0.2 1
 _ZN14QPaintEngineExC2Ev@Qt_5_PRIVATE_API 5.0.2 1
 _ZN14QPlatformTheme15removeMnemonicsERK7QString@Qt_5 5.7.0
 _ZN14QPlatformTheme16defaultThemeHintENS_9ThemeHintE@Qt_5 5.0.2
 _ZN14QPlatformTheme25defaultStandardButtonTextEi@Qt_5 5.3.0
 _ZN14QPlatformThemeC1EP21QPlatformThemePrivate@Qt_5 5.1.0
 _ZN14QPlatformThemeC1Ev@Qt_5 5.1.0
 _ZN14QPlatformThemeC2EP21QPlatformThemePrivate@Qt_5 5.1.0
 _ZN14QPlatformThemeC2Ev@Qt_5 5.1.0
 _ZN14QPlatformThemeD0Ev@Qt_5 5.0.2
 _ZN14QPlatformThemeD1Ev@Qt_5 5.0.2
 _ZN14QPlatformThemeD2Ev@Qt_5 5.0.2
 _ZN14QShortcutEventC1ERK12QKeySequenceib@Qt_5 5.0.2
 _ZN14QShortcutEventC2ERK12QKeySequenceib@Qt_5 5.0.2
 _ZN14QShortcutEventD0Ev@Qt_5 5.0.2
 _ZN14QShortcutEventD1Ev@Qt_5 5.0.2
 _ZN14QShortcutEventD2Ev@Qt_5 5.0.2
 _ZN14QSurfaceFormat10setOptionsE6QFlagsINS_12FormatOptionEE@Qt_5 5.3.0
 _ZN14QSurfaceFormat10setProfileENS_20OpenGLContextProfileE@Qt_5 5.0.2
 _ZN14QSurfaceFormat10setSamplesEi@Qt_5 5.0.2
 _ZN14QSurfaceFormat10setVersionEii@Qt_5 5.1.0
 _ZN14QSurfaceFormat13defaultFormatEv@Qt_5 5.4.0
 _ZN14QSurfaceFormat15setMajorVersionEi@Qt_5 5.0.2
 _ZN14QSurfaceFormat15setMinorVersionEi@Qt_5 5.0.2
 _ZN14QSurfaceFormat15setSwapBehaviorENS_12SwapBehaviorE@Qt_5 5.0.2
 _ZN14QSurfaceFormat15setSwapIntervalEi@Qt_5 5.3.0
 _ZN14QSurfaceFormat16setDefaultFormatERKS_@Qt_5 5.4.0
 _ZN14QSurfaceFormat16setRedBufferSizeEi@Qt_5 5.0.2
 _ZN14QSurfaceFormat17setBlueBufferSizeEi@Qt_5 5.0.2
 _ZN14QSurfaceFormat17setRenderableTypeENS_14RenderableTypeE@Qt_5 5.0.2
 _ZN14QSurfaceFormat18setAlphaBufferSizeEi@Qt_5 5.0.2
 _ZN14QSurfaceFormat18setDepthBufferSizeEi@Qt_5 5.0.2
 _ZN14QSurfaceFormat18setGreenBufferSizeEi@Qt_5 5.0.2
 _ZN14QSurfaceFormat20setStencilBufferSizeEi@Qt_5 5.0.2
 _ZN14QSurfaceFormat6detachEv@Qt_5 5.0.2
 _ZN14QSurfaceFormat9setOptionE6QFlagsINS_12FormatOptionEE@Qt_5 5.0.2
 _ZN14QSurfaceFormat9setOptionENS_12FormatOptionEb@Qt_5 5.3.0
 _ZN14QSurfaceFormat9setStereoEb@Qt_5 5.0.2
 _ZN14QSurfaceFormatC1E6QFlagsINS_12FormatOptionEE@Qt_5 5.0.2
 _ZN14QSurfaceFormatC1ERKS_@Qt_5 5.0.2
 _ZN14QSurfaceFormatC1Ev@Qt_5 5.0.2
 _ZN14QSurfaceFormatC2E6QFlagsINS_12FormatOptionEE@Qt_5 5.0.2
 _ZN14QSurfaceFormatC2ERKS_@Qt_5 5.0.2
 _ZN14QSurfaceFormatC2Ev@Qt_5 5.0.2
 _ZN14QSurfaceFormatD1Ev@Qt_5 5.0.2
 _ZN14QSurfaceFormatD2Ev@Qt_5 5.0.2
 _ZN14QSurfaceFormataSERKS_@Qt_5 5.0.2
 _ZN14QTextTableCell9setFormatERK15QTextCharFormat@Qt_5 5.0.2
 _ZN14QWindowPrivate11applyCursorEv@Qt_5_PRIVATE_API 5.0.2 1
 _ZN14QWindowPrivate13_q_clearAlertEv@Qt_5_PRIVATE_API 5.1.0 1
 _ZN14QWindowPrivate15connectToScreenEP7QScreen@Qt_5_PRIVATE_API 5.4.0 1
 _ZN14QWindowPrivate16clearFocusObjectEv@Qt_5_PRIVATE_API 5.2.0~rc1 1
 _ZN14QWindowPrivate16updateVisibilityEv@Qt_5_PRIVATE_API 5.1.0 1
 _ZN14QWindowPrivate17screenForGeometryERK5QRect@Qt_5_PRIVATE_API 5.6.0~beta 1
 _ZN14QWindowPrivate17setTopLevelScreenEP7QScreenb@Qt_5_PRIVATE_API 5.4.0 1
 _ZN14QWindowPrivate20deliverUpdateRequestEv@Qt_5_PRIVATE_API 5.5.0 1
 _ZN14QWindowPrivate26emitScreenChangedRecursionEP7QScreen@Qt_5_PRIVATE_API 5.4.0 1
 _ZN14QWindowPrivate27maybeQuitOnLastWindowClosedEv@Qt_5_PRIVATE_API 5.0.2 1
 _ZN14QWindowPrivate4initEv@Qt_5_PRIVATE_API 5.3.0 1
 _ZN14QWindowPrivate6createEb@Qt_5_PRIVATE_API 5.3.2 1
 _ZN14QWindowPrivate9setCursorEPK7QCursor@Qt_5_PRIVATE_API 5.1.0 1
 _ZN15QDragEnterEventC1ERK6QPoint6QFlagsIN2Qt10DropActionEEPK9QMimeDataS3_INS4_11MouseButtonEES3_INS4_16KeyboardModifierEE@Qt_5 5.0.2
 _ZN15QDragEnterEventC2ERK6QPoint6QFlagsIN2Qt10DropActionEEPK9QMimeDataS3_INS4_11MouseButtonEES3_INS4_16KeyboardModifierEE@Qt_5 5.0.2
 _ZN15QDragEnterEventD0Ev@Qt_5 5.0.2
 _ZN15QDragEnterEventD1Ev@Qt_5 5.0.2
 _ZN15QDragEnterEventD2Ev@Qt_5 5.0.2
 _ZN15QDragLeaveEventC1Ev@Qt_5 5.0.2
 _ZN15QDragLeaveEventC2Ev@Qt_5 5.0.2
 _ZN15QDragLeaveEventD0Ev@Qt_5 5.0.2
 _ZN15QDragLeaveEventD1Ev@Qt_5 5.0.2
 _ZN15QDragLeaveEventD2Ev@Qt_5 5.0.2
 _ZN15QFontEngineQPF211boundingBoxERK12QGlyphLayout@Qt_5_PRIVATE_API 5.4.0 1
 _ZN15QFontEngineQPF211boundingBoxEj@Qt_5_PRIVATE_API 5.4.0 1
 _ZN15QFontEngineQPF212verifyHeaderEPKhi@Qt_5_PRIVATE_API 5.4.0 1
 _ZN15QFontEngineQPF216addOutlineToPathEddRK12QGlyphLayoutP12QPainterPath6QFlagsIN9QTextItem10RenderFlagEE@Qt_5_PRIVATE_API 5.4.0 1
 _ZN15QFontEngineQPF216alphaMapForGlyphEj@Qt_5_PRIVATE_API 5.4.0 1
 _ZN15QFontEngineQPF218extractHeaderFieldEPKhNS_9HeaderTagE@Qt_5_PRIVATE_API 5.4.0 1
 _ZN15QFontEngineQPF2C1ERK8QFontDefRK10QByteArray@Qt_5_PRIVATE_API 5.4.0 1
 _ZN15QFontEngineQPF2C2ERK8QFontDefRK10QByteArray@Qt_5_PRIVATE_API 5.4.0 1
 _ZN15QFontEngineQPF2D0Ev@Qt_5_PRIVATE_API 5.4.0 1
 _ZN15QFontEngineQPF2D1Ev@Qt_5_PRIVATE_API 5.4.0 1
 _ZN15QFontEngineQPF2D2Ev@Qt_5_PRIVATE_API 5.4.0 1
 _ZN15QGridLayoutItem10setRowSpanEiN2Qt11OrientationE@Qt_5_PRIVATE_API 5.3.0 1
 _ZN15QGridLayoutItem11setFirstRowEiN2Qt11OrientationE@Qt_5_PRIVATE_API 5.3.0 1
 _ZN15QGridLayoutItem16setStretchFactorEiN2Qt11OrientationE@Qt_5_PRIVATE_API 5.3.0 1
 _ZN15QGridLayoutItem18insertOrRemoveRowsEiiN2Qt11OrientationE@Qt_5_PRIVATE_API 5.3.0 1
 _ZN15QGridLayoutItem9transposeEv@Qt_5_PRIVATE_API 5.3.0 1
 _ZN15QGridLayoutItemC1Eiiii6QFlagsIN2Qt13AlignmentFlagEE@Qt_5_PRIVATE_API 5.3.0 1
 _ZN15QGridLayoutItemC2Eiiii6QFlagsIN2Qt13AlignmentFlagEE@Qt_5_PRIVATE_API 5.3.0 1
 _ZN15QGuiApplication10allWindowsEv@Qt_5 5.0.2
 _ZN15QGuiApplication10setPaletteERK8QPalette@Qt_5 5.0.2
 _ZN15QGuiApplication10styleHintsEv@Qt_5 5.0.2
 _ZN15QGuiApplication10topLevelAtERK6QPoint@Qt_5 5.0.2
 _ZN15QGuiApplication10windowIconEv@Qt_5 5.3.0
 _ZN15QGuiApplication11focusObjectEv@Qt_5 5.0.2
 _ZN15QGuiApplication11focusWindowEv@Qt_5 5.0.2
 _ZN15QGuiApplication11inputMethodEv@Qt_5 5.0.2
 _ZN15QGuiApplication11modalWindowEv@Qt_5 5.0.2
 _ZN15QGuiApplication11qt_metacallEN11QMetaObject4CallEiPPv@Qt_5 5.0.2
 _ZN15QGuiApplication11qt_metacastEPKc@Qt_5 5.0.2
 _ZN15QGuiApplication11screenAddedEP7QScreen@Qt_5 5.0.2
 _ZN15QGuiApplication12mouseButtonsEv@Qt_5 5.0.2
 _ZN15QGuiApplication12platformNameEv@Qt_5 5.0.2
 _ZN15QGuiApplication13compressEventEP6QEventP7QObjectP14QPostEventList@Qt_5 5.0.2
 _ZN15QGuiApplication13primaryScreenEv@Qt_5 5.0.2
 _ZN15QGuiApplication13screenRemovedEP7QScreen@Qt_5 5.4.0
 _ZN15QGuiApplication13setWindowIconERK5QIcon@Qt_5 5.3.0
 _ZN15QGuiApplication14overrideCursorEv@Qt_5 5.0.2
 _ZN15QGuiApplication14paletteChangedERK8QPalette@Qt_5 5.4.0
 _ZN15QGuiApplication15desktopFileNameEv@Qt_5 5.7.0
 _ZN15QGuiApplication15layoutDirectionEv@Qt_5 5.0.2
 _ZN15QGuiApplication15topLevelWindowsEv@Qt_5 5.0.2
 _ZN15QGuiApplication16applicationStateEv@Qt_5 5.2.0~alpha1
 _ZN15QGuiApplication16lastWindowClosedEv@Qt_5 5.0.2
 _ZN15QGuiApplication16platformFunctionERK10QByteArray@Qt_5 5.4.0
 _ZN15QGuiApplication16saveStateRequestER15QSessionManager@Qt_5 5.0.2
 _ZN15QGuiApplication16staticMetaObjectE@Qt_5 5.0.2
 _ZN15QGuiApplication17commitDataRequestER15QSessionManager@Qt_5 5.0.2
 _ZN15QGuiApplication17keyboardModifiersEv@Qt_5 5.0.2
 _ZN15QGuiApplication17setOverrideCursorERK7QCursor@Qt_5 5.0.2
 _ZN15QGuiApplication18focusObjectChangedEP7QObject@Qt_5 5.0.2
 _ZN15QGuiApplication18focusWindowChangedEP7QWindow@Qt_5 5.0.2
 _ZN15QGuiApplication18setDesktopFileNameERK7QString@Qt_5 5.7.0
 _ZN15QGuiApplication18setLayoutDirectionEN2Qt15LayoutDirectionE@Qt_5 5.0.2
 _ZN15QGuiApplication19fontDatabaseChangedEv@Qt_5 5.0.2
 _ZN15QGuiApplication20changeOverrideCursorERK7QCursor@Qt_5 5.0.2
 _ZN15QGuiApplication20desktopSettingsAwareEv@Qt_5 5.0.2
 _ZN15QGuiApplication20primaryScreenChangedEP7QScreen@Qt_5 5.6.0~beta
 _ZN15QGuiApplication21restoreOverrideCursorEv@Qt_5 5.0.2
 _ZN15QGuiApplication22applicationDisplayNameEv@Qt_5 5.0.2
 _ZN15QGuiApplication22layoutDirectionChangedEN2Qt15LayoutDirectionE@Qt_5 5.4.0
 _ZN15QGuiApplication22queryKeyboardModifiersEv@Qt_5 5.0.2
 _ZN15QGuiApplication22quitOnLastWindowClosedEv@Qt_5 5.0.2
 _ZN15QGuiApplication23applicationStateChangedEN2Qt16ApplicationStateE@Qt_5 5.2.0~alpha1
 _ZN15QGuiApplication23platformNativeInterfaceEv@Qt_5 5.0.2
 _ZN15QGuiApplication23setDesktopSettingsAwareEb@Qt_5 5.0.2
 _ZN15QGuiApplication25setApplicationDisplayNameERK7QString@Qt_5 5.0.2
 _ZN15QGuiApplication25setQuitOnLastWindowClosedEb@Qt_5 5.0.2
 _ZN15QGuiApplication34isFallbackSessionManagementEnabledEv@Qt_5 5.6.0~rc
 _ZN15QGuiApplication35setFallbackSessionManagementEnabledEb@Qt_5 5.6.0~rc
 _ZN15QGuiApplication4execEv@Qt_5 5.0.2
 _ZN15QGuiApplication4fontEv@Qt_5 5.0.2
 _ZN15QGuiApplication4syncEv@Qt_5 5.2.0~rc1
 _ZN15QGuiApplication5eventEP6QEvent@Qt_5 5.0.2
 _ZN15QGuiApplication6notifyEP7QObjectP6QEvent@Qt_5 5.0.2
 _ZN15QGuiApplication7paletteEv@Qt_5 5.0.2
 _ZN15QGuiApplication7screensEv@Qt_5 5.0.2
 _ZN15QGuiApplication7setFontERK5QFont@Qt_5 5.0.2
 _ZN15QGuiApplication9clipboardEv@Qt_5 5.0.2
 _ZN15QGuiApplicationC1ER22QGuiApplicationPrivate@Qt_5_PRIVATE_API 5.0.2 1
 _ZN15QGuiApplicationC1ERiPPci@Qt_5 5.0.2
 _ZN15QGuiApplicationC2ER22QGuiApplicationPrivate@Qt_5_PRIVATE_API 5.0.2 1
 _ZN15QGuiApplicationC2ERiPPci@Qt_5 5.0.2
 _ZN15QGuiApplicationD0Ev@Qt_5 5.0.2
 _ZN15QGuiApplicationD1Ev@Qt_5 5.0.2
 _ZN15QGuiApplicationD2Ev@Qt_5 5.0.2
 _ZN15QHighDpiScaling10logicalDpiEv@Qt_5_PRIVATE_API 5.6.0~beta 1
 _ZN15QHighDpiScaling12m_logicalDpiE@Qt_5_PRIVATE_API 5.6.0~beta 1
 _ZN15QHighDpiScaling15screenSubfactorEPK15QPlatformScreen@Qt_5_PRIVATE_API 5.6.0~beta 1
 _ZN15QHighDpiScaling15setGlobalFactorEd@Qt_5_PRIVATE_API 5.6.0~beta 1
 _ZN15QHighDpiScaling15setScreenFactorEP7QScreend@Qt_5_PRIVATE_API 5.6.0~beta 1
 _ZN15QHighDpiScaling17m_screenFactorSetE@Qt_5_PRIVATE_API 5.6.0~beta 1
 _ZN15QHighDpiScaling17m_usePixelDensityE@Qt_5_PRIVATE_API 5.6.0~beta 1
 _ZN15QHighDpiScaling18initHighDpiScalingEv@Qt_5_PRIVATE_API 5.6.0~beta 1
 _ZN15QHighDpiScaling19mapPositionToNativeERK6QPointPK15QPlatformScreen@Qt_5_PRIVATE_API 5.6.0~beta 1
 _ZN15QHighDpiScaling20updateHighDpiScalingEv@Qt_5_PRIVATE_API 5.6.0~beta 1
 _ZN15QHighDpiScaling21m_globalScalingActiveE@Qt_5_PRIVATE_API 5.6.0~beta 1
 _ZN15QHighDpiScaling21mapPositionFromNativeERK6QPointPK15QPlatformScreen@Qt_5_PRIVATE_API 5.6.0~beta 1
 _ZN15QHighDpiScaling27m_pixelDensityScalingActiveE@Qt_5_PRIVATE_API 5.6.0~beta 1
 _ZN15QHighDpiScaling6factorEPK15QPlatformScreen@Qt_5_PRIVATE_API 5.6.0~beta 1
 _ZN15QHighDpiScaling6factorEPK7QScreen@Qt_5_PRIVATE_API 5.6.0~beta 1
 _ZN15QHighDpiScaling6factorEPK7QWindow@Qt_5_PRIVATE_API 5.6.0~beta 1
 _ZN15QHighDpiScaling6originEPK15QPlatformScreen@Qt_5_PRIVATE_API 5.6.0~beta 1
 _ZN15QHighDpiScaling6originEPK7QScreen@Qt_5_PRIVATE_API 5.6.0~beta 1
 _ZN15QHighDpiScaling8m_activeE@Qt_5_PRIVATE_API 5.6.0~beta 1
 _ZN15QHighDpiScaling8m_factorE@Qt_5_PRIVATE_API 5.6.0~beta 1
 _ZN15QImageIOHandler11jumpToImageEi@Qt_5 5.0.2
 _ZN15QImageIOHandler15jumpToNextImageEv@Qt_5 5.0.2
 _ZN15QImageIOHandler5writeERK6QImage@Qt_5 5.0.2
 _ZN15QImageIOHandler9setDeviceEP9QIODevice@Qt_5 5.0.2
 _ZN15QImageIOHandler9setFormatERK10QByteArray@Qt_5 5.0.2
 _ZN15QImageIOHandler9setOptionENS_11ImageOptionERK8QVariant@Qt_5 5.0.2
 _ZN15QImageIOHandlerC1ER22QImageIOHandlerPrivate@Qt_5 5.0.2
 _ZN15QImageIOHandlerC1Ev@Qt_5 5.0.2
 _ZN15QImageIOHandlerC2ER22QImageIOHandlerPrivate@Qt_5 5.0.2
 _ZN15QImageIOHandlerC2Ev@Qt_5 5.0.2
 _ZN15QImageIOHandlerD0Ev@Qt_5 5.0.2
 _ZN15QImageIOHandlerD1Ev@Qt_5 5.0.2
 _ZN15QImageIOHandlerD2Ev@Qt_5 5.0.2
 _ZN15QLinearGradient12setFinalStopERK7QPointF@Qt_5 5.0.2
 _ZN15QLinearGradient8setStartERK7QPointF@Qt_5 5.0.2
 _ZN15QLinearGradientC1ERK7QPointFS2_@Qt_5 5.0.2
 _ZN15QLinearGradientC1Edddd@Qt_5 5.2.0
 _ZN15QLinearGradientC1Ev@Qt_5 5.0.2
 _ZN15QLinearGradientC2ERK7QPointFS2_@Qt_5 5.0.2
 _ZN15QLinearGradientC2Edddd@Qt_5 5.2.0
 _ZN15QLinearGradientC2Ev@Qt_5 5.0.2
 _ZN15QPlatformCursor6setPosERK6QPoint@Qt_5 5.0.2
 _ZN15QPlatformCursorC1Ev@Qt_5 5.0.2
 _ZN15QPlatformCursorC2Ev@Qt_5 5.0.2
 _ZN15QPlatformPixmap15fromImageReaderEP12QImageReader6QFlagsIN2Qt19ImageConversionFlagEE@Qt_5 5.0.2
 _ZN15QPlatformPixmap15setDetachNumberEi@Qt_5 5.1.0
 _ZN15QPlatformPixmap15setSerialNumberEi@Qt_5 5.0.2
 _ZN15QPlatformPixmap4copyEPKS_RK5QRect@Qt_5 5.0.2
 _ZN15QPlatformPixmap6bufferEv@Qt_5 5.0.2
 _ZN15QPlatformPixmap6createEiiNS_9PixelTypeE@Qt_5 5.0.2
 _ZN15QPlatformPixmap6scrollEiiRK5QRect@Qt_5 5.0.2
 _ZN15QPlatformPixmap8fromDataEPKhjPKc6QFlagsIN2Qt19ImageConversionFlagEE@Qt_5 5.0.2
 _ZN15QPlatformPixmap8fromFileERK7QStringPKc6QFlagsIN2Qt19ImageConversionFlagEE@Qt_5 5.0.2
 _ZN15QPlatformPixmapC1ENS_9PixelTypeEi@Qt_5 5.0.2
 _ZN15QPlatformPixmapC2ENS_9PixelTypeEi@Qt_5 5.0.2
 _ZN15QPlatformPixmapD0Ev@Qt_5 5.0.2
 _ZN15QPlatformPixmapD1Ev@Qt_5 5.0.2
 _ZN15QPlatformPixmapD2Ev@Qt_5 5.0.2
 _ZN15QPlatformScreen10mapBetweenEN2Qt17ScreenOrientationES1_RK5QRect@Qt_5 5.5.0
 _ZN15QPlatformScreen12angleBetweenEN2Qt17ScreenOrientationES1_@Qt_5 5.5.0
 _ZN15QPlatformScreen13setPowerStateENS_10PowerStateE@Qt_5 5.6.0~beta
 _ZN15QPlatformScreen16transformBetweenEN2Qt17ScreenOrientationES1_RK5QRect@Qt_5 5.5.0
 _ZN15QPlatformScreen22resizeMaximizedWindowsEv@Qt_5 5.0.2
 _ZN15QPlatformScreen23platformScreenForWindowEPK7QWindow@Qt_5 5.0.2
 _ZN15QPlatformScreen24setOrientationUpdateMaskE6QFlagsIN2Qt17ScreenOrientationEE@Qt_5 5.0.2
 _ZN15QPlatformScreenC1Ev@Qt_5 5.0.2
 _ZN15QPlatformScreenC2Ev@Qt_5 5.0.2
 _ZN15QPlatformScreenD0Ev@Qt_5 5.0.2
 _ZN15QPlatformScreenD1Ev@Qt_5 5.0.2
 _ZN15QPlatformScreenD2Ev@Qt_5 5.0.2
 _ZN15QPlatformWindow10setOpacityEd@Qt_5 5.2.0
 _ZN15QPlatformWindow10setVisibleEb@Qt_5 5.0.2
 _ZN15QPlatformWindow11setGeometryERK5QRect@Qt_5 5.0.2
 _ZN15QPlatformWindow11windowEventEP6QEvent@Qt_5 5.0.2
 _ZN15QPlatformWindow13requestUpdateEv@Qt_5 5.5.0
 _ZN15QPlatformWindow13setAlertStateEb@Qt_5 5.1.0
 _ZN15QPlatformWindow13setWindowIconERK5QIcon@Qt_5 5.0.2
 _ZN15QPlatformWindow14setWindowFlagsE6QFlagsIN2Qt10WindowTypeEE@Qt_5 5.0.2
 _ZN15QPlatformWindow14setWindowStateEN2Qt11WindowStateE@Qt_5 5.0.2
 _ZN15QPlatformWindow14setWindowTitleERK7QString@Qt_5 5.0.2
 _ZN15QPlatformWindow15initialGeometryEPK7QWindowRK5QRectii@Qt_5 5.1.0
 _ZN15QPlatformWindow17formatWindowTitleERK7QStringS2_@Qt_5 5.0.2
 _ZN15QPlatformWindow17invalidateSurfaceEv@Qt_5 5.3.0
 _ZN15QPlatformWindow17setWindowFilePathERK7QString@Qt_5 5.0.2
 _ZN15QPlatformWindow17setWindowModifiedEb@Qt_5 5.0.2
 _ZN15QPlatformWindow17startSystemResizeERK6QPointN2Qt6CornerE@Qt_5 5.0.2
 _ZN15QPlatformWindow18propagateSizeHintsEv@Qt_5 5.0.2
 _ZN15QPlatformWindow19constrainWindowSizeERK5QSize@Qt_5 5.6.0~beta
 _ZN15QPlatformWindow19setMouseGrabEnabledEb@Qt_5 5.0.2
 _ZN15QPlatformWindow21requestActivateWindowEv@Qt_5 5.0.2
 _ZN15QPlatformWindow22setKeyboardGrabEnabledEb@Qt_5 5.0.2
 _ZN15QPlatformWindow25closestAcceptableGeometryEPK7QWindowRK6QRectF@Qt_5 5.6.0~beta
 _ZN15QPlatformWindow26setFrameStrutEventsEnabledEb@Qt_5 5.0.2
 _ZN15QPlatformWindow30handleContentOrientationChangeEN2Qt17ScreenOrientationE@Qt_5 5.0.2
 _ZN15QPlatformWindow5lowerEv@Qt_5 5.0.2
 _ZN15QPlatformWindow5raiseEv@Qt_5 5.0.2
 _ZN15QPlatformWindow7setMaskERK7QRegion@Qt_5 5.0.2
 _ZN15QPlatformWindow9setParentEPKS_@Qt_5 5.0.2
 _ZN15QPlatformWindowC1EP7QWindow@Qt_5 5.0.2
 _ZN15QPlatformWindowC2EP7QWindow@Qt_5 5.0.2
 _ZN15QPlatformWindowD0Ev@Qt_5 5.0.2
 _ZN15QPlatformWindowD1Ev@Qt_5 5.0.2
 _ZN15QPlatformWindowD2Ev@Qt_5 5.0.2
 _ZN15QRadialGradient13setFocalPointERK7QPointF@Qt_5 5.0.2
 _ZN15QRadialGradient14setFocalRadiusEd@Qt_5 5.2.0
 _ZN15QRadialGradient15setCenterRadiusEd@Qt_5 5.2.0
 _ZN15QRadialGradient9setCenterERK7QPointF@Qt_5 5.0.2
 _ZN15QRadialGradient9setRadiusEd@Qt_5 5.2.0
 _ZN15QRadialGradientC1ERK7QPointFd@Qt_5 5.2.0
 _ZN15QRadialGradientC1ERK7QPointFdS2_@Qt_5 5.2.0
 _ZN15QRadialGradientC1ERK7QPointFdS2_d@Qt_5 5.2.0
 _ZN15QRadialGradientC1Eddd@Qt_5 5.2.0
 _ZN15QRadialGradientC1Eddddd@Qt_5 5.2.0
 _ZN15QRadialGradientC1Edddddd@Qt_5 5.2.0
 _ZN15QRadialGradientC1Ev@Qt_5 5.0.2
 _ZN15QRadialGradientC2ERK7QPointFd@Qt_5 5.2.0
 _ZN15QRadialGradientC2ERK7QPointFdS2_@Qt_5 5.2.0
 _ZN15QRadialGradientC2ERK7QPointFdS2_d@Qt_5 5.2.0
 _ZN15QRadialGradientC2Eddd@Qt_5 5.2.0
 _ZN15QRadialGradientC2Eddddd@Qt_5 5.2.0
 _ZN15QRadialGradientC2Edddddd@Qt_5 5.2.0
 _ZN15QRadialGradientC2Ev@Qt_5 5.0.2
 _ZN15QRawFontPrivate12loadFromDataERK10QByteArraydN5QFont17HintingPreferenceE@Qt_5_PRIVATE_API 5.4.0 1
 _ZN15QSessionManager11qt_metacallEN11QMetaObject4CallEiPPv@Qt_5 5.0.2
 _ZN15QSessionManager11qt_metacastEPKc@Qt_5 5.0.2
 _ZN15QSessionManager13requestPhase2Ev@Qt_5 5.0.2
 _ZN15QSessionManager14setRestartHintENS_11RestartHintE@Qt_5 5.0.2
 _ZN15QSessionManager16staticMetaObjectE@Qt_5 5.0.2
 _ZN15QSessionManager17allowsInteractionEv@Qt_5 5.0.2
 _ZN15QSessionManager17setDiscardCommandERK11QStringList@Qt_5 5.0.2
 _ZN15QSessionManager17setRestartCommandERK11QStringList@Qt_5 5.0.2
 _ZN15QSessionManager18setManagerPropertyERK7QStringRK11QStringList@Qt_5 5.0.2
 _ZN15QSessionManager18setManagerPropertyERK7QStringS2_@Qt_5 5.0.2
 _ZN15QSessionManager22allowsErrorInteractionEv@Qt_5 5.0.2
 _ZN15QSessionManager6cancelEv@Qt_5 5.0.2
 _ZN15QSessionManager7releaseEv@Qt_5 5.0.2
 _ZN15QSessionManagerC1EP15QGuiApplicationR7QStringS3_@Qt_5 5.0.2
 _ZN15QSessionManagerC2EP15QGuiApplicationR7QStringS3_@Qt_5 5.0.2
 _ZN15QSessionManagerD0Ev@Qt_5 5.0.2
 _ZN15QSessionManagerD1Ev@Qt_5 5.0.2
 _ZN15QSessionManagerD2Ev@Qt_5 5.0.2
 _ZN15QStatusTipEventC1ERK7QString@Qt_5 5.0.2
 _ZN15QStatusTipEventC2ERK7QString@Qt_5 5.0.2
 _ZN15QStatusTipEventD0Ev@Qt_5 5.0.2
 _ZN15QStatusTipEventD1Ev@Qt_5 5.0.2
 _ZN15QStatusTipEventD2Ev@Qt_5 5.0.2
 _ZN15QTextBlockGroup11qt_metacallEN11QMetaObject4CallEiPPv@Qt_5 5.0.2
 _ZN15QTextBlockGroup11qt_metacastEPKc@Qt_5 5.0.2
 _ZN15QTextBlockGroup12blockRemovedERK10QTextBlock@Qt_5 5.0.2
 _ZN15QTextBlockGroup13blockInsertedERK10QTextBlock@Qt_5 5.0.2
 _ZN15QTextBlockGroup16staticMetaObjectE@Qt_5 5.0.2
 _ZN15QTextBlockGroup18blockFormatChangedERK10QTextBlock@Qt_5 5.0.2
 _ZN15QTextBlockGroupC1EP13QTextDocument@Qt_5 5.0.2
 _ZN15QTextBlockGroupC1ER22QTextBlockGroupPrivateP13QTextDocument@Qt_5 5.0.2
 _ZN15QTextBlockGroupC2EP13QTextDocument@Qt_5 5.0.2
 _ZN15QTextBlockGroupC2ER22QTextBlockGroupPrivateP13QTextDocument@Qt_5 5.0.2
 _ZN15QTextBlockGroupD0Ev@Qt_5 5.0.2
 _ZN15QTextBlockGroupD1Ev@Qt_5 5.0.2
 _ZN15QTextBlockGroupD2Ev@Qt_5 5.0.2
 _ZN15QTextCharFormat17setUnderlineStyleENS_14UnderlineStyleE@Qt_5 5.0.2
 _ZN15QTextCharFormat7setFontERK5QFont@Qt_5 5.0.2
 _ZN15QTextCharFormat7setFontERK5QFontNS_33FontPropertiesInheritanceBehaviorE@Qt_5 5.3.0
 _ZN15QTextCharFormatC1ERK11QTextFormat@Qt_5 5.0.2
 _ZN15QTextCharFormatC1Ev@Qt_5 5.0.2
 _ZN15QTextCharFormatC2ERK11QTextFormat@Qt_5 5.0.2
 _ZN15QTextCharFormatC2Ev@Qt_5 5.0.2
 _ZN15QTextListFormatC1ERK11QTextFormat@Qt_5 5.0.2
 _ZN15QTextListFormatC1Ev@Qt_5 5.0.2
 _ZN15QTextListFormatC2ERK11QTextFormat@Qt_5 5.0.2
 _ZN15QTextListFormatC2Ev@Qt_5 5.0.2
 _ZN16QAccessibleCache11qt_metacallEN11QMetaObject4CallEiPPv@Qt_5_PRIVATE_API 5.3.0 1
 _ZN16QAccessibleCache11qt_metacastEPKc@Qt_5_PRIVATE_API 5.3.0 1
 _ZN16QAccessibleCache15deleteInterfaceEjP7QObject@Qt_5_PRIVATE_API 5.3.0 1
 _ZN16QAccessibleCache15objectDestroyedEP7QObject@Qt_5_PRIVATE_API 5.3.0 1
 _ZN16QAccessibleCache16staticMetaObjectE@Qt_5_PRIVATE_API 5.3.0 1
 _ZN16QAccessibleCache8instanceEv@Qt_5_PRIVATE_API 5.3.0 1
 _ZN16QAccessibleEventD0Ev@Qt_5 5.6.0~beta
 _ZN16QAccessibleEventD1Ev@Qt_5 5.6.0~beta
 _ZN16QAccessibleEventD2Ev@Qt_5 5.6.0~beta
 _ZN16QConicalGradient8setAngleEd@Qt_5 5.2.0
 _ZN16QConicalGradient9setCenterERK7QPointF@Qt_5 5.0.2
 _ZN16QConicalGradientC1ERK7QPointFd@Qt_5 5.2.0
 _ZN16QConicalGradientC1Eddd@Qt_5 5.2.0
 _ZN16QConicalGradientC1Ev@Qt_5 5.0.2
 _ZN16QConicalGradientC2ERK7QPointFd@Qt_5 5.2.0
 _ZN16QConicalGradientC2Eddd@Qt_5 5.2.0
 _ZN16QConicalGradientC2Ev@Qt_5 5.0.2
 _ZN16QDesktopServices13setUrlHandlerERK7QStringP7QObjectPKc@Qt_5 5.0.2
 _ZN16QDesktopServices15unsetUrlHandlerERK7QString@Qt_5 5.0.2
 _ZN16QDesktopServices19storageLocationImplEN14QStandardPaths16StandardLocationE@Qt_5 5.0.2
 _ZN16QDesktopServices7openUrlERK4QUrl@Qt_5 5.0.2
 _ZN16QDoubleValidator10topChangedEd@Qt_5 5.0.2
 _ZN16QDoubleValidator11qt_metacallEN11QMetaObject4CallEiPPv@Qt_5 5.0.2
 _ZN16QDoubleValidator11qt_metacastEPKc@Qt_5 5.0.2
 _ZN16QDoubleValidator11setDecimalsEi@Qt_5 5.0.2
 _ZN16QDoubleValidator11setNotationENS_8NotationE@Qt_5 5.0.2
 _ZN16QDoubleValidator13bottomChangedEd@Qt_5 5.0.2
 _ZN16QDoubleValidator15decimalsChangedEi@Qt_5 5.0.2
 _ZN16QDoubleValidator15notationChangedENS_8NotationE@Qt_5 5.0.2
 _ZN16QDoubleValidator16staticMetaObjectE@Qt_5 5.0.2
 _ZN16QDoubleValidator6setTopEd@Qt_5 5.0.2
 _ZN16QDoubleValidator8setRangeEddi@Qt_5 5.0.2
 _ZN16QDoubleValidator9setBottomEd@Qt_5 5.0.2
 _ZN16QDoubleValidatorC1EP7QObject@Qt_5 5.0.2
 _ZN16QDoubleValidatorC1EddiP7QObject@Qt_5 5.0.2
 _ZN16QDoubleValidatorC2EP7QObject@Qt_5 5.0.2
 _ZN16QDoubleValidatorC2EddiP7QObject@Qt_5 5.0.2
 _ZN16QDoubleValidatorD0Ev@Qt_5 5.0.2
 _ZN16QDoubleValidatorD1Ev@Qt_5 5.0.2
 _ZN16QDoubleValidatorD2Ev@Qt_5 5.0.2
 _ZN16QFontEngineMulti10loadEngineEi@Qt_5_PRIVATE_API 5.5.0 1
 _ZN16QFontEngineMulti11boundingBoxERK12QGlyphLayout@Qt_5_PRIVATE_API 5.0.2 1
 _ZN16QFontEngineMulti11boundingBoxEj@Qt_5_PRIVATE_API 5.0.2 1
 _ZN16QFontEngineMulti14ensureEngineAtEi@Qt_5_PRIVATE_API 5.5.0 1
 _ZN16QFontEngineMulti16addOutlineToPathEddRK12QGlyphLayoutP12QPainterPath6QFlagsIN9QTextItem10RenderFlagEE@Qt_5_PRIVATE_API 5.2.0 1
 _ZN16QFontEngineMulti16alphaMapForGlyphEj6QFixed@Qt_5_PRIVATE_API 5.0.2 1
 _ZN16QFontEngineMulti16alphaMapForGlyphEj6QFixedRK10QTransform@Qt_5_PRIVATE_API 5.0.2 1
 _ZN16QFontEngineMulti16alphaMapForGlyphEj@Qt_5_PRIVATE_API 5.0.2 1
 _ZN16QFontEngineMulti16alphaMapForGlyphEjRK10QTransform@Qt_5_PRIVATE_API 5.0.2 1
 _ZN16QFontEngineMulti16getGlyphBearingsEjPdS0_@Qt_5_PRIVATE_API 5.2.0 1
 _ZN16QFontEngineMulti19alphaRGBMapForGlyphEj6QFixedRK10QTransform@Qt_5_PRIVATE_API 5.0.2 1
 _ZN16QFontEngineMulti21createMultiFontEngineEP11QFontEnginei@Qt_5_PRIVATE_API 5.5.0 1
 _ZN16QFontEngineMulti23setFallbackFamiliesListERK11QStringList@Qt_5_PRIVATE_API 5.5.0 1
 _ZN16QFontEngineMulti29ensureFallbackFamiliesQueriedEv@Qt_5_PRIVATE_API 5.5.0 1
 _ZN16QFontEngineMultiC1EP11QFontEngineiRK11QStringList@Qt_5_PRIVATE_API 5.5.0 1
 _ZN16QFontEngineMultiC2EP11QFontEngineiRK11QStringList@Qt_5_PRIVATE_API 5.5.0 1
 _ZN16QFontEngineMultiD0Ev@Qt_5_PRIVATE_API 5.0.2 1
 _ZN16QFontEngineMultiD1Ev@Qt_5_PRIVATE_API 5.0.2 1
 _ZN16QFontEngineMultiD2Ev@Qt_5_PRIVATE_API 5.0.2 1
 _ZN16QOpenGLFunctions25initializeOpenGLFunctionsEv@Qt_5 5.0.2
 _ZN16QOpenGLFunctionsC1EP14QOpenGLContext@Qt_5 5.0.2
 _ZN16QOpenGLFunctionsC1Ev@Qt_5 5.0.2
 _ZN16QOpenGLFunctionsC2EP14QOpenGLContext@Qt_5 5.0.2
 _ZN16QOpenGLFunctionsC2Ev@Qt_5 5.0.2
 _ZN16QPlatformMenuBar11qt_metacallEN11QMetaObject4CallEiPPv@Qt_5 5.0.2
 _ZN16QPlatformMenuBar11qt_metacastEPKc@Qt_5 5.0.2
 _ZN16QPlatformMenuBar16staticMetaObjectE@Qt_5 5.0.2
 _ZN16QPlatformSurfaceC1EP8QSurface@Qt_5 5.0.2
 _ZN16QPlatformSurfaceC2EP8QSurface@Qt_5 5.0.2
 _ZN16QPlatformSurfaceD0Ev@Qt_5 5.0.2
 _ZN16QPlatformSurfaceD1Ev@Qt_5 5.0.2
 _ZN16QPlatformSurfaceD2Ev@Qt_5 5.0.2
 _ZN16QRegExpValidator11qt_metacallEN11QMetaObject4CallEiPPv@Qt_5 5.0.2
 _ZN16QRegExpValidator11qt_metacastEPKc@Qt_5 5.0.2
 _ZN16QRegExpValidator13regExpChangedERK7QRegExp@Qt_5 5.0.2
 _ZN16QRegExpValidator16staticMetaObjectE@Qt_5 5.0.2
 _ZN16QRegExpValidator9setRegExpERK7QRegExp@Qt_5 5.0.2
 _ZN16QRegExpValidatorC1EP7QObject@Qt_5 5.0.2
 _ZN16QRegExpValidatorC1ERK7QRegExpP7QObject@Qt_5 5.0.2
 _ZN16QRegExpValidatorC2EP7QObject@Qt_5 5.0.2
 _ZN16QRegExpValidatorC2ERK7QRegExpP7QObject@Qt_5 5.0.2
 _ZN16QRegExpValidatorD0Ev@Qt_5 5.0.2
 _ZN16QRegExpValidatorD1Ev@Qt_5 5.0.2
 _ZN16QRegExpValidatorD2Ev@Qt_5 5.0.2
 _ZN16QStackTextEngineC1ERK7QStringRK5QFont@Qt_5_PRIVATE_API 5.0.2 1
 _ZN16QStackTextEngineC2ERK7QStringRK5QFont@Qt_5_PRIVATE_API 5.0.2 1
 _ZN16QTextBlockFormat15setTabPositionsERK5QListIN11QTextOption3TabEE@Qt_5 5.0.2
 _ZN16QTextBlockFormatC1ERK11QTextFormat@Qt_5 5.0.2
 _ZN16QTextBlockFormatC1Ev@Qt_5 5.0.2
 _ZN16QTextBlockFormatC2ERK11QTextFormat@Qt_5 5.0.2
 _ZN16QTextBlockFormatC2Ev@Qt_5 5.0.2
 _ZN16QTextFrameFormat9setMarginEd@Qt_5 5.2.0
 _ZN16QTextFrameFormatC1ERK11QTextFormat@Qt_5 5.0.2
 _ZN16QTextFrameFormatC1Ev@Qt_5 5.0.2
 _ZN16QTextFrameFormatC2ERK11QTextFormat@Qt_5 5.0.2
 _ZN16QTextFrameFormatC2Ev@Qt_5 5.0.2
 _ZN16QTextImageFormatC1ERK11QTextFormat@Qt_5 5.0.2
 _ZN16QTextImageFormatC1Ev@Qt_5 5.0.2
 _ZN16QTextImageFormatC2ERK11QTextFormat@Qt_5 5.0.2
 _ZN16QTextImageFormatC2Ev@Qt_5 5.0.2
 _ZN16QTextTableFormatC1ERK11QTextFormat@Qt_5 5.0.2
 _ZN16QTextTableFormatC1Ev@Qt_5 5.0.2
 _ZN16QTextTableFormatC2ERK11QTextFormat@Qt_5 5.0.2
 _ZN16QTextTableFormatC2Ev@Qt_5 5.0.2
 _ZN17QAccessibleObject7setTextEN11QAccessible4TextERK7QString@Qt_5 5.0.2
 _ZN17QAccessibleObjectC1EP7QObject@Qt_5 5.0.2
 _ZN17QAccessibleObjectC2EP7QObject@Qt_5 5.0.2
 _ZN17QAccessibleObjectD0Ev@Qt_5 5.0.2
 _ZN17QAccessibleObjectD1Ev@Qt_5 5.0.2
 _ZN17QAccessibleObjectD2Ev@Qt_5 5.0.2
 _ZN17QAccessiblePlugin11qt_metacallEN11QMetaObject4CallEiPPv@Qt_5 5.0.2
 _ZN17QAccessiblePlugin11qt_metacastEPKc@Qt_5 5.0.2
 _ZN17QAccessiblePlugin16staticMetaObjectE@Qt_5 5.0.2
 _ZN17QAccessiblePluginC1EP7QObject@Qt_5 5.0.2
 _ZN17QAccessiblePluginC2EP7QObject@Qt_5 5.0.2
 _ZN17QAccessiblePluginD0Ev@Qt_5 5.0.2
 _ZN17QAccessiblePluginD1Ev@Qt_5 5.0.2
 _ZN17QAccessiblePluginD2Ev@Qt_5 5.0.2
 _ZN17QContextMenuEventC1ENS_6ReasonERK6QPoint@Qt_5 5.0.2
 _ZN17QContextMenuEventC1ENS_6ReasonERK6QPointS3_6QFlagsIN2Qt16KeyboardModifierEE@Qt_5 5.0.2
 _ZN17QContextMenuEventC1ENS_6ReasonERK6QPointS3_@Qt_5 5.0.2
 _ZN17QContextMenuEventC2ENS_6ReasonERK6QPoint@Qt_5 5.0.2
 _ZN17QContextMenuEventC2ENS_6ReasonERK6QPointS3_6QFlagsIN2Qt16KeyboardModifierEE@Qt_5 5.0.2
 _ZN17QContextMenuEventC2ENS_6ReasonERK6QPointS3_@Qt_5 5.0.2
 _ZN17QContextMenuEventD0Ev@Qt_5 5.0.2
 _ZN17QContextMenuEventD1Ev@Qt_5 5.0.2
 _ZN17QContextMenuEventD2Ev@Qt_5 5.0.2
 _ZN17QGridLayoutEngine10insertItemEP15QGridLayoutItemi@Qt_5_PRIVATE_API 5.3.0 1
 _ZN17QGridLayoutEngine10invalidateEv@Qt_5_PRIVATE_API 5.3.0 1
 _ZN17QGridLayoutEngine10removeItemEP15QGridLayoutItem@Qt_5_PRIVATE_API 5.3.0 1
 _ZN17QGridLayoutEngine10setSpacingEd6QFlagsIN2Qt11OrientationEE@Qt_5_PRIVATE_API 5.3.0 1
 _ZN17QGridLayoutEngine13setGeometriesERK6QRectFPK24QAbstractLayoutStyleInfo@Qt_5_PRIVATE_API 5.3.0 1
 _ZN17QGridLayoutEngine13setRowSpacingEidN2Qt11OrientationE@Qt_5_PRIVATE_API 5.3.0 1
 _ZN17QGridLayoutEngine14regenerateGridEv@Qt_5_PRIVATE_API 5.3.0 1
 _ZN17QGridLayoutEngine14setRowSizeHintEN2Qt8SizeHintEidNS0_11OrientationE@Qt_5_PRIVATE_API 5.3.0 1
 _ZN17QGridLayoutEngine15maybeExpandGridEiiN2Qt11OrientationE@Qt_5_PRIVATE_API 5.3.0 1
 _ZN17QGridLayoutEngine15setRowAlignmentEi6QFlagsIN2Qt13AlignmentFlagEENS1_11OrientationE@Qt_5_PRIVATE_API 5.3.0 1
 _ZN17QGridLayoutEngine18insertOrRemoveRowsEiiN2Qt11OrientationE@Qt_5_PRIVATE_API 5.3.0 1
 _ZN17QGridLayoutEngine18setVisualDirectionEN2Qt15LayoutDirectionE@Qt_5_PRIVATE_API 5.3.0 1
 _ZN17QGridLayoutEngine19setRowStretchFactorEiiN2Qt11OrientationE@Qt_5_PRIVATE_API 5.3.0 1
 _ZN17QGridLayoutEngine7addItemEP15QGridLayoutItem@Qt_5_PRIVATE_API 5.3.0 1
 _ZN17QGridLayoutEngine9setItemAtEiiP15QGridLayoutItem@Qt_5_PRIVATE_API 5.3.0 1
 _ZN17QGridLayoutEngine9transposeEv@Qt_5_PRIVATE_API 5.3.0 1
 _ZN17QGridLayoutEngineC1E6QFlagsIN2Qt13AlignmentFlagEEb@Qt_5_PRIVATE_API 5.5.0 1
 _ZN17QGridLayoutEngineC2E6QFlagsIN2Qt13AlignmentFlagEEb@Qt_5_PRIVATE_API 5.5.0 1
 _ZN17QIconEnginePlugin11qt_metacallEN11QMetaObject4CallEiPPv@Qt_5 5.0.2
 _ZN17QIconEnginePlugin11qt_metacastEPKc@Qt_5 5.0.2
 _ZN17QIconEnginePlugin16staticMetaObjectE@Qt_5 5.0.2
 _ZN17QIconEnginePluginC1EP7QObject@Qt_5 5.0.2
 _ZN17QIconEnginePluginC2EP7QObject@Qt_5 5.0.2
 _ZN17QIconEnginePluginD0Ev@Qt_5 5.0.2
 _ZN17QIconEnginePluginD1Ev@Qt_5 5.0.2
 _ZN17QIconEnginePluginD2Ev@Qt_5 5.0.2
 _ZN17QInputMethodEvent15setCommitStringERK7QStringii@Qt_5 5.0.2
 _ZN17QInputMethodEventC1ERK7QStringRK5QListINS_9AttributeEE@Qt_5 5.0.2
 _ZN17QInputMethodEventC1ERKS_@Qt_5 5.0.2
 _ZN17QInputMethodEventC1Ev@Qt_5 5.0.2
 _ZN17QInputMethodEventC2ERK7QStringRK5QListINS_9AttributeEE@Qt_5 5.0.2
 _ZN17QInputMethodEventC2ERKS_@Qt_5 5.0.2
 _ZN17QInputMethodEventC2Ev@Qt_5 5.0.2
 _ZN17QInputMethodEventD0Ev@Qt_5 5.6.0~beta
 _ZN17QInputMethodEventD1Ev@Qt_5 5.6.0~beta
 _ZN17QInputMethodEventD2Ev@Qt_5 5.6.0~beta
 _ZN17QInternalMimeData11canReadDataERK7QString@Qt_5_PRIVATE_API 5.0.2 1
 _ZN17QInternalMimeData11qt_metacallEN11QMetaObject4CallEiPPv@Qt_5_PRIVATE_API 5.0.2 1
 _ZN17QInternalMimeData11qt_metacastEPKc@Qt_5_PRIVATE_API 5.0.2 1
 _ZN17QInternalMimeData13formatsHelperEPK9QMimeData@Qt_5_PRIVATE_API 5.0.2 1
 _ZN17QInternalMimeData15hasFormatHelperERK7QStringPK9QMimeData@Qt_5_PRIVATE_API 5.0.2 1
 _ZN17QInternalMimeData16renderDataHelperERK7QStringPK9QMimeData@Qt_5_PRIVATE_API 5.0.2 1
 _ZN17QInternalMimeData16staticMetaObjectE@Qt_5_PRIVATE_API 5.0.2 1
 _ZN17QInternalMimeDataC1Ev@Qt_5_PRIVATE_API 5.0.2 1
 _ZN17QInternalMimeDataC2Ev@Qt_5_PRIVATE_API 5.0.2 1
 _ZN17QInternalMimeDataD0Ev@Qt_5_PRIVATE_API 5.0.2 1
 _ZN17QInternalMimeDataD1Ev@Qt_5_PRIVATE_API 5.0.2 1
 _ZN17QInternalMimeDataD2Ev@Qt_5_PRIVATE_API 5.0.2 1
 _ZN17QOffscreenSurface11qt_metacallEN11QMetaObject4CallEiPPv@Qt_5 5.1.0
 _ZN17QOffscreenSurface11qt_metacastEPKc@Qt_5 5.1.0
 _ZN17QOffscreenSurface13screenChangedEP7QScreen@Qt_5 5.1.0
 _ZN17QOffscreenSurface15screenDestroyedEP7QObject@Qt_5 5.1.0
 _ZN17QOffscreenSurface16staticMetaObjectE@Qt_5 5.1.0
 _ZN17QOffscreenSurface6createEv@Qt_5 5.1.0
 _ZN17QOffscreenSurface7destroyEv@Qt_5 5.1.0
 _ZN17QOffscreenSurface9setFormatERK14QSurfaceFormat@Qt_5 5.1.0
 _ZN17QOffscreenSurface9setScreenEP7QScreen@Qt_5 5.1.0
 _ZN17QOffscreenSurfaceC1EP7QScreen@Qt_5 5.1.0
 _ZN17QOffscreenSurfaceC2EP7QScreen@Qt_5 5.1.0
 _ZN17QOffscreenSurfaceD0Ev@Qt_5 5.1.0
 _ZN17QOffscreenSurfaceD1Ev@Qt_5 5.1.0
 _ZN17QOffscreenSurfaceD2Ev@Qt_5 5.1.0
 _ZN17QOpenGLExtensions11flushSharedEv@Qt_5_PRIVATE_API 5.5.0 1
 _ZN17QOpenGLExtensions16openGLExtensionsEv@Qt_5_PRIVATE_API 5.0.2 1
 _ZN17QOpenGLExtensionsC1EP14QOpenGLContext@Qt_5_PRIVATE_API 5.0.2 1
 _ZN17QOpenGLExtensionsC1Ev@Qt_5_PRIVATE_API 5.0.2 1
 _ZN17QOpenGLExtensionsC2EP14QOpenGLContext@Qt_5_PRIVATE_API 5.0.2 1
 _ZN17QOpenGLExtensionsC2Ev@Qt_5_PRIVATE_API 5.0.2 1
 (arch=!armel !armhf)_ZN17QOpenGLTimerQuery11qt_metacallEN11QMetaObject4CallEiPPv@Qt_5 5.1.0
 (arch=!armel !armhf)_ZN17QOpenGLTimerQuery11qt_metacastEPKc@Qt_5 5.1.0
 (arch=!armel !armhf)_ZN17QOpenGLTimerQuery15recordTimestampEv@Qt_5 5.1.0
 (arch=!armel !armhf)_ZN17QOpenGLTimerQuery16staticMetaObjectE@Qt_5 5.1.0
 (arch=!armel !armhf)_ZN17QOpenGLTimerQuery3endEv@Qt_5 5.1.0
 (arch=!armel !armhf)_ZN17QOpenGLTimerQuery5beginEv@Qt_5 5.1.0
 (arch=!armel !armhf)_ZN17QOpenGLTimerQuery6createEv@Qt_5 5.1.0
 (arch=!armel !armhf)_ZN17QOpenGLTimerQuery7destroyEv@Qt_5 5.1.0
 (arch=!armel !armhf)_ZN17QOpenGLTimerQueryC1EP7QObject@Qt_5 5.1.0
 (arch=!armel !armhf)_ZN17QOpenGLTimerQueryC2EP7QObject@Qt_5 5.1.0
 (arch=!armel !armhf)_ZN17QOpenGLTimerQueryD0Ev@Qt_5 5.1.0
 (arch=!armel !armhf)_ZN17QOpenGLTimerQueryD1Ev@Qt_5 5.1.0
 (arch=!armel !armhf)_ZN17QOpenGLTimerQueryD2Ev@Qt_5 5.1.0
 _ZN17QPagedPaintDevice10setMarginsERKNS_7MarginsE@Qt_5 5.0.2
 _ZN17QPagedPaintDevice11setPageSizeENS_8PageSizeE@Qt_5 5.0.2
 _ZN17QPagedPaintDevice11setPageSizeERK9QPageSize@Qt_5 5.3.0
 _ZN17QPagedPaintDevice13setPageLayoutERK11QPageLayout@Qt_5 5.3.0
 _ZN17QPagedPaintDevice13setPageSizeMMERK6QSizeF@Qt_5 5.0.2
 _ZN17QPagedPaintDevice14setPageMarginsERK9QMarginsF@Qt_5 5.3.0
 _ZN17QPagedPaintDevice14setPageMarginsERK9QMarginsFN11QPageLayout4UnitE@Qt_5 5.3.0
 _ZN17QPagedPaintDevice16devicePageLayoutEv@Qt_5 5.3.0
 _ZN17QPagedPaintDevice18setPageOrientationEN11QPageLayout11OrientationE@Qt_5 5.3.0
 _ZN17QPagedPaintDevice2ddEv@Qt_5 5.3.0
 _ZN17QPagedPaintDeviceC1EP24QPagedPaintDevicePrivate@Qt_5_PRIVATE_API 5.3.0 1
 _ZN17QPagedPaintDeviceC1Ev@Qt_5 5.0.2
 _ZN17QPagedPaintDeviceC2EP24QPagedPaintDevicePrivate@Qt_5_PRIVATE_API 5.3.0 1
 _ZN17QPagedPaintDeviceC2Ev@Qt_5 5.0.2
 _ZN17QPagedPaintDeviceD0Ev@Qt_5 5.0.2
 _ZN17QPagedPaintDeviceD1Ev@Qt_5 5.0.2
 _ZN17QPagedPaintDeviceD2Ev@Qt_5 5.0.2
 _ZN17QPdfEnginePrivate10writeFontsEv@Qt_5_PRIVATE_API 5.0.2 1
 _ZN17QPdfEnginePrivate10writeImageERK10QByteArrayiiiiib@Qt_5_PRIVATE_API 5.0.2 1
 _ZN17QPdfEnginePrivate11printStringERK7QString@Qt_5_PRIVATE_API 5.0.2 1
 _ZN17QPdfEnginePrivate11writeHeaderEv@Qt_5_PRIVATE_API 5.0.2 1
 _ZN17QPdfEnginePrivate12addXrefEntryEib@Qt_5_PRIVATE_API 5.0.2 1
 _ZN17QPdfEnginePrivate12drawTextItemERK7QPointFRK12QTextItemInt@Qt_5_PRIVATE_API 5.0.2 1
 _ZN17QPdfEnginePrivate13gradientBrushERK6QBrushRK10QTransformPi@Qt_5_PRIVATE_API 5.5.0 1
 _ZN17QPdfEnginePrivate13writePageRootEv@Qt_5_PRIVATE_API 5.0.2 1
 _ZN17QPdfEnginePrivate15addBrushPatternERK10QTransformPbPi@Qt_5_PRIVATE_API 5.0.2 1
 _ZN17QPdfEnginePrivate15writeCompressedEP9QIODevice@Qt_5_PRIVATE_API 5.0.2 1
 _ZN17QPdfEnginePrivate15writeCompressedEPKci@Qt_5_PRIVATE_API 5.0.2 1
 _ZN17QPdfEnginePrivate21createShadingFunctionEPK9QGradientiibb@Qt_5_PRIVATE_API 5.5.0 1
 _ZN17QPdfEnginePrivate22addConstantAlphaObjectEii@Qt_5_PRIVATE_API 5.0.2 1
 _ZN17QPdfEnginePrivate22generateGradientShaderEPK9QGradientRK10QTransformb@Qt_5_PRIVATE_API 5.5.0 1
 _ZN17QPdfEnginePrivate28generateLinearGradientShaderEPK15QLinearGradientRK10QTransformb@Qt_5_PRIVATE_API 5.5.0 1
 _ZN17QPdfEnginePrivate28generateRadialGradientShaderEPK15QRadialGradientRK10QTransformb@Qt_5_PRIVATE_API 5.5.0 1
 _ZN17QPdfEnginePrivate7newPageEv@Qt_5_PRIVATE_API 5.0.2 1
 _ZN17QPdfEnginePrivate7xprintfEPKcz@Qt_5_PRIVATE_API 5.0.2 1
 _ZN17QPdfEnginePrivate8addImageERK6QImagePbx@Qt_5_PRIVATE_API 5.0.2 1
 _ZN17QPdfEnginePrivate9embedFontEP11QFontSubset@Qt_5_PRIVATE_API 5.0.2 1
 _ZN17QPdfEnginePrivate9writeInfoEv@Qt_5_PRIVATE_API 5.0.2 1
 _ZN17QPdfEnginePrivate9writePageEv@Qt_5_PRIVATE_API 5.0.2 1
 _ZN17QPdfEnginePrivate9writeTailEv@Qt_5_PRIVATE_API 5.0.2 1
 _ZN17QPdfEnginePrivateC1Ev@Qt_5_PRIVATE_API 5.0.2 1
 _ZN17QPdfEnginePrivateC2Ev@Qt_5_PRIVATE_API 5.0.2 1
 _ZN17QPdfEnginePrivateD0Ev@Qt_5_PRIVATE_API 5.0.2 1
 _ZN17QPdfEnginePrivateD1Ev@Qt_5_PRIVATE_API 5.0.2 1
 _ZN17QPdfEnginePrivateD2Ev@Qt_5_PRIVATE_API 5.0.2 1
 _ZN17QPixmapIconEngine10actualSizeERK5QSizeN5QIcon4ModeENS3_5StateE@Qt_5_PRIVATE_API 5.5.0 1
 _ZN17QPixmapIconEngine12virtual_hookEiPv@Qt_5_PRIVATE_API 5.5.0 1
 _ZN17QPixmapIconEngine4readER11QDataStream@Qt_5_PRIVATE_API 5.5.0 1
 _ZN17QPixmapIconEngine5paintEP8QPainterRK5QRectN5QIcon4ModeENS5_5StateE@Qt_5_PRIVATE_API 5.5.0 1
 _ZN17QPixmapIconEngine6pixmapERK5QSizeN5QIcon4ModeENS3_5StateE@Qt_5_PRIVATE_API 5.5.0 1
 _ZN17QPixmapIconEngine7addFileERK7QStringRK5QSizeN5QIcon4ModeENS6_5StateE@Qt_5_PRIVATE_API 5.5.0 1
 _ZN17QPixmapIconEngine8tryMatchERK5QSizeN5QIcon4ModeENS3_5StateE@Qt_5_PRIVATE_API 5.5.0 1
 _ZN17QPixmapIconEngine9addPixmapERK7QPixmapN5QIcon4ModeENS3_5StateE@Qt_5_PRIVATE_API 5.5.0 1
 _ZN17QPixmapIconEngine9bestMatchERK5QSizeN5QIcon4ModeENS3_5StateEb@Qt_5_PRIVATE_API 5.5.0 1
 _ZN17QPixmapIconEngineC1ERKS_@Qt_5_PRIVATE_API 5.5.0 1
 _ZN17QPixmapIconEngineC1Ev@Qt_5_PRIVATE_API 5.5.0 1
 _ZN17QPixmapIconEngineC2ERKS_@Qt_5_PRIVATE_API 5.5.0 1
 _ZN17QPixmapIconEngineC2Ev@Qt_5_PRIVATE_API 5.5.0 1
 _ZN17QPixmapIconEngineD0Ev@Qt_5_PRIVATE_API 5.5.0 1
 _ZN17QPixmapIconEngineD1Ev@Qt_5_PRIVATE_API 5.5.0 1
 _ZN17QPixmapIconEngineD2Ev@Qt_5_PRIVATE_API 5.5.0 1
 _ZN17QPlatformMenuItem11qt_metacallEN11QMetaObject4CallEiPPv@Qt_5 5.0.2
 _ZN17QPlatformMenuItem11qt_metacastEPKc@Qt_5 5.0.2
 _ZN17QPlatformMenuItem16staticMetaObjectE@Qt_5 5.0.2
 _ZN17QPlatformMenuItem7hoveredEv@Qt_5 5.0.2
 _ZN17QPlatformMenuItem9activatedEv@Qt_5 5.0.2
 _ZN17QPlatformServices12openDocumentERK4QUrl@Qt_5 5.0.2
 _ZN17QPlatformServices7openUrlERK4QUrl@Qt_5 5.0.2
 _ZN17QPlatformServicesC1Ev@Qt_5 5.4.1
 _ZN17QPlatformServicesC2Ev@Qt_5 5.4.1
 _ZN17QTextImageHandler10drawObjectEP8QPainterRK6QRectFP13QTextDocumentiRK11QTextFormat@Qt_5_PRIVATE_API 5.0.2 1
 _ZN17QTextImageHandler11qt_metacallEN11QMetaObject4CallEiPPv@Qt_5_PRIVATE_API 5.0.2 1
 _ZN17QTextImageHandler11qt_metacastEPKc@Qt_5_PRIVATE_API 5.0.2 1
 _ZN17QTextImageHandler13intrinsicSizeEP13QTextDocumentiRK11QTextFormat@Qt_5_PRIVATE_API 5.0.2 1
 _ZN17QTextImageHandler16staticMetaObjectE@Qt_5_PRIVATE_API 5.0.2 1
 _ZN17QTextImageHandler5imageEP13QTextDocumentRK16QTextImageFormat@Qt_5_PRIVATE_API 5.0.2 1
 _ZN17QTextImageHandlerC1EP7QObject@Qt_5_PRIVATE_API 5.0.2 1
 _ZN17QTextImageHandlerC2EP7QObject@Qt_5_PRIVATE_API 5.0.2 1
 _ZN17QTextInlineObject10setDescentEd@Qt_5 5.2.0
 _ZN17QTextInlineObject8setWidthEd@Qt_5 5.2.0
 _ZN17QTextInlineObject9setAscentEd@Qt_5 5.2.0
 _ZN18QDistanceFieldData6createERK12QPainterPathb@Qt_5_PRIVATE_API 5.2.0~alpha1 1
 _ZN18QDistanceFieldData6createERK5QSize@Qt_5_PRIVATE_API 5.2.0~alpha1 1
 _ZN18QDistanceFieldDataC1ERKS_@Qt_5_PRIVATE_API 5.2.0~alpha1 1
 _ZN18QDistanceFieldDataC2ERKS_@Qt_5_PRIVATE_API 5.2.0~alpha1 1
 _ZN18QDistanceFieldDataD1Ev@Qt_5_PRIVATE_API 5.2.0~alpha1 1
 _ZN18QDistanceFieldDataD2Ev@Qt_5_PRIVATE_API 5.2.0~alpha1 1
 _ZN18QFileDialogOptions10setHistoryERK11QStringList@Qt_5 5.0.2
 _ZN18QFileDialogOptions10setOptionsE6QFlagsINS_16FileDialogOptionEE@Qt_5 5.0.2
 _ZN18QFileDialogOptions11setFileModeENS_8FileModeE@Qt_5 5.0.2
 _ZN18QFileDialogOptions11setViewModeENS_8ViewModeE@Qt_5 5.0.2
 _ZN18QFileDialogOptions12setLabelTextENS_11DialogLabelERK7QString@Qt_5 5.0.2
 _ZN18QFileDialogOptions13setAcceptModeENS_10AcceptModeE@Qt_5 5.0.2
 _ZN18QFileDialogOptions14setNameFiltersERK11QStringList@Qt_5 5.0.2
 _ZN18QFileDialogOptions14setSidebarUrlsERK5QListI4QUrlE@Qt_5 5.0.2
 _ZN18QFileDialogOptions14setWindowTitleERK7QString@Qt_5 5.0.2
 _ZN18QFileDialogOptions16setDefaultSuffixERK7QString@Qt_5 5.0.2
 _ZN18QFileDialogOptions16staticMetaObjectE@Qt_5 5.6.0~beta
 _ZN18QFileDialogOptions18setMimeTypeFiltersERK11QStringList@Qt_5 5.2.0~alpha1
 _ZN18QFileDialogOptions19setInitialDirectoryERK4QUrl@Qt_5 5.2.0~alpha1
 _ZN18QFileDialogOptions19setSupportedSchemesERK11QStringList@Qt_5 5.6.0~beta
 _ZN18QFileDialogOptions20isLabelExplicitlySetENS_11DialogLabelE@Qt_5 5.0.2
 _ZN18QFileDialogOptions23defaultNameFilterStringEv@Qt_5 5.7.0
 _ZN18QFileDialogOptions24setUseDefaultNameFiltersEb@Qt_5 5.7.0
 _ZN18QFileDialogOptions25setInitiallySelectedFilesERK5QListI4QUrlE@Qt_5 5.2.0~alpha1
 _ZN18QFileDialogOptions30setInitiallySelectedNameFilterERK7QString@Qt_5 5.0.2
 _ZN18QFileDialogOptions9setFilterE6QFlagsIN4QDir6FilterEE@Qt_5 5.0.2
 _ZN18QFileDialogOptions9setOptionENS_16FileDialogOptionEb@Qt_5 5.0.2
 _ZN18QFileDialogOptionsC1ERKS_@Qt_5 5.0.2
 _ZN18QFileDialogOptionsC1Ev@Qt_5 5.0.2
 _ZN18QFileDialogOptionsC2ERKS_@Qt_5 5.0.2
 _ZN18QFileDialogOptionsC2Ev@Qt_5 5.0.2
 _ZN18QFileDialogOptionsD1Ev@Qt_5 5.0.2
 _ZN18QFileDialogOptionsD2Ev@Qt_5 5.0.2
 _ZN18QFileDialogOptionsaSERKS_@Qt_5 5.0.2
 _ZN18QFontDialogOptions10setOptionsE6QFlagsINS_16FontDialogOptionEE@Qt_5 5.0.2
 _ZN18QFontDialogOptions14setWindowTitleERK7QString@Qt_5 5.0.2
 _ZN18QFontDialogOptions16staticMetaObjectE@Qt_5 5.6.0~beta
 _ZN18QFontDialogOptions9setOptionENS_16FontDialogOptionEb@Qt_5 5.0.2
 _ZN18QFontDialogOptionsC1ERKS_@Qt_5 5.0.2
 _ZN18QFontDialogOptionsC1Ev@Qt_5 5.0.2
 _ZN18QFontDialogOptionsC2ERKS_@Qt_5 5.0.2
 _ZN18QFontDialogOptionsC2Ev@Qt_5 5.0.2
 _ZN18QFontDialogOptionsD1Ev@Qt_5 5.0.2
 _ZN18QFontDialogOptionsD2Ev@Qt_5 5.0.2
 _ZN18QFontDialogOptionsaSERKS_@Qt_5 5.0.2
 _ZN18QOpenGLDebugLogger10initializeEv@Qt_5 5.1.0
 _ZN18QOpenGLDebugLogger10logMessageERK19QOpenGLDebugMessage@Qt_5 5.1.0
 _ZN18QOpenGLDebugLogger11qt_metacallEN11QMetaObject4CallEiPPv@Qt_5 5.1.0
 _ZN18QOpenGLDebugLogger11qt_metacastEPKc@Qt_5 5.1.0
 _ZN18QOpenGLDebugLogger11stopLoggingEv@Qt_5 5.1.0
 _ZN18QOpenGLDebugLogger12startLoggingENS_11LoggingModeE@Qt_5 5.1.0
 _ZN18QOpenGLDebugLogger13messageLoggedERK19QOpenGLDebugMessage@Qt_5 5.1.0
 _ZN18QOpenGLDebugLogger14enableMessagesE6QFlagsIN19QOpenGLDebugMessage6SourceEES0_INS1_4TypeEES0_INS1_8SeverityEE@Qt_5 5.1.0
 _ZN18QOpenGLDebugLogger14enableMessagesERK7QVectorIjE6QFlagsIN19QOpenGLDebugMessage6SourceEES4_INS5_4TypeEE@Qt_5 5.1.0
 _ZN18QOpenGLDebugLogger15disableMessagesE6QFlagsIN19QOpenGLDebugMessage6SourceEES0_INS1_4TypeEES0_INS1_8SeverityEE@Qt_5 5.1.0
 _ZN18QOpenGLDebugLogger15disableMessagesERK7QVectorIjE6QFlagsIN19QOpenGLDebugMessage6SourceEES4_INS5_4TypeEE@Qt_5 5.1.0
 _ZN18QOpenGLDebugLogger16staticMetaObjectE@Qt_5 5.1.0
 _ZN18QOpenGLDebugLogger8popGroupEv@Qt_5 5.1.0
 _ZN18QOpenGLDebugLogger9pushGroupERK7QStringjN19QOpenGLDebugMessage6SourceE@Qt_5 5.1.0
 _ZN18QOpenGLDebugLoggerC1EP7QObject@Qt_5 5.1.0
 _ZN18QOpenGLDebugLoggerC2EP7QObject@Qt_5 5.1.0
 _ZN18QOpenGLDebugLoggerD0Ev@Qt_5 5.1.0
 _ZN18QOpenGLDebugLoggerD1Ev@Qt_5 5.1.0
 _ZN18QOpenGLDebugLoggerD2Ev@Qt_5 5.1.0
 _ZN18QOpenGLPaintDevice15setPaintFlippedEb@Qt_5 5.0.2
 _ZN18QOpenGLPaintDevice16setDotsPerMeterXEd@Qt_5 5.2.0
 _ZN18QOpenGLPaintDevice16setDotsPerMeterYEd@Qt_5 5.2.0
 _ZN18QOpenGLPaintDevice18ensureActiveTargetEv@Qt_5 5.0.2
 _ZN18QOpenGLPaintDevice19setDevicePixelRatioEd@Qt_5 5.2.0
 _ZN18QOpenGLPaintDevice7setSizeERK5QSize@Qt_5 5.0.2
 _ZN18QOpenGLPaintDeviceC1ER25QOpenGLPaintDevicePrivate@Qt_5_PRIVATE_API 5.4.0 1
 _ZN18QOpenGLPaintDeviceC1ERK5QSize@Qt_5 5.0.2
 _ZN18QOpenGLPaintDeviceC1Eii@Qt_5 5.0.2
 _ZN18QOpenGLPaintDeviceC1Ev@Qt_5 5.0.2
 _ZN18QOpenGLPaintDeviceC2ER25QOpenGLPaintDevicePrivate@Qt_5_PRIVATE_API 5.4.0 1
 _ZN18QOpenGLPaintDeviceC2ERK5QSize@Qt_5 5.0.2
 _ZN18QOpenGLPaintDeviceC2Eii@Qt_5 5.0.2
 _ZN18QOpenGLPaintDeviceC2Ev@Qt_5 5.0.2
 _ZN18QOpenGLPaintDeviceD0Ev@Qt_5 5.0.2
 _ZN18QOpenGLPaintDeviceD1Ev@Qt_5 5.0.2
 _ZN18QOpenGLPaintDeviceD2Ev@Qt_5 5.0.2
 (arch=!armel !armhf)_ZN18QOpenGLTimeMonitor11qt_metacallEN11QMetaObject4CallEiPPv@Qt_5 5.1.0
 (arch=!armel !armhf)_ZN18QOpenGLTimeMonitor11qt_metacastEPKc@Qt_5 5.1.0
 (arch=!armel !armhf)_ZN18QOpenGLTimeMonitor12recordSampleEv@Qt_5 5.1.0
 (arch=!armel !armhf)_ZN18QOpenGLTimeMonitor14setSampleCountEi@Qt_5 5.1.0
 (arch=!armel !armhf)_ZN18QOpenGLTimeMonitor16staticMetaObjectE@Qt_5 5.1.0
 (arch=!armel !armhf)_ZN18QOpenGLTimeMonitor5resetEv@Qt_5 5.1.0
 (arch=!armel !armhf)_ZN18QOpenGLTimeMonitor6createEv@Qt_5 5.1.0
 (arch=!armel !armhf)_ZN18QOpenGLTimeMonitor7destroyEv@Qt_5 5.1.0
 (arch=!armel !armhf)_ZN18QOpenGLTimeMonitorC1EP7QObject@Qt_5 5.1.0
 (arch=!armel !armhf)_ZN18QOpenGLTimeMonitorC2EP7QObject@Qt_5 5.1.0
 (arch=!armel !armhf)_ZN18QOpenGLTimeMonitorD0Ev@Qt_5 5.1.0
 (arch=!armel !armhf)_ZN18QOpenGLTimeMonitorD1Ev@Qt_5 5.1.0
 (arch=!armel !armhf)_ZN18QOpenGLTimeMonitorD2Ev@Qt_5 5.1.0
 _ZN18QPaintDeviceWindow10paintEventEP11QPaintEvent@Qt_5 5.4.0
 _ZN18QPaintDeviceWindow11exposeEventEP12QExposeEvent@Qt_5 5.4.0
 _ZN18QPaintDeviceWindow11qt_metacallEN11QMetaObject4CallEiPPv@Qt_5 5.4.0
 _ZN18QPaintDeviceWindow11qt_metacastEPKc@Qt_5 5.4.0
 _ZN18QPaintDeviceWindow16staticMetaObjectE@Qt_5 5.4.0
 _ZN18QPaintDeviceWindow5eventEP6QEvent@Qt_5 5.4.0
 _ZN18QPaintDeviceWindow6updateERK5QRect@Qt_5 5.4.0
 _ZN18QPaintDeviceWindow6updateERK7QRegion@Qt_5 5.4.0
 _ZN18QPaintDeviceWindow6updateEv@Qt_5 5.4.0
 _ZN18QPaintDeviceWindowC1ER25QPaintDeviceWindowPrivateP7QWindow@Qt_5_PRIVATE_API 5.4.0 1
 _ZN18QPaintDeviceWindowC2ER25QPaintDeviceWindowPrivateP7QWindow@Qt_5_PRIVATE_API 5.4.0 1
 _ZN18QPlatformClipboard11emitChangedEN10QClipboard4ModeE@Qt_5 5.0.2
 _ZN18QPlatformClipboard11setMimeDataEP9QMimeDataN10QClipboard4ModeE@Qt_5 5.0.2
 _ZN18QPlatformClipboard8mimeDataEN10QClipboard4ModeE@Qt_5 5.0.2
 _ZN18QPlatformClipboardD0Ev@Qt_5 5.0.2
 _ZN18QPlatformClipboardD1Ev@Qt_5 5.0.2
 _ZN18QPlatformClipboardD2Ev@Qt_5 5.0.2
 _ZN18QRasterPaintEngine10drawBitmapERK7QPointFRK6QImageP9QSpanData@Qt_5_PRIVATE_API 5.0.2 1
 _ZN18QRasterPaintEngine10drawPixmapERK6QRectFRK7QPixmapS2_@Qt_5_PRIVATE_API 5.0.2 1
 _ZN18QRasterPaintEngine10drawPixmapERK7QPointFRK7QPixmap@Qt_5_PRIVATE_API 5.0.2 1
 _ZN18QRasterPaintEngine10drawPointsEPK6QPointi@Qt_5_PRIVATE_API 5.0.2 1
 _ZN18QRasterPaintEngine10drawPointsEPK7QPointFi@Qt_5_PRIVATE_API 5.0.2 1
 _ZN18QRasterPaintEngine10penChangedEv@Qt_5_PRIVATE_API 5.0.2 1
 _ZN18QRasterPaintEngine11alphaPenBltEPKviiiiii@Qt_5_PRIVATE_API 5.0.2 1
 _ZN18QRasterPaintEngine11drawEllipseERK6QRectF@Qt_5_PRIVATE_API 5.0.2 1
 _ZN18QRasterPaintEngine11drawPolygonEPK6QPointiN12QPaintEngine15PolygonDrawModeE@Qt_5_PRIVATE_API 5.0.2 1
 _ZN18QRasterPaintEngine11drawPolygonEPK7QPointFiN12QPaintEngine15PolygonDrawModeE@Qt_5_PRIVATE_API 5.0.2 1
 _ZN18QRasterPaintEngine11fillPolygonEPK7QPointFiN12QPaintEngine15PolygonDrawModeE@Qt_5_PRIVATE_API 5.0.2 1
 _ZN18QRasterPaintEngine11updateBrushERK6QBrush@Qt_5_PRIVATE_API 5.0.2 1
 _ZN18QRasterPaintEngine12brushChangedEv@Qt_5_PRIVATE_API 5.0.2 1
 _ZN18QRasterPaintEngine12drawTextItemERK7QPointFRK9QTextItem@Qt_5_PRIVATE_API 5.0.2 1
 _ZN18QRasterPaintEngine12rasterBufferEv@Qt_5_PRIVATE_API 5.0.2 1
 _ZN18QRasterPaintEngine12updateMatrixERK10QTransform@Qt_5_PRIVATE_API 5.0.2 1
 _ZN18QRasterPaintEngine13releaseBufferEv@Qt_5_PRIVATE_API 5.0.2 1
 _ZN18QRasterPaintEngine14opacityChangedEv@Qt_5_PRIVATE_API 5.0.2 1
 _ZN18QRasterPaintEngine15drawTiledPixmapERK6QRectFRK7QPixmapRK7QPointF@Qt_5_PRIVATE_API 5.0.2 1
 _ZN18QRasterPaintEngine16drawCachedGlyphsEiPKjPK11QFixedPointP11QFontEngine@Qt_5_PRIVATE_API 5.0.2 1
 _ZN18QRasterPaintEngine16transformChangedEv@Qt_5_PRIVATE_API 5.0.2 1
 _ZN18QRasterPaintEngine17updateRasterStateEv@Qt_5_PRIVATE_API 5.0.2 1
 _ZN18QRasterPaintEngine18brushOriginChangedEv@Qt_5_PRIVATE_API 5.0.2 1
 _ZN18QRasterPaintEngine18clipEnabledChangedEv@Qt_5_PRIVATE_API 5.0.2 1
 _ZN18QRasterPaintEngine18drawStaticTextItemEP15QStaticTextItem@Qt_5_PRIVATE_API 5.0.2 1
 _ZN18QRasterPaintEngine18renderHintsChangedEv@Qt_5_PRIVATE_API 5.0.2 1
 _ZN18QRasterPaintEngine19updateOutlineMapperEv@Qt_5_PRIVATE_API 5.0.2 1
 _ZN18QRasterPaintEngine20toNormalizedFillRectERK6QRectF@Qt_5_PRIVATE_API 5.0.2 1
 _ZN18QRasterPaintEngine22compositionModeChangedEv@Qt_5_PRIVATE_API 5.0.2 1
 _ZN18QRasterPaintEngine25setClipRectInDeviceCoordsERK5QRectN2Qt13ClipOperationE@Qt_5_PRIVATE_API 5.0.2 1
 _ZN18QRasterPaintEngine3endEv@Qt_5_PRIVATE_API 5.0.2 1
 _ZN18QRasterPaintEngine4clipERK11QVectorPathN2Qt13ClipOperationE@Qt_5_PRIVATE_API 5.0.2 1
 _ZN18QRasterPaintEngine4clipERK5QRectN2Qt13ClipOperationE@Qt_5_PRIVATE_API 5.0.2 1
 _ZN18QRasterPaintEngine4clipERK7QRegionN2Qt13ClipOperationE@Qt_5_PRIVATE_API 5.0.2 1
 _ZN18QRasterPaintEngine4fillERK11QVectorPathRK6QBrush@Qt_5_PRIVATE_API 5.0.2 1
 _ZN18QRasterPaintEngine4initEv@Qt_5_PRIVATE_API 5.0.2 1
 _ZN18QRasterPaintEngine5beginEP12QPaintDevice@Qt_5_PRIVATE_API 5.0.2 1
 _ZN18QRasterPaintEngine6strokeERK11QVectorPathRK4QPen@Qt_5_PRIVATE_API 5.0.2 1
 _ZN18QRasterPaintEngine8fillPathERK12QPainterPathP9QSpanData@Qt_5_PRIVATE_API 5.0.2 1
 _ZN18QRasterPaintEngine8fillRectERK6QRectFP9QSpanData@Qt_5_PRIVATE_API 5.0.2 1
 _ZN18QRasterPaintEngine8fillRectERK6QRectFRK6QBrush@Qt_5_PRIVATE_API 5.0.2 1
 _ZN18QRasterPaintEngine8fillRectERK6QRectFRK6QColor@Qt_5_PRIVATE_API 5.0.2 1
 _ZN18QRasterPaintEngine8setStateEP13QPainterState@Qt_5_PRIVATE_API 5.0.2 1
 _ZN18QRasterPaintEngine9drawImageERK6QRectFRK6QImageS2_6QFlagsIN2Qt19ImageConversionFlagEE@Qt_5_PRIVATE_API 5.0.2 1
 _ZN18QRasterPaintEngine9drawImageERK7QPointFRK6QImage@Qt_5_PRIVATE_API 5.0.2 1
 _ZN18QRasterPaintEngine9drawLinesEPK5QLinei@Qt_5_PRIVATE_API 5.0.2 1
 _ZN18QRasterPaintEngine9drawLinesEPK6QLineFi@Qt_5_PRIVATE_API 5.0.2 1
 _ZN18QRasterPaintEngine9drawRectsEPK5QRecti@Qt_5_PRIVATE_API 5.0.2 1
 _ZN18QRasterPaintEngine9drawRectsEPK6QRectFi@Qt_5_PRIVATE_API 5.0.2 1
 _ZN18QRasterPaintEngine9updatePenERK4QPen@Qt_5_PRIVATE_API 5.0.2 1
 _ZN18QRasterPaintEngineC1EP12QPaintDevice@Qt_5_PRIVATE_API 5.0.2 1
 _ZN18QRasterPaintEngineC1ER25QRasterPaintEnginePrivateP12QPaintDevice@Qt_5_PRIVATE_API 5.0.2 1
 _ZN18QRasterPaintEngineC2EP12QPaintDevice@Qt_5_PRIVATE_API 5.0.2 1
 _ZN18QRasterPaintEngineC2ER25QRasterPaintEnginePrivateP12QPaintDevice@Qt_5_PRIVATE_API 5.0.2 1
 _ZN18QRasterPaintEngineD0Ev@Qt_5_PRIVATE_API 5.0.2 1
 _ZN18QRasterPaintEngineD1Ev@Qt_5_PRIVATE_API 5.0.2 1
 _ZN18QRasterPaintEngineD2Ev@Qt_5_PRIVATE_API 5.0.2 1
 _ZN18QStandardItemModel10insertRowsEiiRK11QModelIndex@Qt_5 5.0.2
 _ZN18QStandardItemModel10removeRowsEiiRK11QModelIndex@Qt_5 5.0.2
 _ZN18QStandardItemModel10takeColumnEi@Qt_5 5.0.2
 _ZN18QStandardItemModel11itemChangedEP13QStandardItem@Qt_5 5.0.2
 _ZN18QStandardItemModel11qt_metacallEN11QMetaObject4CallEiPPv@Qt_5 5.0.2
 _ZN18QStandardItemModel11qt_metacastEPKc@Qt_5 5.0.2
 _ZN18QStandardItemModel11setItemDataERK11QModelIndexRK4QMapIi8QVariantE@Qt_5 5.0.2
 _ZN18QStandardItemModel11setRowCountEi@Qt_5 5.0.2
 _ZN18QStandardItemModel11setSortRoleEi@Qt_5 5.0.2
 _ZN18QStandardItemModel12appendColumnERK5QListIP13QStandardItemE@Qt_5 5.0.2
 _ZN18QStandardItemModel12dropMimeDataEPK9QMimeDataN2Qt10DropActionEiiRK11QModelIndex@Qt_5 5.0.2
 _ZN18QStandardItemModel12insertColumnEiRK5QListIP13QStandardItemE@Qt_5 5.0.2
 _ZN18QStandardItemModel13insertColumnsEiiRK11QModelIndex@Qt_5 5.0.2
 _ZN18QStandardItemModel13removeColumnsEiiRK11QModelIndex@Qt_5 5.0.2
 _ZN18QStandardItemModel13setHeaderDataEiN2Qt11OrientationERK8QVarianti@Qt_5 5.0.2
 _ZN18QStandardItemModel14setColumnCountEi@Qt_5 5.0.2
 _ZN18QStandardItemModel16setItemPrototypeEPK13QStandardItem@Qt_5 5.0.2
 _ZN18QStandardItemModel16setItemRoleNamesERK5QHashIi10QByteArrayE@Qt_5 5.0.2
 _ZN18QStandardItemModel16staticMetaObjectE@Qt_5 5.0.2
 _ZN18QStandardItemModel21setVerticalHeaderItemEiP13QStandardItem@Qt_5 5.0.2
 _ZN18QStandardItemModel22takeVerticalHeaderItemEi@Qt_5 5.0.2
 _ZN18QStandardItemModel23setHorizontalHeaderItemEiP13QStandardItem@Qt_5 5.0.2
 _ZN18QStandardItemModel23setVerticalHeaderLabelsERK11QStringList@Qt_5 5.0.2
 _ZN18QStandardItemModel24takeHorizontalHeaderItemEi@Qt_5 5.0.2
 _ZN18QStandardItemModel25setHorizontalHeaderLabelsERK11QStringList@Qt_5 5.0.2
 _ZN18QStandardItemModel4sortEiN2Qt9SortOrderE@Qt_5 5.0.2
 _ZN18QStandardItemModel5clearEv@Qt_5 5.0.2
 _ZN18QStandardItemModel7setDataERK11QModelIndexRK8QVarianti@Qt_5 5.0.2
 _ZN18QStandardItemModel7setItemEiiP13QStandardItem@Qt_5 5.0.2
 _ZN18QStandardItemModel7takeRowEi@Qt_5 5.0.2
 _ZN18QStandardItemModel8takeItemEii@Qt_5 5.0.2
 _ZN18QStandardItemModel9appendRowERK5QListIP13QStandardItemE@Qt_5 5.0.2
 _ZN18QStandardItemModel9insertRowEiRK5QListIP13QStandardItemE@Qt_5 5.0.2
 _ZN18QStandardItemModelC1EP7QObject@Qt_5 5.0.2
 _ZN18QStandardItemModelC1ER25QStandardItemModelPrivateP7QObject@Qt_5 5.0.2
 _ZN18QStandardItemModelC1EiiP7QObject@Qt_5 5.0.2
 _ZN18QStandardItemModelC2EP7QObject@Qt_5 5.0.2
 _ZN18QStandardItemModelC2ER25QStandardItemModelPrivateP7QObject@Qt_5 5.0.2
 _ZN18QStandardItemModelC2EiiP7QObject@Qt_5 5.0.2
 _ZN18QStandardItemModelD0Ev@Qt_5 5.0.2
 _ZN18QStandardItemModelD1Ev@Qt_5 5.0.2
 _ZN18QStandardItemModelD2Ev@Qt_5 5.0.2
 _ZN18QSyntaxHighlighter11qt_metacallEN11QMetaObject4CallEiPPv@Qt_5 5.0.2
 _ZN18QSyntaxHighlighter11qt_metacastEPKc@Qt_5 5.0.2
 _ZN18QSyntaxHighlighter11rehighlightEv@Qt_5 5.0.2
 _ZN18QSyntaxHighlighter11setDocumentEP13QTextDocument@Qt_5 5.0.2
 _ZN18QSyntaxHighlighter16rehighlightBlockERK10QTextBlock@Qt_5 5.0.2
 _ZN18QSyntaxHighlighter16staticMetaObjectE@Qt_5 5.0.2
 _ZN18QSyntaxHighlighter20setCurrentBlockStateEi@Qt_5 5.0.2
 _ZN18QSyntaxHighlighter23setCurrentBlockUserDataEP18QTextBlockUserData@Qt_5 5.0.2
 _ZN18QSyntaxHighlighter9setFormatEiiRK15QTextCharFormat@Qt_5 5.0.2
 _ZN18QSyntaxHighlighter9setFormatEiiRK5QFont@Qt_5 5.0.2
 _ZN18QSyntaxHighlighter9setFormatEiiRK6QColor@Qt_5 5.0.2
 _ZN18QSyntaxHighlighterC1EP13QTextDocument@Qt_5 5.0.2
 _ZN18QSyntaxHighlighterC1EP7QObject@Qt_5 5.0.2
 _ZN18QSyntaxHighlighterC2EP13QTextDocument@Qt_5 5.0.2
 _ZN18QSyntaxHighlighterC2EP7QObject@Qt_5 5.0.2
 _ZN18QSyntaxHighlighterD0Ev@Qt_5 5.0.2
 _ZN18QSyntaxHighlighterD1Ev@Qt_5 5.0.2
 _ZN18QSyntaxHighlighterD2Ev@Qt_5 5.0.2
 _ZN18QTextBlockUserDataD0Ev@Qt_5 5.0.2
 _ZN18QTextBlockUserDataD1Ev@Qt_5 5.0.2
 _ZN18QTextBlockUserDataD2Ev@Qt_5 5.0.2
 _ZN18QTextCursorPrivate10clearCellsEP10QTextTableiiiiN16QTextUndoCommand9OperationE@Qt_5_PRIVATE_API 5.0.2 1
 _ZN18QTextCursorPrivate11insertBlockERK16QTextBlockFormatRK15QTextCharFormat@Qt_5_PRIVATE_API 5.0.2 1
 _ZN18QTextCursorPrivate12adjustCursorEN11QTextCursor13MoveOperationE@Qt_5_PRIVATE_API 5.0.2 1
 _ZN18QTextCursorPrivate12movePositionEN11QTextCursor13MoveOperationENS0_8MoveModeE@Qt_5_PRIVATE_API 5.0.2 1
 _ZN18QTextCursorPrivate13setCharFormatERK15QTextCharFormatN20QTextDocumentPrivate16FormatChangeModeE@Qt_5_PRIVATE_API 5.0.2 1
 _ZN18QTextCursorPrivate14adjustPositionEiiN16QTextUndoCommand9OperationE@Qt_5_PRIVATE_API 5.0.2 1
 _ZN18QTextCursorPrivate14setBlockFormatERK16QTextBlockFormatN20QTextDocumentPrivate16FormatChangeModeE@Qt_5_PRIVATE_API 5.0.2 1
 _ZN18QTextCursorPrivate17aboutToRemoveCellEii@Qt_5_PRIVATE_API 5.0.2 1
 _ZN18QTextCursorPrivate18setBlockCharFormatERK15QTextCharFormatN20QTextDocumentPrivate16FormatChangeModeE@Qt_5_PRIVATE_API 5.0.2 1
 _ZN18QTextCursorPrivate4setXEv@Qt_5_PRIVATE_API 5.0.2 1
 _ZN18QTextCursorPrivate6removeEv@Qt_5_PRIVATE_API 5.0.2 1
 _ZN18QTextCursorPrivateC1EP20QTextDocumentPrivate@Qt_5_PRIVATE_API 5.0.2 1
 _ZN18QTextCursorPrivateC1ERKS_@Qt_5_PRIVATE_API 5.0.2 1
 _ZN18QTextCursorPrivateC2EP20QTextDocumentPrivate@Qt_5_PRIVATE_API 5.0.2 1
 _ZN18QTextCursorPrivateC2ERKS_@Qt_5_PRIVATE_API 5.0.2 1
 _ZN18QTextCursorPrivateD1Ev@Qt_5_PRIVATE_API 5.0.2 1
 _ZN18QTextCursorPrivateD2Ev@Qt_5_PRIVATE_API 5.0.2 1
 _ZN18QTextureGlyphCache19fillInPendingGlyphsEv@Qt_5_PRIVATE_API 5.0.2 1
 _ZN18QTextureGlyphCache8populateEP11QFontEngineiPKjPK11QFixedPoint@Qt_5_PRIVATE_API 5.0.2 1
 _ZN18QTextureGlyphCacheD0Ev@Qt_5_PRIVATE_API 5.6.0~beta 1
 _ZN18QTextureGlyphCacheD1Ev@Qt_5_PRIVATE_API 5.6.0~beta 1
 _ZN18QTextureGlyphCacheD2Ev@Qt_5_PRIVATE_API 5.6.0~beta 1
 _ZN19QBlitterPaintEngine10drawPixmapERK6QRectFRK7QPixmapS2_@Qt_5_PRIVATE_API 5.0.2 1
 _ZN19QBlitterPaintEngine10drawPixmapERK7QPointFRK7QPixmap@Qt_5_PRIVATE_API 5.0.2 1
 _ZN19QBlitterPaintEngine10drawPointsEPK6QPointi@Qt_5_PRIVATE_API 5.0.2 1
 _ZN19QBlitterPaintEngine10drawPointsEPK7QPointFi@Qt_5_PRIVATE_API 5.0.2 1
 _ZN19QBlitterPaintEngine10penChangedEv@Qt_5_PRIVATE_API 5.0.2 1
 _ZN19QBlitterPaintEngine11drawEllipseERK6QRectF@Qt_5_PRIVATE_API 5.0.2 1
 _ZN19QBlitterPaintEngine11drawPolygonEPK6QPointiN12QPaintEngine15PolygonDrawModeE@Qt_5_PRIVATE_API 5.0.2 1
 _ZN19QBlitterPaintEngine11drawPolygonEPK7QPointFiN12QPaintEngine15PolygonDrawModeE@Qt_5_PRIVATE_API 5.0.2 1
 _ZN19QBlitterPaintEngine11fillPolygonEPK7QPointFiN12QPaintEngine15PolygonDrawModeE@Qt_5_PRIVATE_API 5.0.2 1
 _ZN19QBlitterPaintEngine12brushChangedEv@Qt_5_PRIVATE_API 5.0.2 1
 _ZN19QBlitterPaintEngine12drawTextItemERK7QPointFRK9QTextItem@Qt_5_PRIVATE_API 5.0.2 1
 _ZN19QBlitterPaintEngine14opacityChangedEv@Qt_5_PRIVATE_API 5.0.2 1
 _ZN19QBlitterPaintEngine15drawTiledPixmapERK6QRectFRK7QPixmapRK7QPointF@Qt_5_PRIVATE_API 5.0.2 1
 _ZN19QBlitterPaintEngine16drawCachedGlyphsEiPKjPK11QFixedPointP11QFontEngine@Qt_5_PRIVATE_API 5.4.0 1
 _ZN19QBlitterPaintEngine16transformChangedEv@Qt_5_PRIVATE_API 5.0.2 1
 _ZN19QBlitterPaintEngine18clipEnabledChangedEv@Qt_5_PRIVATE_API 5.0.2 1
 _ZN19QBlitterPaintEngine18drawStaticTextItemEP15QStaticTextItem@Qt_5_PRIVATE_API 5.0.2 1
 _ZN19QBlitterPaintEngine18renderHintsChangedEv@Qt_5_PRIVATE_API 5.0.2 1
 _ZN19QBlitterPaintEngine22compositionModeChangedEv@Qt_5_PRIVATE_API 5.0.2 1
 _ZN19QBlitterPaintEngine3endEv@Qt_5_PRIVATE_API 5.0.2 1
 _ZN19QBlitterPaintEngine4fillERK11QVectorPathRK6QBrush@Qt_5_PRIVATE_API 5.0.2 1
 _ZN19QBlitterPaintEngine5beginEP12QPaintDevice@Qt_5_PRIVATE_API 5.0.2 1
 _ZN19QBlitterPaintEngine6strokeERK11QVectorPathRK4QPen@Qt_5_PRIVATE_API 5.0.2 1
 _ZN19QBlitterPaintEngine8fillPathERK12QPainterPathP9QSpanData@Qt_5_PRIVATE_API 5.0.2 1
 _ZN19QBlitterPaintEngine8fillRectERK6QRectFRK6QBrush@Qt_5_PRIVATE_API 5.0.2 1
 _ZN19QBlitterPaintEngine8fillRectERK6QRectFRK6QColor@Qt_5_PRIVATE_API 5.0.2 1
 _ZN19QBlitterPaintEngine8setStateEP13QPainterState@Qt_5_PRIVATE_API 5.0.2 1
 _ZN19QBlitterPaintEngine9drawImageERK6QRectFRK6QImageS2_6QFlagsIN2Qt19ImageConversionFlagEE@Qt_5_PRIVATE_API 5.0.2 1
 _ZN19QBlitterPaintEngine9drawImageERK7QPointFRK6QImage@Qt_5_PRIVATE_API 5.0.2 1
 _ZN19QBlitterPaintEngine9drawRectsEPK5QRecti@Qt_5_PRIVATE_API 5.0.2 1
 _ZN19QBlitterPaintEngine9drawRectsEPK6QRectFi@Qt_5_PRIVATE_API 5.0.2 1
 _ZN19QBlitterPaintEngineC1EP24QBlittablePlatformPixmap@Qt_5_PRIVATE_API 5.0.2 1
 _ZN19QBlitterPaintEngineC2EP24QBlittablePlatformPixmap@Qt_5_PRIVATE_API 5.0.2 1
 _ZN19QColorDialogOptions10setOptionsE6QFlagsINS_17ColorDialogOptionEE@Qt_5 5.0.2
 _ZN19QColorDialogOptions11customColorEi@Qt_5 5.0.2
 _ZN19QColorDialogOptions12customColorsEv@Qt_5 5.0.2
 _ZN19QColorDialogOptions13standardColorEi@Qt_5 5.0.2
 _ZN19QColorDialogOptions14setCustomColorEij@Qt_5 5.0.2
 _ZN19QColorDialogOptions14setWindowTitleERK7QString@Qt_5 5.0.2
 _ZN19QColorDialogOptions14standardColorsEv@Qt_5 5.0.2
 _ZN19QColorDialogOptions16customColorCountEv@Qt_5 5.0.2
 _ZN19QColorDialogOptions16setStandardColorEij@Qt_5 5.0.2
 _ZN19QColorDialogOptions16staticMetaObjectE@Qt_5 5.6.0~beta
 _ZN19QColorDialogOptions9setOptionENS_17ColorDialogOptionEb@Qt_5 5.0.2
 _ZN19QColorDialogOptionsC1ERKS_@Qt_5 5.0.2
 _ZN19QColorDialogOptionsC1Ev@Qt_5 5.0.2
 _ZN19QColorDialogOptionsC2ERKS_@Qt_5 5.0.2
 _ZN19QColorDialogOptionsC2Ev@Qt_5 5.0.2
 _ZN19QColorDialogOptionsD1Ev@Qt_5 5.0.2
 _ZN19QColorDialogOptionsD2Ev@Qt_5 5.0.2
 _ZN19QColorDialogOptionsaSERKS_@Qt_5 5.0.2
 _ZN19QInputDeviceManager11qt_metacallEN11QMetaObject4CallEiPPv@Qt_5_PRIVATE_API 5.5.0 1
 _ZN19QInputDeviceManager11qt_metacastEPKc@Qt_5_PRIVATE_API 5.5.0 1
 _ZN19QInputDeviceManager12setCursorPosERK6QPoint@Qt_5_PRIVATE_API 5.5.0 1
 _ZN19QInputDeviceManager16staticMetaObjectE@Qt_5_PRIVATE_API 5.5.0 1
 _ZN19QInputDeviceManager17deviceListChangedENS_10DeviceTypeE@Qt_5_PRIVATE_API 5.5.0 1
 _ZN19QInputDeviceManager29cursorPositionChangeRequestedERK6QPoint@Qt_5_PRIVATE_API 5.5.0 1
 _ZN19QInputDeviceManagerC1EP7QObject@Qt_5_PRIVATE_API 5.5.0 1
 _ZN19QInputDeviceManagerC2EP7QObject@Qt_5_PRIVATE_API 5.5.0 1
 _ZN19QKeySequencePrivate7keyNameEiN12QKeySequence14SequenceFormatE@Qt_5 5.6.1
 _ZN19QNativeGestureEventC1EN2Qt17NativeGestureTypeERK7QPointFS4_S4_dmy@Qt_5 5.2.0~beta1
 _ZN19QNativeGestureEventC2EN2Qt17NativeGestureTypeERK7QPointFS4_S4_dmy@Qt_5 5.2.0~beta1
 _ZN19QOpenGLContextGroup11qt_metacallEN11QMetaObject4CallEiPPv@Qt_5 5.0.2
 _ZN19QOpenGLContextGroup11qt_metacastEPKc@Qt_5 5.0.2
 _ZN19QOpenGLContextGroup16staticMetaObjectE@Qt_5 5.0.2
 _ZN19QOpenGLContextGroup19currentContextGroupEv@Qt_5 5.0.2
 _ZN19QOpenGLContextGroupC1Ev@Qt_5 5.0.2
 _ZN19QOpenGLContextGroupC2Ev@Qt_5 5.0.2
 _ZN19QOpenGLContextGroupD0Ev@Qt_5 5.0.2
 _ZN19QOpenGLContextGroupD1Ev@Qt_5 5.0.2
 _ZN19QOpenGLContextGroupD2Ev@Qt_5 5.0.2
 _ZN19QOpenGLDebugMessage23createThirdPartyMessageERK7QStringjNS_8SeverityENS_4TypeE@Qt_5 5.1.0
 _ZN19QOpenGLDebugMessage24createApplicationMessageERK7QStringjNS_8SeverityENS_4TypeE@Qt_5 5.1.0
 _ZN19QOpenGLDebugMessageC1ERKS_@Qt_5 5.1.0
 _ZN19QOpenGLDebugMessageC1Ev@Qt_5 5.1.0
 _ZN19QOpenGLDebugMessageC2ERKS_@Qt_5 5.1.0
 _ZN19QOpenGLDebugMessageC2Ev@Qt_5 5.1.0
 _ZN19QOpenGLDebugMessageD1Ev@Qt_5 5.1.0
 _ZN19QOpenGLDebugMessageD2Ev@Qt_5 5.1.0
 _ZN19QOpenGLDebugMessageaSERKS_@Qt_5 5.1.0
 _ZN19QOpenGLTextureCache10invalidateEx@Qt_5_PRIVATE_API 5.0.2 1
 _ZN19QOpenGLTextureCache11bindTextureEP14QOpenGLContextRK6QImage6QFlagsINS_10BindOptionEE@Qt_5_PRIVATE_API 5.4.0 1
 _ZN19QOpenGLTextureCache11bindTextureEP14QOpenGLContextRK7QPixmap6QFlagsINS_10BindOptionEE@Qt_5_PRIVATE_API 5.4.0 1
 _ZN19QOpenGLTextureCache11bindTextureEP14QOpenGLContextxRK6QImage6QFlagsINS_10BindOptionEE@Qt_5_PRIVATE_API 5.4.0 1
 _ZN19QOpenGLTextureCache12freeResourceEP14QOpenGLContext@Qt_5_PRIVATE_API 5.0.2 1
 _ZN19QOpenGLTextureCache15cacheForContextEP14QOpenGLContext@Qt_5_PRIVATE_API 5.0.2 1
 _ZN19QOpenGLTextureCache18invalidateResourceEv@Qt_5_PRIVATE_API 5.0.2 1
 _ZN19QOpenGLTextureCacheC1EP14QOpenGLContext@Qt_5_PRIVATE_API 5.2.0~rc1 1
 _ZN19QOpenGLTextureCacheC2EP14QOpenGLContext@Qt_5_PRIVATE_API 5.2.0~rc1 1
 _ZN19QOpenGLTextureCacheD0Ev@Qt_5_PRIVATE_API 5.0.2 1
 _ZN19QOpenGLTextureCacheD1Ev@Qt_5_PRIVATE_API 5.0.2 1
 _ZN19QOpenGLTextureCacheD2Ev@Qt_5_PRIVATE_API 5.0.2 1
 _ZN19QPaintEnginePrivate15drawBoxTextItemERK7QPointFRK12QTextItemInt@Qt_5_PRIVATE_API 5.0.2 1
 _ZN19QPaintEnginePrivateD0Ev@Qt_5_PRIVATE_API 5.6.0~beta 1
 _ZN19QPaintEnginePrivateD1Ev@Qt_5_PRIVATE_API 5.6.0~beta 1
 _ZN19QPaintEnginePrivateD2Ev@Qt_5_PRIVATE_API 5.6.0~beta 1
 _ZN19QPainterPathStroker11setCapStyleEN2Qt11PenCapStyleE@Qt_5 5.0.2
 _ZN19QPainterPathStroker12setJoinStyleEN2Qt12PenJoinStyleE@Qt_5 5.0.2
 _ZN19QPainterPathStroker13setDashOffsetEd@Qt_5 5.2.0
 _ZN19QPainterPathStroker13setMiterLimitEd@Qt_5 5.2.0
 _ZN19QPainterPathStroker14setDashPatternEN2Qt8PenStyleE@Qt_5 5.0.2
 _ZN19QPainterPathStroker14setDashPatternERK7QVectorIdE@Qt_5 5.2.0
 _ZN19QPainterPathStroker17setCurveThresholdEd@Qt_5 5.2.0
 _ZN19QPainterPathStroker8setWidthEd@Qt_5 5.2.0
 _ZN19QPainterPathStrokerC1ERK4QPen@Qt_5 5.3.0
 _ZN19QPainterPathStrokerC1Ev@Qt_5 5.0.2
 _ZN19QPainterPathStrokerC2ERK4QPen@Qt_5 5.3.0
 _ZN19QPainterPathStrokerC2Ev@Qt_5 5.0.2
 _ZN19QPainterPathStrokerD1Ev@Qt_5 5.0.2
 _ZN19QPainterPathStrokerD2Ev@Qt_5 5.0.2
 _ZN19QScrollPrepareEvent13setContentPosERK7QPointF@Qt_5 5.0.2
 _ZN19QScrollPrepareEvent15setViewportSizeERK6QSizeF@Qt_5 5.0.2
 _ZN19QScrollPrepareEvent18setContentPosRangeERK6QRectF@Qt_5 5.0.2
 _ZN19QScrollPrepareEventC1ERK7QPointF@Qt_5 5.0.2
 _ZN19QScrollPrepareEventC2ERK7QPointF@Qt_5 5.0.2
 _ZN19QScrollPrepareEventD0Ev@Qt_5 5.0.2
 _ZN19QScrollPrepareEventD1Ev@Qt_5 5.0.2
 _ZN19QScrollPrepareEventD2Ev@Qt_5 5.0.2
 _ZN19QStaticTextUserDataD0Ev@Qt_5_PRIVATE_API 5.6.0~beta 1
 _ZN19QStaticTextUserDataD1Ev@Qt_5_PRIVATE_API 5.6.0~beta 1
 _ZN19QStaticTextUserDataD2Ev@Qt_5_PRIVATE_API 5.6.0~beta 1
 _ZN19QTextDocumentLayout10timerEventEP11QTimerEvent@Qt_5_PRIVATE_API 5.0.2 1
 _ZN19QTextDocumentLayout11qt_metacallEN11QMetaObject4CallEiPPv@Qt_5_PRIVATE_API 5.0.2 1
 _ZN19QTextDocumentLayout11qt_metacastEPKc@Qt_5_PRIVATE_API 5.0.2 1
 _ZN19QTextDocumentLayout11setViewportERK6QRectF@Qt_5_PRIVATE_API 5.0.2 1
 _ZN19QTextDocumentLayout14ensureLayoutedEd@Qt_5_PRIVATE_API 5.2.0 1
 _ZN19QTextDocumentLayout14layoutFinishedEv@Qt_5_PRIVATE_API 5.0.2 1
 _ZN19QTextDocumentLayout14setCursorWidthEi@Qt_5_PRIVATE_API 5.0.2 1
 _ZN19QTextDocumentLayout15documentChangedEiii@Qt_5_PRIVATE_API 5.0.2 1
 _ZN19QTextDocumentLayout16drawInlineObjectEP8QPainterRK6QRectF17QTextInlineObjectiRK11QTextFormat@Qt_5_PRIVATE_API 5.0.2 1
 _ZN19QTextDocumentLayout16staticMetaObjectE@Qt_5_PRIVATE_API 5.0.2 1
 _ZN19QTextDocumentLayout18resizeInlineObjectE17QTextInlineObjectiRK11QTextFormat@Qt_5_PRIVATE_API 5.0.2 1
 _ZN19QTextDocumentLayout19setFixedColumnWidthEi@Qt_5_PRIVATE_API 5.0.2 1
 _ZN19QTextDocumentLayout20positionInlineObjectE17QTextInlineObjectiRK11QTextFormat@Qt_5_PRIVATE_API 5.0.2 1
 _ZN19QTextDocumentLayout4drawEP8QPainterRKN27QAbstractTextDocumentLayout12PaintContextE@Qt_5_PRIVATE_API 5.0.2 1
 _ZN19QTextDocumentLayout8doLayoutEiii@Qt_5_PRIVATE_API 5.0.2 1
 _ZN19QTextDocumentLayoutC1EP13QTextDocument@Qt_5_PRIVATE_API 5.0.2 1
 _ZN19QTextDocumentLayoutC2EP13QTextDocument@Qt_5_PRIVATE_API 5.0.2 1
 _ZN19QTextDocumentWriter11setFileNameERK7QString@Qt_5 5.0.2
 _ZN19QTextDocumentWriter24supportedDocumentFormatsEv@Qt_5 5.0.2
 _ZN19QTextDocumentWriter5writeEPK13QTextDocument@Qt_5 5.0.2
 _ZN19QTextDocumentWriter5writeERK21QTextDocumentFragment@Qt_5 5.0.2
 _ZN19QTextDocumentWriter8setCodecEP10QTextCodec@Qt_5 5.0.2
 _ZN19QTextDocumentWriter9setDeviceEP9QIODevice@Qt_5 5.0.2
 _ZN19QTextDocumentWriter9setFormatERK10QByteArray@Qt_5 5.0.2
 _ZN19QTextDocumentWriterC1EP9QIODeviceRK10QByteArray@Qt_5 5.0.2
 _ZN19QTextDocumentWriterC1ERK7QStringRK10QByteArray@Qt_5 5.0.2
 _ZN19QTextDocumentWriterC1Ev@Qt_5 5.0.2
 _ZN19QTextDocumentWriterC2EP9QIODeviceRK10QByteArray@Qt_5 5.0.2
 _ZN19QTextDocumentWriterC2ERK7QStringRK10QByteArray@Qt_5 5.0.2
 _ZN19QTextDocumentWriterC2Ev@Qt_5 5.0.2
 _ZN19QTextDocumentWriterD1Ev@Qt_5 5.0.2
 _ZN19QTextDocumentWriterD2Ev@Qt_5 5.0.2
 _ZN19QToolBarChangeEventC1Eb@Qt_5 5.0.2
 _ZN19QToolBarChangeEventC2Eb@Qt_5 5.0.2
 _ZN19QToolBarChangeEventD0Ev@Qt_5 5.0.2
 _ZN19QToolBarChangeEventD1Ev@Qt_5 5.0.2
 _ZN19QToolBarChangeEventD2Ev@Qt_5 5.0.2
 _ZN20QAccessibleInterface12virtual_hookEiPv@Qt_5 5.0.2
 _ZN20QAccessibleInterfaceD0Ev@Qt_5 5.1.0
 _ZN20QAccessibleInterfaceD1Ev@Qt_5 5.1.0
 _ZN20QAccessibleInterfaceD2Ev@Qt_5 5.1.0
 (arch=!armel !armhf)_ZN20QOpenGLFunctions_1_014versionProfileEv@Qt_5 5.1.0
 (arch=!armel !armhf)_ZN20QOpenGLFunctions_1_019isContextCompatibleEP14QOpenGLContext@Qt_5 5.1.0
 (arch=!armel !armhf)_ZN20QOpenGLFunctions_1_025initializeOpenGLFunctionsEv@Qt_5 5.1.0
 (arch=!armel !armhf)_ZN20QOpenGLFunctions_1_0C1Ev@Qt_5 5.1.0
 (arch=!armel !armhf)_ZN20QOpenGLFunctions_1_0C2Ev@Qt_5 5.1.0
 (arch=!armel !armhf)_ZN20QOpenGLFunctions_1_0D0Ev@Qt_5 5.1.0
 (arch=!armel !armhf)_ZN20QOpenGLFunctions_1_0D1Ev@Qt_5 5.1.0
 (arch=!armel !armhf)_ZN20QOpenGLFunctions_1_0D2Ev@Qt_5 5.1.0
 (arch=!armel !armhf)_ZN20QOpenGLFunctions_1_114versionProfileEv@Qt_5 5.1.0
 (arch=!armel !armhf)_ZN20QOpenGLFunctions_1_119isContextCompatibleEP14QOpenGLContext@Qt_5 5.1.0
 (arch=!armel !armhf)_ZN20QOpenGLFunctions_1_125initializeOpenGLFunctionsEv@Qt_5 5.1.0
 (arch=!armel !armhf)_ZN20QOpenGLFunctions_1_1C1Ev@Qt_5 5.1.0
 (arch=!armel !armhf)_ZN20QOpenGLFunctions_1_1C2Ev@Qt_5 5.1.0
 (arch=!armel !armhf)_ZN20QOpenGLFunctions_1_1D0Ev@Qt_5 5.1.0
 (arch=!armel !armhf)_ZN20QOpenGLFunctions_1_1D1Ev@Qt_5 5.1.0
 (arch=!armel !armhf)_ZN20QOpenGLFunctions_1_1D2Ev@Qt_5 5.1.0
 (arch=!armel !armhf)_ZN20QOpenGLFunctions_1_214versionProfileEv@Qt_5 5.1.0
 (arch=!armel !armhf)_ZN20QOpenGLFunctions_1_219isContextCompatibleEP14QOpenGLContext@Qt_5 5.1.0
 (arch=!armel !armhf)_ZN20QOpenGLFunctions_1_225initializeOpenGLFunctionsEv@Qt_5 5.1.0
 (arch=!armel !armhf)_ZN20QOpenGLFunctions_1_2C1Ev@Qt_5 5.1.0
 (arch=!armel !armhf)_ZN20QOpenGLFunctions_1_2C2Ev@Qt_5 5.1.0
 (arch=!armel !armhf)_ZN20QOpenGLFunctions_1_2D0Ev@Qt_5 5.1.0
 (arch=!armel !armhf)_ZN20QOpenGLFunctions_1_2D1Ev@Qt_5 5.1.0
 (arch=!armel !armhf)_ZN20QOpenGLFunctions_1_2D2Ev@Qt_5 5.1.0
 (arch=!armel !armhf)_ZN20QOpenGLFunctions_1_314versionProfileEv@Qt_5 5.1.0
 (arch=!armel !armhf)_ZN20QOpenGLFunctions_1_319isContextCompatibleEP14QOpenGLContext@Qt_5 5.1.0
 (arch=!armel !armhf)_ZN20QOpenGLFunctions_1_325initializeOpenGLFunctionsEv@Qt_5 5.1.0
 (arch=!armel !armhf)_ZN20QOpenGLFunctions_1_3C1Ev@Qt_5 5.1.0
 (arch=!armel !armhf)_ZN20QOpenGLFunctions_1_3C2Ev@Qt_5 5.1.0
 (arch=!armel !armhf)_ZN20QOpenGLFunctions_1_3D0Ev@Qt_5 5.1.0
 (arch=!armel !armhf)_ZN20QOpenGLFunctions_1_3D1Ev@Qt_5 5.1.0
 (arch=!armel !armhf)_ZN20QOpenGLFunctions_1_3D2Ev@Qt_5 5.1.0
 (arch=!armel !armhf)_ZN20QOpenGLFunctions_1_414versionProfileEv@Qt_5 5.1.0
 (arch=!armel !armhf)_ZN20QOpenGLFunctions_1_419isContextCompatibleEP14QOpenGLContext@Qt_5 5.1.0
 (arch=!armel !armhf)_ZN20QOpenGLFunctions_1_425initializeOpenGLFunctionsEv@Qt_5 5.1.0
 (arch=!armel !armhf)_ZN20QOpenGLFunctions_1_4C1Ev@Qt_5 5.1.0
 (arch=!armel !armhf)_ZN20QOpenGLFunctions_1_4C2Ev@Qt_5 5.1.0
 (arch=!armel !armhf)_ZN20QOpenGLFunctions_1_4D0Ev@Qt_5 5.1.0
 (arch=!armel !armhf)_ZN20QOpenGLFunctions_1_4D1Ev@Qt_5 5.1.0
 (arch=!armel !armhf)_ZN20QOpenGLFunctions_1_4D2Ev@Qt_5 5.1.0
 (arch=!armel !armhf)_ZN20QOpenGLFunctions_1_514versionProfileEv@Qt_5 5.1.0
 (arch=!armel !armhf)_ZN20QOpenGLFunctions_1_519isContextCompatibleEP14QOpenGLContext@Qt_5 5.1.0
 (arch=!armel !armhf)_ZN20QOpenGLFunctions_1_525initializeOpenGLFunctionsEv@Qt_5 5.1.0
 (arch=!armel !armhf)_ZN20QOpenGLFunctions_1_5C1Ev@Qt_5 5.1.0
 (arch=!armel !armhf)_ZN20QOpenGLFunctions_1_5C2Ev@Qt_5 5.1.0
 (arch=!armel !armhf)_ZN20QOpenGLFunctions_1_5D0Ev@Qt_5 5.1.0
 (arch=!armel !armhf)_ZN20QOpenGLFunctions_1_5D1Ev@Qt_5 5.1.0
 (arch=!armel !armhf)_ZN20QOpenGLFunctions_1_5D2Ev@Qt_5 5.1.0
 (arch=!armel !armhf)_ZN20QOpenGLFunctions_2_014versionProfileEv@Qt_5 5.1.0
 (arch=!armel !armhf)_ZN20QOpenGLFunctions_2_019isContextCompatibleEP14QOpenGLContext@Qt_5 5.1.0
 (arch=!armel !armhf)_ZN20QOpenGLFunctions_2_025initializeOpenGLFunctionsEv@Qt_5 5.1.0
 (arch=!armel !armhf)_ZN20QOpenGLFunctions_2_0C1Ev@Qt_5 5.1.0
 (arch=!armel !armhf)_ZN20QOpenGLFunctions_2_0C2Ev@Qt_5 5.1.0
 (arch=!armel !armhf)_ZN20QOpenGLFunctions_2_0D0Ev@Qt_5 5.1.0
 (arch=!armel !armhf)_ZN20QOpenGLFunctions_2_0D1Ev@Qt_5 5.1.0
 (arch=!armel !armhf)_ZN20QOpenGLFunctions_2_0D2Ev@Qt_5 5.1.0
 (arch=!armel !armhf)_ZN20QOpenGLFunctions_2_114versionProfileEv@Qt_5 5.1.0
 (arch=!armel !armhf)_ZN20QOpenGLFunctions_2_119isContextCompatibleEP14QOpenGLContext@Qt_5 5.1.0
 (arch=!armel !armhf)_ZN20QOpenGLFunctions_2_125initializeOpenGLFunctionsEv@Qt_5 5.1.0
 (arch=!armel !armhf)_ZN20QOpenGLFunctions_2_1C1Ev@Qt_5 5.1.0
 (arch=!armel !armhf)_ZN20QOpenGLFunctions_2_1C2Ev@Qt_5 5.1.0
 (arch=!armel !armhf)_ZN20QOpenGLFunctions_2_1D0Ev@Qt_5 5.1.0
 (arch=!armel !armhf)_ZN20QOpenGLFunctions_2_1D1Ev@Qt_5 5.1.0
 (arch=!armel !armhf)_ZN20QOpenGLFunctions_2_1D2Ev@Qt_5 5.1.0
 (arch=!armel !armhf)_ZN20QOpenGLFunctions_3_014versionProfileEv@Qt_5 5.1.0
 (arch=!armel !armhf)_ZN20QOpenGLFunctions_3_019isContextCompatibleEP14QOpenGLContext@Qt_5 5.1.0
 (arch=!armel !armhf)_ZN20QOpenGLFunctions_3_025initializeOpenGLFunctionsEv@Qt_5 5.1.0
 (arch=!armel !armhf)_ZN20QOpenGLFunctions_3_0C1Ev@Qt_5 5.1.0
 (arch=!armel !armhf)_ZN20QOpenGLFunctions_3_0C2Ev@Qt_5 5.1.0
 (arch=!armel !armhf)_ZN20QOpenGLFunctions_3_0D0Ev@Qt_5 5.1.0
 (arch=!armel !armhf)_ZN20QOpenGLFunctions_3_0D1Ev@Qt_5 5.1.0
 (arch=!armel !armhf)_ZN20QOpenGLFunctions_3_0D2Ev@Qt_5 5.1.0
 (arch=!armel !armhf)_ZN20QOpenGLFunctions_3_114versionProfileEv@Qt_5 5.1.0
 (arch=!armel !armhf)_ZN20QOpenGLFunctions_3_119isContextCompatibleEP14QOpenGLContext@Qt_5 5.1.0
 (arch=!armel !armhf)_ZN20QOpenGLFunctions_3_125initializeOpenGLFunctionsEv@Qt_5 5.1.0
 (arch=!armel !armhf)_ZN20QOpenGLFunctions_3_1C1Ev@Qt_5 5.1.0
 (arch=!armel !armhf)_ZN20QOpenGLFunctions_3_1C2Ev@Qt_5 5.1.0
 (arch=!armel !armhf)_ZN20QOpenGLFunctions_3_1D0Ev@Qt_5 5.1.0
 (arch=!armel !armhf)_ZN20QOpenGLFunctions_3_1D1Ev@Qt_5 5.1.0
 (arch=!armel !armhf)_ZN20QOpenGLFunctions_3_1D2Ev@Qt_5 5.1.0
 (arch=armel armhf)_ZN20QOpenGLFunctions_ES214versionProfileEv@Qt_5 5.2.0
 (arch=armel armhf)_ZN20QOpenGLFunctions_ES219isContextCompatibleEP14QOpenGLContext@Qt_5 5.2.0
 (arch=armel armhf)_ZN20QOpenGLFunctions_ES225initializeOpenGLFunctionsEv@Qt_5 5.2.0
 (arch=armel armhf)_ZN20QOpenGLFunctions_ES2C1Ev@Qt_5 5.2.0
 (arch=armel armhf)_ZN20QOpenGLFunctions_ES2C2Ev@Qt_5 5.2.0
 (arch=armel armhf)_ZN20QOpenGLFunctions_ES2D0Ev@Qt_5 5.2.0
 (arch=armel armhf)_ZN20QOpenGLFunctions_ES2D1Ev@Qt_5 5.2.0
 (arch=armel armhf)_ZN20QOpenGLFunctions_ES2D2Ev@Qt_5 5.2.0
 _ZN20QOpenGLShaderProgram11qt_metacallEN11QMetaObject4CallEiPPv@Qt_5 5.0.2
 _ZN20QOpenGLShaderProgram11qt_metacastEPKc@Qt_5 5.0.2
 _ZN20QOpenGLShaderProgram12removeShaderEP13QOpenGLShader@Qt_5 5.0.2
 _ZN20QOpenGLShaderProgram15setUniformValueEPKcPA2_Kf@Qt_5 5.0.2
 _ZN20QOpenGLShaderProgram15setUniformValueEPKcPA3_Kf@Qt_5 5.0.2
 _ZN20QOpenGLShaderProgram15setUniformValueEPKcPA4_Kf@Qt_5 5.0.2
 _ZN20QOpenGLShaderProgram15setUniformValueEPKcRK10QMatrix4x4@Qt_5 5.0.2
 _ZN20QOpenGLShaderProgram15setUniformValueEPKcRK10QTransform@Qt_5 5.0.2
 _ZN20QOpenGLShaderProgram15setUniformValueEPKcRK14QGenericMatrixILi2ELi2EfE@Qt_5 5.0.2
 _ZN20QOpenGLShaderProgram15setUniformValueEPKcRK14QGenericMatrixILi2ELi3EfE@Qt_5 5.0.2
 _ZN20QOpenGLShaderProgram15setUniformValueEPKcRK14QGenericMatrixILi2ELi4EfE@Qt_5 5.0.2
 _ZN20QOpenGLShaderProgram15setUniformValueEPKcRK14QGenericMatrixILi3ELi2EfE@Qt_5 5.0.2
 _ZN20QOpenGLShaderProgram15setUniformValueEPKcRK14QGenericMatrixILi3ELi3EfE@Qt_5 5.0.2
 _ZN20QOpenGLShaderProgram15setUniformValueEPKcRK14QGenericMatrixILi3ELi4EfE@Qt_5 5.0.2
 _ZN20QOpenGLShaderProgram15setUniformValueEPKcRK14QGenericMatrixILi4ELi2EfE@Qt_5 5.0.2
 _ZN20QOpenGLShaderProgram15setUniformValueEPKcRK14QGenericMatrixILi4ELi3EfE@Qt_5 5.0.2
 _ZN20QOpenGLShaderProgram15setUniformValueEPKcRK5QSize@Qt_5 5.0.2
 _ZN20QOpenGLShaderProgram15setUniformValueEPKcRK6QColor@Qt_5 5.0.2
 _ZN20QOpenGLShaderProgram15setUniformValueEPKcRK6QPoint@Qt_5 5.0.2
 _ZN20QOpenGLShaderProgram15setUniformValueEPKcRK6QSizeF@Qt_5 5.0.2
 _ZN20QOpenGLShaderProgram15setUniformValueEPKcRK7QPointF@Qt_5 5.0.2
 _ZN20QOpenGLShaderProgram15setUniformValueEPKcRK9QVector2D@Qt_5 5.0.2
 _ZN20QOpenGLShaderProgram15setUniformValueEPKcRK9QVector3D@Qt_5 5.0.2
 _ZN20QOpenGLShaderProgram15setUniformValueEPKcRK9QVector4D@Qt_5 5.0.2
 _ZN20QOpenGLShaderProgram15setUniformValueEPKcf@Qt_5 5.0.2
 _ZN20QOpenGLShaderProgram15setUniformValueEPKcff@Qt_5 5.0.2
 _ZN20QOpenGLShaderProgram15setUniformValueEPKcfff@Qt_5 5.0.2
 _ZN20QOpenGLShaderProgram15setUniformValueEPKcffff@Qt_5 5.0.2
 _ZN20QOpenGLShaderProgram15setUniformValueEPKci@Qt_5 5.0.2
 _ZN20QOpenGLShaderProgram15setUniformValueEPKcj@Qt_5 5.0.2
 _ZN20QOpenGLShaderProgram15setUniformValueEiPA2_Kf@Qt_5 5.0.2
 _ZN20QOpenGLShaderProgram15setUniformValueEiPA3_Kf@Qt_5 5.0.2
 _ZN20QOpenGLShaderProgram15setUniformValueEiPA4_Kf@Qt_5 5.0.2
 _ZN20QOpenGLShaderProgram15setUniformValueEiRK10QMatrix4x4@Qt_5 5.0.2
 _ZN20QOpenGLShaderProgram15setUniformValueEiRK10QTransform@Qt_5 5.0.2
 _ZN20QOpenGLShaderProgram15setUniformValueEiRK14QGenericMatrixILi2ELi2EfE@Qt_5 5.0.2
 _ZN20QOpenGLShaderProgram15setUniformValueEiRK14QGenericMatrixILi2ELi3EfE@Qt_5 5.0.2
 _ZN20QOpenGLShaderProgram15setUniformValueEiRK14QGenericMatrixILi2ELi4EfE@Qt_5 5.0.2
 _ZN20QOpenGLShaderProgram15setUniformValueEiRK14QGenericMatrixILi3ELi2EfE@Qt_5 5.0.2
 _ZN20QOpenGLShaderProgram15setUniformValueEiRK14QGenericMatrixILi3ELi3EfE@Qt_5 5.0.2
 _ZN20QOpenGLShaderProgram15setUniformValueEiRK14QGenericMatrixILi3ELi4EfE@Qt_5 5.0.2
 _ZN20QOpenGLShaderProgram15setUniformValueEiRK14QGenericMatrixILi4ELi2EfE@Qt_5 5.0.2
 _ZN20QOpenGLShaderProgram15setUniformValueEiRK14QGenericMatrixILi4ELi3EfE@Qt_5 5.0.2
 _ZN20QOpenGLShaderProgram15setUniformValueEiRK5QSize@Qt_5 5.0.2
 _ZN20QOpenGLShaderProgram15setUniformValueEiRK6QColor@Qt_5 5.0.2
 _ZN20QOpenGLShaderProgram15setUniformValueEiRK6QPoint@Qt_5 5.0.2
 _ZN20QOpenGLShaderProgram15setUniformValueEiRK6QSizeF@Qt_5 5.0.2
 _ZN20QOpenGLShaderProgram15setUniformValueEiRK7QPointF@Qt_5 5.0.2
 _ZN20QOpenGLShaderProgram15setUniformValueEiRK9QVector2D@Qt_5 5.0.2
 _ZN20QOpenGLShaderProgram15setUniformValueEiRK9QVector3D@Qt_5 5.0.2
 _ZN20QOpenGLShaderProgram15setUniformValueEiRK9QVector4D@Qt_5 5.0.2
 _ZN20QOpenGLShaderProgram15setUniformValueEif@Qt_5 5.0.2
 _ZN20QOpenGLShaderProgram15setUniformValueEiff@Qt_5 5.0.2
 _ZN20QOpenGLShaderProgram15setUniformValueEifff@Qt_5 5.0.2
 _ZN20QOpenGLShaderProgram15setUniformValueEiffff@Qt_5 5.0.2
 _ZN20QOpenGLShaderProgram15setUniformValueEii@Qt_5 5.0.2
 _ZN20QOpenGLShaderProgram15setUniformValueEij@Qt_5 5.0.2
 _ZN20QOpenGLShaderProgram15shaderDestroyedEv@Qt_5 5.0.2
 _ZN20QOpenGLShaderProgram16removeAllShadersEv@Qt_5 5.0.2
 _ZN20QOpenGLShaderProgram16staticMetaObjectE@Qt_5 5.0.2
 _ZN20QOpenGLShaderProgram17setAttributeArrayEPKcPK9QVector2Di@Qt_5 5.0.2
 _ZN20QOpenGLShaderProgram17setAttributeArrayEPKcPK9QVector3Di@Qt_5 5.0.2
 _ZN20QOpenGLShaderProgram17setAttributeArrayEPKcPK9QVector4Di@Qt_5 5.0.2
 _ZN20QOpenGLShaderProgram17setAttributeArrayEPKcPKfii@Qt_5 5.0.2
 _ZN20QOpenGLShaderProgram17setAttributeArrayEPKcjPKvii@Qt_5 5.0.2
 _ZN20QOpenGLShaderProgram17setAttributeArrayEiPK9QVector2Di@Qt_5 5.0.2
 _ZN20QOpenGLShaderProgram17setAttributeArrayEiPK9QVector3Di@Qt_5 5.0.2
 _ZN20QOpenGLShaderProgram17setAttributeArrayEiPK9QVector4Di@Qt_5 5.0.2
 _ZN20QOpenGLShaderProgram17setAttributeArrayEiPKfii@Qt_5 5.0.2
 _ZN20QOpenGLShaderProgram17setAttributeArrayEijPKvii@Qt_5 5.0.2
 _ZN20QOpenGLShaderProgram17setAttributeValueEPKcPKfii@Qt_5 5.0.2
 _ZN20QOpenGLShaderProgram17setAttributeValueEPKcRK6QColor@Qt_5 5.0.2
 _ZN20QOpenGLShaderProgram17setAttributeValueEPKcRK9QVector2D@Qt_5 5.0.2
 _ZN20QOpenGLShaderProgram17setAttributeValueEPKcRK9QVector3D@Qt_5 5.0.2
 _ZN20QOpenGLShaderProgram17setAttributeValueEPKcRK9QVector4D@Qt_5 5.0.2
 _ZN20QOpenGLShaderProgram17setAttributeValueEPKcf@Qt_5 5.0.2
 _ZN20QOpenGLShaderProgram17setAttributeValueEPKcff@Qt_5 5.0.2
 _ZN20QOpenGLShaderProgram17setAttributeValueEPKcfff@Qt_5 5.0.2
 _ZN20QOpenGLShaderProgram17setAttributeValueEPKcffff@Qt_5 5.0.2
 _ZN20QOpenGLShaderProgram17setAttributeValueEiPKfii@Qt_5 5.0.2
 _ZN20QOpenGLShaderProgram17setAttributeValueEiRK6QColor@Qt_5 5.0.2
 _ZN20QOpenGLShaderProgram17setAttributeValueEiRK9QVector2D@Qt_5 5.0.2
 _ZN20QOpenGLShaderProgram17setAttributeValueEiRK9QVector3D@Qt_5 5.0.2
 _ZN20QOpenGLShaderProgram17setAttributeValueEiRK9QVector4D@Qt_5 5.0.2
 _ZN20QOpenGLShaderProgram17setAttributeValueEif@Qt_5 5.0.2
 _ZN20QOpenGLShaderProgram17setAttributeValueEiff@Qt_5 5.0.2
 _ZN20QOpenGLShaderProgram17setAttributeValueEifff@Qt_5 5.0.2
 _ZN20QOpenGLShaderProgram17setAttributeValueEiffff@Qt_5 5.0.2
 _ZN20QOpenGLShaderProgram18setAttributeBufferEPKcjiii@Qt_5 5.0.2
 _ZN20QOpenGLShaderProgram18setAttributeBufferEijiii@Qt_5 5.0.2
 _ZN20QOpenGLShaderProgram19setPatchVertexCountEi@Qt_5 5.1.0
 _ZN20QOpenGLShaderProgram20enableAttributeArrayEPKc@Qt_5 5.0.2
 _ZN20QOpenGLShaderProgram20enableAttributeArrayEi@Qt_5 5.0.2
 _ZN20QOpenGLShaderProgram20setUniformValueArrayEPKcPK10QMatrix4x4i@Qt_5 5.0.2
 _ZN20QOpenGLShaderProgram20setUniformValueArrayEPKcPK14QGenericMatrixILi2ELi2EfEi@Qt_5 5.0.2
 _ZN20QOpenGLShaderProgram20setUniformValueArrayEPKcPK14QGenericMatrixILi2ELi3EfEi@Qt_5 5.0.2
 _ZN20QOpenGLShaderProgram20setUniformValueArrayEPKcPK14QGenericMatrixILi2ELi4EfEi@Qt_5 5.0.2
 _ZN20QOpenGLShaderProgram20setUniformValueArrayEPKcPK14QGenericMatrixILi3ELi2EfEi@Qt_5 5.0.2
 _ZN20QOpenGLShaderProgram20setUniformValueArrayEPKcPK14QGenericMatrixILi3ELi3EfEi@Qt_5 5.0.2
 _ZN20QOpenGLShaderProgram20setUniformValueArrayEPKcPK14QGenericMatrixILi3ELi4EfEi@Qt_5 5.0.2
 _ZN20QOpenGLShaderProgram20setUniformValueArrayEPKcPK14QGenericMatrixILi4ELi2EfEi@Qt_5 5.0.2
 _ZN20QOpenGLShaderProgram20setUniformValueArrayEPKcPK14QGenericMatrixILi4ELi3EfEi@Qt_5 5.0.2
 _ZN20QOpenGLShaderProgram20setUniformValueArrayEPKcPK9QVector2Di@Qt_5 5.0.2
 _ZN20QOpenGLShaderProgram20setUniformValueArrayEPKcPK9QVector3Di@Qt_5 5.0.2
 _ZN20QOpenGLShaderProgram20setUniformValueArrayEPKcPK9QVector4Di@Qt_5 5.0.2
 _ZN20QOpenGLShaderProgram20setUniformValueArrayEPKcPKfii@Qt_5 5.0.2
 _ZN20QOpenGLShaderProgram20setUniformValueArrayEPKcPKii@Qt_5 5.0.2
 _ZN20QOpenGLShaderProgram20setUniformValueArrayEPKcPKji@Qt_5 5.0.2
 _ZN20QOpenGLShaderProgram20setUniformValueArrayEiPK10QMatrix4x4i@Qt_5 5.0.2
 _ZN20QOpenGLShaderProgram20setUniformValueArrayEiPK14QGenericMatrixILi2ELi2EfEi@Qt_5 5.0.2
 _ZN20QOpenGLShaderProgram20setUniformValueArrayEiPK14QGenericMatrixILi2ELi3EfEi@Qt_5 5.0.2
 _ZN20QOpenGLShaderProgram20setUniformValueArrayEiPK14QGenericMatrixILi2ELi4EfEi@Qt_5 5.0.2
 _ZN20QOpenGLShaderProgram20setUniformValueArrayEiPK14QGenericMatrixILi3ELi2EfEi@Qt_5 5.0.2
 _ZN20QOpenGLShaderProgram20setUniformValueArrayEiPK14QGenericMatrixILi3ELi3EfEi@Qt_5 5.0.2
 _ZN20QOpenGLShaderProgram20setUniformValueArrayEiPK14QGenericMatrixILi3ELi4EfEi@Qt_5 5.0.2
 _ZN20QOpenGLShaderProgram20setUniformValueArrayEiPK14QGenericMatrixILi4ELi2EfEi@Qt_5 5.0.2
 _ZN20QOpenGLShaderProgram20setUniformValueArrayEiPK14QGenericMatrixILi4ELi3EfEi@Qt_5 5.0.2
 _ZN20QOpenGLShaderProgram20setUniformValueArrayEiPK9QVector2Di@Qt_5 5.0.2
 _ZN20QOpenGLShaderProgram20setUniformValueArrayEiPK9QVector3Di@Qt_5 5.0.2
 _ZN20QOpenGLShaderProgram20setUniformValueArrayEiPK9QVector4Di@Qt_5 5.0.2
 _ZN20QOpenGLShaderProgram20setUniformValueArrayEiPKfii@Qt_5 5.0.2
 _ZN20QOpenGLShaderProgram20setUniformValueArrayEiPKii@Qt_5 5.0.2
 _ZN20QOpenGLShaderProgram20setUniformValueArrayEiPKji@Qt_5 5.0.2
 _ZN20QOpenGLShaderProgram21bindAttributeLocationEPKci@Qt_5 5.0.2
 _ZN20QOpenGLShaderProgram21bindAttributeLocationERK10QByteArrayi@Qt_5 5.0.2
 _ZN20QOpenGLShaderProgram21bindAttributeLocationERK7QStringi@Qt_5 5.0.2
 _ZN20QOpenGLShaderProgram21disableAttributeArrayEPKc@Qt_5 5.0.2
 _ZN20QOpenGLShaderProgram21disableAttributeArrayEi@Qt_5 5.0.2
 _ZN20QOpenGLShaderProgram23addShaderFromSourceCodeE6QFlagsIN13QOpenGLShader13ShaderTypeBitEEPKc@Qt_5 5.0.2
 _ZN20QOpenGLShaderProgram23addShaderFromSourceCodeE6QFlagsIN13QOpenGLShader13ShaderTypeBitEERK10QByteArray@Qt_5 5.0.2
 _ZN20QOpenGLShaderProgram23addShaderFromSourceCodeE6QFlagsIN13QOpenGLShader13ShaderTypeBitEERK7QString@Qt_5 5.0.2
 _ZN20QOpenGLShaderProgram23addShaderFromSourceFileE6QFlagsIN13QOpenGLShader13ShaderTypeBitEERK7QString@Qt_5 5.0.2
 _ZN20QOpenGLShaderProgram23hasOpenGLShaderProgramsEP14QOpenGLContext@Qt_5 5.0.2
 _ZN20QOpenGLShaderProgram33setDefaultInnerTessellationLevelsERK7QVectorIfE@Qt_5 5.1.0
 _ZN20QOpenGLShaderProgram33setDefaultOuterTessellationLevelsERK7QVectorIfE@Qt_5 5.1.0
 _ZN20QOpenGLShaderProgram4bindEv@Qt_5 5.0.2
 _ZN20QOpenGLShaderProgram4initEv@Qt_5 5.0.2
 _ZN20QOpenGLShaderProgram4linkEv@Qt_5 5.0.2
 _ZN20QOpenGLShaderProgram6createEv@Qt_5 5.3.0
 _ZN20QOpenGLShaderProgram7releaseEv@Qt_5 5.0.2
 _ZN20QOpenGLShaderProgram9addShaderEP13QOpenGLShader@Qt_5 5.0.2
 _ZN20QOpenGLShaderProgramC1EP7QObject@Qt_5 5.0.2
 _ZN20QOpenGLShaderProgramC2EP7QObject@Qt_5 5.0.2
 _ZN20QOpenGLShaderProgramD0Ev@Qt_5 5.0.2
 _ZN20QOpenGLShaderProgramD1Ev@Qt_5 5.0.2
 _ZN20QOpenGLShaderProgramD2Ev@Qt_5 5.0.2
 _ZN20QPictureFormatPlugin11loadPictureERK7QStringS2_P8QPicture@Qt_5 5.0.2
 _ZN20QPictureFormatPlugin11qt_metacallEN11QMetaObject4CallEiPPv@Qt_5 5.0.2
 _ZN20QPictureFormatPlugin11qt_metacastEPKc@Qt_5 5.0.2
 _ZN20QPictureFormatPlugin11savePictureERK7QStringS2_RK8QPicture@Qt_5 5.0.2
 _ZN20QPictureFormatPlugin16staticMetaObjectE@Qt_5 5.0.2
 _ZN20QPictureFormatPluginC1EP7QObject@Qt_5 5.0.2
 _ZN20QPictureFormatPluginC2EP7QObject@Qt_5 5.0.2
 _ZN20QPictureFormatPluginD0Ev@Qt_5 5.0.2
 _ZN20QPictureFormatPluginD1Ev@Qt_5 5.0.2
 _ZN20QPictureFormatPluginD2Ev@Qt_5 5.0.2
 _ZN20QPlatformCursorImage18createSystemCursorEi@Qt_5 5.0.2
 _ZN20QPlatformCursorImage3setEN2Qt11CursorShapeE@Qt_5 5.0.2
 _ZN20QPlatformCursorImage3setEPKhS1_iiii@Qt_5 5.0.2
 _ZN20QPlatformCursorImage3setERK6QImageii@Qt_5 5.0.2
 _ZN20QPlatformIntegration10initializeEv@Qt_5 5.2.0~beta1
 _ZN20QPlatformIntegration11screenAddedEP15QPlatformScreenb@Qt_5 5.5.0
 _ZN20QPlatformIntegration12removeScreenEP7QScreen@Qt_5 5.6.0~beta
 _ZN20QPlatformIntegration13destroyScreenEP15QPlatformScreen@Qt_5 5.5.0
 _ZN20QPlatformIntegration16openGLModuleTypeEv@Qt_5 5.3.0
 _ZN20QPlatformIntegration16setPrimaryScreenEP15QPlatformScreen@Qt_5 5.6.0~beta
 _ZN20QPlatformIntegration4syncEv@Qt_5 5.2.0~rc1
 _ZN20QPlatformIntegration7destroyEv@Qt_5 5.5.0
 _ZN20QPlatformTextureList11qt_metacallEN11QMetaObject4CallEiPPv@Qt_5 5.3.0
 _ZN20QPlatformTextureList11qt_metacastEPKc@Qt_5 5.3.0
 _ZN20QPlatformTextureList13appendTextureEPvjRK5QRectS3_6QFlagsINS_4FlagEE@Qt_5 5.5.0
 _ZN20QPlatformTextureList16staticMetaObjectE@Qt_5 5.3.0
 _ZN20QPlatformTextureList4lockEb@Qt_5 5.3.0
 _ZN20QPlatformTextureList5clearEv@Qt_5 5.3.0
 _ZN20QPlatformTextureList6lockedEb@Qt_5 5.3.0
 _ZN20QPlatformTextureList6sourceEi@Qt_5 5.5.0
 _ZN20QPlatformTextureListC1EP7QObject@Qt_5 5.3.0
 _ZN20QPlatformTextureListC2EP7QObject@Qt_5 5.3.0
 _ZN20QPlatformTextureListD0Ev@Qt_5 5.3.0
 _ZN20QPlatformTextureListD1Ev@Qt_5 5.3.0
 _ZN20QPlatformTextureListD2Ev@Qt_5 5.3.0
 _ZN20QPlatformThemePlugin11qt_metacallEN11QMetaObject4CallEiPPv@Qt_5 5.0.2
 _ZN20QPlatformThemePlugin11qt_metacastEPKc@Qt_5 5.0.2
 _ZN20QPlatformThemePlugin16staticMetaObjectE@Qt_5 5.0.2
 _ZN20QPlatformThemePluginC1EP7QObject@Qt_5 5.0.2
 _ZN20QPlatformThemePluginC2EP7QObject@Qt_5 5.0.2
 _ZN20QPlatformThemePluginD0Ev@Qt_5 5.0.2
 _ZN20QPlatformThemePluginD1Ev@Qt_5 5.0.2
 _ZN20QPlatformThemePluginD2Ev@Qt_5 5.0.2
 _ZN20QTextFrameLayoutDataD0Ev@Qt_5 5.0.2
 _ZN20QTextFrameLayoutDataD1Ev@Qt_5 5.0.2
 _ZN20QTextFrameLayoutDataD2Ev@Qt_5 5.0.2
 _ZN20QTextObjectInterfaceD0Ev@Qt_5 5.6.0~beta
 _ZN20QTextObjectInterfaceD1Ev@Qt_5 5.6.0~beta
 _ZN20QTextObjectInterfaceD2Ev@Qt_5 5.6.0~beta
 _ZN20QTextTableCellFormatC1ERK11QTextFormat@Qt_5 5.0.2
 _ZN20QTextTableCellFormatC1Ev@Qt_5 5.0.2
 _ZN20QTextTableCellFormatC2ERK11QTextFormat@Qt_5 5.0.2
 _ZN20QTextTableCellFormatC2Ev@Qt_5 5.0.2
 _ZN21QFontEngineGlyphCacheD0Ev@Qt_5_PRIVATE_API 5.6.0~beta 1
 _ZN21QFontEngineGlyphCacheD1Ev@Qt_5_PRIVATE_API 5.6.0~beta 1
 _ZN21QFontEngineGlyphCacheD2Ev@Qt_5_PRIVATE_API 5.6.0~beta 1
 _ZN21QGenericPluginFactory4keysEv@Qt_5 5.0.2
 _ZN21QGenericPluginFactory6createERK7QStringS2_@Qt_5 5.0.2
 _ZN21QMessageDialogOptions14setWindowTitleERK7QString@Qt_5 5.2.0~alpha1
 _ZN21QMessageDialogOptions15setDetailedTextERK7QString@Qt_5 5.2.0~alpha1
 _ZN21QMessageDialogOptions16staticMetaObjectE@Qt_5 5.6.0~beta
 _ZN21QMessageDialogOptions18setInformativeTextERK7QString@Qt_5 5.2.0~alpha1
 _ZN21QMessageDialogOptions18setStandardButtonsE6QFlagsIN21QPlatformDialogHelper14StandardButtonEE@Qt_5 5.3.0
 _ZN21QMessageDialogOptions7setIconENS_4IconE@Qt_5 5.2.0~alpha1
 _ZN21QMessageDialogOptions7setTextERK7QString@Qt_5 5.2.0~alpha1
 _ZN21QMessageDialogOptionsC1ERKS_@Qt_5 5.2.0~alpha1
 _ZN21QMessageDialogOptionsC1Ev@Qt_5 5.2.0~alpha1
 _ZN21QMessageDialogOptionsC2ERKS_@Qt_5 5.2.0~alpha1
 _ZN21QMessageDialogOptionsC2Ev@Qt_5 5.2.0~alpha1
 _ZN21QMessageDialogOptionsD1Ev@Qt_5 5.2.0~alpha1
 _ZN21QMessageDialogOptionsD2Ev@Qt_5 5.2.0~alpha1
 _ZN21QMessageDialogOptionsaSERKS_@Qt_5 5.2.0~alpha1
 _ZN21QOpenGL2PaintEngineEx10drawPixmapERK6QRectFRK7QPixmapS2_@Qt_5_PRIVATE_API 5.0.2 1
 _ZN21QOpenGL2PaintEngineEx10penChangedEv@Qt_5_PRIVATE_API 5.0.2 1
 _ZN21QOpenGL2PaintEngineEx11drawTextureERK6QRectFjRK5QSizeS2_@Qt_5_PRIVATE_API 5.0.2 1
 _ZN21QOpenGL2PaintEngineEx12brushChangedEv@Qt_5_PRIVATE_API 5.0.2 1
 _ZN21QOpenGL2PaintEngineEx12drawTextItemERK7QPointFRK9QTextItem@Qt_5_PRIVATE_API 5.0.2 1
 _ZN21QOpenGL2PaintEngineEx12ensureActiveEv@Qt_5_PRIVATE_API 5.0.2 1
 _ZN21QOpenGL2PaintEngineEx14opacityChangedEv@Qt_5_PRIVATE_API 5.0.2 1
 _ZN21QOpenGL2PaintEngineEx15invalidateStateEv@Qt_5_PRIVATE_API 5.0.2 1
 _ZN21QOpenGL2PaintEngineEx16transformChangedEv@Qt_5_PRIVATE_API 5.0.2 1
 _ZN21QOpenGL2PaintEngineEx17endNativePaintingEv@Qt_5_PRIVATE_API 5.0.2 1
 _ZN21QOpenGL2PaintEngineEx18brushOriginChangedEv@Qt_5_PRIVATE_API 5.0.2 1
 _ZN21QOpenGL2PaintEngineEx18clipEnabledChangedEv@Qt_5_PRIVATE_API 5.0.2 1
 _ZN21QOpenGL2PaintEngineEx18drawStaticTextItemEP15QStaticTextItem@Qt_5_PRIVATE_API 5.0.2 1
 _ZN21QOpenGL2PaintEngineEx18renderHintsChangedEv@Qt_5_PRIVATE_API 5.0.2 1
 _ZN21QOpenGL2PaintEngineEx19beginNativePaintingEv@Qt_5_PRIVATE_API 5.0.2 1
 _ZN21QOpenGL2PaintEngineEx19drawPixmapFragmentsEPKN8QPainter14PixmapFragmentEiRK7QPixmap6QFlagsINS0_18PixmapFragmentHintEE@Qt_5_PRIVATE_API 5.0.2 1
 _ZN21QOpenGL2PaintEngineEx22compositionModeChangedEv@Qt_5_PRIVATE_API 5.0.2 1
 _ZN21QOpenGL2PaintEngineEx3endEv@Qt_5_PRIVATE_API 5.0.2 1
 _ZN21QOpenGL2PaintEngineEx4clipERK11QVectorPathN2Qt13ClipOperationE@Qt_5_PRIVATE_API 5.0.2 1
 _ZN21QOpenGL2PaintEngineEx4fillERK11QVectorPathRK6QBrush@Qt_5_PRIVATE_API 5.0.2 1
 _ZN21QOpenGL2PaintEngineEx5beginEP12QPaintDevice@Qt_5_PRIVATE_API 5.0.2 1
 _ZN21QOpenGL2PaintEngineEx6strokeERK11QVectorPathRK4QPen@Qt_5_PRIVATE_API 5.0.2 1
 _ZN21QOpenGL2PaintEngineEx8setStateEP13QPainterState@Qt_5_PRIVATE_API 5.0.2 1
 _ZN21QOpenGL2PaintEngineEx9drawImageERK6QRectFRK6QImageS2_6QFlagsIN2Qt19ImageConversionFlagEE@Qt_5_PRIVATE_API 5.0.2 1
 _ZN21QOpenGL2PaintEngineExC1Ev@Qt_5_PRIVATE_API 5.0.2 1
 _ZN21QOpenGL2PaintEngineExC2Ev@Qt_5_PRIVATE_API 5.0.2 1
 _ZN21QOpenGL2PaintEngineExD0Ev@Qt_5_PRIVATE_API 5.0.2 1
 _ZN21QOpenGL2PaintEngineExD1Ev@Qt_5_PRIVATE_API 5.0.2 1
 _ZN21QOpenGL2PaintEngineExD2Ev@Qt_5_PRIVATE_API 5.0.2 1
 _ZN21QOpenGLContextPrivate14maxTextureSizeEv@Qt_5_PRIVATE_API 5.0.2 1
 _ZN21QOpenGLContextPrivate17setCurrentContextEP14QOpenGLContext@Qt_5_PRIVATE_API 5.0.2 1
 _ZN21QOpenGLContextPrivate18_q_screenDestroyedEP7QObject@Qt_5_PRIVATE_API 5.6.0~beta 1
 _ZN21QOpenGLExtraFunctionsC1EP14QOpenGLContext@Qt_5 5.6.0~beta
 _ZN21QOpenGLExtraFunctionsC1Ev@Qt_5 5.6.0~beta
 _ZN21QOpenGLExtraFunctionsC2EP14QOpenGLContext@Qt_5 5.6.0~beta
 _ZN21QOpenGLExtraFunctionsC2Ev@Qt_5 5.6.0~beta
 _ZN21QOpenGLSharedResource4freeEv@Qt_5_PRIVATE_API 5.0.2 1
 _ZN21QOpenGLSharedResourceC1EP19QOpenGLContextGroup@Qt_5_PRIVATE_API 5.0.2 1
 _ZN21QOpenGLSharedResourceC2EP19QOpenGLContextGroup@Qt_5_PRIVATE_API 5.0.2 1
 _ZN21QOpenGLSharedResourceD0Ev@Qt_5_PRIVATE_API 5.0.2 1
 _ZN21QOpenGLSharedResourceD1Ev@Qt_5_PRIVATE_API 5.0.2 1
 _ZN21QOpenGLSharedResourceD2Ev@Qt_5_PRIVATE_API 5.0.2 1
 _ZN21QOpenGLTextureBlitter10setOpacityEf@Qt_5_PRIVATE_API 5.4.0 1
 _ZN21QOpenGLTextureBlitter12setSwizzleRBEb@Qt_5_PRIVATE_API 5.3.0 1
 _ZN21QOpenGLTextureBlitter15sourceTransformERK6QRectFRK5QSizeNS_6OriginE@Qt_5_PRIVATE_API 5.3.0 1
 _ZN21QOpenGLTextureBlitter15targetTransformERK6QRectFRK5QRect@Qt_5_PRIVATE_API 5.3.0 1
 _ZN21QOpenGLTextureBlitter4bindEj@Qt_5_PRIVATE_API 5.6.0~beta 1
 _ZN21QOpenGLTextureBlitter4blitEjRK10QMatrix4x4NS_6OriginE@Qt_5_PRIVATE_API 5.3.0 1
 _ZN21QOpenGLTextureBlitter4blitEjRK10QMatrix4x4RK14QGenericMatrixILi3ELi3EfE@Qt_5_PRIVATE_API 5.3.0 1
 _ZN21QOpenGLTextureBlitter6createEv@Qt_5_PRIVATE_API 5.3.0 1
 _ZN21QOpenGLTextureBlitter7destroyEv@Qt_5_PRIVATE_API 5.3.0 1
 _ZN21QOpenGLTextureBlitter7releaseEv@Qt_5_PRIVATE_API 5.3.0 1
 _ZN21QOpenGLTextureBlitterC1Ev@Qt_5_PRIVATE_API 5.3.0 1
 _ZN21QOpenGLTextureBlitterC2Ev@Qt_5_PRIVATE_API 5.3.0 1
 _ZN21QOpenGLTextureBlitterD1Ev@Qt_5_PRIVATE_API 5.3.0 1
 _ZN21QOpenGLTextureBlitterD2Ev@Qt_5_PRIVATE_API 5.3.0 1
 _ZN21QOpenGLVersionProfile10setProfileEN14QSurfaceFormat20OpenGLContextProfileE@Qt_5 5.1.0
 _ZN21QOpenGLVersionProfile10setVersionEii@Qt_5 5.1.0
 _ZN21QOpenGLVersionProfileC1ERK14QSurfaceFormat@Qt_5 5.1.0
 _ZN21QOpenGLVersionProfileC1ERKS_@Qt_5 5.1.0
 _ZN21QOpenGLVersionProfileC1Ev@Qt_5 5.1.0
 _ZN21QOpenGLVersionProfileC2ERK14QSurfaceFormat@Qt_5 5.1.0
 _ZN21QOpenGLVersionProfileC2ERKS_@Qt_5 5.1.0
 _ZN21QOpenGLVersionProfileC2Ev@Qt_5 5.1.0
 _ZN21QOpenGLVersionProfileD1Ev@Qt_5 5.1.0
 _ZN21QOpenGLVersionProfileD2Ev@Qt_5 5.1.0
 _ZN21QOpenGLVersionProfileaSERKS_@Qt_5 5.1.0
 _ZN21QPaintEngineExPrivate20replayClipOperationsEv@Qt_5_PRIVATE_API 5.0.2 1
 _ZN21QPaintEngineExPrivateC1Ev@Qt_5_PRIVATE_API 5.0.2 1
 _ZN21QPaintEngineExPrivateC2Ev@Qt_5_PRIVATE_API 5.0.2 1
 _ZN21QPaintEngineExPrivateD0Ev@Qt_5_PRIVATE_API 5.0.2 1
 _ZN21QPaintEngineExPrivateD1Ev@Qt_5_PRIVATE_API 5.0.2 1
 _ZN21QPaintEngineExPrivateD2Ev@Qt_5_PRIVATE_API 5.0.2 1
 _ZN21QPlatformBackingStore10beginPaintERK7QRegion@Qt_5 5.0.2
 _ZN21QPlatformBackingStore15composeAndFlushEP7QWindowRK7QRegionRK6QPointP20QPlatformTextureListP14QOpenGLContextb@Qt_5 5.4.0
 _ZN21QPlatformBackingStore6scrollERK7QRegionii@Qt_5 5.0.2
 _ZN21QPlatformBackingStore8endPaintEv@Qt_5 5.0.2
 _ZN21QPlatformBackingStoreC1EP7QWindow@Qt_5 5.0.2
 _ZN21QPlatformBackingStoreC2EP7QWindow@Qt_5 5.0.2
 _ZN21QPlatformBackingStoreD0Ev@Qt_5 5.0.2
 _ZN21QPlatformBackingStoreD1Ev@Qt_5 5.0.2
 _ZN21QPlatformBackingStoreD2Ev@Qt_5 5.0.2
 _ZN21QPlatformDialogHelper10buttonRoleENS_14StandardButtonE@Qt_5 5.3.0
 _ZN21QPlatformDialogHelper11qt_metacallEN11QMetaObject4CallEiPPv@Qt_5 5.0.2
 _ZN21QPlatformDialogHelper11qt_metacastEPKc@Qt_5 5.0.2
 _ZN21QPlatformDialogHelper12buttonLayoutEN2Qt11OrientationENS_12ButtonLayoutE@Qt_5 5.3.0
 _ZN21QPlatformDialogHelper16defaultStyleHintENS_9StyleHintE@Qt_5 5.0.2
 _ZN21QPlatformDialogHelper16staticMetaObjectE@Qt_5 5.0.2
 _ZN21QPlatformDialogHelper6acceptEv@Qt_5 5.0.2
 _ZN21QPlatformDialogHelper6rejectEv@Qt_5 5.0.2
 _ZN21QPlatformDialogHelperC1Ev@Qt_5 5.0.2
 _ZN21QPlatformDialogHelperC2Ev@Qt_5 5.0.2
 _ZN21QPlatformDialogHelperD0Ev@Qt_5 5.0.2
 _ZN21QPlatformDialogHelperD1Ev@Qt_5 5.0.2
 _ZN21QPlatformDialogHelperD2Ev@Qt_5 5.0.2
 _ZN21QPlatformFontDatabase10fontEngineERK10QByteArraydN5QFont17HintingPreferenceE@Qt_5 5.2.0
 _ZN21QPlatformFontDatabase10fontEngineERK8QFontDefPv@Qt_5 5.3.0
 _ZN21QPlatformFontDatabase10invalidateEv@Qt_5 5.3.0
 _ZN21QPlatformFontDatabase12registerFontERK7QStringS2_S2_N5QFont6WeightENS3_5StyleENS3_7StretchEbbibRK24QSupportedWritingSystemsPv@Qt_5 5.0.2
 _ZN21QPlatformFontDatabase13releaseHandleEPv@Qt_5 5.0.2
 _ZN21QPlatformFontDatabase14populateFamilyERK7QString@Qt_5 5.3.0
 _ZN21QPlatformFontDatabase15fontEngineMultiEP11QFontEngineN5QChar6ScriptE@Qt_5_PRIVATE_API 5.1.0 1
 _ZN21QPlatformFontDatabase16registerQPF2FontERK10QByteArrayPv@Qt_5 5.0.2
 _ZN21QPlatformFontDatabase17weightFromIntegerEi@Qt_5 5.5.0
 _ZN21QPlatformFontDatabase18addApplicationFontERK10QByteArrayRK7QString@Qt_5 5.0.2
 _ZN21QPlatformFontDatabase18registerFontFamilyERK7QString@Qt_5 5.3.0
 _ZN21QPlatformFontDatabase20populateFontDatabaseEv@Qt_5 5.0.2
 _ZN21QPlatformFontDatabase25registerAliasToFontFamilyERK7QStringS2_@Qt_5 5.2.0~alpha1
 _ZN21QPlatformFontDatabase30writingSystemsFromTrueTypeBitsEPjS0_@Qt_5 5.1.0
 _ZN21QPlatformFontDatabaseD0Ev@Qt_5 5.0.2
 _ZN21QPlatformFontDatabaseD1Ev@Qt_5 5.0.2
 _ZN21QPlatformFontDatabaseD2Ev@Qt_5 5.0.2
 _ZN21QPlatformInputContext11filterEventEPK6QEvent@Qt_5 5.0.2
 _ZN21QPlatformInputContext11qt_metacallEN11QMetaObject4CallEiPPv@Qt_5 5.0.2
 _ZN21QPlatformInputContext11qt_metacastEPKc@Qt_5 5.0.2
 _ZN21QPlatformInputContext12invokeActionEN12QInputMethod6ActionEi@Qt_5 5.0.2
 _ZN21QPlatformInputContext14hideInputPanelEv@Qt_5 5.0.2
 _ZN21QPlatformInputContext14setFocusObjectEP7QObject@Qt_5 5.0.2
 _ZN21QPlatformInputContext14showInputPanelEv@Qt_5 5.0.2
 _ZN21QPlatformInputContext16staticMetaObjectE@Qt_5 5.0.2
 _ZN21QPlatformInputContext17emitLocaleChangedEv@Qt_5 5.0.2
 _ZN21QPlatformInputContext20emitAnimatingChangedEv@Qt_5 5.0.2
 _ZN21QPlatformInputContext23emitKeyboardRectChangedEv@Qt_5 5.0.2
 _ZN21QPlatformInputContext25emitInputDirectionChangedEN2Qt15LayoutDirectionE@Qt_5 5.0.2
 _ZN21QPlatformInputContext25setSelectionOnFocusObjectERK7QPointFS2_@Qt_5 5.7.0
 _ZN21QPlatformInputContext28emitInputPanelVisibleChangedEv@Qt_5 5.0.2
 _ZN21QPlatformInputContext5resetEv@Qt_5 5.0.2
 _ZN21QPlatformInputContext6commitEv@Qt_5 5.0.2
 _ZN21QPlatformInputContext6updateE6QFlagsIN2Qt16InputMethodQueryEE@Qt_5 5.0.2
 _ZN21QPlatformInputContextC1Ev@Qt_5 5.0.2
 _ZN21QPlatformInputContextC2Ev@Qt_5 5.0.2
 _ZN21QPlatformInputContextD0Ev@Qt_5 5.0.2
 _ZN21QPlatformInputContextD1Ev@Qt_5 5.0.2
 _ZN21QPlatformInputContextD2Ev@Qt_5 5.0.2
 _ZN21QPlatformSurfaceEventC1ENS_16SurfaceEventTypeE@Qt_5 5.5.0
 _ZN21QPlatformSurfaceEventC2ENS_16SurfaceEventTypeE@Qt_5 5.5.0
 _ZN21QPlatformSurfaceEventD0Ev@Qt_5 5.5.0
 _ZN21QPlatformSurfaceEventD1Ev@Qt_5 5.5.0
 _ZN21QPlatformSurfaceEventD2Ev@Qt_5 5.5.0
 _ZN21QPlatformThemePrivate11keyBindingsE@Qt_5 5.2.0~alpha1
 _ZN21QPlatformThemePrivate19currentKeyPlatformsEv@Qt_5 5.2.0~alpha1
 _ZN21QPlatformThemePrivate19numberOfKeyBindingsE@Qt_5 5.2.0~alpha1
 _ZN21QPlatformThemePrivate23initializeSystemPaletteEv@Qt_5 5.1.0
 _ZN21QPlatformThemePrivateC1Ev@Qt_5 5.1.0
 _ZN21QPlatformThemePrivateC2Ev@Qt_5 5.1.0
 _ZN21QPlatformThemePrivateD0Ev@Qt_5 5.1.0
 _ZN21QPlatformThemePrivateD1Ev@Qt_5 5.1.0
 _ZN21QPlatformThemePrivateD2Ev@Qt_5 5.1.0
 _ZN21QRasterPlatformPixmap15fromImageReaderEP12QImageReader6QFlagsIN2Qt19ImageConversionFlagEE@Qt_5_PRIVATE_API 5.0.2 1
 _ZN21QRasterPlatformPixmap16fromImageInPlaceER6QImage6QFlagsIN2Qt19ImageConversionFlagEE@Qt_5_PRIVATE_API 5.3.0 1
 _ZN21QRasterPlatformPixmap19setDevicePixelRatioEd@Qt_5_PRIVATE_API 5.2.0 1
 _ZN21QRasterPlatformPixmap20createPixmapForImageER6QImage6QFlagsIN2Qt19ImageConversionFlagEEb@Qt_5_PRIVATE_API 5.0.2 1
 _ZN21QRasterPlatformPixmap4copyEPK15QPlatformPixmapRK5QRect@Qt_5_PRIVATE_API 5.0.2 1
 _ZN21QRasterPlatformPixmap4fillERK6QColor@Qt_5_PRIVATE_API 5.0.2 1
 _ZN21QRasterPlatformPixmap6bufferEv@Qt_5_PRIVATE_API 5.0.2 1
 _ZN21QRasterPlatformPixmap6resizeEii@Qt_5_PRIVATE_API 5.0.2 1
 _ZN21QRasterPlatformPixmap6scrollEiiRK5QRect@Qt_5_PRIVATE_API 5.0.2 1
 _ZN21QRasterPlatformPixmap8fromDataEPKhjPKc6QFlagsIN2Qt19ImageConversionFlagEE@Qt_5_PRIVATE_API 5.0.2 1
 _ZN21QRasterPlatformPixmap9fromImageERK6QImage6QFlagsIN2Qt19ImageConversionFlagEE@Qt_5_PRIVATE_API 5.0.2 1
 _ZN21QRasterPlatformPixmapC1EN15QPlatformPixmap9PixelTypeE@Qt_5_PRIVATE_API 5.0.2 1
 _ZN21QRasterPlatformPixmapC2EN15QPlatformPixmap9PixelTypeE@Qt_5_PRIVATE_API 5.0.2 1
 _ZN21QRasterPlatformPixmapD0Ev@Qt_5_PRIVATE_API 5.0.2 1
 _ZN21QRasterPlatformPixmapD1Ev@Qt_5_PRIVATE_API 5.0.2 1
 _ZN21QRasterPlatformPixmapD2Ev@Qt_5_PRIVATE_API 5.0.2 1
 _ZN21QTextDocumentFragment13fromPlainTextERK7QString@Qt_5 5.0.2
 _ZN21QTextDocumentFragment8fromHtmlERK7QString@Qt_5 5.0.2
 _ZN21QTextDocumentFragment8fromHtmlERK7QStringPK13QTextDocument@Qt_5 5.0.2
 _ZN21QTextDocumentFragmentC1EPK13QTextDocument@Qt_5 5.0.2
 _ZN21QTextDocumentFragmentC1ERK11QTextCursor@Qt_5 5.0.2
 _ZN21QTextDocumentFragmentC1ERKS_@Qt_5 5.0.2
 _ZN21QTextDocumentFragmentC1Ev@Qt_5 5.0.2
 _ZN21QTextDocumentFragmentC2EPK13QTextDocument@Qt_5 5.0.2
 _ZN21QTextDocumentFragmentC2ERK11QTextCursor@Qt_5 5.0.2
 _ZN21QTextDocumentFragmentC2ERKS_@Qt_5 5.0.2
 _ZN21QTextDocumentFragmentC2Ev@Qt_5 5.0.2
 _ZN21QTextDocumentFragmentD1Ev@Qt_5 5.0.2
 _ZN21QTextDocumentFragmentD2Ev@Qt_5 5.0.2
 _ZN21QTextDocumentFragmentaSERKS_@Qt_5 5.0.2
 _ZN21QTextFormatCollection14indexForFormatERK11QTextFormat@Qt_5_PRIVATE_API 5.0.2 1
 _ZN21QTextFormatCollection14setDefaultFontERK5QFont@Qt_5_PRIVATE_API 5.0.2 1
 _ZN21QTextFormatCollection17createObjectIndexERK11QTextFormat@Qt_5_PRIVATE_API 5.0.2 1
 _ZN21QTextFormatCollection20setObjectFormatIndexEii@Qt_5_PRIVATE_API 5.0.2 1
 _ZN21QTextFormatCollectionC1ERKS_@Qt_5_PRIVATE_API 5.0.2 1
 _ZN21QTextFormatCollectionC2ERKS_@Qt_5_PRIVATE_API 5.0.2 1
 _ZN21QTextFormatCollectionD1Ev@Qt_5_PRIVATE_API 5.0.2 1
 _ZN21QTextFormatCollectionD2Ev@Qt_5_PRIVATE_API 5.0.2 1
 _ZN21QTextFormatCollectionaSERKS_@Qt_5_PRIVATE_API 5.0.2 1
 _ZN21QTriangulatingStroker18endCapOrJoinClosedEPKdS1_bb@Qt_5_PRIVATE_API 5.2.0 1
 _ZN21QTriangulatingStroker4joinEPKd@Qt_5_PRIVATE_API 5.2.0 1
 _ZN21QTriangulatingStroker6endCapEPKd@Qt_5_PRIVATE_API 5.2.0 1
 _ZN21QTriangulatingStroker6moveToEPKd@Qt_5_PRIVATE_API 5.2.0 1
 _ZN21QTriangulatingStroker7cubicToEPKd@Qt_5_PRIVATE_API 5.2.0 1
 _ZN21QTriangulatingStroker7processERK11QVectorPathRK4QPenRK6QRectF6QFlagsIN8QPainter10RenderHintEE@Qt_5_PRIVATE_API 5.0.2 1
 _ZN21QTriangulatingStroker9arcPointsEffffffR15QVarLengthArrayIfLi256EE@Qt_5_PRIVATE_API 5.0.2 1
 _ZN22QAccessibleApplicationC1Ev@Qt_5 5.0.2
 _ZN22QAccessibleApplicationC2Ev@Qt_5 5.0.2
 _ZN22QDashedStrokeProcessor7processERK11QVectorPathRK4QPenRK6QRectF6QFlagsIN8QPainter10RenderHintEE@Qt_5_PRIVATE_API 5.0.2 1
 _ZN22QDashedStrokeProcessorC1Ev@Qt_5_PRIVATE_API 5.0.2 1
 _ZN22QDashedStrokeProcessorC2Ev@Qt_5_PRIVATE_API 5.0.2 1
 _ZN22QGuiApplicationPrivate10commitDataEv@Qt_5_PRIVATE_API 5.2.0~alpha1 1
 _ZN22QGuiApplicationPrivate10shouldQuitEv@Qt_5_PRIVATE_API 5.0.2 1
 _ZN22QGuiApplicationPrivate10styleHintsE@Qt_5_PRIVATE_API 5.5.0 1
 _ZN22QGuiApplicationPrivate11displayNameE@Qt_5_PRIVATE_API 5.0.2 1
 _ZN22QGuiApplicationPrivate11gammaTablesEv@Qt_5_PRIVATE_API 5.0.2 1
 _ZN22QGuiApplicationPrivate11mousePressXE@Qt_5_PRIVATE_API 5.0.2 1
 _ZN22QGuiApplicationPrivate11mousePressYE@Qt_5_PRIVATE_API 5.0.2 1
 _ZN22QGuiApplicationPrivate11processDragEP7QWindowPK9QMimeDataRK6QPoint6QFlagsIN2Qt10DropActionEE@Qt_5_PRIVATE_API 5.0.2 1
 _ZN22QGuiApplicationPrivate11processDropEP7QWindowPK9QMimeDataRK6QPoint6QFlagsIN2Qt10DropActionEE@Qt_5_PRIVATE_API 5.0.2 1
 _ZN22QGuiApplicationPrivate11screen_listE@Qt_5_PRIVATE_API 5.0.2 1
 _ZN22QGuiApplicationPrivate11window_listE@Qt_5_PRIVATE_API 5.0.2 1
 _ZN22QGuiApplicationPrivate12focus_windowE@Qt_5_PRIVATE_API 5.0.2 1
 _ZN22QGuiApplicationPrivate12qt_clipboardE@Qt_5_PRIVATE_API 5.0.2 1
 _ZN22QGuiApplicationPrivate13mouse_buttonsE@Qt_5_PRIVATE_API 5.0.2 1
 _ZN22QGuiApplicationPrivate13platform_nameE@Qt_5_PRIVATE_API 5.0.2 1
 _ZN22QGuiApplicationPrivate13styleOverrideE@Qt_5_PRIVATE_API 5.6.0~beta 1
 _ZN22QGuiApplicationPrivate14mouseEventCapsEP11QMouseEvent@Qt_5_PRIVATE_API 5.0.2 1
 _ZN22QGuiApplicationPrivate14mousePressTimeE@Qt_5_PRIVATE_API 5.0.2 1
 _ZN22QGuiApplicationPrivate14platform_themeE@Qt_5_PRIVATE_API 5.0.2 1
 _ZN22QGuiApplicationPrivate15desktopFileNameE@Qt_5_PRIVATE_API 5.7.0 1
 _ZN22QGuiApplicationPrivate15getPixmapCursorEN2Qt11CursorShapeE@Qt_5_PRIVATE_API 5.0.2 1
 _ZN22QGuiApplicationPrivate15hideModalWindowEP7QWindow@Qt_5_PRIVATE_API 5.0.2 1
 _ZN22QGuiApplicationPrivate15mouseEventFlagsEPK11QMouseEvent@Qt_5_PRIVATE_API 5.3.0 1
 _ZN22QGuiApplicationPrivate15processKeyEventEPN29QWindowSystemInterfacePrivate8KeyEventE@Qt_5_PRIVATE_API 5.0.2 1
 _ZN22QGuiApplicationPrivate15showModalWindowEP7QWindow@Qt_5_PRIVATE_API 5.0.2 1
 _ZN22QGuiApplicationPrivate16applicationStateE@Qt_5_PRIVATE_API 5.1.0 1
 _ZN22QGuiApplicationPrivate16modifier_buttonsE@Qt_5_PRIVATE_API 5.0.2 1
 _ZN22QGuiApplicationPrivate16mouseEventSourceEPK11QMouseEvent@Qt_5_PRIVATE_API 5.3.0 1
 _ZN22QGuiApplicationPrivate16mousePressButtonE@Qt_5_PRIVATE_API 5.0.2 1
 _ZN22QGuiApplicationPrivate17m_fakeTouchDeviceE@Qt_5_PRIVATE_API 5.0.2 1
 _ZN22QGuiApplicationPrivate17notifyDragStartedEPK5QDrag@Qt_5_PRIVATE_API 5.0.2 1
 _ZN22QGuiApplicationPrivate17processCloseEventEPN29QWindowSystemInterfacePrivate10CloseEventE@Qt_5_PRIVATE_API 5.0.2 1
 _ZN22QGuiApplicationPrivate17processEnterEventEPN29QWindowSystemInterfacePrivate10EnterEventE@Qt_5_PRIVATE_API 5.0.2 1
 _ZN22QGuiApplicationPrivate17processLeaveEventEPN29QWindowSystemInterfacePrivate10LeaveEventE@Qt_5_PRIVATE_API 5.0.2 1
 _ZN22QGuiApplicationPrivate17processMouseEventEPN29QWindowSystemInterfacePrivate10MouseEventE@Qt_5_PRIVATE_API 5.0.2 1
 _ZN22QGuiApplicationPrivate17processTouchEventEPN29QWindowSystemInterfacePrivate10TouchEventE@Qt_5_PRIVATE_API 5.0.2 1
 _ZN22QGuiApplicationPrivate17processWheelEventEPN29QWindowSystemInterfacePrivate10WheelEventE@Qt_5_PRIVATE_API 5.0.2 1
 _ZN22QGuiApplicationPrivate17tabletDevicePointEx@Qt_5_PRIVATE_API 5.7.0 1
 _ZN22QGuiApplicationPrivate18currentMouseWindowE@Qt_5_PRIVATE_API 5.0.2 1
 _ZN22QGuiApplicationPrivate18inputDeviceManagerEv@Qt_5_PRIVATE_API 5.5.0 1
 _ZN22QGuiApplicationPrivate18lastCursorPositionE@Qt_5_PRIVATE_API 5.0.2 1
 _ZN22QGuiApplicationPrivate18mouseEventVelocityEP11QMouseEvent@Qt_5_PRIVATE_API 5.0.2 1
 _ZN22QGuiApplicationPrivate18notifyThemeChangedEv@Qt_5_PRIVATE_API 5.0.2 1
 _ZN22QGuiApplicationPrivate18processExposeEventEPN29QWindowSystemInterfacePrivate11ExposeEventE@Qt_5_PRIVATE_API 5.0.2 1
 _ZN22QGuiApplicationPrivate18processNativeEventEP7QWindowRK10QByteArrayPvPl@Qt_5_PRIVATE_API 5.0.2 1
 _ZN22QGuiApplicationPrivate18processTabletEventEPN29QWindowSystemInterfacePrivate11TabletEventE@Qt_5_PRIVATE_API 5.0.2 1
 _ZN22QGuiApplicationPrivate18setMouseEventFlagsEP11QMouseEvent6QFlagsIN2Qt14MouseEventFlagEE@Qt_5_PRIVATE_API 5.3.0 1
 _ZN22QGuiApplicationPrivate18shouldQuitInternalERK5QListIP7QWindowE@Qt_5_PRIVATE_API 5.1.1 1
 _ZN22QGuiApplicationPrivate18tabletDevicePointsE@Qt_5_PRIVATE_API 5.7.0 1
 _ZN22QGuiApplicationPrivate18tryCloseAllWindowsEv@Qt_5_PRIVATE_API 5.3.0 1
 _ZN22QGuiApplicationPrivate19generic_plugin_listE@Qt_5_PRIVATE_API 5.0.2 1
 _ZN22QGuiApplicationPrivate19processGestureEventEPN29QWindowSystemInterfacePrivate12GestureEventE@Qt_5_PRIVATE_API 5.2.0~beta1 1
 _ZN22QGuiApplicationPrivate19processThemeChangedEPN29QWindowSystemInterfacePrivate16ThemeChangeEventE@Qt_5_PRIVATE_API 5.0.2 1
 _ZN22QGuiApplicationPrivate19setApplicationStateEN2Qt16ApplicationStateEb@Qt_5_PRIVATE_API 5.4.0 1
 _ZN22QGuiApplicationPrivate19setMouseEventSourceEP11QMouseEventN2Qt16MouseEventSourceE@Qt_5_PRIVATE_API 5.3.0 1
 _ZN22QGuiApplicationPrivate19updateBlockedStatusEP7QWindow@Qt_5_PRIVATE_API 5.0.2 1
 _ZN22QGuiApplicationPrivate20_q_updateFocusObjectEP7QObject@Qt_5_PRIVATE_API 5.0.2 1
 _ZN22QGuiApplicationPrivate20emitLastWindowClosedEv@Qt_5_PRIVATE_API 5.0.2 1
 _ZN22QGuiApplicationPrivate20eventDispatcherReadyEv@Qt_5_PRIVATE_API 5.2.0~beta1 1
 _ZN22QGuiApplicationPrivate20m_inputDeviceManagerE@Qt_5_PRIVATE_API 5.5.0 1
 _ZN22QGuiApplicationPrivate20platform_integrationE@Qt_5_PRIVATE_API 5.0.2 1
 _ZN22QGuiApplicationPrivate20processFileOpenEventEPN29QWindowSystemInterfacePrivate13FileOpenEventE@Qt_5_PRIVATE_API 5.0.2 1
 _ZN22QGuiApplicationPrivate20reportGeometryChangeEPN29QWindowSystemInterfacePrivate19ScreenGeometryEventE@Qt_5_PRIVATE_API 5.0.2 1
 _ZN22QGuiApplicationPrivate21createEventDispatcherEv@Qt_5_PRIVATE_API 5.0.2 1
 _ZN22QGuiApplicationPrivate21highDpiScalingUpdatedE@Qt_5_PRIVATE_API 5.6.0~beta 1
 _ZN22QGuiApplicationPrivate21obey_desktop_settingsE@Qt_5_PRIVATE_API 5.0.2 1
 _ZN22QGuiApplicationPrivate21processActivatedEventEPN29QWindowSystemInterfacePrivate20ActivatedWindowEventE@Qt_5_PRIVATE_API 5.0.2 1
 _ZN22QGuiApplicationPrivate23currentMousePressWindowE@Qt_5_PRIVATE_API 5.5.0 1
 _ZN22QGuiApplicationPrivate23notifyWindowIconChangedEv@Qt_5_PRIVATE_API 5.3.0 1
 _ZN22QGuiApplicationPrivate23processContextMenuEventEPN29QWindowSystemInterfacePrivate16ContextMenuEventE@Qt_5_PRIVATE_API 5.0.2 1
 _ZN22QGuiApplicationPrivate23reportRefreshRateChangeEPN29QWindowSystemInterfacePrivate22ScreenRefreshRateEventE@Qt_5_PRIVATE_API 5.0.2 1
 _ZN22QGuiApplicationPrivate24m_fakeMouseSourcePointIdE@Qt_5_PRIVATE_API 5.0.2 1
 _ZN22QGuiApplicationPrivate24notifyActiveWindowChangeEP7QWindow@Qt_5_PRIVATE_API 5.0.2 1
 _ZN22QGuiApplicationPrivate24processWindowSystemEventEPN29QWindowSystemInterfacePrivate17WindowSystemEventE@Qt_5_PRIVATE_API 5.0.2 1
 _ZN22QGuiApplicationPrivate24tryCloseRemainingWindowsE5QListIP7QWindowE@Qt_5_PRIVATE_API 5.3.0 1
 _ZN22QGuiApplicationPrivate25createPlatformIntegrationEv@Qt_5_PRIVATE_API 5.0.2 1
 _ZN22QGuiApplicationPrivate25processPlatformPanelEventEPN29QWindowSystemInterfacePrivate18PlatformPanelEventE@Qt_5_PRIVATE_API 5.0.2 1
 _ZN22QGuiApplicationPrivate26processGeometryChangeEventEPN29QWindowSystemInterfacePrivate19GeometryChangeEventE@Qt_5_PRIVATE_API 5.0.2 1
 _ZN22QGuiApplicationPrivate27mouse_double_click_distanceE@Qt_5_PRIVATE_API 5.0.2 1
 _ZN22QGuiApplicationPrivate27notifyLayoutDirectionChangeEv@Qt_5_PRIVATE_API 5.0.2 1
 _ZN22QGuiApplicationPrivate28setMouseEventCapsAndVelocityEP11QMouseEventiRK9QVector2D@Qt_5_PRIVATE_API 5.0.2 1
 _ZN22QGuiApplicationPrivate29reportScreenOrientationChangeEP7QScreen@Qt_5_PRIVATE_API 5.0.2 1
 _ZN22QGuiApplicationPrivate29reportScreenOrientationChangeEPN29QWindowSystemInterfacePrivate22ScreenOrientationEventE@Qt_5_PRIVATE_API 5.0.2 1
 _ZN22QGuiApplicationPrivate30processWindowStateChangedEventEPN29QWindowSystemInterfacePrivate23WindowStateChangedEventE@Qt_5_PRIVATE_API 5.0.2 1
 _ZN22QGuiApplicationPrivate30reportLogicalDotsPerInchChangeEPN29QWindowSystemInterfacePrivate29ScreenLogicalDotsPerInchEventE@Qt_5_PRIVATE_API 5.0.2 1
 _ZN22QGuiApplicationPrivate31processWindowScreenChangedEventEPN29QWindowSystemInterfacePrivate24WindowScreenChangedEventE@Qt_5_PRIVATE_API 5.1.0 1
 _ZN22QGuiApplicationPrivate31updateFilteredScreenOrientationEP7QScreen@Qt_5_PRIVATE_API 5.0.2 1
 _ZN22QGuiApplicationPrivate32processTabletEnterProximityEventEPN29QWindowSystemInterfacePrivate25TabletEnterProximityEventE@Qt_5_PRIVATE_API 5.0.2 1
 _ZN22QGuiApplicationPrivate32processTabletLeaveProximityEventEPN29QWindowSystemInterfacePrivate25TabletLeaveProximityEventE@Qt_5_PRIVATE_API 5.0.2 1
 _ZN22QGuiApplicationPrivate33sendQWindowEventToQPlatformWindowEP7QWindowP6QEvent@Qt_5_PRIVATE_API 5.0.2 1
 _ZN22QGuiApplicationPrivate34applyWindowGeometrySpecificationToEP7QWindow@Qt_5_PRIVATE_API 5.4.2 1
 _ZN22QGuiApplicationPrivate38is_fallback_session_management_enabledE@Qt_5_PRIVATE_API 5.6.0~rc 1
 _ZN22QGuiApplicationPrivate4initEv@Qt_5_PRIVATE_API 5.0.2 1
 _ZN22QGuiApplicationPrivate4selfE@Qt_5_PRIVATE_API 5.0.2 1
 _ZN22QGuiApplicationPrivate7app_palE@Qt_5_PRIVATE_API 5.0.2 1
 _ZN22QGuiApplicationPrivate7buttonsE@Qt_5_PRIVATE_API 5.0.2 1
 _ZN22QGuiApplicationPrivate8app_fontE@Qt_5_PRIVATE_API 5.0.2 1
 _ZN22QGuiApplicationPrivate8app_iconE@Qt_5_PRIVATE_API 5.3.0 1
 _ZN22QGuiApplicationPrivate9saveStateEv@Qt_5_PRIVATE_API 5.2.0~alpha1 1
 _ZN22QGuiApplicationPrivateC1ERiPPci@Qt_5_PRIVATE_API 5.0.2 1
 _ZN22QGuiApplicationPrivateC2ERiPPci@Qt_5_PRIVATE_API 5.0.2 1
 _ZN22QGuiApplicationPrivateD0Ev@Qt_5_PRIVATE_API 5.0.2 1
 _ZN22QGuiApplicationPrivateD1Ev@Qt_5_PRIVATE_API 5.0.2 1
 _ZN22QGuiApplicationPrivateD2Ev@Qt_5_PRIVATE_API 5.0.2 1
 _ZN22QInputMethodQueryEvent8setValueEN2Qt16InputMethodQueryERK8QVariant@Qt_5 5.0.2
 _ZN22QInputMethodQueryEventC1E6QFlagsIN2Qt16InputMethodQueryEE@Qt_5 5.0.2
 _ZN22QInputMethodQueryEventC2E6QFlagsIN2Qt16InputMethodQueryEE@Qt_5 5.0.2
 _ZN22QInputMethodQueryEventD0Ev@Qt_5 5.0.2
 _ZN22QInputMethodQueryEventD1Ev@Qt_5 5.0.2
 _ZN22QInputMethodQueryEventD2Ev@Qt_5 5.0.2
 _ZN22QPlatformAccessibility10initializeEv@Qt_5 5.0.2
 _ZN22QPlatformAccessibility13setRootObjectEP7QObject@Qt_5 5.0.2
 _ZN22QPlatformAccessibility25notifyAccessibilityUpdateEP16QAccessibleEvent@Qt_5 5.0.2
 _ZN22QPlatformAccessibility7cleanupEv@Qt_5 5.0.2
 _ZN22QPlatformAccessibility9setActiveEb@Qt_5 5.4.0
 _ZN22QPlatformAccessibilityC1Ev@Qt_5 5.0.2
 _ZN22QPlatformAccessibilityC2Ev@Qt_5 5.0.2
 _ZN22QPlatformAccessibilityD0Ev@Qt_5 5.0.2
 _ZN22QPlatformAccessibilityD1Ev@Qt_5 5.0.2
 _ZN22QPlatformAccessibilityD2Ev@Qt_5 5.0.2
 _ZN22QPlatformCursorPrivate12getInstancesEv@Qt_5 5.0.2
 _ZN22QPlatformOpenGLContext10initializeEv@Qt_5 5.5.0
 _ZN22QPlatformOpenGLContext10setContextEP14QOpenGLContext@Qt_5 5.0.2
 _ZN22QPlatformOpenGLContext18parseOpenGLVersionERK10QByteArrayRiS3_@Qt_5 5.0.2
 _ZN22QPlatformOpenGLContextC1Ev@Qt_5 5.0.2
 _ZN22QPlatformOpenGLContextC2Ev@Qt_5 5.0.2
 _ZN22QPlatformOpenGLContextD0Ev@Qt_5 5.0.2
 _ZN22QPlatformOpenGLContextD1Ev@Qt_5 5.0.2
 _ZN22QPlatformOpenGLContextD2Ev@Qt_5 5.0.2
 _ZN22QWhatsThisClickedEventC1ERK7QString@Qt_5 5.0.2
 _ZN22QWhatsThisClickedEventC2ERK7QString@Qt_5 5.0.2
 _ZN22QWhatsThisClickedEventD0Ev@Qt_5 5.0.2
 _ZN22QWhatsThisClickedEventD1Ev@Qt_5 5.0.2
 _ZN22QWhatsThisClickedEventD2Ev@Qt_5 5.0.2
 _ZN22QWindowSystemInterface10handleDragEP7QWindowPK9QMimeDataRK6QPoint6QFlagsIN2Qt10DropActionEE@Qt_5 5.0.2
 _ZN22QWindowSystemInterface10handleDropEP7QWindowPK9QMimeDataRK6QPoint6QFlagsIN2Qt10DropActionEE@Qt_5 5.0.2
 _ZN22QWindowSystemInterface14handleKeyEventEP7QWindowN6QEvent4TypeEi6QFlagsIN2Qt16KeyboardModifierEERK7QStringbt@Qt_5 5.0.2
 _ZN22QWindowSystemInterface14handleKeyEventEP7QWindowmN6QEvent4TypeEi6QFlagsIN2Qt16KeyboardModifierEERK7QStringbt@Qt_5 5.0.2
 _ZN22QWindowSystemInterface16handleCloseEventEP7QWindowPb@Qt_5 5.1.0
 _ZN22QWindowSystemInterface16handleEnterEventEP7QWindowRK7QPointFS4_@Qt_5 5.0.2
 _ZN22QWindowSystemInterface16handleLeaveEventEP7QWindow@Qt_5 5.0.2
 _ZN22QWindowSystemInterface16handleMouseEventEP7QWindowRK7QPointFS4_6QFlagsIN2Qt11MouseButtonEES5_INS6_16KeyboardModifierEENS6_16MouseEventSourceE@Qt_5 5.3.0
 _ZN22QWindowSystemInterface16handleMouseEventEP7QWindowmRK7QPointFS4_6QFlagsIN2Qt11MouseButtonEES5_INS6_16KeyboardModifierEENS6_16MouseEventSourceE@Qt_5 5.3.0
 _ZN22QWindowSystemInterface16handleTouchEventEP7QWindowP12QTouchDeviceRK5QListINS_10TouchPointEE6QFlagsIN2Qt16KeyboardModifierEE@Qt_5 5.0.2
 _ZN22QWindowSystemInterface16handleTouchEventEP7QWindowmP12QTouchDeviceRK5QListINS_10TouchPointEE6QFlagsIN2Qt16KeyboardModifierEE@Qt_5 5.0.2
 _ZN22QWindowSystemInterface16handleWheelEventEP7QWindowRK7QPointFS4_6QPointS5_6QFlagsIN2Qt16KeyboardModifierEENS7_11ScrollPhaseENS7_16MouseEventSourceE@Qt_5 5.5.0
 _ZN22QWindowSystemInterface16handleWheelEventEP7QWindowRK7QPointFS4_iN2Qt11OrientationE6QFlagsINS5_16KeyboardModifierEE@Qt_5 5.0.2
 _ZN22QWindowSystemInterface16handleWheelEventEP7QWindowmRK7QPointFS4_6QPointS5_6QFlagsIN2Qt16KeyboardModifierEENS7_11ScrollPhaseENS7_16MouseEventSourceEb@Qt_5 5.7.0
 _ZN22QWindowSystemInterface16handleWheelEventEP7QWindowmRK7QPointFS4_iN2Qt11OrientationE6QFlagsINS5_16KeyboardModifierEE@Qt_5 5.0.2
 _ZN22QWindowSystemInterface17handleExposeEventEP7QWindowRK7QRegion@Qt_5 5.0.2
 _ZN22QWindowSystemInterface17handleNativeEventEP7QWindowRK10QByteArrayPvPl@Qt_5 5.0.2
 _ZN22QWindowSystemInterface17handleTabletEventEP7QWindowRK7QPointFS4_ii6QFlagsIN2Qt11MouseButtonEEdiiddixS5_INS6_16KeyboardModifierEE@Qt_5 5.4.0
 _ZN22QWindowSystemInterface17handleTabletEventEP7QWindowbRK7QPointFS4_iidiiddix6QFlagsIN2Qt16KeyboardModifierEE@Qt_5 5.2.0
 _ZN22QWindowSystemInterface17handleTabletEventEP7QWindowmRK7QPointFS4_ii6QFlagsIN2Qt11MouseButtonEEdiiddixS5_INS6_16KeyboardModifierEE@Qt_5 5.4.0
 _ZN22QWindowSystemInterface17handleTabletEventEP7QWindowmbRK7QPointFS4_iidiiddix6QFlagsIN2Qt16KeyboardModifierEE@Qt_5 5.2.0
 _ZN22QWindowSystemInterface17handleThemeChangeEP7QWindow@Qt_5 5.0.2
 _ZN22QWindowSystemInterface18handleGestureEventEP7QWindowmN2Qt17NativeGestureTypeER7QPointFS5_@Qt_5 5.2.0~beta1
 _ZN22QWindowSystemInterface19handleFileOpenEventERK4QUrl@Qt_5 5.1.0
 _ZN22QWindowSystemInterface19handleFileOpenEventERK7QString@Qt_5 5.0.2
 _ZN22QWindowSystemInterface19handleShortcutEventEP7QWindowmi6QFlagsIN2Qt16KeyboardModifierEEjjjRK7QStringbt@Qt_5 5.6.0~beta
 _ZN22QWindowSystemInterface19registerTouchDeviceEPK12QTouchDevice@Qt_5 5.6.0~beta
 _ZN22QWindowSystemInterface20handleGeometryChangeEP7QWindowRK5QRectS4_@Qt_5 5.2.0~rc1
 _ZN22QWindowSystemInterface21handleEnterLeaveEventEP7QWindowS1_RK7QPointFS4_@Qt_5 5.0.2
 _ZN22QWindowSystemInterface21handleWindowActivatedEP7QWindowN2Qt11FocusReasonE@Qt_5 5.1.0
 _ZN22QWindowSystemInterface21unregisterTouchDeviceEPK12QTouchDevice@Qt_5 5.6.0~beta
 _ZN22QWindowSystemInterface22handleContextMenuEventEP7QWindowbRK6QPointS4_6QFlagsIN2Qt16KeyboardModifierEE@Qt_5 5.0.2
 _ZN22QWindowSystemInterface22handleExtendedKeyEventEP7QWindowN6QEvent4TypeEi6QFlagsIN2Qt16KeyboardModifierEEjjjRK7QStringbtb@Qt_5 5.6.0~beta
 _ZN22QWindowSystemInterface22handleExtendedKeyEventEP7QWindowmN6QEvent4TypeEi6QFlagsIN2Qt16KeyboardModifierEEjjjRK7QStringbtb@Qt_5 5.5.0
 _ZN22QWindowSystemInterface22handleTouchCancelEventEP7QWindowP12QTouchDevice6QFlagsIN2Qt16KeyboardModifierEE@Qt_5 5.0.2
 _ZN22QWindowSystemInterface22handleTouchCancelEventEP7QWindowmP12QTouchDevice6QFlagsIN2Qt16KeyboardModifierEE@Qt_5 5.0.2
 _ZN22QWindowSystemInterface22sendWindowSystemEventsE6QFlagsIN10QEventLoop17ProcessEventsFlagEE@Qt_5 5.0.2
 _ZN22QWindowSystemInterface23flushWindowSystemEventsE6QFlagsIN10QEventLoop17ProcessEventsFlagEE@Qt_5 5.4.0
 _ZN22QWindowSystemInterface23isTouchDeviceRegisteredEPK12QTouchDevice@Qt_5 5.7.1
 _ZN22QWindowSystemInterface24handlePlatformPanelEventEP7QWindow@Qt_5 5.0.2
 _ZN22QWindowSystemInterface24handleWindowStateChangedEP7QWindowN2Qt11WindowStateE@Qt_5 5.0.2
 _ZN22QWindowSystemInterface24windowSystemEventsQueuedEv@Qt_5 5.0.2
 _ZN22QWindowSystemInterface25handleEnterWhatsThisEventEv@Qt_5 5.2.0~alpha1
 _ZN22QWindowSystemInterface25handleWindowScreenChangedEP7QWindowP7QScreen@Qt_5 5.1.0
 _ZN22QWindowSystemInterface26handleFrameStrutMouseEventEP7QWindowRK7QPointFS4_6QFlagsIN2Qt11MouseButtonEES5_INS6_16KeyboardModifierEENS6_16MouseEventSourceE@Qt_5 5.3.0
 _ZN22QWindowSystemInterface26handleFrameStrutMouseEventEP7QWindowmRK7QPointFS4_6QFlagsIN2Qt11MouseButtonEES5_INS6_16KeyboardModifierEENS6_16MouseEventSourceE@Qt_5 5.3.0
 _ZN22QWindowSystemInterface26handleScreenGeometryChangeEP7QScreenRK5QRectS4_@Qt_5 5.4.0
 _ZN22QWindowSystemInterface29handleApplicationStateChangedEN2Qt16ApplicationStateEb@Qt_5 5.4.0
 _ZN22QWindowSystemInterface29handleScreenOrientationChangeEP7QScreenN2Qt17ScreenOrientationE@Qt_5 5.0.2
 _ZN22QWindowSystemInterface29handleScreenRefreshRateChangeEP7QScreend@Qt_5 5.2.0
 _ZN22QWindowSystemInterface31deferredFlushWindowSystemEventsE6QFlagsIN10QEventLoop17ProcessEventsFlagEE@Qt_5 5.4.0
 _ZN22QWindowSystemInterface31handleGestureEventWithRealValueEP7QWindowmN2Qt17NativeGestureTypeEdR7QPointFS5_@Qt_5 5.2.0~beta1
 _ZN22QWindowSystemInterface31handleTabletEnterProximityEventEiix@Qt_5 5.0.2
 _ZN22QWindowSystemInterface31handleTabletEnterProximityEventEmiix@Qt_5 5.0.2
 _ZN22QWindowSystemInterface31handleTabletLeaveProximityEventEiix@Qt_5 5.0.2
 _ZN22QWindowSystemInterface31handleTabletLeaveProximityEventEmiix@Qt_5 5.0.2
 _ZN22QWindowSystemInterface32setSynchronousWindowSystemEventsEb@Qt_5 5.6.0~beta
 _ZN22QWindowSystemInterface36handleScreenLogicalDotsPerInchChangeEP7QScreendd@Qt_5 5.2.0
 _ZN22QWindowSystemInterface40handleGestureEventWithSequenceIdAndValueEP7QWindowmN2Qt17NativeGestureTypeEmyR7QPointFS5_@Qt_5 5.2.0~beta1
 _ZN23QAccessibleBridgePlugin11qt_metacallEN11QMetaObject4CallEiPPv@Qt_5 5.0.2
 _ZN23QAccessibleBridgePlugin11qt_metacastEPKc@Qt_5 5.0.2
 _ZN23QAccessibleBridgePlugin16staticMetaObjectE@Qt_5 5.0.2
 _ZN23QAccessibleBridgePluginC1EP7QObject@Qt_5 5.0.2
 _ZN23QAccessibleBridgePluginC2EP7QObject@Qt_5 5.0.2
 _ZN23QAccessibleBridgePluginD0Ev@Qt_5 5.0.2
 _ZN23QAccessibleBridgePluginD1Ev@Qt_5 5.0.2
 _ZN23QAccessibleBridgePluginD2Ev@Qt_5 5.0.2
 _ZN23QImageTextureGlyphCache11fillTextureERKN18QTextureGlyphCache5CoordEj6QFixed@Qt_5_PRIVATE_API 5.0.2 1
 _ZN23QImageTextureGlyphCache17createTextureDataEii@Qt_5_PRIVATE_API 5.0.2 1
 _ZN23QImageTextureGlyphCache17resizeTextureDataEii@Qt_5_PRIVATE_API 5.0.2 1
 _ZN23QImageTextureGlyphCacheD0Ev@Qt_5_PRIVATE_API 5.6.0~beta 1
 _ZN23QImageTextureGlyphCacheD1Ev@Qt_5_PRIVATE_API 5.6.0~beta 1
 _ZN23QImageTextureGlyphCacheD2Ev@Qt_5_PRIVATE_API 5.6.0~beta 1
 _ZN23QOpenGLExtensionMatcherC1Ev@Qt_5_PRIVATE_API 5.1.0 1
 _ZN23QOpenGLExtensionMatcherC2Ev@Qt_5_PRIVATE_API 5.1.0 1
 _ZN23QPlatformDragQtResponseC1EbN2Qt10DropActionE5QRect@Qt_5 5.0.2
 _ZN23QPlatformDragQtResponseC2EbN2Qt10DropActionE5QRect@Qt_5 5.0.2
 _ZN23QPlatformDropQtResponseC1EbN2Qt10DropActionE@Qt_5 5.0.2
 _ZN23QPlatformDropQtResponseC2EbN2Qt10DropActionE@Qt_5 5.0.2
 _ZN23QPlatformGraphicsBuffer11qt_metacallEN11QMetaObject4CallEiPPv@Qt_5 5.5.0
 _ZN23QPlatformGraphicsBuffer11qt_metacastEPKc@Qt_5 5.5.0
 _ZN23QPlatformGraphicsBuffer16staticMetaObjectE@Qt_5 5.5.0
 _ZN23QPlatformGraphicsBuffer4dataEv@Qt_5 5.5.0
 _ZN23QPlatformGraphicsBuffer4lockE6QFlagsINS_10AccessTypeEERK5QRect@Qt_5 5.5.0
 _ZN23QPlatformGraphicsBuffer6unlockEv@Qt_5 5.5.0
 _ZN23QPlatformGraphicsBuffer8unlockedE6QFlagsINS_10AccessTypeEE@Qt_5 5.5.0
 _ZN23QPlatformGraphicsBufferC1ERK5QSizeRK12QPixelFormat@Qt_5 5.5.0
 _ZN23QPlatformGraphicsBufferC2ERK5QSizeRK12QPixelFormat@Qt_5 5.5.0
 _ZN23QPlatformGraphicsBufferD0Ev@Qt_5 5.5.0
 _ZN23QPlatformGraphicsBufferD1Ev@Qt_5 5.5.0
 _ZN23QPlatformGraphicsBufferD2Ev@Qt_5 5.5.0
 _ZN23QPlatformSessionManager12appSaveStateEv@Qt_5 5.2.0~alpha1
 _ZN23QPlatformSessionManager13appCommitDataEv@Qt_5 5.2.0~alpha1
 _ZN23QPlatformSessionManager13requestPhase2Ev@Qt_5 5.2.0~alpha1
 _ZN23QPlatformSessionManager14setRestartHintEN15QSessionManager11RestartHintE@Qt_5 5.2.0~alpha1
 _ZN23QPlatformSessionManager17allowsInteractionEv@Qt_5 5.2.0~alpha1
 _ZN23QPlatformSessionManager17setDiscardCommandERK11QStringList@Qt_5 5.2.0~alpha1
 _ZN23QPlatformSessionManager17setRestartCommandERK11QStringList@Qt_5 5.2.0~alpha1
 _ZN23QPlatformSessionManager18setManagerPropertyERK7QStringRK11QStringList@Qt_5 5.2.0~alpha1
 _ZN23QPlatformSessionManager18setManagerPropertyERK7QStringS2_@Qt_5 5.2.0~alpha1
 _ZN23QPlatformSessionManager22allowsErrorInteractionEv@Qt_5 5.2.0~alpha1
 _ZN23QPlatformSessionManager6cancelEv@Qt_5 5.2.0~alpha1
 _ZN23QPlatformSessionManager7releaseEv@Qt_5 5.2.0~alpha1
 _ZN23QPlatformSessionManagerC1ERK7QStringS2_@Qt_5 5.2.0~alpha1
 _ZN23QPlatformSessionManagerC2ERK7QStringS2_@Qt_5 5.2.0~alpha1
 _ZN23QPlatformSessionManagerD0Ev@Qt_5 5.2.0~alpha1
 _ZN23QPlatformSessionManagerD1Ev@Qt_5 5.2.0~alpha1
 _ZN23QPlatformSessionManagerD2Ev@Qt_5 5.2.0~alpha1
 _ZN23QPlatformSystemTrayIcon11qt_metacallEN11QMetaObject4CallEiPPv@Qt_5 5.0.2
 _ZN23QPlatformSystemTrayIcon11qt_metacastEPKc@Qt_5 5.0.2
 _ZN23QPlatformSystemTrayIcon14messageClickedEv@Qt_5 5.0.2
 _ZN23QPlatformSystemTrayIcon16staticMetaObjectE@Qt_5 5.0.2
 _ZN23QPlatformSystemTrayIcon9activatedENS_16ActivationReasonE@Qt_5 5.0.2
 _ZN23QPlatformSystemTrayIconC1Ev@Qt_5 5.0.2
 _ZN23QPlatformSystemTrayIconC2Ev@Qt_5 5.0.2
 _ZN23QPlatformSystemTrayIconD0Ev@Qt_5 5.0.2
 _ZN23QPlatformSystemTrayIconD1Ev@Qt_5 5.0.2
 _ZN23QPlatformSystemTrayIconD2Ev@Qt_5 5.0.2
 _ZN23QWindowStateChangeEventC1E6QFlagsIN2Qt11WindowStateEEb@Qt_5 5.0.2
 _ZN23QWindowStateChangeEventC2E6QFlagsIN2Qt11WindowStateEEb@Qt_5 5.0.2
 _ZN23QWindowStateChangeEventD0Ev@Qt_5 5.0.2
 _ZN23QWindowStateChangeEventD1Ev@Qt_5 5.0.2
 _ZN23QWindowStateChangeEventD2Ev@Qt_5 5.0.2
 _ZN24QAbstractOpenGLFunctions16setOwningContextEPK14QOpenGLContext@Qt_5 5.5.0
 _ZN24QAbstractOpenGLFunctions25initializeOpenGLFunctionsEv@Qt_5 5.5.0
 _ZN24QAbstractOpenGLFunctionsC1Ev@Qt_5 5.5.0
 _ZN24QAbstractOpenGLFunctionsC2Ev@Qt_5 5.5.0
 _ZN24QAbstractOpenGLFunctionsD0Ev@Qt_5 5.5.0
 _ZN24QAbstractOpenGLFunctionsD1Ev@Qt_5 5.5.0
 _ZN24QAbstractOpenGLFunctionsD2Ev@Qt_5 5.5.0
 _ZN24QAccessibleTextInterfaceD0Ev@Qt_5 5.6.0~beta
 _ZN24QAccessibleTextInterfaceD1Ev@Qt_5 5.6.0~beta
 _ZN24QAccessibleTextInterfaceD2Ev@Qt_5 5.6.0~beta
 _ZN24QBlittablePlatformPixmap12setBlittableEP10QBlittable@Qt_5_PRIVATE_API 5.0.2 1
 _ZN24QBlittablePlatformPixmap19setDevicePixelRatioEd@Qt_5 5.2.0
 _ZN24QBlittablePlatformPixmap4fillERK6QColor@Qt_5 5.0.2
 _ZN24QBlittablePlatformPixmap6bufferEv@Qt_5 5.0.2
 _ZN24QBlittablePlatformPixmap6resizeEii@Qt_5 5.0.2
 _ZN24QBlittablePlatformPixmap9fromImageERK6QImage6QFlagsIN2Qt19ImageConversionFlagEE@Qt_5 5.0.2
 _ZN24QBlittablePlatformPixmapC1Ev@Qt_5 5.0.2
 _ZN24QBlittablePlatformPixmapC2Ev@Qt_5 5.0.2
 _ZN24QBlittablePlatformPixmapD0Ev@Qt_5 5.0.2
 _ZN24QBlittablePlatformPixmapD1Ev@Qt_5 5.0.2
 _ZN24QBlittablePlatformPixmapD2Ev@Qt_5 5.0.2
 _ZN24QImagePixmapCleanupHooks12addImageHookEPFvxE@Qt_5_PRIVATE_API 5.0.2 1
 _ZN24QImagePixmapCleanupHooks13isImageCachedERK6QImage@Qt_5_PRIVATE_API 5.0.2 1
 _ZN24QImagePixmapCleanupHooks14isPixmapCachedERK7QPixmap@Qt_5_PRIVATE_API 5.0.2 1
 _ZN24QImagePixmapCleanupHooks15removeImageHookEPFvxE@Qt_5_PRIVATE_API 5.0.2 1
 _ZN24QImagePixmapCleanupHooks17executeImageHooksEx@Qt_5_PRIVATE_API 5.0.2 1
 _ZN24QImagePixmapCleanupHooks18enableCleanupHooksEP15QPlatformPixmap@Qt_5_PRIVATE_API 5.0.2 1
 _ZN24QImagePixmapCleanupHooks18enableCleanupHooksERK6QImage@Qt_5_PRIVATE_API 5.0.2 1
 _ZN24QImagePixmapCleanupHooks18enableCleanupHooksERK7QPixmap@Qt_5_PRIVATE_API 5.0.2 1
 _ZN24QImagePixmapCleanupHooks32addPlatformPixmapDestructionHookEPFvP15QPlatformPixmapE@Qt_5_PRIVATE_API 5.0.2 1
 _ZN24QImagePixmapCleanupHooks33addPlatformPixmapModificationHookEPFvP15QPlatformPixmapE@Qt_5_PRIVATE_API 5.0.2 1
 _ZN24QImagePixmapCleanupHooks35removePlatformPixmapDestructionHookEPFvP15QPlatformPixmapE@Qt_5_PRIVATE_API 5.0.2 1
 _ZN24QImagePixmapCleanupHooks36removePlatformPixmapModificationHookEPFvP15QPlatformPixmapE@Qt_5_PRIVATE_API 5.0.2 1
 _ZN24QImagePixmapCleanupHooks37executePlatformPixmapDestructionHooksEP15QPlatformPixmap@Qt_5_PRIVATE_API 5.0.2 1
 _ZN24QImagePixmapCleanupHooks38executePlatformPixmapModificationHooksEP15QPlatformPixmap@Qt_5_PRIVATE_API 5.0.2 1
 _ZN24QImagePixmapCleanupHooks8instanceEv@Qt_5_PRIVATE_API 5.0.2 1
 _ZN24QOpenGLCustomShaderStage11setInactiveEv@Qt_5_PRIVATE_API 5.0.2 1
 _ZN24QOpenGLCustomShaderStage12setOnPainterEP8QPainter@Qt_5_PRIVATE_API 5.0.2 1
 _ZN24QOpenGLCustomShaderStage16setUniformsDirtyEv@Qt_5_PRIVATE_API 5.0.2 1
 _ZN24QOpenGLCustomShaderStage17removeFromPainterEP8QPainter@Qt_5_PRIVATE_API 5.0.2 1
 _ZN24QOpenGLCustomShaderStage9setSourceERK10QByteArray@Qt_5_PRIVATE_API 5.0.2 1
 _ZN24QOpenGLCustomShaderStageC1Ev@Qt_5_PRIVATE_API 5.0.2 1
 _ZN24QOpenGLCustomShaderStageC2Ev@Qt_5_PRIVATE_API 5.0.2 1
 _ZN24QOpenGLCustomShaderStageD0Ev@Qt_5_PRIVATE_API 5.0.2 1
 _ZN24QOpenGLCustomShaderStageD1Ev@Qt_5_PRIVATE_API 5.0.2 1
 _ZN24QOpenGLCustomShaderStageD2Ev@Qt_5_PRIVATE_API 5.0.2 1
 _ZN24QOpenGLFramebufferObject11bindDefaultEv@Qt_5 5.0.2
 _ZN24QOpenGLFramebufferObject11takeTextureEi@Qt_5 5.6.0~beta
 _ZN24QOpenGLFramebufferObject11takeTextureEv@Qt_5 5.3.0
 _ZN24QOpenGLFramebufferObject13setAttachmentENS_10AttachmentE@Qt_5 5.0.2
 _ZN24QOpenGLFramebufferObject15blitFramebufferEPS_RK5QRectS0_S3_jj@Qt_5 5.0.2
 _ZN24QOpenGLFramebufferObject15blitFramebufferEPS_RK5QRectS0_S3_jjii@Qt_5 5.6.0~beta
 _ZN24QOpenGLFramebufferObject15blitFramebufferEPS_RK5QRectS0_S3_jjiiNS_24FramebufferRestorePolicyE@Qt_5 5.7.0
 _ZN24QOpenGLFramebufferObject15blitFramebufferEPS_S0_jj@Qt_5 5.0.2
 _ZN24QOpenGLFramebufferObject18addColorAttachmentERK5QSizej@Qt_5 5.6.0~beta
 _ZN24QOpenGLFramebufferObject18addColorAttachmentEiij@Qt_5 5.6.0~beta
 _ZN24QOpenGLFramebufferObject24hasOpenGLFramebufferBlitEv@Qt_5 5.0.2
 _ZN24QOpenGLFramebufferObject27hasOpenGLFramebufferObjectsEv@Qt_5 5.0.2
 _ZN24QOpenGLFramebufferObject4bindEv@Qt_5 5.0.2
 _ZN24QOpenGLFramebufferObject7releaseEv@Qt_5 5.0.2
 _ZN24QOpenGLFramebufferObjectC1ERK5QSizeNS_10AttachmentEjj@Qt_5 5.0.2
 _ZN24QOpenGLFramebufferObjectC1ERK5QSizeRK30QOpenGLFramebufferObjectFormat@Qt_5 5.0.2
 _ZN24QOpenGLFramebufferObjectC1ERK5QSizej@Qt_5 5.0.2
 _ZN24QOpenGLFramebufferObjectC1EiiNS_10AttachmentEjj@Qt_5 5.0.2
 _ZN24QOpenGLFramebufferObjectC1EiiRK30QOpenGLFramebufferObjectFormat@Qt_5 5.0.2
 _ZN24QOpenGLFramebufferObjectC1Eiij@Qt_5 5.0.2
 _ZN24QOpenGLFramebufferObjectC2ERK5QSizeNS_10AttachmentEjj@Qt_5 5.0.2
 _ZN24QOpenGLFramebufferObjectC2ERK5QSizeRK30QOpenGLFramebufferObjectFormat@Qt_5 5.0.2
 _ZN24QOpenGLFramebufferObjectC2ERK5QSizej@Qt_5 5.0.2
 _ZN24QOpenGLFramebufferObjectC2EiiNS_10AttachmentEjj@Qt_5 5.0.2
 _ZN24QOpenGLFramebufferObjectC2EiiRK30QOpenGLFramebufferObjectFormat@Qt_5 5.0.2
 _ZN24QOpenGLFramebufferObjectC2Eiij@Qt_5 5.0.2
 _ZN24QOpenGLFramebufferObjectD0Ev@Qt_5 5.0.2
 _ZN24QOpenGLFramebufferObjectD1Ev@Qt_5 5.0.2
 _ZN24QOpenGLFramebufferObjectD2Ev@Qt_5 5.0.2
 _ZN24QOpenGLTextureGlyphCache11fillTextureERKN18QTextureGlyphCache5CoordEj6QFixed@Qt_5_PRIVATE_API 5.0.2 1
 _ZN24QOpenGLTextureGlyphCache17createTextureDataEii@Qt_5_PRIVATE_API 5.0.2 1
 _ZN24QOpenGLTextureGlyphCache17resizeTextureDataEii@Qt_5_PRIVATE_API 5.0.2 1
 _ZN24QOpenGLTextureGlyphCache18setupVertexAttribsEv@Qt_5_PRIVATE_API 5.3.0 1
 _ZN24QOpenGLTextureGlyphCache5clearEv@Qt_5_PRIVATE_API 5.0.2 1
 _ZN24QOpenGLTextureGlyphCacheC1EN11QFontEngine11GlyphFormatERK10QTransform@Qt_5_PRIVATE_API 5.3.0 1
 _ZN24QOpenGLTextureGlyphCacheC2EN11QFontEngine11GlyphFormatERK10QTransform@Qt_5_PRIVATE_API 5.3.0 1
 _ZN24QOpenGLTextureGlyphCacheD0Ev@Qt_5_PRIVATE_API 5.0.2 1
 _ZN24QOpenGLTextureGlyphCacheD1Ev@Qt_5_PRIVATE_API 5.0.2 1
 _ZN24QOpenGLTextureGlyphCacheD2Ev@Qt_5_PRIVATE_API 5.0.2 1
 _ZN24QOpenGLVertexArrayObject11qt_metacallEN11QMetaObject4CallEiPPv@Qt_5 5.1.0
 _ZN24QOpenGLVertexArrayObject11qt_metacastEPKc@Qt_5 5.1.0
 _ZN24QOpenGLVertexArrayObject16staticMetaObjectE@Qt_5 5.1.0
 _ZN24QOpenGLVertexArrayObject4bindEv@Qt_5 5.1.0
 _ZN24QOpenGLVertexArrayObject6createEv@Qt_5 5.1.0
 _ZN24QOpenGLVertexArrayObject7destroyEv@Qt_5 5.1.0
 _ZN24QOpenGLVertexArrayObject7releaseEv@Qt_5 5.1.0
 _ZN24QOpenGLVertexArrayObjectC1EP7QObject@Qt_5 5.1.0
 _ZN24QOpenGLVertexArrayObjectC1ER31QOpenGLVertexArrayObjectPrivate@Qt_5 5.1.0
 _ZN24QOpenGLVertexArrayObjectC2EP7QObject@Qt_5 5.1.0
 _ZN24QOpenGLVertexArrayObjectC2ER31QOpenGLVertexArrayObjectPrivate@Qt_5 5.1.0
 _ZN24QOpenGLVertexArrayObjectD0Ev@Qt_5 5.1.0
 _ZN24QOpenGLVertexArrayObjectD1Ev@Qt_5 5.1.0
 _ZN24QOpenGLVertexArrayObjectD2Ev@Qt_5 5.1.0
 _ZN24QPagedPaintDevicePrivateD0Ev@Qt_5_PRIVATE_API 5.6.0~beta 1
 _ZN24QPagedPaintDevicePrivateD1Ev@Qt_5_PRIVATE_API 5.6.0~beta 1
 _ZN24QPagedPaintDevicePrivateD2Ev@Qt_5_PRIVATE_API 5.6.0~beta 1
 _ZN24QPlatformNativeInterface11qt_metacallEN11QMetaObject4CallEiPPv@Qt_5 5.0.2
 _ZN24QPlatformNativeInterface11qt_metacastEPKc@Qt_5 5.0.2
 _ZN24QPlatformNativeInterface16staticMetaObjectE@Qt_5 5.0.2
 _ZN24QPlatformNativeInterface17setWindowPropertyEP15QPlatformWindowRK7QStringRK8QVariant@Qt_5 5.0.2
 _ZN24QPlatformNativeInterface21windowPropertyChangedEP15QPlatformWindowRK7QString@Qt_5 5.0.2
 _ZN24QPlatformNativeInterface23nativeResourceForCursorERK10QByteArrayRK7QCursor@Qt_5 5.7.0
 _ZN24QPlatformNativeInterface23nativeResourceForScreenERK10QByteArrayP7QScreen@Qt_5 5.0.2
 _ZN24QPlatformNativeInterface23nativeResourceForWindowERK10QByteArrayP7QWindow@Qt_5 5.0.2
 _ZN24QPlatformNativeInterface24nativeResourceForContextERK10QByteArrayP14QOpenGLContext@Qt_5 5.0.2
 _ZN24QPlatformNativeInterface28nativeResourceForIntegrationERK10QByteArray@Qt_5 5.0.2
 _ZN24QPlatformNativeInterface29nativeResourceForBackingStoreERK10QByteArrayP13QBackingStore@Qt_5 5.0.2
 _ZN24QPlatformNativeInterface31nativeResourceFunctionForScreenERK10QByteArray@Qt_5 5.0.2
 _ZN24QPlatformNativeInterface31nativeResourceFunctionForWindowERK10QByteArray@Qt_5 5.0.2
 _ZN24QPlatformNativeInterface32nativeResourceFunctionForContextERK10QByteArray@Qt_5 5.0.2
 _ZN24QPlatformNativeInterface36nativeResourceFunctionForIntegrationERK10QByteArray@Qt_5 5.0.2
 _ZN24QPlatformNativeInterface37nativeResourceFunctionForBackingStoreERK10QByteArray@Qt_5 5.0.2
 _ZN24QSupportedWritingSystems12setSupportedEN13QFontDatabase13WritingSystemEb@Qt_5 5.0.2
 _ZN24QSupportedWritingSystems6detachEv@Qt_5 5.0.2
 _ZN24QSupportedWritingSystemsC1ERKS_@Qt_5 5.0.2
 _ZN24QSupportedWritingSystemsC1Ev@Qt_5 5.0.2
 _ZN24QSupportedWritingSystemsC2ERKS_@Qt_5 5.0.2
 _ZN24QSupportedWritingSystemsC2Ev@Qt_5 5.0.2
 _ZN24QSupportedWritingSystemsD1Ev@Qt_5 5.0.2
 _ZN24QSupportedWritingSystemsD2Ev@Qt_5 5.0.2
 _ZN24QSupportedWritingSystemsaSERKS_@Qt_5 5.0.2
 _ZN25QAccessibleImageInterfaceD0Ev@Qt_5 5.6.0~beta
 _ZN25QAccessibleImageInterfaceD1Ev@Qt_5 5.6.0~beta
 _ZN25QAccessibleImageInterfaceD2Ev@Qt_5 5.6.0~beta
 _ZN25QAccessibleTableInterfaceD0Ev@Qt_5 5.6.0~beta
 _ZN25QAccessibleTableInterfaceD1Ev@Qt_5 5.6.0~beta
 _ZN25QAccessibleTableInterfaceD2Ev@Qt_5 5.6.0~beta
 _ZN25QAccessibleValueInterfaceD0Ev@Qt_5 5.6.0~beta
 _ZN25QAccessibleValueInterfaceD1Ev@Qt_5 5.6.0~beta
 _ZN25QAccessibleValueInterfaceD2Ev@Qt_5 5.6.0~beta
 (arch=!armel !armhf)_ZN25QOpenGLFunctions_3_2_Core14versionProfileEv@Qt_5 5.1.0
 (arch=!armel !armhf)_ZN25QOpenGLFunctions_3_2_Core19isContextCompatibleEP14QOpenGLContext@Qt_5 5.1.0
 (arch=!armel !armhf)_ZN25QOpenGLFunctions_3_2_Core25initializeOpenGLFunctionsEv@Qt_5 5.1.0
 (arch=!armel !armhf)_ZN25QOpenGLFunctions_3_2_CoreC1Ev@Qt_5 5.1.0
 (arch=!armel !armhf)_ZN25QOpenGLFunctions_3_2_CoreC2Ev@Qt_5 5.1.0
 (arch=!armel !armhf)_ZN25QOpenGLFunctions_3_2_CoreD0Ev@Qt_5 5.1.0
 (arch=!armel !armhf)_ZN25QOpenGLFunctions_3_2_CoreD1Ev@Qt_5 5.1.0
 (arch=!armel !armhf)_ZN25QOpenGLFunctions_3_2_CoreD2Ev@Qt_5 5.1.0
 (arch=!armel !armhf)_ZN25QOpenGLFunctions_3_3_Core14versionProfileEv@Qt_5 5.1.0
 (arch=!armel !armhf)_ZN25QOpenGLFunctions_3_3_Core19isContextCompatibleEP14QOpenGLContext@Qt_5 5.1.0
 (arch=!armel !armhf)_ZN25QOpenGLFunctions_3_3_Core25initializeOpenGLFunctionsEv@Qt_5 5.1.0
 (arch=!armel !armhf)_ZN25QOpenGLFunctions_3_3_CoreC1Ev@Qt_5 5.1.0
 (arch=!armel !armhf)_ZN25QOpenGLFunctions_3_3_CoreC2Ev@Qt_5 5.1.0
 (arch=!armel !armhf)_ZN25QOpenGLFunctions_3_3_CoreD0Ev@Qt_5 5.1.0
 (arch=!armel !armhf)_ZN25QOpenGLFunctions_3_3_CoreD1Ev@Qt_5 5.1.0
 (arch=!armel !armhf)_ZN25QOpenGLFunctions_3_3_CoreD2Ev@Qt_5 5.1.0
 (arch=!armel !armhf)_ZN25QOpenGLFunctions_4_0_Core14versionProfileEv@Qt_5 5.1.0
 (arch=!armel !armhf)_ZN25QOpenGLFunctions_4_0_Core19isContextCompatibleEP14QOpenGLContext@Qt_5 5.1.0
 (arch=!armel !armhf)_ZN25QOpenGLFunctions_4_0_Core25initializeOpenGLFunctionsEv@Qt_5 5.1.0
 (arch=!armel !armhf)_ZN25QOpenGLFunctions_4_0_CoreC1Ev@Qt_5 5.1.0
 (arch=!armel !armhf)_ZN25QOpenGLFunctions_4_0_CoreC2Ev@Qt_5 5.1.0
 (arch=!armel !armhf)_ZN25QOpenGLFunctions_4_0_CoreD0Ev@Qt_5 5.1.0
 (arch=!armel !armhf)_ZN25QOpenGLFunctions_4_0_CoreD1Ev@Qt_5 5.1.0
 (arch=!armel !armhf)_ZN25QOpenGLFunctions_4_0_CoreD2Ev@Qt_5 5.1.0
 (arch=!armel !armhf)_ZN25QOpenGLFunctions_4_1_Core14versionProfileEv@Qt_5 5.1.0
 (arch=!armel !armhf)_ZN25QOpenGLFunctions_4_1_Core19isContextCompatibleEP14QOpenGLContext@Qt_5 5.1.0
 (arch=!armel !armhf)_ZN25QOpenGLFunctions_4_1_Core25initializeOpenGLFunctionsEv@Qt_5 5.1.0
 (arch=!armel !armhf)_ZN25QOpenGLFunctions_4_1_CoreC1Ev@Qt_5 5.1.0
 (arch=!armel !armhf)_ZN25QOpenGLFunctions_4_1_CoreC2Ev@Qt_5 5.1.0
 (arch=!armel !armhf)_ZN25QOpenGLFunctions_4_1_CoreD0Ev@Qt_5 5.1.0
 (arch=!armel !armhf)_ZN25QOpenGLFunctions_4_1_CoreD1Ev@Qt_5 5.1.0
 (arch=!armel !armhf)_ZN25QOpenGLFunctions_4_1_CoreD2Ev@Qt_5 5.1.0
 (arch=!armel !armhf)_ZN25QOpenGLFunctions_4_2_Core14versionProfileEv@Qt_5 5.1.0
 (arch=!armel !armhf)_ZN25QOpenGLFunctions_4_2_Core19isContextCompatibleEP14QOpenGLContext@Qt_5 5.1.0
 (arch=!armel !armhf)_ZN25QOpenGLFunctions_4_2_Core25initializeOpenGLFunctionsEv@Qt_5 5.1.0
 (arch=!armel !armhf)_ZN25QOpenGLFunctions_4_2_CoreC1Ev@Qt_5 5.1.0
 (arch=!armel !armhf)_ZN25QOpenGLFunctions_4_2_CoreC2Ev@Qt_5 5.1.0
 (arch=!armel !armhf)_ZN25QOpenGLFunctions_4_2_CoreD0Ev@Qt_5 5.1.0
 (arch=!armel !armhf)_ZN25QOpenGLFunctions_4_2_CoreD1Ev@Qt_5 5.1.0
 (arch=!armel !armhf)_ZN25QOpenGLFunctions_4_2_CoreD2Ev@Qt_5 5.1.0
 (arch=!armel !armhf)_ZN25QOpenGLFunctions_4_3_Core14versionProfileEv@Qt_5 5.1.0
 (arch=!armel !armhf)_ZN25QOpenGLFunctions_4_3_Core19isContextCompatibleEP14QOpenGLContext@Qt_5 5.1.0
 (arch=!armel !armhf)_ZN25QOpenGLFunctions_4_3_Core25initializeOpenGLFunctionsEv@Qt_5 5.1.0
 (arch=!armel !armhf)_ZN25QOpenGLFunctions_4_3_CoreC1Ev@Qt_5 5.1.0
 (arch=!armel !armhf)_ZN25QOpenGLFunctions_4_3_CoreC2Ev@Qt_5 5.1.0
 (arch=!armel !armhf)_ZN25QOpenGLFunctions_4_3_CoreD0Ev@Qt_5 5.1.0
 (arch=!armel !armhf)_ZN25QOpenGLFunctions_4_3_CoreD1Ev@Qt_5 5.1.0
 (arch=!armel !armhf)_ZN25QOpenGLFunctions_4_3_CoreD2Ev@Qt_5 5.1.0
 (arch=!armel !armhf)_ZN25QOpenGLFunctions_4_4_Core14versionProfileEv@Qt_5 5.5.0
 (arch=!armel !armhf)_ZN25QOpenGLFunctions_4_4_Core19isContextCompatibleEP14QOpenGLContext@Qt_5 5.5.0
 (arch=!armel !armhf)_ZN25QOpenGLFunctions_4_4_Core25initializeOpenGLFunctionsEv@Qt_5 5.5.0
 (arch=!armel !armhf)_ZN25QOpenGLFunctions_4_4_CoreC1Ev@Qt_5 5.5.0
 (arch=!armel !armhf)_ZN25QOpenGLFunctions_4_4_CoreC2Ev@Qt_5 5.5.0
 (arch=!armel !armhf)_ZN25QOpenGLFunctions_4_4_CoreD0Ev@Qt_5 5.5.0
 (arch=!armel !armhf)_ZN25QOpenGLFunctions_4_4_CoreD1Ev@Qt_5 5.5.0
 (arch=!armel !armhf)_ZN25QOpenGLFunctions_4_4_CoreD2Ev@Qt_5 5.5.0
 (arch=!armel !armhf)_ZN25QOpenGLFunctions_4_5_Core14versionProfileEv@Qt_5 5.5.0
 (arch=!armel !armhf)_ZN25QOpenGLFunctions_4_5_Core19isContextCompatibleEP14QOpenGLContext@Qt_5 5.5.0
 (arch=!armel !armhf)_ZN25QOpenGLFunctions_4_5_Core25initializeOpenGLFunctionsEv@Qt_5 5.5.0
 (arch=!armel !armhf)_ZN25QOpenGLFunctions_4_5_CoreC1Ev@Qt_5 5.5.0
 (arch=!armel !armhf)_ZN25QOpenGLFunctions_4_5_CoreC2Ev@Qt_5 5.5.0
 (arch=!armel !armhf)_ZN25QOpenGLFunctions_4_5_CoreD0Ev@Qt_5 5.5.0
 (arch=!armel !armhf)_ZN25QOpenGLFunctions_4_5_CoreD1Ev@Qt_5 5.5.0
 (arch=!armel !armhf)_ZN25QOpenGLFunctions_4_5_CoreD2Ev@Qt_5 5.5.0
 _ZN25QOpenGLPaintDevicePrivateC1ERK5QSize@Qt_5_PRIVATE_API 5.4.0 1
 _ZN25QOpenGLPaintDevicePrivateC2ERK5QSize@Qt_5_PRIVATE_API 5.4.0 1
 _ZN25QOpenGLPaintDevicePrivateD0Ev@Qt_5_PRIVATE_API 5.6.0~beta 1
 _ZN25QOpenGLPaintDevicePrivateD1Ev@Qt_5_PRIVATE_API 5.6.0~beta 1
 _ZN25QOpenGLPaintDevicePrivateD2Ev@Qt_5_PRIVATE_API 5.6.0~beta 1
 _ZN25QPlatformFileDialogHelper10setOptionsERK14QSharedPointerI18QFileDialogOptionsE@Qt_5 5.0.2
 _ZN25QPlatformFileDialogHelper11qt_metacallEN11QMetaObject4CallEiPPv@Qt_5 5.0.2
 _ZN25QPlatformFileDialogHelper11qt_metacastEPKc@Qt_5 5.0.2
 _ZN25QPlatformFileDialogHelper12fileSelectedERK4QUrl@Qt_5 5.2.0~alpha1
 _ZN25QPlatformFileDialogHelper12filterRegExpE@Qt_5 5.0.2
 _ZN25QPlatformFileDialogHelper13filesSelectedERK5QListI4QUrlE@Qt_5 5.2.0~alpha1
 _ZN25QPlatformFileDialogHelper14currentChangedERK4QUrl@Qt_5 5.2.0~alpha1
 _ZN25QPlatformFileDialogHelper14filterSelectedERK7QString@Qt_5 5.0.2
 _ZN25QPlatformFileDialogHelper15cleanFilterListERK7QString@Qt_5 5.0.2
 _ZN25QPlatformFileDialogHelper16directoryEnteredERK4QUrl@Qt_5 5.2.0~alpha1
 _ZN25QPlatformFileDialogHelper16staticMetaObjectE@Qt_5 5.0.2
 _ZN25QPlatformFontDialogHelper10setOptionsERK14QSharedPointerI18QFontDialogOptionsE@Qt_5 5.0.2
 _ZN25QPlatformFontDialogHelper11qt_metacallEN11QMetaObject4CallEiPPv@Qt_5 5.0.2
 _ZN25QPlatformFontDialogHelper11qt_metacastEPKc@Qt_5 5.0.2
 _ZN25QPlatformFontDialogHelper12fontSelectedERK5QFont@Qt_5 5.0.2
 _ZN25QPlatformFontDialogHelper16staticMetaObjectE@Qt_5 5.0.2
 _ZN25QPlatformFontDialogHelper18currentFontChangedERK5QFont@Qt_5 5.0.2
 _ZN25QPlatformOffscreenSurfaceC1EP17QOffscreenSurface@Qt_5 5.1.0
 _ZN25QPlatformOffscreenSurfaceC2EP17QOffscreenSurface@Qt_5 5.1.0
 _ZN25QPlatformOffscreenSurfaceD0Ev@Qt_5 5.1.0
 _ZN25QPlatformOffscreenSurfaceD1Ev@Qt_5 5.1.0
 _ZN25QPlatformOffscreenSurfaceD2Ev@Qt_5 5.1.0
 _ZN25QWindowSystemEventHandler9sendEventEPN29QWindowSystemInterfacePrivate17WindowSystemEventE@Qt_5 5.6.0~beta
 _ZN25QWindowSystemEventHandlerD0Ev@Qt_5 5.6.0~beta
 _ZN25QWindowSystemEventHandlerD1Ev@Qt_5 5.6.0~beta
 _ZN25QWindowSystemEventHandlerD2Ev@Qt_5 5.6.0~beta
 _ZN26QAccessibleActionInterface11pressActionEv@Qt_5 5.0.2
 _ZN26QAccessibleActionInterface12toggleActionEv@Qt_5 5.0.2
 _ZN26QAccessibleActionInterface14decreaseActionEv@Qt_5 5.0.2
 _ZN26QAccessibleActionInterface14increaseActionEv@Qt_5 5.0.2
 _ZN26QAccessibleActionInterface14nextPageActionEv@Qt_5 5.5.0
 _ZN26QAccessibleActionInterface14scrollUpActionEv@Qt_5 5.5.0
 _ZN26QAccessibleActionInterface14setFocusActionEv@Qt_5 5.0.2
 _ZN26QAccessibleActionInterface14showMenuActionEv@Qt_5 5.0.2
 _ZN26QAccessibleActionInterface16scrollDownActionEv@Qt_5 5.5.0
 _ZN26QAccessibleActionInterface16scrollLeftActionEv@Qt_5 5.5.0
 _ZN26QAccessibleActionInterface17scrollRightActionEv@Qt_5 5.5.0
 _ZN26QAccessibleActionInterface18previousPageActionEv@Qt_5 5.5.0
 _ZN26QAccessibleActionInterfaceD0Ev@Qt_5 5.6.0~beta
 _ZN26QAccessibleActionInterfaceD1Ev@Qt_5 5.6.0~beta
 _ZN26QAccessibleActionInterfaceD2Ev@Qt_5 5.6.0~beta
 _ZN26QAccessibleTextCursorEventD0Ev@Qt_5 5.6.0~beta
 _ZN26QAccessibleTextCursorEventD1Ev@Qt_5 5.6.0~beta
 _ZN26QAccessibleTextCursorEventD2Ev@Qt_5 5.6.0~beta
 _ZN26QAccessibleTextInsertEventD0Ev@Qt_5 5.6.0~beta
 _ZN26QAccessibleTextInsertEventD1Ev@Qt_5 5.6.0~beta
 _ZN26QAccessibleTextInsertEventD2Ev@Qt_5 5.6.0~beta
 _ZN26QAccessibleTextRemoveEventD0Ev@Qt_5 5.6.0~beta
 _ZN26QAccessibleTextRemoveEventD1Ev@Qt_5 5.6.0~beta
 _ZN26QAccessibleTextRemoveEventD2Ev@Qt_5 5.6.0~beta
 _ZN26QAccessibleTextUpdateEventD0Ev@Qt_5 5.6.0~beta
 _ZN26QAccessibleTextUpdateEventD1Ev@Qt_5 5.6.0~beta
 _ZN26QAccessibleTextUpdateEventD2Ev@Qt_5 5.6.0~beta
 _ZN26QInputDeviceManagerPrivate14setDeviceCountEN19QInputDeviceManager10DeviceTypeEi@Qt_5_PRIVATE_API 5.5.0 1
 _ZN26QOpenGLContextGroupPrivate10addContextEP14QOpenGLContext@Qt_5_PRIVATE_API 5.0.2 1
 _ZN26QOpenGLContextGroupPrivate13removeContextEP14QOpenGLContext@Qt_5_PRIVATE_API 5.0.2 1
 _ZN26QOpenGLContextGroupPrivate22deletePendingResourcesEP14QOpenGLContext@Qt_5_PRIVATE_API 5.0.2 1
 _ZN26QOpenGLContextGroupPrivate7cleanupEv@Qt_5_PRIVATE_API 5.0.2 1
 _ZN26QOpenGLEngineShaderManager11blitProgramEv@Qt_5_PRIVATE_API 5.0.2 1
 _ZN26QOpenGLEngineShaderManager11qt_metacallEN11QMetaObject4CallEiPPv@Qt_5_PRIVATE_API 5.0.2 1
 _ZN26QOpenGLEngineShaderManager11qt_metacastEPKc@Qt_5_PRIVATE_API 5.0.2 1
 _ZN26QOpenGLEngineShaderManager11setMaskTypeENS_8MaskTypeE@Qt_5_PRIVATE_API 5.0.2 1
 _ZN26QOpenGLEngineShaderManager13simpleProgramEv@Qt_5_PRIVATE_API 5.0.2 1
 _ZN26QOpenGLEngineShaderManager14currentProgramEv@Qt_5_PRIVATE_API 5.0.2 1
 _ZN26QOpenGLEngineShaderManager14setCustomStageEP24QOpenGLCustomShaderStage@Qt_5_PRIVATE_API 5.0.2 1
 _ZN26QOpenGLEngineShaderManager14setOpacityModeENS_11OpacityModeE@Qt_5_PRIVATE_API 5.0.2 1
 _ZN26QOpenGLEngineShaderManager14useBlitProgramEv@Qt_5_PRIVATE_API 5.0.2 1
 _ZN26QOpenGLEngineShaderManager15setSrcPixelTypeEN2Qt10BrushStyleE@Qt_5_PRIVATE_API 5.0.2 1
 _ZN26QOpenGLEngineShaderManager15setSrcPixelTypeENS_12PixelSrcTypeE@Qt_5_PRIVATE_API 5.0.2 1
 _ZN26QOpenGLEngineShaderManager16staticMetaObjectE@Qt_5_PRIVATE_API 5.0.2 1
 _ZN26QOpenGLEngineShaderManager16useSimpleProgramEv@Qt_5_PRIVATE_API 5.0.2 1
 _ZN26QOpenGLEngineShaderManager17removeCustomStageEv@Qt_5_PRIVATE_API 5.0.2 1
 _ZN26QOpenGLEngineShaderManager18getUniformLocationENS_7UniformE@Qt_5_PRIVATE_API 5.0.2 1
 _ZN26QOpenGLEngineShaderManager18setCompositionModeEN8QPainter15CompositionModeE@Qt_5_PRIVATE_API 5.0.2 1
 _ZN26QOpenGLEngineShaderManager20useCorrectShaderProgEv@Qt_5_PRIVATE_API 5.0.2 1
 _ZN26QOpenGLEngineShaderManager25optimiseForBrushTransformEN10QTransform18TransformationTypeE@Qt_5_PRIVATE_API 5.0.2 1
 _ZN26QOpenGLEngineShaderManager8setDirtyEv@Qt_5_PRIVATE_API 5.0.2 1
 _ZN26QOpenGLEngineShaderManagerC1EP14QOpenGLContext@Qt_5_PRIVATE_API 5.0.2 1
 _ZN26QOpenGLEngineShaderManagerC2EP14QOpenGLContext@Qt_5_PRIVATE_API 5.0.2 1
 _ZN26QOpenGLEngineShaderManagerD0Ev@Qt_5_PRIVATE_API 5.0.2 1
 _ZN26QOpenGLEngineShaderManagerD1Ev@Qt_5_PRIVATE_API 5.0.2 1
 _ZN26QOpenGLEngineShaderManagerD2Ev@Qt_5_PRIVATE_API 5.0.2 1
 _ZN26QOpenGLEngineSharedShaders15qShaderSnippetsE@Qt_5_PRIVATE_API 5.0.2 1
 _ZN26QOpenGLEngineSharedShaders16staticMetaObjectE@Qt_5_PRIVATE_API 5.0.2 1
 _ZN26QOpenGLEngineSharedShaders17shadersForContextEP14QOpenGLContext@Qt_5_PRIVATE_API 5.0.2 1
 _ZN26QOpenGLEngineSharedShaders18cleanupCustomStageEP24QOpenGLCustomShaderStage@Qt_5_PRIVATE_API 5.0.2 1
 _ZN26QOpenGLEngineSharedShaders18findProgramInCacheERK23QOpenGLEngineShaderProg@Qt_5_PRIVATE_API 5.0.2 1
 _ZN26QOpenGLEngineSharedShadersC1EP14QOpenGLContext@Qt_5_PRIVATE_API 5.0.2 1
 _ZN26QOpenGLEngineSharedShadersC2EP14QOpenGLContext@Qt_5_PRIVATE_API 5.0.2 1
 _ZN26QOpenGLEngineSharedShadersD1Ev@Qt_5_PRIVATE_API 5.0.2 1
 _ZN26QOpenGLEngineSharedShadersD2Ev@Qt_5_PRIVATE_API 5.0.2 1
 _ZN26QOpenGLSharedResourceGuard12freeResourceEP14QOpenGLContext@Qt_5_PRIVATE_API 5.0.2 1
 _ZN26QPlatformColorDialogHelper10setOptionsERK14QSharedPointerI19QColorDialogOptionsE@Qt_5 5.0.2
 _ZN26QPlatformColorDialogHelper11qt_metacallEN11QMetaObject4CallEiPPv@Qt_5 5.0.2
 _ZN26QPlatformColorDialogHelper11qt_metacastEPKc@Qt_5 5.0.2
 _ZN26QPlatformColorDialogHelper13colorSelectedERK6QColor@Qt_5 5.0.2
 _ZN26QPlatformColorDialogHelper16staticMetaObjectE@Qt_5 5.0.2
 _ZN26QPlatformColorDialogHelper19currentColorChangedERK6QColor@Qt_5 5.0.2
 _ZN26QPlatformIntegrationPlugin11qt_metacallEN11QMetaObject4CallEiPPv@Qt_5 5.0.2
 _ZN26QPlatformIntegrationPlugin11qt_metacastEPKc@Qt_5 5.0.2
 _ZN26QPlatformIntegrationPlugin16staticMetaObjectE@Qt_5 5.0.2
 _ZN26QPlatformIntegrationPlugin6createERK7QStringRK11QStringList@Qt_5 5.2.0~alpha1
 _ZN26QPlatformIntegrationPlugin6createERK7QStringRK11QStringListRiPPc@Qt_5 5.2.0~alpha1
 _ZN26QPlatformIntegrationPluginC1EP7QObject@Qt_5 5.0.2
 _ZN26QPlatformIntegrationPluginC2EP7QObject@Qt_5 5.0.2
 _ZN26QPlatformIntegrationPluginD0Ev@Qt_5 5.0.2
 _ZN26QPlatformIntegrationPluginD1Ev@Qt_5 5.0.2
 _ZN26QPlatformIntegrationPluginD2Ev@Qt_5 5.0.2
 _ZN27QAbstractTextDocumentLayout11formatIndexEi@Qt_5 5.0.2
 _ZN27QAbstractTextDocumentLayout11qt_metacallEN11QMetaObject4CallEiPPv@Qt_5 5.0.2
 _ZN27QAbstractTextDocumentLayout11qt_metacastEPKc@Qt_5 5.0.2
 _ZN27QAbstractTextDocumentLayout11updateBlockERK10QTextBlock@Qt_5 5.0.2
 _ZN27QAbstractTextDocumentLayout14setPaintDeviceEP12QPaintDevice@Qt_5 5.0.2
 _ZN27QAbstractTextDocumentLayout15registerHandlerEiP7QObject@Qt_5 5.0.2
 _ZN27QAbstractTextDocumentLayout16drawInlineObjectEP8QPainterRK6QRectF17QTextInlineObjectiRK11QTextFormat@Qt_5 5.0.2
 _ZN27QAbstractTextDocumentLayout16pageCountChangedEi@Qt_5 5.0.2
 _ZN27QAbstractTextDocumentLayout16staticMetaObjectE@Qt_5 5.0.2
 _ZN27QAbstractTextDocumentLayout17unregisterHandlerEiP7QObject@Qt_5 5.2.0~alpha1
 _ZN27QAbstractTextDocumentLayout18resizeInlineObjectE17QTextInlineObjectiRK11QTextFormat@Qt_5 5.0.2
 _ZN27QAbstractTextDocumentLayout19documentSizeChangedERK6QSizeF@Qt_5 5.0.2
 _ZN27QAbstractTextDocumentLayout20positionInlineObjectE17QTextInlineObjectiRK11QTextFormat@Qt_5 5.0.2
 _ZN27QAbstractTextDocumentLayout6formatEi@Qt_5 5.0.2
 _ZN27QAbstractTextDocumentLayout6updateERK6QRectF@Qt_5 5.0.2
 _ZN27QAbstractTextDocumentLayoutC1EP13QTextDocument@Qt_5 5.0.2
 _ZN27QAbstractTextDocumentLayoutC1ER34QAbstractTextDocumentLayoutPrivateP13QTextDocument@Qt_5_PRIVATE_API 5.0.2 1
 _ZN27QAbstractTextDocumentLayoutC2EP13QTextDocument@Qt_5 5.0.2
 _ZN27QAbstractTextDocumentLayoutC2ER34QAbstractTextDocumentLayoutPrivateP13QTextDocument@Qt_5_PRIVATE_API 5.0.2 1
 _ZN27QAbstractTextDocumentLayoutD0Ev@Qt_5 5.0.2
 _ZN27QAbstractTextDocumentLayoutD1Ev@Qt_5 5.0.2
 _ZN27QAbstractTextDocumentLayoutD2Ev@Qt_5 5.0.2
 _ZN27QAccessibleStateChangeEventD0Ev@Qt_5 5.6.0~beta
 _ZN27QAccessibleStateChangeEventD1Ev@Qt_5 5.6.0~beta
 _ZN27QAccessibleStateChangeEventD2Ev@Qt_5 5.6.0~beta
 _ZN27QAccessibleValueChangeEventD0Ev@Qt_5 5.6.0~beta
 _ZN27QAccessibleValueChangeEventD1Ev@Qt_5 5.6.0~beta
 _ZN27QAccessibleValueChangeEventD2Ev@Qt_5 5.6.0~beta
 _ZN27QOpenGLPixelTransferOptions11setSkipRowsEi@Qt_5 5.2.0~alpha1
 _ZN27QOpenGLPixelTransferOptions12setAlignmentEi@Qt_5 5.2.0~alpha1
 _ZN27QOpenGLPixelTransferOptions12setRowLengthEi@Qt_5 5.2.0~alpha1
 _ZN27QOpenGLPixelTransferOptions13setSkipImagesEi@Qt_5 5.2.0~alpha1
 _ZN27QOpenGLPixelTransferOptions13setSkipPixelsEi@Qt_5 5.2.0~alpha1
 _ZN27QOpenGLPixelTransferOptions14setImageHeightEi@Qt_5 5.2.0~alpha1
 _ZN27QOpenGLPixelTransferOptions19setSwapBytesEnabledEb@Qt_5 5.2.0~alpha1
 _ZN27QOpenGLPixelTransferOptions28setLeastSignificantByteFirstEb@Qt_5 5.2.0~alpha1
 _ZN27QOpenGLPixelTransferOptionsC1ERKS_@Qt_5 5.2.0~alpha1
 _ZN27QOpenGLPixelTransferOptionsC1Ev@Qt_5 5.2.0~alpha1
 _ZN27QOpenGLPixelTransferOptionsC2ERKS_@Qt_5 5.2.0~alpha1
 _ZN27QOpenGLPixelTransferOptionsC2Ev@Qt_5 5.2.0~alpha1
 _ZN27QOpenGLPixelTransferOptionsD1Ev@Qt_5 5.2.0~alpha1
 _ZN27QOpenGLPixelTransferOptionsD2Ev@Qt_5 5.2.0~alpha1
 _ZN27QOpenGLPixelTransferOptionsaSERKS_@Qt_5 5.2.0~alpha1
 _ZN27QPlatformInputContextPlugin11qt_metacallEN11QMetaObject4CallEiPPv@Qt_5 5.0.2
 _ZN27QPlatformInputContextPlugin11qt_metacastEPKc@Qt_5 5.0.2
 _ZN27QPlatformInputContextPlugin16staticMetaObjectE@Qt_5 5.0.2
 _ZN27QPlatformInputContextPluginC1EP7QObject@Qt_5 5.0.2
 _ZN27QPlatformInputContextPluginC2EP7QObject@Qt_5 5.0.2
 _ZN27QPlatformInputContextPluginD0Ev@Qt_5 5.0.2
 _ZN27QPlatformInputContextPluginD1Ev@Qt_5 5.0.2
 _ZN27QPlatformInputContextPluginD2Ev@Qt_5 5.0.2
 _ZN27QPlatformIntegrationFactory4keysERK7QString@Qt_5 5.0.2
 _ZN27QPlatformIntegrationFactory6createERK7QStringRK11QStringListRiPPcS2_@Qt_5 5.2.0~alpha1
 _ZN27QRegularExpressionValidator11qt_metacallEN11QMetaObject4CallEiPPv@Qt_5 5.1.0
 _ZN27QRegularExpressionValidator11qt_metacastEPKc@Qt_5 5.1.0
 _ZN27QRegularExpressionValidator16staticMetaObjectE@Qt_5 5.1.0
 _ZN27QRegularExpressionValidator20setRegularExpressionERK18QRegularExpression@Qt_5 5.1.0
 _ZN27QRegularExpressionValidator24regularExpressionChangedERK18QRegularExpression@Qt_5 5.1.0
 _ZN27QRegularExpressionValidatorC1EP7QObject@Qt_5 5.1.0
 _ZN27QRegularExpressionValidatorC1ERK18QRegularExpressionP7QObject@Qt_5 5.1.0
 _ZN27QRegularExpressionValidatorC2EP7QObject@Qt_5 5.1.0
 _ZN27QRegularExpressionValidatorC2ERK18QRegularExpressionP7QObject@Qt_5 5.1.0
 _ZN27QRegularExpressionValidatorD0Ev@Qt_5 5.1.0
 _ZN27QRegularExpressionValidatorD1Ev@Qt_5 5.1.0
 _ZN27QRegularExpressionValidatorD2Ev@Qt_5 5.1.0
 _ZN28QApplicationStateChangeEventC1EN2Qt16ApplicationStateE@Qt_5 5.1.0
 _ZN28QApplicationStateChangeEventC2EN2Qt16ApplicationStateE@Qt_5 5.1.0
 _ZN28QPlatformInputContextFactory4keysEv@Qt_5 5.0.2
 _ZN28QPlatformInputContextFactory6createERK7QString@Qt_5 5.0.2
 _ZN28QPlatformInputContextFactory6createEv@Qt_5 5.0.2
 _ZN28QPlatformInputContextFactory9requestedEv@Qt_5 5.6.0~beta
 _ZN28QPlatformMessageDialogHelper10setOptionsERK14QSharedPointerI21QMessageDialogOptionsE@Qt_5 5.2.0~alpha1
 _ZN28QPlatformMessageDialogHelper11qt_metacallEN11QMetaObject4CallEiPPv@Qt_5 5.2.0~alpha1
 _ZN28QPlatformMessageDialogHelper11qt_metacastEPKc@Qt_5 5.2.0~alpha1
 _ZN28QPlatformMessageDialogHelper16staticMetaObjectE@Qt_5 5.2.0~alpha1
 _ZN28QPlatformMessageDialogHelper7clickedEN21QPlatformDialogHelper14StandardButtonENS0_10ButtonRoleE@Qt_5 5.3.0
 _ZN28QPlatformSharedGraphicsCache11qt_metacallEN11QMetaObject4CallEiPPv@Qt_5 5.0.2
 _ZN28QPlatformSharedGraphicsCache11qt_metacastEPKc@Qt_5 5.0.2
 _ZN28QPlatformSharedGraphicsCache12itemsMissingERK10QByteArrayRK7QVectorIjE@Qt_5 5.0.2
 _ZN28QPlatformSharedGraphicsCache12itemsUpdatedERK10QByteArrayPvRK7QVectorIjERKS4_I6QPointE@Qt_5 5.0.2
 _ZN28QPlatformSharedGraphicsCache14itemsAvailableERK10QByteArrayPvRK7QVectorIjERKS4_I6QPointE@Qt_5 5.0.2
 _ZN28QPlatformSharedGraphicsCache16itemsInvalidatedERK10QByteArrayRK7QVectorIjE@Qt_5 5.0.2
 _ZN28QPlatformSharedGraphicsCache16staticMetaObjectE@Qt_5 5.0.2
 _ZN29QAccessibleTableCellInterfaceD0Ev@Qt_5 5.6.0~beta
 _ZN29QAccessibleTableCellInterfaceD1Ev@Qt_5 5.6.0~beta
 _ZN29QAccessibleTableCellInterfaceD2Ev@Qt_5 5.6.0~beta
 _ZN29QAccessibleTextSelectionEventD0Ev@Qt_5 5.6.0~beta
 _ZN29QAccessibleTextSelectionEventD1Ev@Qt_5 5.6.0~beta
 _ZN29QAccessibleTextSelectionEventD2Ev@Qt_5 5.6.0~beta
 _ZN29QScreenOrientationChangeEventC1EP7QScreenN2Qt17ScreenOrientationE@Qt_5 5.0.2
 _ZN29QScreenOrientationChangeEventC2EP7QScreenN2Qt17ScreenOrientationE@Qt_5 5.0.2
 _ZN29QScreenOrientationChangeEventD0Ev@Qt_5 5.0.2
 _ZN29QScreenOrientationChangeEventD1Ev@Qt_5 5.0.2
 _ZN29QScreenOrientationChangeEventD2Ev@Qt_5 5.0.2
 _ZN29QWindowSystemInterfacePrivate10WheelEventC1EP7QWindowmRK7QPointFS5_6QPointS6_iN2Qt11OrientationE6QFlagsINS7_16KeyboardModifierEENS7_11ScrollPhaseENS7_16MouseEventSourceEb@Qt_5 5.7.0
 _ZN29QWindowSystemInterfacePrivate10WheelEventC2EP7QWindowmRK7QPointFS5_6QPointS6_iN2Qt11OrientationE6QFlagsINS7_16KeyboardModifierEENS7_11ScrollPhaseENS7_16MouseEventSourceEb@Qt_5 5.7.0
 _ZN29QWindowSystemInterfacePrivate11ExposeEventC1EP7QWindowRK7QRegion@Qt_5 5.0.2
 _ZN29QWindowSystemInterfacePrivate11ExposeEventC2EP7QWindowRK7QRegion@Qt_5 5.0.2
 _ZN29QWindowSystemInterfacePrivate11TabletEvent24platformSynthesizesMouseE@Qt_5 5.7.0
 _ZN29QWindowSystemInterfacePrivate11TabletEvent27setPlatformSynthesizesMouseEb@Qt_5 5.7.0
 _ZN29QWindowSystemInterfacePrivate12eventHandlerE@Qt_5 5.6.0~beta
 _ZN29QWindowSystemInterfacePrivate13eventAcceptedE@Qt_5 5.6.0~beta
 _ZN29QWindowSystemInterfacePrivate13eventsFlushedE@Qt_5 5.1.0
 _ZN29QWindowSystemInterfacePrivate15flushEventMutexE@Qt_5 5.1.0
 _ZN29QWindowSystemInterfacePrivate19toNativeTouchPointsERK5QListIN11QTouchEvent10TouchPointEEPK7QWindow@Qt_5 5.6.0~beta
 _ZN29QWindowSystemInterfacePrivate20getWindowSystemEventEv@Qt_5 5.0.2
 _ZN29QWindowSystemInterfacePrivate21fromNativeTouchPointsERK5QListIN22QWindowSystemInterface10TouchPointEEPK7QWindowPN6QEvent4TypeE@Qt_5 5.6.0~beta
 _ZN29QWindowSystemInterfacePrivate21peekWindowSystemEventENS_9EventTypeE@Qt_5 5.0.2
 _ZN29QWindowSystemInterfacePrivate21postWindowSystemEventEPNS_17WindowSystemEventE@Qt_5 5.6.0~beta
 _ZN29QWindowSystemInterfacePrivate22windowSystemEventQueueE@Qt_5 5.0.2
 _ZN29QWindowSystemInterfacePrivate23handleWindowSystemEventEPNS_17WindowSystemEventE@Qt_5 5.0.2
 _ZN29QWindowSystemInterfacePrivate23removeWindowSystemEventEPNS_17WindowSystemEventE@Qt_5 5.0.2
 _ZN29QWindowSystemInterfacePrivate24windowSystemEventsQueuedEv@Qt_5 5.0.2
 _ZN29QWindowSystemInterfacePrivate29synchronousWindowSystemEventsE@Qt_5 5.6.0~beta
 _ZN29QWindowSystemInterfacePrivate30removeWindowSystemEventhandlerEP25QWindowSystemEventHandler@Qt_5 5.6.0~beta
 _ZN29QWindowSystemInterfacePrivate31installWindowSystemEventHandlerEP25QWindowSystemEventHandler@Qt_5 5.6.0~beta
 _ZN29QWindowSystemInterfacePrivate32getNonUserInputWindowSystemEventEv@Qt_5 5.0.2
 _ZN29QWindowSystemInterfacePrivate9eventTimeE@Qt_5 5.0.2
 _ZN2Qt12codecForHtmlERK10QByteArray@Qt_5 5.0.2
 _ZN2Qt15mightBeRichTextERK7QString@Qt_5 5.0.2
 _ZN2Qt20convertFromPlainTextERK7QStringNS_14WhiteSpaceModeE@Qt_5 5.0.2
 _ZN30QOpenGLFramebufferObjectFormat10setSamplesEi@Qt_5 5.0.2
 _ZN30QOpenGLFramebufferObjectFormat13setAttachmentEN24QOpenGLFramebufferObject10AttachmentE@Qt_5 5.0.2
 _ZN30QOpenGLFramebufferObjectFormat16setTextureTargetEj@Qt_5 5.0.2
 _ZN30QOpenGLFramebufferObjectFormat24setInternalTextureFormatEj@Qt_5 5.0.2
 _ZN30QOpenGLFramebufferObjectFormat6detachEv@Qt_5 5.0.2
 _ZN30QOpenGLFramebufferObjectFormat9setMipmapEb@Qt_5 5.0.2
 _ZN30QOpenGLFramebufferObjectFormatC1ERKS_@Qt_5 5.0.2
 _ZN30QOpenGLFramebufferObjectFormatC1Ev@Qt_5 5.0.2
 _ZN30QOpenGLFramebufferObjectFormatC2ERKS_@Qt_5 5.0.2
 _ZN30QOpenGLFramebufferObjectFormatC2Ev@Qt_5 5.0.2
 _ZN30QOpenGLFramebufferObjectFormatD1Ev@Qt_5 5.0.2
 _ZN30QOpenGLFramebufferObjectFormatD2Ev@Qt_5 5.0.2
 _ZN30QOpenGLFramebufferObjectFormataSERKS_@Qt_5 5.0.2
 _ZN31QOpenGLMultiGroupSharedResource5valueEP14QOpenGLContext@Qt_5_PRIVATE_API 5.0.2 1
 _ZN31QOpenGLMultiGroupSharedResource6insertEP14QOpenGLContextP21QOpenGLSharedResource@Qt_5_PRIVATE_API 5.0.2 1
 _ZN31QOpenGLMultiGroupSharedResource7cleanupEP19QOpenGLContextGroupP21QOpenGLSharedResource@Qt_5_PRIVATE_API 5.0.2 1
 _ZN31QOpenGLMultiGroupSharedResourceC1Ev@Qt_5_PRIVATE_API 5.0.2 1
 _ZN31QOpenGLMultiGroupSharedResourceC2Ev@Qt_5_PRIVATE_API 5.0.2 1
 _ZN31QOpenGLMultiGroupSharedResourceD1Ev@Qt_5_PRIVATE_API 5.0.2 1
 _ZN31QOpenGLMultiGroupSharedResourceD2Ev@Qt_5_PRIVATE_API 5.0.2 1
 _ZN32QAccessibleEditableTextInterfaceD0Ev@Qt_5 5.6.0~beta
 _ZN32QAccessibleEditableTextInterfaceD1Ev@Qt_5 5.6.0~beta
 _ZN32QAccessibleEditableTextInterfaceD2Ev@Qt_5 5.6.0~beta
 _ZN32QAccessibleTableModelChangeEventD0Ev@Qt_5 5.6.0~beta
 _ZN32QAccessibleTableModelChangeEventD1Ev@Qt_5 5.6.0~beta
 _ZN32QAccessibleTableModelChangeEventD2Ev@Qt_5 5.6.0~beta
 _ZN34QAbstractTextDocumentLayoutPrivate19_q_handlerDestroyedEP7QObject@Qt_5_PRIVATE_API 5.6.0~beta 1
 _ZN34QAbstractTextDocumentLayoutPrivateD0Ev@Qt_5_PRIVATE_API 5.6.0~beta 1
 _ZN34QAbstractTextDocumentLayoutPrivateD1Ev@Qt_5_PRIVATE_API 5.6.0~beta 1
 _ZN34QAbstractTextDocumentLayoutPrivateD2Ev@Qt_5_PRIVATE_API 5.6.0~beta 1
 (arch=!armel !armhf)_ZN34QOpenGLFunctions_3_2_Compatibility14versionProfileEv@Qt_5 5.1.0
 (arch=!armel !armhf)_ZN34QOpenGLFunctions_3_2_Compatibility19isContextCompatibleEP14QOpenGLContext@Qt_5 5.1.0
 (arch=!armel !armhf)_ZN34QOpenGLFunctions_3_2_Compatibility25initializeOpenGLFunctionsEv@Qt_5 5.1.0
 (arch=!armel !armhf)_ZN34QOpenGLFunctions_3_2_CompatibilityC1Ev@Qt_5 5.1.0
 (arch=!armel !armhf)_ZN34QOpenGLFunctions_3_2_CompatibilityC2Ev@Qt_5 5.1.0
 (arch=!armel !armhf)_ZN34QOpenGLFunctions_3_2_CompatibilityD0Ev@Qt_5 5.1.0
 (arch=!armel !armhf)_ZN34QOpenGLFunctions_3_2_CompatibilityD1Ev@Qt_5 5.1.0
 (arch=!armel !armhf)_ZN34QOpenGLFunctions_3_2_CompatibilityD2Ev@Qt_5 5.1.0
 (arch=!armel !armhf)_ZN34QOpenGLFunctions_3_3_Compatibility14versionProfileEv@Qt_5 5.1.0
 (arch=!armel !armhf)_ZN34QOpenGLFunctions_3_3_Compatibility19isContextCompatibleEP14QOpenGLContext@Qt_5 5.1.0
 (arch=!armel !armhf)_ZN34QOpenGLFunctions_3_3_Compatibility25initializeOpenGLFunctionsEv@Qt_5 5.1.0
 (arch=!armel !armhf)_ZN34QOpenGLFunctions_3_3_CompatibilityC1Ev@Qt_5 5.1.0
 (arch=!armel !armhf)_ZN34QOpenGLFunctions_3_3_CompatibilityC2Ev@Qt_5 5.1.0
 (arch=!armel !armhf)_ZN34QOpenGLFunctions_3_3_CompatibilityD0Ev@Qt_5 5.1.0
 (arch=!armel !armhf)_ZN34QOpenGLFunctions_3_3_CompatibilityD1Ev@Qt_5 5.1.0
 (arch=!armel !armhf)_ZN34QOpenGLFunctions_3_3_CompatibilityD2Ev@Qt_5 5.1.0
 (arch=!armel !armhf)_ZN34QOpenGLFunctions_4_0_Compatibility14versionProfileEv@Qt_5 5.1.0
 (arch=!armel !armhf)_ZN34QOpenGLFunctions_4_0_Compatibility19isContextCompatibleEP14QOpenGLContext@Qt_5 5.1.0
 (arch=!armel !armhf)_ZN34QOpenGLFunctions_4_0_Compatibility25initializeOpenGLFunctionsEv@Qt_5 5.1.0
 (arch=!armel !armhf)_ZN34QOpenGLFunctions_4_0_CompatibilityC1Ev@Qt_5 5.1.0
 (arch=!armel !armhf)_ZN34QOpenGLFunctions_4_0_CompatibilityC2Ev@Qt_5 5.1.0
 (arch=!armel !armhf)_ZN34QOpenGLFunctions_4_0_CompatibilityD0Ev@Qt_5 5.1.0
 (arch=!armel !armhf)_ZN34QOpenGLFunctions_4_0_CompatibilityD1Ev@Qt_5 5.1.0
 (arch=!armel !armhf)_ZN34QOpenGLFunctions_4_0_CompatibilityD2Ev@Qt_5 5.1.0
 (arch=!armel !armhf)_ZN34QOpenGLFunctions_4_1_Compatibility14versionProfileEv@Qt_5 5.1.0
 (arch=!armel !armhf)_ZN34QOpenGLFunctions_4_1_Compatibility19isContextCompatibleEP14QOpenGLContext@Qt_5 5.1.0
 (arch=!armel !armhf)_ZN34QOpenGLFunctions_4_1_Compatibility25initializeOpenGLFunctionsEv@Qt_5 5.1.0
 (arch=!armel !armhf)_ZN34QOpenGLFunctions_4_1_CompatibilityC1Ev@Qt_5 5.1.0
 (arch=!armel !armhf)_ZN34QOpenGLFunctions_4_1_CompatibilityC2Ev@Qt_5 5.1.0
 (arch=!armel !armhf)_ZN34QOpenGLFunctions_4_1_CompatibilityD0Ev@Qt_5 5.1.0
 (arch=!armel !armhf)_ZN34QOpenGLFunctions_4_1_CompatibilityD1Ev@Qt_5 5.1.0
 (arch=!armel !armhf)_ZN34QOpenGLFunctions_4_1_CompatibilityD2Ev@Qt_5 5.1.0
 (arch=!armel !armhf)_ZN34QOpenGLFunctions_4_2_Compatibility14versionProfileEv@Qt_5 5.1.0
 (arch=!armel !armhf)_ZN34QOpenGLFunctions_4_2_Compatibility19isContextCompatibleEP14QOpenGLContext@Qt_5 5.1.0
 (arch=!armel !armhf)_ZN34QOpenGLFunctions_4_2_Compatibility25initializeOpenGLFunctionsEv@Qt_5 5.1.0
 (arch=!armel !armhf)_ZN34QOpenGLFunctions_4_2_CompatibilityC1Ev@Qt_5 5.1.0
 (arch=!armel !armhf)_ZN34QOpenGLFunctions_4_2_CompatibilityC2Ev@Qt_5 5.1.0
 (arch=!armel !armhf)_ZN34QOpenGLFunctions_4_2_CompatibilityD0Ev@Qt_5 5.1.0
 (arch=!armel !armhf)_ZN34QOpenGLFunctions_4_2_CompatibilityD1Ev@Qt_5 5.1.0
 (arch=!armel !armhf)_ZN34QOpenGLFunctions_4_2_CompatibilityD2Ev@Qt_5 5.1.0
 (arch=!armel !armhf)_ZN34QOpenGLFunctions_4_3_Compatibility14versionProfileEv@Qt_5 5.1.0
 (arch=!armel !armhf)_ZN34QOpenGLFunctions_4_3_Compatibility19isContextCompatibleEP14QOpenGLContext@Qt_5 5.1.0
 (arch=!armel !armhf)_ZN34QOpenGLFunctions_4_3_Compatibility25initializeOpenGLFunctionsEv@Qt_5 5.1.0
 (arch=!armel !armhf)_ZN34QOpenGLFunctions_4_3_CompatibilityC1Ev@Qt_5 5.1.0
 (arch=!armel !armhf)_ZN34QOpenGLFunctions_4_3_CompatibilityC2Ev@Qt_5 5.1.0
 (arch=!armel !armhf)_ZN34QOpenGLFunctions_4_3_CompatibilityD0Ev@Qt_5 5.1.0
 (arch=!armel !armhf)_ZN34QOpenGLFunctions_4_3_CompatibilityD1Ev@Qt_5 5.1.0
 (arch=!armel !armhf)_ZN34QOpenGLFunctions_4_3_CompatibilityD2Ev@Qt_5 5.1.0
 (arch=!armel !armhf)_ZN34QOpenGLFunctions_4_4_Compatibility14versionProfileEv@Qt_5 5.5.0
 (arch=!armel !armhf)_ZN34QOpenGLFunctions_4_4_Compatibility19isContextCompatibleEP14QOpenGLContext@Qt_5 5.5.0
 (arch=!armel !armhf)_ZN34QOpenGLFunctions_4_4_Compatibility25initializeOpenGLFunctionsEv@Qt_5 5.5.0
 (arch=!armel !armhf)_ZN34QOpenGLFunctions_4_4_CompatibilityC1Ev@Qt_5 5.5.0
 (arch=!armel !armhf)_ZN34QOpenGLFunctions_4_4_CompatibilityC2Ev@Qt_5 5.5.0
 (arch=!armel !armhf)_ZN34QOpenGLFunctions_4_4_CompatibilityD0Ev@Qt_5 5.5.0
 (arch=!armel !armhf)_ZN34QOpenGLFunctions_4_4_CompatibilityD1Ev@Qt_5 5.5.0
 (arch=!armel !armhf)_ZN34QOpenGLFunctions_4_4_CompatibilityD2Ev@Qt_5 5.5.0
 (arch=!armel !armhf)_ZN34QOpenGLFunctions_4_5_Compatibility14versionProfileEv@Qt_5 5.5.0
 (arch=!armel !armhf)_ZN34QOpenGLFunctions_4_5_Compatibility19isContextCompatibleEP14QOpenGLContext@Qt_5 5.5.0
 (arch=!armel !armhf)_ZN34QOpenGLFunctions_4_5_Compatibility25initializeOpenGLFunctionsEv@Qt_5 5.5.0
 (arch=!armel !armhf)_ZN34QOpenGLFunctions_4_5_CompatibilityC1Ev@Qt_5 5.5.0
 (arch=!armel !armhf)_ZN34QOpenGLFunctions_4_5_CompatibilityC2Ev@Qt_5 5.5.0
 (arch=!armel !armhf)_ZN34QOpenGLFunctions_4_5_CompatibilityD0Ev@Qt_5 5.5.0
 (arch=!armel !armhf)_ZN34QOpenGLFunctions_4_5_CompatibilityD1Ev@Qt_5 5.5.0
 (arch=!armel !armhf)_ZN34QOpenGLFunctions_4_5_CompatibilityD2Ev@Qt_5 5.5.0
 _ZN4QCss10StyleSheet12buildIndexesEN2Qt15CaseSensitivityE@Qt_5 5.0.2
 _ZN4QCss13StyleSelector15selectorMatchesERKNS_8SelectorENS0_7NodePtrE@Qt_5_PRIVATE_API 5.0.2 1
 _ZN4QCss13StyleSelector17styleRulesForNodeENS0_7NodePtrE@Qt_5_PRIVATE_API 5.0.2 1
 _ZN4QCss13StyleSelector19declarationsForNodeENS0_7NodePtrEPKc@Qt_5_PRIVATE_API 5.0.2 1
 _ZN4QCss13StyleSelector20basicSelectorMatchesERKNS_13BasicSelectorENS0_7NodePtrE@Qt_5_PRIVATE_API 5.0.2 1
 _ZN4QCss13StyleSelector9matchRuleENS0_7NodePtrERKNS_9StyleRuleENS_16StyleSheetOriginEiP4QMapIjS2_E@Qt_5_PRIVATE_API 5.0.2 1
 _ZN4QCss13StyleSelectorD0Ev@Qt_5_PRIVATE_API 5.0.2 1
 _ZN4QCss13StyleSelectorD1Ev@Qt_5_PRIVATE_API 5.0.2 1
 _ZN4QCss13StyleSelectorD2Ev@Qt_5_PRIVATE_API 5.0.2 1
 _ZN4QCss14ValueExtractor10extractBoxEPiS1_S1_@Qt_5_PRIVATE_API 5.0.2 1
 _ZN4QCss14ValueExtractor10sizeValuesERKNS_11DeclarationEP5QSize@Qt_5_PRIVATE_API 5.0.2 1
 _ZN4QCss14ValueExtractor11borderValueERKNS_11DeclarationEPiPNS_11BorderStyleEP6QBrush@Qt_5_PRIVATE_API 5.0.2 1
 _ZN4QCss14ValueExtractor11extractFontEP5QFontPi@Qt_5_PRIVATE_API 5.0.2 1
 _ZN4QCss14ValueExtractor11extractFontEv@Qt_5_PRIVATE_API 5.0.2 1
 _ZN4QCss14ValueExtractor11lengthValueERKNS_11DeclarationE@Qt_5_PRIVATE_API 5.0.2 1
 _ZN4QCss14ValueExtractor11lengthValueERKNS_5ValueE@Qt_5_PRIVATE_API 5.0.2 1
 _ZN4QCss14ValueExtractor12extractImageEP5QIconP6QFlagsIN2Qt13AlignmentFlagEEP5QSize@Qt_5_PRIVATE_API 5.0.2 1
 _ZN4QCss14ValueExtractor12lengthValuesERKNS_11DeclarationEPi@Qt_5_PRIVATE_API 5.0.2 1
 _ZN4QCss14ValueExtractor13extractBorderEPiP6QBrushPNS_11BorderStyleEP5QSize@Qt_5_PRIVATE_API 5.0.2 1
 _ZN4QCss14ValueExtractor14extractOutlineEPiP6QBrushPNS_11BorderStyleEP5QSizeS1_@Qt_5_PRIVATE_API 5.0.2 1
 _ZN4QCss14ValueExtractor14extractPaletteEP6QBrushS2_S2_S2_@Qt_5_PRIVATE_API 5.0.2 1
 _ZN4QCss14ValueExtractor15extractGeometryEPiS1_S1_S1_S1_S1_@Qt_5_PRIVATE_API 5.0.2 1
 _ZN4QCss14ValueExtractor15extractPositionEPiS1_S1_S1_PNS_6OriginEP6QFlagsIN2Qt13AlignmentFlagEEPNS_12PositionModeES8_@Qt_5_PRIVATE_API 5.0.2 1
 _ZN4QCss14ValueExtractor17extractBackgroundEP6QBrushP7QStringPNS_6RepeatEP6QFlagsIN2Qt13AlignmentFlagEEPNS_6OriginEPNS_10AttachmentESD_@Qt_5_PRIVATE_API 5.0.2 1
 _ZN4QCss14ValueExtractor20extractStyleFeaturesEv@Qt_5_PRIVATE_API 5.0.2 1
 _ZN4QCss14ValueExtractor9sizeValueERKNS_11DeclarationE@Qt_5_PRIVATE_API 5.0.2 1
 _ZN4QCss14ValueExtractorC1ERK7QVectorINS_11DeclarationEERK8QPalette@Qt_5_PRIVATE_API 5.0.2 1
 _ZN4QCss14ValueExtractorC2ERK7QVectorINS_11DeclarationEERK8QPalette@Qt_5_PRIVATE_API 5.0.2 1
 _ZN4QCss6Parser10lexemUntilENS_9TokenTypeE@Qt_5_PRIVATE_API 5.0.2 1
 _ZN4QCss6Parser10parseClassEP7QString@Qt_5_PRIVATE_API 5.0.2 1
 _ZN4QCss6Parser10parseMediaEPNS_9MediaRuleE@Qt_5_PRIVATE_API 5.0.2 1
 _ZN4QCss6Parser11errorSymbolEv@Qt_5_PRIVATE_API 5.0.2 1
 _ZN4QCss6Parser11parseAttribEPNS_17AttributeSelectorE@Qt_5_PRIVATE_API 5.0.2 1
 _ZN4QCss6Parser11parseImportEPNS_10ImportRuleE@Qt_5_PRIVATE_API 5.0.2 1
 _ZN4QCss6Parser11parseMediumEP11QStringList@Qt_5_PRIVATE_API 5.0.2 1
 _ZN4QCss6Parser11parsePseudoEPNS_6PseudoE@Qt_5_PRIVATE_API 5.0.2 1
 _ZN4QCss6Parser12parseRulesetEPNS_9StyleRuleE@Qt_5_PRIVATE_API 5.0.2 1
 _ZN4QCss6Parser13parseFunctionEP7QStringS2_@Qt_5_PRIVATE_API 5.0.2 1
 _ZN4QCss6Parser13parseHexColorEP6QColor@Qt_5_PRIVATE_API 5.0.2 1
 _ZN4QCss6Parser13parsePropertyEPNS_11DeclarationE@Qt_5_PRIVATE_API 5.0.2 1
 _ZN4QCss6Parser13parseSelectorEPNS_8SelectorE@Qt_5_PRIVATE_API 5.0.2 1
 _ZN4QCss6Parser15parseCombinatorEPNS_13BasicSelector8RelationE@Qt_5_PRIVATE_API 5.0.2 1
 _ZN4QCss6Parser15parsePseudoPageEP7QString@Qt_5_PRIVATE_API 5.0.2 1
 _ZN4QCss6Parser15testAndParseUriEP7QString@Qt_5_PRIVATE_API 5.0.2 1
 _ZN4QCss6Parser16parseElementNameEP7QString@Qt_5_PRIVATE_API 5.0.2 1
 _ZN4QCss6Parser17parseNextOperatorEPNS_5ValueE@Qt_5_PRIVATE_API 5.0.2 1
 _ZN4QCss6Parser18testSimpleSelectorEv@Qt_5_PRIVATE_API 5.0.2 1
 _ZN4QCss6Parser19parseSimpleSelectorEPNS_13BasicSelectorE@Qt_5_PRIVATE_API 5.0.2 1
 _ZN4QCss6Parser20parseNextDeclarationEPNS_11DeclarationE@Qt_5_PRIVATE_API 5.0.2 1
 _ZN4QCss6Parser20testTokenAndEndsWithENS_9TokenTypeE13QLatin1String@Qt_5_PRIVATE_API 5.0.2 1
 _ZN4QCss6Parser4initERK7QStringb@Qt_5_PRIVATE_API 5.0.2 1
 _ZN4QCss6Parser4nextENS_9TokenTypeE@Qt_5_PRIVATE_API 5.0.2 1
 _ZN4QCss6Parser4testENS_9TokenTypeE@Qt_5_PRIVATE_API 5.0.2 1
 _ZN4QCss6Parser5parseEPNS_10StyleSheetEN2Qt15CaseSensitivityE@Qt_5_PRIVATE_API 5.0.2 1
 _ZN4QCss6Parser5untilENS_9TokenTypeES1_@Qt_5_PRIVATE_API 5.0.2 1
 _ZN4QCss6Parser8testPrioEv@Qt_5_PRIVATE_API 5.0.2 1
 _ZN4QCss6Parser8testTermEv@Qt_5_PRIVATE_API 5.0.2 1
 _ZN4QCss6Parser9parseExprEP7QVectorINS_5ValueEE@Qt_5_PRIVATE_API 5.0.2 1
 _ZN4QCss6Parser9parsePageEPNS_8PageRuleE@Qt_5_PRIVATE_API 5.0.2 1
 _ZN4QCss6Parser9parsePrioEPNS_11DeclarationE@Qt_5_PRIVATE_API 5.0.2 1
 _ZN4QCss6Parser9parseTermEPNS_5ValueE@Qt_5_PRIVATE_API 5.0.2 1
 _ZN4QCss6ParserC1ERK7QStringb@Qt_5_PRIVATE_API 5.0.2 1
 _ZN4QCss6ParserC1Ev@Qt_5_PRIVATE_API 5.0.2 1
 _ZN4QCss6ParserC2ERK7QStringb@Qt_5_PRIVATE_API 5.0.2 1
 _ZN4QCss6ParserC2Ev@Qt_5_PRIVATE_API 5.0.2 1
 _ZN4QCss7Scanner10preprocessERK7QStringPb@Qt_5_PRIVATE_API 5.0.2 1
 _ZN4QCss7Scanner4scanERK7QStringP7QVectorINS_6SymbolEE@Qt_5_PRIVATE_API 5.0.2 1
 _ZN4QPen10isDetachedEv@Qt_5 5.0.2
 _ZN4QPen11setCapStyleEN2Qt11PenCapStyleE@Qt_5 5.0.2
 _ZN4QPen11setCosmeticEb@Qt_5 5.0.2
 _ZN4QPen12setJoinStyleEN2Qt12PenJoinStyleE@Qt_5 5.0.2
 _ZN4QPen13setDashOffsetEd@Qt_5 5.2.0
 _ZN4QPen13setMiterLimitEd@Qt_5 5.2.0
 _ZN4QPen14setDashPatternERK7QVectorIdE@Qt_5 5.2.0
 _ZN4QPen6detachEv@Qt_5 5.0.2
 _ZN4QPen8setBrushERK6QBrush@Qt_5 5.0.2
 _ZN4QPen8setColorERK6QColor@Qt_5 5.0.2
 _ZN4QPen8setStyleEN2Qt8PenStyleE@Qt_5 5.0.2
 _ZN4QPen8setWidthEi@Qt_5 5.0.2
 _ZN4QPen9setWidthFEd@Qt_5 5.2.0
 _ZN4QPenC1EN2Qt8PenStyleE@Qt_5 5.0.2
 _ZN4QPenC1ERK6QBrushdN2Qt8PenStyleENS3_11PenCapStyleENS3_12PenJoinStyleE@Qt_5 5.2.0
 _ZN4QPenC1ERK6QColor@Qt_5 5.0.2
 _ZN4QPenC1ERKS_@Qt_5 5.0.2
 _ZN4QPenC1Ev@Qt_5 5.0.2
 _ZN4QPenC2EN2Qt8PenStyleE@Qt_5 5.0.2
 _ZN4QPenC2ERK6QBrushdN2Qt8PenStyleENS3_11PenCapStyleENS3_12PenJoinStyleE@Qt_5 5.2.0
 _ZN4QPenC2ERK6QColor@Qt_5 5.0.2
 _ZN4QPenC2ERKS_@Qt_5 5.0.2
 _ZN4QPenC2Ev@Qt_5 5.0.2
 _ZN4QPenD1Ev@Qt_5 5.0.2
 _ZN4QPenD2Ev@Qt_5 5.0.2
 _ZN4QPenaSERKS_@Qt_5 5.0.2
 _ZN5QDrag10setHotSpotERK6QPoint@Qt_5 5.0.2
 _ZN5QDrag11qt_metacallEN11QMetaObject4CallEiPPv@Qt_5 5.0.2
 _ZN5QDrag11qt_metacastEPKc@Qt_5 5.0.2
 _ZN5QDrag11setMimeDataEP9QMimeData@Qt_5 5.0.2
 _ZN5QDrag13actionChangedEN2Qt10DropActionE@Qt_5 5.0.2
 _ZN5QDrag13setDragCursorERK7QPixmapN2Qt10DropActionE@Qt_5 5.0.2
 _ZN5QDrag13targetChangedEP7QObject@Qt_5 5.0.2
 _ZN5QDrag16staticMetaObjectE@Qt_5 5.0.2
 _ZN5QDrag4execE6QFlagsIN2Qt10DropActionEE@Qt_5 5.0.2
 _ZN5QDrag4execE6QFlagsIN2Qt10DropActionEES2_@Qt_5 5.0.2
 _ZN5QDrag5startE6QFlagsIN2Qt10DropActionEE@Qt_5 5.0.2
 _ZN5QDrag6cancelEv@Qt_5 5.7.0
 _ZN5QDrag9setPixmapERK7QPixmap@Qt_5 5.0.2
 _ZN5QDragC1EP7QObject@Qt_5 5.0.2
 _ZN5QDragC2EP7QObject@Qt_5 5.0.2
 _ZN5QDragD0Ev@Qt_5 5.0.2
 _ZN5QDragD1Ev@Qt_5 5.0.2
 _ZN5QDragD2Ev@Qt_5 5.0.2
 _ZN5QFont10fromStringERK7QString@Qt_5 5.0.2
 _ZN5QFont10initializeEv@Qt_5 5.0.2
 _ZN5QFont10setKerningEb@Qt_5 5.0.2
 _ZN5QFont10setRawModeEb@Qt_5 5.0.2
 _ZN5QFont10setRawNameERK7QString@Qt_5 5.0.2
 _ZN5QFont10setStretchEi@Qt_5 5.0.2
 _ZN5QFont10substituteERK7QString@Qt_5 5.0.2
 _ZN5QFont11setOverlineEb@Qt_5 5.0.2
 _ZN5QFont11substitutesERK7QString@Qt_5 5.0.2
 _ZN5QFont12setPixelSizeEi@Qt_5 5.0.2
 _ZN5QFont12setPointSizeEi@Qt_5 5.0.2
 _ZN5QFont12setStrikeOutEb@Qt_5 5.0.2
 _ZN5QFont12setStyleHintENS_9StyleHintENS_13StyleStrategyE@Qt_5 5.0.2
 _ZN5QFont12setStyleNameERK7QString@Qt_5 5.0.2
 _ZN5QFont12setUnderlineEb@Qt_5 5.0.2
 _ZN5QFont13setFixedPitchEb@Qt_5 5.0.2
 _ZN5QFont13setPointSizeFEd@Qt_5 5.2.0
 _ZN5QFont13substitutionsEv@Qt_5 5.0.2
 _ZN5QFont14setWordSpacingEd@Qt_5 5.2.0
 _ZN5QFont15cacheStatisticsEv@Qt_5 5.0.2
 _ZN5QFont16setLetterSpacingENS_11SpacingTypeEd@Qt_5 5.2.0
 _ZN5QFont16setStyleStrategyENS_13StyleStrategyE@Qt_5 5.0.2
 _ZN5QFont16staticMetaObjectE@Qt_5 5.0.2
 _ZN5QFont17setCapitalizationENS_14CapitalizationE@Qt_5 5.0.2
 _ZN5QFont18insertSubstitutionERK7QStringS2_@Qt_5 5.0.2
 _ZN5QFont19insertSubstitutionsERK7QStringRK11QStringList@Qt_5 5.0.2
 _ZN5QFont19removeSubstitutionsERK7QString@Qt_5 5.0.2
 _ZN5QFont20setHintingPreferenceENS_17HintingPreferenceE@Qt_5 5.0.2
 _ZN5QFont6detachEv@Qt_5 5.0.2
 _ZN5QFont7cleanupEv@Qt_5 5.0.2
 _ZN5QFont8setStyleENS_5StyleE@Qt_5 5.0.2
 _ZN5QFont9setFamilyERK7QString@Qt_5 5.0.2
 _ZN5QFont9setWeightEi@Qt_5 5.0.2
 _ZN5QFontC1EP12QFontPrivate@Qt_5_PRIVATE_API 5.0.2 1
 _ZN5QFontC1ERK7QStringiib@Qt_5 5.0.2
 _ZN5QFontC1ERKS_@Qt_5 5.0.2
 _ZN5QFontC1ERKS_P12QPaintDevice@Qt_5 5.0.2
 _ZN5QFontC1Ev@Qt_5 5.0.2
 _ZN5QFontC2EP12QFontPrivate@Qt_5_PRIVATE_API 5.0.2 1
 _ZN5QFontC2ERK7QStringiib@Qt_5 5.0.2
 _ZN5QFontC2ERKS_@Qt_5 5.0.2
 _ZN5QFontC2ERKS_P12QPaintDevice@Qt_5 5.0.2
 _ZN5QFontC2Ev@Qt_5 5.0.2
 _ZN5QFontD1Ev@Qt_5 5.0.2
 _ZN5QFontD2Ev@Qt_5 5.0.2
 _ZN5QFontaSERKS_@Qt_5 5.0.2
 _ZN5QIcon12hasThemeIconERK7QString@Qt_5 5.0.2
 _ZN5QIcon12setThemeNameERK7QString@Qt_5 5.0.2
 _ZN5QIcon16themeSearchPathsEv@Qt_5 5.0.2
 _ZN5QIcon19setThemeSearchPathsERK11QStringList@Qt_5 5.0.2
 _ZN5QIcon6detachEv@Qt_5 5.0.2
 _ZN5QIcon7addFileERK7QStringRK5QSizeNS_4ModeENS_5StateE@Qt_5 5.0.2
 _ZN5QIcon9addPixmapERK7QPixmapNS_4ModeENS_5StateE@Qt_5 5.0.2
 _ZN5QIcon9fromThemeERK7QString@Qt_5 5.7.0
 _ZN5QIcon9fromThemeERK7QStringRKS_@Qt_5 5.0.2
 _ZN5QIcon9setIsMaskEb@Qt_5 5.6.0~beta
 _ZN5QIcon9themeNameEv@Qt_5 5.0.2
 _ZN5QIconC1EP11QIconEngine@Qt_5 5.0.2
 _ZN5QIconC1ERK7QPixmap@Qt_5 5.0.2
 _ZN5QIconC1ERK7QString@Qt_5 5.0.2
 _ZN5QIconC1ERKS_@Qt_5 5.0.2
 _ZN5QIconC1Ev@Qt_5 5.0.2
 _ZN5QIconC2EP11QIconEngine@Qt_5 5.0.2
 _ZN5QIconC2ERK7QPixmap@Qt_5 5.0.2
 _ZN5QIconC2ERK7QString@Qt_5 5.0.2
 _ZN5QIconC2ERKS_@Qt_5 5.0.2
 _ZN5QIconC2Ev@Qt_5 5.0.2
 _ZN5QIconD1Ev@Qt_5 5.0.2
 _ZN5QIconD2Ev@Qt_5 5.0.2
 _ZN5QIconaSERKS_@Qt_5 5.0.2
 _ZN6QBrush10setTextureERK7QPixmap@Qt_5 5.0.2
 _ZN6QBrush12setTransformERK10QTransform@Qt_5 5.0.2
 _ZN6QBrush15setTextureImageERK6QImage@Qt_5 5.0.2
 _ZN6QBrush4initERK6QColorN2Qt10BrushStyleE@Qt_5 5.0.2
 _ZN6QBrush6detachEN2Qt10BrushStyleE@Qt_5 5.0.2
 _ZN6QBrush7cleanUpEP10QBrushData@Qt_5 5.0.2
 _ZN6QBrush8setColorERK6QColor@Qt_5 5.0.2
 _ZN6QBrush8setStyleEN2Qt10BrushStyleE@Qt_5 5.0.2
 _ZN6QBrush9setMatrixERK7QMatrix@Qt_5 5.0.2
 _ZN6QBrushC1EN2Qt10BrushStyleE@Qt_5 5.0.2
 _ZN6QBrushC1EN2Qt11GlobalColorENS0_10BrushStyleE@Qt_5 5.0.2
 _ZN6QBrushC1EN2Qt11GlobalColorERK7QPixmap@Qt_5 5.0.2
 _ZN6QBrushC1ERK6QColorN2Qt10BrushStyleE@Qt_5 5.0.2
 _ZN6QBrushC1ERK6QColorRK7QPixmap@Qt_5 5.0.2
 _ZN6QBrushC1ERK6QImage@Qt_5 5.0.2
 _ZN6QBrushC1ERK7QPixmap@Qt_5 5.0.2
 _ZN6QBrushC1ERK9QGradient@Qt_5 5.0.2
 _ZN6QBrushC1ERKS_@Qt_5 5.0.2
 _ZN6QBrushC1Ev@Qt_5 5.0.2
 _ZN6QBrushC2EN2Qt10BrushStyleE@Qt_5 5.0.2
 _ZN6QBrushC2EN2Qt11GlobalColorENS0_10BrushStyleE@Qt_5 5.0.2
 _ZN6QBrushC2EN2Qt11GlobalColorERK7QPixmap@Qt_5 5.0.2
 _ZN6QBrushC2ERK6QColorN2Qt10BrushStyleE@Qt_5 5.0.2
 _ZN6QBrushC2ERK6QColorRK7QPixmap@Qt_5 5.0.2
 _ZN6QBrushC2ERK6QImage@Qt_5 5.0.2
 _ZN6QBrushC2ERK7QPixmap@Qt_5 5.0.2
 _ZN6QBrushC2ERK9QGradient@Qt_5 5.0.2
 _ZN6QBrushC2ERKS_@Qt_5 5.0.2
 _ZN6QBrushC2Ev@Qt_5 5.0.2
 _ZN6QBrushD1Ev@Qt_5 5.0.2
 _ZN6QBrushD2Ev@Qt_5 5.0.2
 _ZN6QBrushaSERKS_@Qt_5 5.0.2
 _ZN6QColor10colorNamesEv@Qt_5 5.0.2
 _ZN6QColor10fromRgba64E7QRgba64@Qt_5 5.6.0~beta
 _ZN6QColor10fromRgba64Etttt@Qt_5 5.6.0~beta
 _ZN6QColor10invalidateEv@Qt_5 5.0.2
 _ZN6QColor12isValidColorERK7QString@Qt_5 5.0.2
 _ZN6QColor13setNamedColorERK7QString@Qt_5 5.0.2
 _ZN6QColor18setColorFromStringERK7QString@Qt_5 5.0.2
 _ZN6QColor6setHslEiiii@Qt_5 5.0.2
 _ZN6QColor6setHsvEiiii@Qt_5 5.0.2
 _ZN6QColor6setRedEi@Qt_5 5.0.2
 _ZN6QColor6setRgbEiiii@Qt_5 5.0.2
 _ZN6QColor6setRgbEj@Qt_5 5.0.2
 _ZN6QColor7fromHslEiiii@Qt_5 5.0.2
 _ZN6QColor7fromHsvEiiii@Qt_5 5.0.2
 _ZN6QColor7fromRgbEiiii@Qt_5 5.0.2
 _ZN6QColor7fromRgbEj@Qt_5 5.0.2
 _ZN6QColor7getCmykEPiS0_S0_S0_S0_@Qt_5 5.0.2
 _ZN6QColor7setBlueEi@Qt_5 5.0.2
 _ZN6QColor7setCmykEiiiii@Qt_5 5.0.2
 _ZN6QColor7setHslFEdddd@Qt_5 5.2.0
 _ZN6QColor7setHsvFEdddd@Qt_5 5.2.0
 _ZN6QColor7setRedFEd@Qt_5 5.2.0
 _ZN6QColor7setRgbFEdddd@Qt_5 5.2.0
 _ZN6QColor7setRgbaEj@Qt_5 5.0.2
 _ZN6QColor8fromCmykEiiiii@Qt_5 5.0.2
 _ZN6QColor8fromHslFEdddd@Qt_5 5.2.0
 _ZN6QColor8fromHsvFEdddd@Qt_5 5.2.0
 _ZN6QColor8fromRgbFEdddd@Qt_5 5.2.0
 _ZN6QColor8fromRgbaEj@Qt_5 5.0.2
 _ZN6QColor8getCmykFEPdS0_S0_S0_S0_@Qt_5 5.2.0
 _ZN6QColor8setAlphaEi@Qt_5 5.0.2
 _ZN6QColor8setBlueFEd@Qt_5 5.2.0
 _ZN6QColor8setCmykFEddddd@Qt_5 5.2.0
 _ZN6QColor8setGreenEi@Qt_5 5.0.2
 _ZN6QColor9fromCmykFEddddd@Qt_5 5.2.0
 _ZN6QColor9setAlphaFEd@Qt_5 5.2.0
 _ZN6QColor9setGreenFEd@Qt_5 5.2.0
 _ZN6QColor9setRgba64E7QRgba64@Qt_5 5.6.0~beta
 _ZN6QColorC1E7QRgba64@Qt_5 5.6.0~beta
 _ZN6QColorC1EN2Qt11GlobalColorE@Qt_5 5.0.2
 _ZN6QColorC1ENS_4SpecE@Qt_5 5.0.2
 _ZN6QColorC1Ej@Qt_5 5.0.2
 _ZN6QColorC2E7QRgba64@Qt_5 5.6.0~beta
 _ZN6QColorC2EN2Qt11GlobalColorE@Qt_5 5.0.2
 _ZN6QColorC2ENS_4SpecE@Qt_5 5.0.2
 _ZN6QColorC2Ej@Qt_5 5.0.2
 _ZN6QColoraSEN2Qt11GlobalColorE@Qt_5 5.0.2
 _ZN6QColoraSERKS_@Qt_5 5.0.2
 _ZN6QImage10trueMatrixERK10QTransformii@Qt_5 5.0.2
 _ZN6QImage10trueMatrixERK7QMatrixii@Qt_5 5.0.2
 _ZN6QImage12invertPixelsENS_10InvertModeE@Qt_5 5.0.2
 _ZN6QImage12loadFromDataEPKhiPKc@Qt_5 5.0.2
 _ZN6QImage13setColorCountEi@Qt_5 5.0.2
 _ZN6QImage13setColorTableE7QVectorIjE@Qt_5 5.0.2
 _ZN6QImage13setPixelColorEiiRK6QColor@Qt_5 5.6.0~beta
 _ZN6QImage13toImageFormatE12QPixelFormat@Qt_5 5.4.0
 _ZN6QImage13toPixelFormatENS_6FormatE@Qt_5 5.4.0
 _ZN6QImage15setAlphaChannelERKS_@Qt_5 5.0.2
 _ZN6QImage16mirrored_inplaceEbb@Qt_5 5.3.0
 _ZN6QImage16setDotsPerMeterXEi@Qt_5 5.0.2
 _ZN6QImage16setDotsPerMeterYEi@Qt_5 5.0.2
 _ZN6QImage18rgbSwapped_inplaceEv@Qt_5 5.3.0
 _ZN6QImage19setDevicePixelRatioEd@Qt_5 5.2.0
 _ZN6QImage23convertToFormat_inplaceENS_6FormatE6QFlagsIN2Qt19ImageConversionFlagEE@Qt_5 5.3.0
 _ZN6QImage4bitsEv@Qt_5 5.0.2
 _ZN6QImage4fillEN2Qt11GlobalColorE@Qt_5 5.0.2
 _ZN6QImage4fillERK6QColor@Qt_5 5.0.2
 _ZN6QImage4fillEj@Qt_5 5.0.2
 _ZN6QImage4loadEP9QIODevicePKc@Qt_5 5.0.2
 _ZN6QImage4loadERK7QStringPKc@Qt_5 5.0.2
 _ZN6QImage6detachEv@Qt_5 5.0.2
 _ZN6QImage7setTextERK7QStringS2_@Qt_5 5.0.2
 _ZN6QImage8fromDataEPKhiPKc@Qt_5 5.0.2
 _ZN6QImage8scanLineEi@Qt_5 5.0.2
 _ZN6QImage8setColorEij@Qt_5 5.0.2
 _ZN6QImage8setPixelEiij@Qt_5 5.0.2
 _ZN6QImage9setOffsetERK6QPoint@Qt_5 5.0.2
 _ZN6QImageC1EPKPKc@Qt_5 5.0.2
 _ZN6QImageC1EPKhiiNS_6FormatEPFvPvES3_@Qt_5 5.0.2
 _ZN6QImageC1EPKhiiiNS_6FormatEPFvPvES3_@Qt_5 5.0.2
 _ZN6QImageC1EPhiiNS_6FormatEPFvPvES2_@Qt_5 5.0.2
 _ZN6QImageC1EPhiiiNS_6FormatEPFvPvES2_@Qt_5 5.0.2
 _ZN6QImageC1ERK5QSizeNS_6FormatE@Qt_5 5.0.2
 _ZN6QImageC1ERK7QStringPKc@Qt_5 5.0.2
 _ZN6QImageC1ERKS_@Qt_5 5.0.2
 _ZN6QImageC1EiiNS_6FormatE@Qt_5 5.0.2
 _ZN6QImageC1Ev@Qt_5 5.0.2
 _ZN6QImageC2EPKPKc@Qt_5 5.0.2
 _ZN6QImageC2EPKhiiNS_6FormatEPFvPvES3_@Qt_5 5.0.2
 _ZN6QImageC2EPKhiiiNS_6FormatEPFvPvES3_@Qt_5 5.0.2
 _ZN6QImageC2EPhiiNS_6FormatEPFvPvES2_@Qt_5 5.0.2
 _ZN6QImageC2EPhiiiNS_6FormatEPFvPvES2_@Qt_5 5.0.2
 _ZN6QImageC2ERK5QSizeNS_6FormatE@Qt_5 5.0.2
 _ZN6QImageC2ERK7QStringPKc@Qt_5 5.0.2
 _ZN6QImageC2ERKS_@Qt_5 5.0.2
 _ZN6QImageC2EiiNS_6FormatE@Qt_5 5.0.2
 _ZN6QImageC2Ev@Qt_5 5.0.2
 _ZN6QImageD0Ev@Qt_5 5.0.2
 _ZN6QImageD1Ev@Qt_5 5.0.2
 _ZN6QImageD2Ev@Qt_5 5.0.2
 _ZN6QImageaSERKS_@Qt_5 5.0.2
 _ZN6QMovie10scaledSizeEv@Qt_5 5.0.2
 _ZN6QMovie11jumpToFrameEi@Qt_5 5.0.2
 _ZN6QMovie11qt_metacallEN11QMetaObject4CallEiPPv@Qt_5 5.0.2
 _ZN6QMovie11qt_metacastEPKc@Qt_5 5.0.2
 _ZN6QMovie11setFileNameERK7QString@Qt_5 5.0.2
 _ZN6QMovie12frameChangedEi@Qt_5 5.0.2
 _ZN6QMovie12setCacheModeENS_9CacheModeE@Qt_5 5.0.2
 _ZN6QMovie12stateChangedENS_10MovieStateE@Qt_5 5.0.2
 _ZN6QMovie13setScaledSizeERK5QSize@Qt_5 5.0.2
 _ZN6QMovie15jumpToNextFrameEv@Qt_5 5.0.2
 _ZN6QMovie16staticMetaObjectE@Qt_5 5.0.2
 _ZN6QMovie16supportedFormatsEv@Qt_5 5.0.2
 _ZN6QMovie18setBackgroundColorERK6QColor@Qt_5 5.0.2
 _ZN6QMovie4stopEv@Qt_5 5.0.2
 _ZN6QMovie5errorEN12QImageReader16ImageReaderErrorE@Qt_5 5.0.2
 _ZN6QMovie5startEv@Qt_5 5.0.2
 _ZN6QMovie7resizedERK5QSize@Qt_5 5.0.2
 _ZN6QMovie7startedEv@Qt_5 5.0.2
 _ZN6QMovie7updatedERK5QRect@Qt_5 5.0.2
 _ZN6QMovie8finishedEv@Qt_5 5.0.2
 _ZN6QMovie8setSpeedEi@Qt_5 5.0.2
 _ZN6QMovie9setDeviceEP9QIODevice@Qt_5 5.0.2
 _ZN6QMovie9setFormatERK10QByteArray@Qt_5 5.0.2
 _ZN6QMovie9setPausedEb@Qt_5 5.0.2
 _ZN6QMovieC1EP7QObject@Qt_5 5.0.2
 _ZN6QMovieC1EP9QIODeviceRK10QByteArrayP7QObject@Qt_5 5.0.2
 _ZN6QMovieC1ERK7QStringRK10QByteArrayP7QObject@Qt_5 5.0.2
 _ZN6QMovieC2EP7QObject@Qt_5 5.0.2
 _ZN6QMovieC2EP9QIODeviceRK10QByteArrayP7QObject@Qt_5 5.0.2
 _ZN6QMovieC2ERK7QStringRK10QByteArrayP7QObject@Qt_5 5.0.2
 _ZN6QMovieD0Ev@Qt_5 5.0.2
 _ZN6QMovieD1Ev@Qt_5 5.0.2
 _ZN6QMovieD2Ev@Qt_5 5.0.2
 _ZN7QBezier10fromPointsERK7QPointFS2_S2_S2_@Qt_5_PRIVATE_API 5.0.2 1
 _ZN7QBitmap8fromDataERK5QSizePKhN6QImage6FormatE@Qt_5 5.0.2
 _ZN7QBitmap9fromImageERK6QImage6QFlagsIN2Qt19ImageConversionFlagEE@Qt_5 5.0.2
 _ZN7QBitmapC1ERK5QSize@Qt_5 5.0.2
 _ZN7QBitmapC1ERK7QPixmap@Qt_5 5.0.2
 _ZN7QBitmapC1ERK7QStringPKc@Qt_5 5.0.2
 _ZN7QBitmapC1Eii@Qt_5 5.0.2
 _ZN7QBitmapC1Ev@Qt_5 5.0.2
 _ZN7QBitmapC2ERK5QSize@Qt_5 5.0.2
 _ZN7QBitmapC2ERK7QPixmap@Qt_5 5.0.2
 _ZN7QBitmapC2ERK7QStringPKc@Qt_5 5.0.2
 _ZN7QBitmapC2Eii@Qt_5 5.0.2
 _ZN7QBitmapC2Ev@Qt_5 5.0.2
 _ZN7QBitmapD0Ev@Qt_5 5.0.2
 _ZN7QBitmapD1Ev@Qt_5 5.0.2
 _ZN7QBitmapD2Ev@Qt_5 5.0.2
 _ZN7QBitmapaSERK7QPixmap@Qt_5 5.0.2
 _ZN7QCursor3posEPK7QScreen@Qt_5 5.0.2
 _ZN7QCursor3posEv@Qt_5 5.0.2
 _ZN7QCursor6setPosEP7QScreenii@Qt_5 5.0.2
 _ZN7QCursor6setPosEii@Qt_5 5.0.2
 _ZN7QCursor8setShapeEN2Qt11CursorShapeE@Qt_5 5.0.2
 _ZN7QCursorC1EN2Qt11CursorShapeE@Qt_5 5.0.2
 _ZN7QCursorC1ERK7QBitmapS2_ii@Qt_5 5.0.2
 _ZN7QCursorC1ERK7QPixmapii@Qt_5 5.0.2
 _ZN7QCursorC1ERKS_@Qt_5 5.0.2
 _ZN7QCursorC1Ev@Qt_5 5.0.2
 _ZN7QCursorC2EN2Qt11CursorShapeE@Qt_5 5.0.2
 _ZN7QCursorC2ERK7QBitmapS2_ii@Qt_5 5.0.2
 _ZN7QCursorC2ERK7QPixmapii@Qt_5 5.0.2
 _ZN7QCursorC2ERKS_@Qt_5 5.0.2
 _ZN7QCursorC2Ev@Qt_5 5.0.2
 _ZN7QCursorD1Ev@Qt_5 5.0.2
 _ZN7QCursorD2Ev@Qt_5 5.0.2
 _ZN7QCursoraSERKS_@Qt_5 5.0.2
 _ZN7QMatrix5resetEv@Qt_5 5.0.2
 _ZN7QMatrix5scaleEdd@Qt_5 5.2.0
 _ZN7QMatrix5shearEdd@Qt_5 5.2.0
 _ZN7QMatrix6rotateEd@Qt_5 5.2.0
 _ZN7QMatrix9setMatrixEdddddd@Qt_5 5.2.0
 _ZN7QMatrix9translateEdd@Qt_5 5.2.0
 _ZN7QMatrixC1ERKS_@Qt_5 5.0.2
 _ZN7QMatrixC1Edddddd@Qt_5 5.2.0
 _ZN7QMatrixC1Ev@Qt_5 5.0.2
 _ZN7QMatrixC2ERKS_@Qt_5 5.0.2
 _ZN7QMatrixC2Edddddd@Qt_5 5.2.0
 _ZN7QMatrixC2Ev@Qt_5 5.0.2
 _ZN7QMatrixaSERKS_@Qt_5 5.0.2
 _ZN7QMatrixmLERKS_@Qt_5 5.0.2
 _ZN7QPixmap10grabWidgetEP7QObjectRK5QRect@Qt_5 5.0.2
 (subst)_ZN7QPixmap10grabWindowE{quintptr}iiii@Qt_5 5.0.2
 _ZN7QPixmap10trueMatrixERK10QTransformii@Qt_5 5.0.2
 _ZN7QPixmap10trueMatrixERK7QMatrixii@Qt_5 5.0.2
 _ZN7QPixmap12defaultDepthEv@Qt_5 5.0.2
 _ZN7QPixmap12loadFromDataEPKhjPKc6QFlagsIN2Qt19ImageConversionFlagEE@Qt_5 5.0.2
 _ZN7QPixmap15fromImageReaderEP12QImageReader6QFlagsIN2Qt19ImageConversionFlagEE@Qt_5 5.0.2
 _ZN7QPixmap16convertFromImageERK6QImage6QFlagsIN2Qt19ImageConversionFlagEE@Qt_5 5.0.2
 _ZN7QPixmap16fromImageInPlaceER6QImage6QFlagsIN2Qt19ImageConversionFlagEE@Qt_5 5.3.0
 _ZN7QPixmap19setDevicePixelRatioEd@Qt_5 5.2.0
 _ZN7QPixmap4fillEPK12QPaintDeviceRK6QPoint@Qt_5 5.0.2
 _ZN7QPixmap4fillERK6QColor@Qt_5 5.0.2
 _ZN7QPixmap4loadERK7QStringPKc6QFlagsIN2Qt19ImageConversionFlagEE@Qt_5 5.0.2
 _ZN7QPixmap6detachEv@Qt_5 5.0.2
 _ZN7QPixmap6doInitEiii@Qt_5 5.0.2
 _ZN7QPixmap6scrollEiiRK5QRectP7QRegion@Qt_5 5.0.2
 _ZN7QPixmap7setMaskERK7QBitmap@Qt_5 5.0.2
 _ZN7QPixmap9fromImageERK6QImage6QFlagsIN2Qt19ImageConversionFlagEE@Qt_5 5.0.2
 _ZN7QPixmapC1EP15QPlatformPixmap@Qt_5 5.0.2
 _ZN7QPixmapC1EPKPKc@Qt_5 5.0.2
 _ZN7QPixmapC1ERK5QSize@Qt_5 5.0.2
 _ZN7QPixmapC1ERK5QSizei@Qt_5 5.0.2
 _ZN7QPixmapC1ERK7QStringPKc6QFlagsIN2Qt19ImageConversionFlagEE@Qt_5 5.0.2
 _ZN7QPixmapC1ERKS_@Qt_5 5.0.2
 _ZN7QPixmapC1Eii@Qt_5 5.0.2
 _ZN7QPixmapC1Ev@Qt_5 5.0.2
 _ZN7QPixmapC2EP15QPlatformPixmap@Qt_5 5.0.2
 _ZN7QPixmapC2EPKPKc@Qt_5 5.0.2
 _ZN7QPixmapC2ERK5QSize@Qt_5 5.0.2
 _ZN7QPixmapC2ERK5QSizei@Qt_5 5.0.2
 _ZN7QPixmapC2ERK7QStringPKc6QFlagsIN2Qt19ImageConversionFlagEE@Qt_5 5.0.2
 _ZN7QPixmapC2ERKS_@Qt_5 5.0.2
 _ZN7QPixmapC2Eii@Qt_5 5.0.2
 _ZN7QPixmapC2Ev@Qt_5 5.0.2
 _ZN7QPixmapD0Ev@Qt_5 5.0.2
 _ZN7QPixmapD1Ev@Qt_5 5.0.2
 _ZN7QPixmapD2Ev@Qt_5 5.0.2
 _ZN7QPixmapaSERKS_@Qt_5 5.0.2
 _ZN7QRegion12shared_emptyE@Qt_5 5.0.2
 _ZN7QRegion4execERK10QByteArrayiN11QDataStream9ByteOrderE@Qt_5 5.0.2
 _ZN7QRegion6detachEv@Qt_5 5.0.2
 _ZN7QRegion7cleanUpEPNS_11QRegionDataE@Qt_5 5.0.2
 _ZN7QRegion8setRectsEPK5QRecti@Qt_5 5.0.2
 _ZN7QRegion9translateEii@Qt_5 5.0.2
 _ZN7QRegionC1ERK5QRectNS_10RegionTypeE@Qt_5 5.0.2
 _ZN7QRegionC1ERK7QBitmap@Qt_5 5.0.2
 _ZN7QRegionC1ERK8QPolygonN2Qt8FillRuleE@Qt_5 5.0.2
 _ZN7QRegionC1ERKS_@Qt_5 5.0.2
 _ZN7QRegionC1EiiiiNS_10RegionTypeE@Qt_5 5.0.2
 _ZN7QRegionC1Ev@Qt_5 5.0.2
 _ZN7QRegionC2ERK5QRectNS_10RegionTypeE@Qt_5 5.0.2
 _ZN7QRegionC2ERK7QBitmap@Qt_5 5.0.2
 _ZN7QRegionC2ERK8QPolygonN2Qt8FillRuleE@Qt_5 5.0.2
 _ZN7QRegionC2ERKS_@Qt_5 5.0.2
 _ZN7QRegionC2EiiiiNS_10RegionTypeE@Qt_5 5.0.2
 _ZN7QRegionC2Ev@Qt_5 5.0.2
 _ZN7QRegionD1Ev@Qt_5 5.0.2
 _ZN7QRegionD2Ev@Qt_5 5.0.2
 _ZN7QRegionaNERK5QRect@Qt_5 5.0.2
 _ZN7QRegionaNERKS_@Qt_5 5.0.2
 _ZN7QRegionaSERKS_@Qt_5 5.0.2
 _ZN7QRegioneOERKS_@Qt_5 5.0.2
 _ZN7QRegionmIERKS_@Qt_5 5.0.2
 _ZN7QRegionoRERKS_@Qt_5 5.0.2
 _ZN7QRegionpLERK5QRect@Qt_5 5.0.2
 _ZN7QRegionpLERKS_@Qt_5 5.0.2
 (subst)_ZN7QScreen10grabWindowE{quintptr}iiii@Qt_5 5.0.2
 _ZN7QScreen11qt_metacallEN11QMetaObject4CallEiPPv@Qt_5 5.0.2
 _ZN7QScreen11qt_metacastEPKc@Qt_5 5.0.2
 _ZN7QScreen15geometryChangedERK5QRect@Qt_5 5.0.2
 _ZN7QScreen16staticMetaObjectE@Qt_5 5.0.2
 _ZN7QScreen18orientationChangedEN2Qt17ScreenOrientationE@Qt_5 5.0.2
 _ZN7QScreen18refreshRateChangedEd@Qt_5 5.2.0
 _ZN7QScreen19physicalSizeChangedERK6QSizeF@Qt_5 5.0.2
 _ZN7QScreen22virtualGeometryChangedERK5QRect@Qt_5 5.0.2
 _ZN7QScreen24availableGeometryChangedERK5QRect@Qt_5 5.4.0
 _ZN7QScreen24setOrientationUpdateMaskE6QFlagsIN2Qt17ScreenOrientationEE@Qt_5 5.0.2
 _ZN7QScreen25logicalDotsPerInchChangedEd@Qt_5 5.2.0
 _ZN7QScreen25primaryOrientationChangedEN2Qt17ScreenOrientationE@Qt_5 5.0.2
 _ZN7QScreen26physicalDotsPerInchChangedEd@Qt_5 5.2.0
 _ZN7QScreenC1EP15QPlatformScreen@Qt_5 5.0.2
 _ZN7QScreenC2EP15QPlatformScreen@Qt_5 5.0.2
 _ZN7QScreenD0Ev@Qt_5 5.0.2
 _ZN7QScreenD1Ev@Qt_5 5.0.2
 _ZN7QScreenD2Ev@Qt_5 5.0.2
 _ZN7QWindow10setOpacityEd@Qt_5 5.2.0
 _ZN7QWindow10setVisibleEb@Qt_5 5.0.2
 _ZN7QWindow10showNormalEv@Qt_5 5.0.2
 _ZN7QWindow10touchEventEP11QTouchEvent@Qt_5 5.0.2
 _ZN7QWindow10wheelEventEP11QWheelEvent@Qt_5 5.0.2
 _ZN7QWindow11exposeEventEP12QExposeEvent@Qt_5 5.0.2
 _ZN7QWindow11nativeEventERK10QByteArrayPvPl@Qt_5 5.0.2
 _ZN7QWindow11qt_metacallEN11QMetaObject4CallEiPPv@Qt_5 5.0.2
 _ZN7QWindow11qt_metacastEPKc@Qt_5 5.0.2
 _ZN7QWindow11resizeEventEP12QResizeEvent@Qt_5 5.0.2
 _ZN7QWindow11setBaseSizeERK5QSize@Qt_5 5.0.2
 _ZN7QWindow11setFilePathERK7QString@Qt_5 5.0.2
 _ZN7QWindow11setGeometryERK5QRect@Qt_5 5.0.2
 _ZN7QWindow11setGeometryEiiii@Qt_5 5.0.2
 _ZN7QWindow11setModalityEN2Qt14WindowModalityE@Qt_5 5.0.2
 _ZN7QWindow11setPositionERK6QPoint@Qt_5 5.0.2
 _ZN7QWindow11setPositionEii@Qt_5 5.0.2
 _ZN7QWindow11tabletEventEP12QTabletEvent@Qt_5 5.0.2
 _ZN7QWindow11unsetCursorEv@Qt_5 5.0.2
 _ZN7QWindow12focusInEventEP11QFocusEvent@Qt_5 5.0.2
 _ZN7QWindow12widthChangedEi@Qt_5 5.0.2
 _ZN7QWindow13activeChangedEv@Qt_5 5.1.0
 _ZN7QWindow13focusOutEventEP11QFocusEvent@Qt_5 5.0.2
 _ZN7QWindow13heightChangedEi@Qt_5 5.0.2
 _ZN7QWindow13keyPressEventEP9QKeyEvent@Qt_5 5.0.2
 _ZN7QWindow13requestUpdateEv@Qt_5 5.5.0
 _ZN7QWindow13screenChangedEP7QScreen@Qt_5 5.0.2
 _ZN7QWindow13setVisibilityENS_10VisibilityE@Qt_5 5.1.0
 _ZN7QWindow13showMaximizedEv@Qt_5 5.0.2
 _ZN7QWindow13showMinimizedEv@Qt_5 5.0.2
 _ZN7QWindow14mouseMoveEventEP11QMouseEvent@Qt_5 5.0.2
 _ZN7QWindow14opacityChangedEd@Qt_5 5.2.0
 _ZN7QWindow14setMaximumSizeERK5QSize@Qt_5 5.2.0
 _ZN7QWindow14setMinimumSizeERK5QSize@Qt_5 5.2.0
 _ZN7QWindow14setSurfaceTypeEN8QSurface11SurfaceTypeE@Qt_5 5.2.0
 _ZN7QWindow14setWindowStateEN2Qt11WindowStateE@Qt_5 5.2.0
 _ZN7QWindow14showFullScreenEv@Qt_5 5.2.0
 _ZN7QWindow14visibleChangedEb@Qt_5 5.2.0
 _ZN7QWindow15keyReleaseEventEP9QKeyEvent@Qt_5 5.2.0
 _ZN7QWindow15modalityChangedEN2Qt14WindowModalityE@Qt_5 5.2.0
 _ZN7QWindow15mousePressEventEP11QMouseEvent@Qt_5 5.2.0
 _ZN7QWindow15requestActivateEv@Qt_5 5.2.0
 _ZN7QWindow15setMaximumWidthEi@Qt_5 5.2.0
 _ZN7QWindow15setMinimumWidthEi@Qt_5 5.2.0
 _ZN7QWindow16setFramePositionERK6QPoint@Qt_5 5.2.0
 _ZN7QWindow16setMaximumHeightEi@Qt_5 5.2.0
 _ZN7QWindow16setMinimumHeightEi@Qt_5 5.2.0
 _ZN7QWindow16setSizeIncrementERK5QSize@Qt_5 5.2.0
 _ZN7QWindow16staticMetaObjectE@Qt_5 5.2.0
 _ZN7QWindow17mouseReleaseEventEP11QMouseEvent@Qt_5 5.2.0
 _ZN7QWindow17visibilityChangedENS_10VisibilityE@Qt_5 5.2.0
 _ZN7QWindow18focusObjectChangedEP7QObject@Qt_5 5.2.0
 _ZN7QWindow18setTransientParentEPS_@Qt_5 5.2.0
 _ZN7QWindow18windowStateChangedEN2Qt11WindowStateE@Qt_5 5.2.0
 _ZN7QWindow18windowTitleChangedERK7QString@Qt_5 5.3.0
 _ZN7QWindow19maximumWidthChangedEi@Qt_5 5.2.0
 _ZN7QWindow19minimumWidthChangedEi@Qt_5 5.2.0
 _ZN7QWindow19setMouseGrabEnabledEb@Qt_5 5.2.0
 _ZN7QWindow20maximumHeightChangedEi@Qt_5 5.2.0
 _ZN7QWindow20minimumHeightChangedEi@Qt_5 5.2.0
 _ZN7QWindow21mouseDoubleClickEventEP11QMouseEvent@Qt_5 5.2.0
 _ZN7QWindow22setKeyboardGrabEnabledEb@Qt_5 5.2.0
 _ZN7QWindow25contentOrientationChangedEN2Qt17ScreenOrientationE@Qt_5 5.2.0
 _ZN7QWindow30reportContentOrientationChangeEN2Qt17ScreenOrientationE@Qt_5 5.2.0
 _ZN7QWindow4hideEv@Qt_5 5.2.0
 _ZN7QWindow4setXEi@Qt_5 5.2.0
 _ZN7QWindow4setYEi@Qt_5 5.2.0
 _ZN7QWindow4showEv@Qt_5 5.2.0
 _ZN7QWindow5alertEi@Qt_5 5.2.0
 _ZN7QWindow5closeEv@Qt_5 5.2.0
 _ZN7QWindow5eventEP6QEvent@Qt_5 5.2.0
 _ZN7QWindow5lowerEv@Qt_5 5.2.0
 _ZN7QWindow5raiseEv@Qt_5 5.2.0
 _ZN7QWindow6createEv@Qt_5 5.2.0
 _ZN7QWindow6resizeERK5QSize@Qt_5 5.2.0
 _ZN7QWindow6resizeEii@Qt_5 5.2.0
 _ZN7QWindow7destroyEv@Qt_5 5.2.0
 _ZN7QWindow7setIconERK5QIcon@Qt_5 5.2.0
 _ZN7QWindow7setMaskERK7QRegion@Qt_5 5.2.0
 _ZN7QWindow8setFlagsE6QFlagsIN2Qt10WindowTypeEE@Qt_5 5.2.0
 _ZN7QWindow8setTitleERK7QString@Qt_5 5.2.0
 _ZN7QWindow8setWidthEi@Qt_5 5.2.0
 _ZN7QWindow8xChangedEi@Qt_5 5.2.0
 _ZN7QWindow8yChangedEi@Qt_5 5.2.0
 (subst)_ZN7QWindow9fromWinIdE{quintptr}@Qt_5 5.2.0
 _ZN7QWindow9hideEventEP10QHideEvent@Qt_5 5.2.0
 _ZN7QWindow9moveEventEP10QMoveEvent@Qt_5 5.2.0
 _ZN7QWindow9setCursorERK7QCursor@Qt_5 5.2.0
 _ZN7QWindow9setFormatERK14QSurfaceFormat@Qt_5 5.2.0
 _ZN7QWindow9setHeightEi@Qt_5 5.2.0
 _ZN7QWindow9setParentEPS_@Qt_5 5.2.0
 _ZN7QWindow9setScreenEP7QScreen@Qt_5 5.2.0
 _ZN7QWindow9showEventEP10QShowEvent@Qt_5 5.2.0
 _ZN7QWindowC1EP7QScreen@Qt_5 5.2.0
 _ZN7QWindowC1EPS_@Qt_5 5.2.0
 _ZN7QWindowC1ER14QWindowPrivatePS_@Qt_5_PRIVATE_API 5.2.0 1
 _ZN7QWindowC2EP7QScreen@Qt_5 5.2.0
 _ZN7QWindowC2EPS_@Qt_5 5.2.0
 _ZN7QWindowC2ER14QWindowPrivatePS_@Qt_5_PRIVATE_API 5.2.0 1
 _ZN7QWindowD0Ev@Qt_5 5.2.0
 _ZN7QWindowD1Ev@Qt_5 5.2.0
 _ZN7QWindowD2Ev@Qt_5 5.2.0
 _ZN8QPainter10drawPixmapERK6QRectFRK7QPixmapS2_@Qt_5 5.2.0
 _ZN8QPainter10drawPixmapERK7QPointFRK7QPixmap@Qt_5 5.2.0
 _ZN8QPainter10drawPointsEPK6QPointi@Qt_5 5.2.0
 _ZN8QPainter10drawPointsEPK7QPointFi@Qt_5 5.2.0
 _ZN8QPainter10redirectedEPK12QPaintDeviceP6QPoint@Qt_5 5.2.0
 _ZN8QPainter10setOpacityEd@Qt_5 5.2.0
 _ZN8QPainter10strokePathERK12QPainterPathRK4QPen@Qt_5 5.0.2
 _ZN8QPainter11drawEllipseERK5QRect@Qt_5 5.0.2
 _ZN8QPainter11drawEllipseERK6QRectF@Qt_5 5.0.2
 _ZN8QPainter11drawPictureERK7QPointFRK8QPicture@Qt_5 5.0.2
 _ZN8QPainter11drawPolygonEPK6QPointiN2Qt8FillRuleE@Qt_5 5.0.2
 _ZN8QPainter11drawPolygonEPK7QPointFiN2Qt8FillRuleE@Qt_5 5.0.2
 _ZN8QPainter11resetMatrixEv@Qt_5 5.0.2
 _ZN8QPainter11setClipPathERK12QPainterPathN2Qt13ClipOperationE@Qt_5 5.0.2
 _ZN8QPainter11setClipRectERK5QRectN2Qt13ClipOperationE@Qt_5 5.0.2
 _ZN8QPainter11setClipRectERK6QRectFN2Qt13ClipOperationE@Qt_5 5.0.2
 _ZN8QPainter11setClippingEb@Qt_5 5.0.2
 _ZN8QPainter11setViewportERK5QRect@Qt_5 5.0.2
 _ZN8QPainter12boundingRectERK5QRectiRK7QString@Qt_5 5.0.2
 _ZN8QPainter12boundingRectERK6QRectFRK7QStringRK11QTextOption@Qt_5 5.0.2
 _ZN8QPainter12boundingRectERK6QRectFiRK7QString@Qt_5 5.0.2
 _ZN8QPainter12drawGlyphRunERK7QPointFRK9QGlyphRun@Qt_5 5.0.2
 _ZN8QPainter12drawPolylineEPK6QPointi@Qt_5 5.0.2
 _ZN8QPainter12drawPolylineEPK7QPointFi@Qt_5 5.0.2
 _ZN8QPainter12drawTextItemERK7QPointFRK9QTextItem@Qt_5 5.0.2
 _ZN8QPainter12setTransformERK10QTransformb@Qt_5 5.0.2
 _ZN8QPainter13drawRoundRectERK6QRectFii@Qt_5 5.0.2
 _ZN8QPainter13setBackgroundERK6QBrush@Qt_5 5.0.2
 _ZN8QPainter13setClipRegionERK7QRegionN2Qt13ClipOperationE@Qt_5 5.0.2
 _ZN8QPainter13setRedirectedEPK12QPaintDevicePS0_RK6QPoint@Qt_5 5.0.2
 _ZN8QPainter13setRenderHintENS_10RenderHintEb@Qt_5 5.0.2
 _ZN8QPainter14PixmapFragment6createERK7QPointFRK6QRectFdddd@Qt_5 5.2.0
 _ZN8QPainter14drawStaticTextERK7QPointFRK11QStaticText@Qt_5 5.0.2
 _ZN8QPainter14resetTransformEv@Qt_5 5.0.2
 _ZN8QPainter14setBrushOriginERK7QPointF@Qt_5 5.0.2
 _ZN8QPainter14setRenderHintsE6QFlagsINS_10RenderHintEEb@Qt_5 5.0.2
 _ZN8QPainter14setWorldMatrixERK7QMatrixb@Qt_5 5.0.2
 _ZN8QPainter15drawRoundedRectERK6QRectFddN2Qt8SizeModeE@Qt_5 5.2.0
 _ZN8QPainter15drawTiledPixmapERK6QRectFRK7QPixmapRK7QPointF@Qt_5 5.0.2
 _ZN8QPainter16setMatrixEnabledEb@Qt_5 5.0.2
 _ZN8QPainter16staticMetaObjectE@Qt_5 5.0.2
 _ZN8QPainter17drawConvexPolygonEPK6QPointi@Qt_5 5.0.2
 _ZN8QPainter17drawConvexPolygonEPK7QPointFi@Qt_5 5.0.2
 _ZN8QPainter17endNativePaintingEv@Qt_5 5.0.2
 _ZN8QPainter17restoreRedirectedEPK12QPaintDevice@Qt_5 5.0.2
 _ZN8QPainter17setBackgroundModeEN2Qt6BGModeE@Qt_5 5.0.2
 _ZN8QPainter17setWorldTransformERK10QTransformb@Qt_5 5.0.2
 _ZN8QPainter18setCompositionModeENS_15CompositionModeE@Qt_5 5.0.2
 _ZN8QPainter18setLayoutDirectionEN2Qt15LayoutDirectionE@Qt_5 5.0.2
 _ZN8QPainter19beginNativePaintingEv@Qt_5 5.0.2
 _ZN8QPainter19drawPixmapFragmentsEPKNS_14PixmapFragmentEiRK7QPixmap6QFlagsINS_18PixmapFragmentHintEE@Qt_5 5.0.2
 _ZN8QPainter21setWorldMatrixEnabledEb@Qt_5 5.0.2
 _ZN8QPainter23setViewTransformEnabledEb@Qt_5 5.0.2
 _ZN8QPainter3endEv@Qt_5 5.0.2
 _ZN8QPainter4saveEv@Qt_5 5.0.2
 _ZN8QPainter5beginEP12QPaintDevice@Qt_5 5.0.2
 _ZN8QPainter5scaleEdd@Qt_5 5.2.0
 _ZN8QPainter5shearEdd@Qt_5 5.2.0
 _ZN8QPainter6rotateEd@Qt_5 5.2.0
 _ZN8QPainter6setPenEN2Qt8PenStyleE@Qt_5 5.0.2
 _ZN8QPainter6setPenERK4QPen@Qt_5 5.0.2
 _ZN8QPainter6setPenERK6QColor@Qt_5 5.0.2
 _ZN8QPainter7drawArcERK6QRectFii@Qt_5 5.0.2
 _ZN8QPainter7drawPieERK6QRectFii@Qt_5 5.0.2
 _ZN8QPainter7restoreEv@Qt_5 5.0.2
 _ZN8QPainter7setFontERK5QFont@Qt_5 5.0.2
 _ZN8QPainter8drawPathERK12QPainterPath@Qt_5 5.0.2
 _ZN8QPainter8drawTextERK5QRectiRK7QStringPS0_@Qt_5 5.0.2
 _ZN8QPainter8drawTextERK6QRectFRK7QStringRK11QTextOption@Qt_5 5.0.2
 _ZN8QPainter8drawTextERK6QRectFiRK7QStringPS0_@Qt_5 5.0.2
 _ZN8QPainter8drawTextERK7QPointFRK7QString@Qt_5 5.0.2
 _ZN8QPainter8drawTextERK7QPointFRK7QStringii@Qt_5 5.0.2
 _ZN8QPainter8fillPathERK12QPainterPathRK6QBrush@Qt_5 5.0.2
 _ZN8QPainter8fillRectERK5QRectRK6QBrush@Qt_5 5.0.2
 _ZN8QPainter8fillRectERK5QRectRK6QColor@Qt_5 5.0.2
 _ZN8QPainter8fillRectERK6QRectFRK6QBrush@Qt_5 5.0.2
 _ZN8QPainter8fillRectERK6QRectFRK6QColor@Qt_5 5.0.2
 _ZN8QPainter8initFromEPK12QPaintDevice@Qt_5 5.0.2
 _ZN8QPainter8setBrushEN2Qt10BrushStyleE@Qt_5 5.0.2
 _ZN8QPainter8setBrushERK6QBrush@Qt_5 5.0.2
 _ZN8QPainter9drawChordERK6QRectFii@Qt_5 5.0.2
 _ZN8QPainter9drawImageERK6QRectFRK6QImageS2_6QFlagsIN2Qt19ImageConversionFlagEE@Qt_5 5.0.2
 _ZN8QPainter9drawImageERK7QPointFRK6QImage@Qt_5 5.0.2
 _ZN8QPainter9drawLinesEPK5QLinei@Qt_5 5.0.2
 _ZN8QPainter9drawLinesEPK6QLineFi@Qt_5 5.0.2
 _ZN8QPainter9drawLinesEPK6QPointi@Qt_5 5.0.2
 _ZN8QPainter9drawLinesEPK7QPointFi@Qt_5 5.0.2
 _ZN8QPainter9drawRectsEPK5QRecti@Qt_5 5.0.2
 _ZN8QPainter9drawRectsEPK6QRectFi@Qt_5 5.0.2
 _ZN8QPainter9eraseRectERK6QRectF@Qt_5 5.0.2
 _ZN8QPainter9setMatrixERK7QMatrixb@Qt_5 5.0.2
 _ZN8QPainter9setWindowERK5QRect@Qt_5 5.0.2
 _ZN8QPainter9translateERK7QPointF@Qt_5 5.0.2
 _ZN8QPainterC1EP12QPaintDevice@Qt_5 5.0.2
 _ZN8QPainterC1Ev@Qt_5 5.0.2
 _ZN8QPainterC2EP12QPaintDevice@Qt_5 5.0.2
 _ZN8QPainterC2Ev@Qt_5 5.0.2
 _ZN8QPainterD1Ev@Qt_5 5.0.2
 _ZN8QPainterD2Ev@Qt_5 5.0.2
 _ZN8QPalette13setColorGroupENS_10ColorGroupERK6QBrushS3_S3_S3_S3_S3_S3_S3_S3_@Qt_5 5.0.2
 _ZN8QPalette13setColorGroupENS_10ColorGroupERK6QBrushS3_S3_S3_S3_S3_S3_S3_S3_S3_S3_S3_S3_S3_S3_S3_S3_@Qt_5 5.0.2
 _ZN8QPalette13setColorGroupENS_10ColorGroupERK6QBrushS3_S3_S3_S3_S3_S3_S3_S3_S3_S3_S3_S3_S3_S3_S3_S3_S3_S3_@Qt_5 5.0.2
 _ZN8QPalette16staticMetaObjectE@Qt_5 5.0.2
 _ZN8QPalette4initEv@Qt_5 5.0.2
 _ZN8QPalette6detachEv@Qt_5 5.0.2
 _ZN8QPalette8setBrushENS_10ColorGroupENS_9ColorRoleERK6QBrush@Qt_5 5.0.2
 _ZN8QPaletteC1EN2Qt11GlobalColorE@Qt_5 5.0.2
 _ZN8QPaletteC1ERK6QBrushS2_S2_S2_S2_S2_S2_S2_S2_@Qt_5 5.0.2
 _ZN8QPaletteC1ERK6QColor@Qt_5 5.0.2
 _ZN8QPaletteC1ERK6QColorS2_@Qt_5 5.0.2
 _ZN8QPaletteC1ERK6QColorS2_S2_S2_S2_S2_S2_@Qt_5 5.0.2
 _ZN8QPaletteC1ERKS_@Qt_5 5.0.2
 _ZN8QPaletteC1Ev@Qt_5 5.0.2
 _ZN8QPaletteC2EN2Qt11GlobalColorE@Qt_5 5.0.2
 _ZN8QPaletteC2ERK6QBrushS2_S2_S2_S2_S2_S2_S2_S2_@Qt_5 5.0.2
 _ZN8QPaletteC2ERK6QColor@Qt_5 5.0.2
 _ZN8QPaletteC2ERK6QColorS2_@Qt_5 5.0.2
 _ZN8QPaletteC2ERK6QColorS2_S2_S2_S2_S2_S2_@Qt_5 5.0.2
 _ZN8QPaletteC2ERKS_@Qt_5 5.0.2
 _ZN8QPaletteC2Ev@Qt_5 5.0.2
 _ZN8QPaletteD1Ev@Qt_5 5.0.2
 _ZN8QPaletteD2Ev@Qt_5 5.0.2
 _ZN8QPaletteaSERKS_@Qt_5 5.0.2
 _ZN8QPicture12inputFormatsEv@Qt_5 5.0.2
 _ZN8QPicture13outputFormatsEv@Qt_5 5.0.2
 _ZN8QPicture13pictureFormatERK7QString@Qt_5 5.0.2
 _ZN8QPicture15inputFormatListEv@Qt_5 5.0.2
 _ZN8QPicture15setBoundingRectERK5QRect@Qt_5 5.0.2
 _ZN8QPicture16outputFormatListEv@Qt_5 5.0.2
 _ZN8QPicture4execEP8QPainterR11QDataStreami@Qt_5 5.0.2
 _ZN8QPicture4loadEP9QIODevicePKc@Qt_5 5.0.2
 _ZN8QPicture4loadERK7QStringPKc@Qt_5 5.0.2
 _ZN8QPicture4playEP8QPainter@Qt_5 5.0.2
 _ZN8QPicture4saveEP9QIODevicePKc@Qt_5 5.0.2
 _ZN8QPicture4saveERK7QStringPKc@Qt_5 5.0.2
 _ZN8QPicture6detachEv@Qt_5 5.0.2
 _ZN8QPicture7setDataEPKcj@Qt_5 5.0.2
 _ZN8QPictureC1ER15QPicturePrivate@Qt_5 5.0.2
 _ZN8QPictureC1ERKS_@Qt_5 5.0.2
 _ZN8QPictureC1Ei@Qt_5 5.0.2
 _ZN8QPictureC2ER15QPicturePrivate@Qt_5 5.0.2
 _ZN8QPictureC2ERKS_@Qt_5 5.0.2
 _ZN8QPictureC2Ei@Qt_5 5.0.2
 _ZN8QPictureD0Ev@Qt_5 5.0.2
 _ZN8QPictureD1Ev@Qt_5 5.0.2
 _ZN8QPictureD2Ev@Qt_5 5.0.2
 _ZN8QPictureaSERKS_@Qt_5 5.0.2
 _ZN8QPolygon9putPointsEiiPKi@Qt_5 5.0.2
 _ZN8QPolygon9putPointsEiiRKS_i@Qt_5 5.0.2
 _ZN8QPolygon9putPointsEiiiiz@Qt_5 5.0.2
 _ZN8QPolygon9setPointsEiPKi@Qt_5 5.0.2
 _ZN8QPolygon9setPointsEiiiz@Qt_5 5.0.2
 _ZN8QPolygon9translateEii@Qt_5 5.0.2
 _ZN8QPolygonC1ERK5QRectb@Qt_5 5.0.2
 _ZN8QPolygonC1EiPKi@Qt_5 5.0.2
 _ZN8QPolygonC2ERK5QRectb@Qt_5 5.0.2
 _ZN8QPolygonC2EiPKi@Qt_5 5.0.2
 _ZN8QRawFont12loadFromDataERK10QByteArraydN5QFont17HintingPreferenceE@Qt_5 5.2.0
 _ZN8QRawFont12loadFromFileERK7QStringdN5QFont17HintingPreferenceE@Qt_5 5.2.0
 _ZN8QRawFont12setPixelSizeEd@Qt_5 5.2.0
 _ZN8QRawFont8fromFontERK5QFontN13QFontDatabase13WritingSystemE@Qt_5 5.0.2
 _ZN8QRawFontC1ERK10QByteArraydN5QFont17HintingPreferenceE@Qt_5 5.2.0
 _ZN8QRawFontC1ERK7QStringdN5QFont17HintingPreferenceE@Qt_5 5.2.0
 _ZN8QRawFontC1ERKS_@Qt_5 5.0.2
 _ZN8QRawFontC1Ev@Qt_5 5.0.2
 _ZN8QRawFontC2ERK10QByteArraydN5QFont17HintingPreferenceE@Qt_5 5.2.0
 _ZN8QRawFontC2ERK7QStringdN5QFont17HintingPreferenceE@Qt_5 5.2.0
 _ZN8QRawFontC2ERKS_@Qt_5 5.0.2
 _ZN8QRawFontC2Ev@Qt_5 5.0.2
 _ZN8QRawFontD1Ev@Qt_5 5.0.2
 _ZN8QRawFontD2Ev@Qt_5 5.0.2
 _ZN8QRawFontaSERKS_@Qt_5 5.0.2
 _ZN8QStroker10joinPointsEddRK6QLineFNS_12LineJoinModeE@Qt_5_PRIVATE_API 5.2.0 1
 _ZN8QStroker14capForJoinModeENS_12LineJoinModeE@Qt_5_PRIVATE_API 5.0.2 1
 _ZN8QStroker14joinModeForCapEN2Qt11PenCapStyleE@Qt_5_PRIVATE_API 5.0.2 1
 _ZN8QStroker15joinForJoinModeENS_12LineJoinModeE@Qt_5_PRIVATE_API 5.0.2 1
 _ZN8QStroker15joinModeForJoinEN2Qt12PenJoinStyleE@Qt_5_PRIVATE_API 5.0.2 1
 _ZN8QStroker21processCurrentSubpathEv@Qt_5_PRIVATE_API 5.0.2 1
 _ZN8QStrokerC1Ev@Qt_5_PRIVATE_API 5.0.2 1
 _ZN8QStrokerC2Ev@Qt_5_PRIVATE_API 5.0.2 1
 _ZN8QStrokerD0Ev@Qt_5_PRIVATE_API 5.0.2 1
 _ZN8QStrokerD1Ev@Qt_5_PRIVATE_API 5.0.2 1
 _ZN8QStrokerD2Ev@Qt_5_PRIVATE_API 5.0.2 1
 _ZN8QSurfaceC1ENS_12SurfaceClassE@Qt_5 5.0.2
 _ZN8QSurfaceC2ENS_12SurfaceClassE@Qt_5 5.0.2
 _ZN8QSurfaceD0Ev@Qt_5 5.0.2
 _ZN8QSurfaceD1Ev@Qt_5 5.0.2
 _ZN8QSurfaceD2Ev@Qt_5 5.0.2
 _ZN9QFontInfoC1ERK5QFont@Qt_5 5.0.2
 _ZN9QFontInfoC1ERKS_@Qt_5 5.0.2
 _ZN9QFontInfoC2ERK5QFont@Qt_5 5.0.2
 _ZN9QFontInfoC2ERKS_@Qt_5 5.0.2
 _ZN9QFontInfoD1Ev@Qt_5 5.0.2
 _ZN9QFontInfoD2Ev@Qt_5 5.0.2
 _ZN9QFontInfoaSERKS_@Qt_5 5.0.2
 _ZN9QGlyphRun10setRawDataEPKjPK7QPointFi@Qt_5 5.0.2
 _ZN9QGlyphRun10setRawFontERK8QRawFont@Qt_5 5.0.2
 _ZN9QGlyphRun11setOverlineEb@Qt_5 5.0.2
 _ZN9QGlyphRun12setPositionsERK7QVectorI7QPointFE@Qt_5 5.0.2
 _ZN9QGlyphRun12setStrikeOutEb@Qt_5 5.0.2
 _ZN9QGlyphRun12setUnderlineEb@Qt_5 5.0.2
 _ZN9QGlyphRun14setRightToLeftEb@Qt_5 5.0.2
 _ZN9QGlyphRun15setBoundingRectERK6QRectF@Qt_5 5.0.2
 _ZN9QGlyphRun15setGlyphIndexesERK7QVectorIjE@Qt_5 5.0.2
 _ZN9QGlyphRun5clearEv@Qt_5 5.0.2
 _ZN9QGlyphRun6detachEv@Qt_5 5.0.2
 _ZN9QGlyphRun7setFlagENS_12GlyphRunFlagEb@Qt_5 5.0.2
 _ZN9QGlyphRun8setFlagsE6QFlagsINS_12GlyphRunFlagEE@Qt_5 5.0.2
 _ZN9QGlyphRunC1ERKS_@Qt_5 5.0.2
 _ZN9QGlyphRunC1Ev@Qt_5 5.0.2
 _ZN9QGlyphRunC2ERKS_@Qt_5 5.0.2
 _ZN9QGlyphRunC2Ev@Qt_5 5.0.2
 _ZN9QGlyphRunD1Ev@Qt_5 5.0.2
 _ZN9QGlyphRunD2Ev@Qt_5 5.0.2
 _ZN9QGlyphRunaSERKS_@Qt_5 5.0.2
 _ZN9QGradient10setColorAtEdRK6QColor@Qt_5 5.2.0
 _ZN9QGradient16staticMetaObjectE@Qt_5 5.0.2
 _ZN9QGradient17setCoordinateModeENS_14CoordinateModeE@Qt_5 5.0.2
 _ZN9QGradient20setInterpolationModeENS_17InterpolationModeE@Qt_5 5.0.2
 _ZN9QGradient8setStopsERK7QVectorI5QPairId6QColorEE@Qt_5 5.2.0
 _ZN9QGradientC1Ev@Qt_5 5.0.2
 _ZN9QGradientC2Ev@Qt_5 5.0.2
 _ZN9QKeyEventC1EN6QEvent4TypeEi6QFlagsIN2Qt16KeyboardModifierEERK7QStringbt@Qt_5 5.0.2
 _ZN9QKeyEventC1EN6QEvent4TypeEi6QFlagsIN2Qt16KeyboardModifierEEjjjRK7QStringbt@Qt_5 5.0.2
 _ZN9QKeyEventC2EN6QEvent4TypeEi6QFlagsIN2Qt16KeyboardModifierEERK7QStringbt@Qt_5 5.0.2
 _ZN9QKeyEventC2EN6QEvent4TypeEi6QFlagsIN2Qt16KeyboardModifierEEjjjRK7QStringbt@Qt_5 5.0.2
 _ZN9QKeyEventD0Ev@Qt_5 5.0.2
 _ZN9QKeyEventD1Ev@Qt_5 5.0.2
 _ZN9QKeyEventD2Ev@Qt_5 5.0.2
 _ZN9QPageSize10sizePixelsENS_10PageSizeIdEi@Qt_5 5.3.0
 _ZN9QPageSize10sizePointsENS_10PageSizeIdE@Qt_5 5.3.0
 _ZN9QPageSize14definitionSizeENS_10PageSizeIdE@Qt_5 5.3.0
 _ZN9QPageSize15definitionUnitsENS_10PageSizeIdE@Qt_5 5.3.0
 _ZN9QPageSize2idERK5QSizeNS_15SizeMatchPolicyE@Qt_5 5.3.0
 _ZN9QPageSize2idERK6QSizeFNS_4UnitENS_15SizeMatchPolicyE@Qt_5 5.3.0
 _ZN9QPageSize2idEi@Qt_5 5.3.0
 _ZN9QPageSize3keyENS_10PageSizeIdE@Qt_5 5.3.0
 _ZN9QPageSize4nameENS_10PageSizeIdE@Qt_5 5.3.0
 _ZN9QPageSize4sizeENS_10PageSizeIdENS_4UnitE@Qt_5 5.3.0
 _ZN9QPageSize9windowsIdENS_10PageSizeIdE@Qt_5 5.3.0
 _ZN9QPageSizeC1ENS_10PageSizeIdE@Qt_5 5.3.0
 _ZN9QPageSizeC1ER16QPageSizePrivate@Qt_5 5.3.0
 _ZN9QPageSizeC1ERK5QSizeRK7QStringNS_15SizeMatchPolicyE@Qt_5 5.3.0
 _ZN9QPageSizeC1ERK6QSizeFNS_4UnitERK7QStringNS_15SizeMatchPolicyE@Qt_5 5.3.0
 _ZN9QPageSizeC1ERK7QStringRK5QSizeS2_@Qt_5 5.3.0
 _ZN9QPageSizeC1ERKS_@Qt_5 5.3.0
 _ZN9QPageSizeC1EiRK5QSizeRK7QString@Qt_5 5.3.0
 _ZN9QPageSizeC1Ev@Qt_5 5.3.0
 _ZN9QPageSizeC2ENS_10PageSizeIdE@Qt_5 5.3.0
 _ZN9QPageSizeC2ER16QPageSizePrivate@Qt_5 5.3.0
 _ZN9QPageSizeC2ERK5QSizeRK7QStringNS_15SizeMatchPolicyE@Qt_5 5.3.0
 _ZN9QPageSizeC2ERK6QSizeFNS_4UnitERK7QStringNS_15SizeMatchPolicyE@Qt_5 5.3.0
 _ZN9QPageSizeC2ERK7QStringRK5QSizeS2_@Qt_5 5.3.0
 _ZN9QPageSizeC2ERKS_@Qt_5 5.3.0
 _ZN9QPageSizeC2EiRK5QSizeRK7QString@Qt_5 5.3.0
 _ZN9QPageSizeC2Ev@Qt_5 5.3.0
 _ZN9QPageSizeD1Ev@Qt_5 5.3.0
 _ZN9QPageSizeD2Ev@Qt_5 5.3.0
 _ZN9QPageSizeaSERKS_@Qt_5 5.3.0
 _ZN9QPolygonF9translateERK7QPointF@Qt_5 5.0.2
 _ZN9QPolygonFC1ERK6QRectF@Qt_5 5.0.2
 _ZN9QPolygonFC1ERK8QPolygon@Qt_5 5.0.2
 _ZN9QPolygonFC2ERK6QRectF@Qt_5 5.0.2
 _ZN9QPolygonFC2ERK8QPolygon@Qt_5 5.0.2
 _ZN9QTextLine11setPositionERK7QPointF@Qt_5 5.0.2
 _ZN9QTextLine12setLineWidthEd@Qt_5 5.2.0
 _ZN9QTextLine13layout_helperEi@Qt_5 5.0.2
 _ZN9QTextLine13setNumColumnsEi@Qt_5 5.0.2
 _ZN9QTextLine13setNumColumnsEid@Qt_5 5.2.0
 _ZN9QTextLine18setLeadingIncludedEb@Qt_5 5.0.2
 _ZN9QTextList10removeItemEi@Qt_5 5.0.2
 _ZN9QTextList11qt_metacallEN11QMetaObject4CallEiPPv@Qt_5 5.0.2
 _ZN9QTextList11qt_metacastEPKc@Qt_5 5.0.2
 _ZN9QTextList16staticMetaObjectE@Qt_5 5.0.2
 _ZN9QTextList3addERK10QTextBlock@Qt_5 5.0.2
 _ZN9QTextList6removeERK10QTextBlock@Qt_5 5.0.2
 _ZN9QTextListC1EP13QTextDocument@Qt_5 5.0.2
 _ZN9QTextListC2EP13QTextDocument@Qt_5 5.0.2
 _ZN9QTextListD0Ev@Qt_5 5.0.2
 _ZN9QTextListD1Ev@Qt_5 5.0.2
 _ZN9QTextListD2Ev@Qt_5 5.0.2
 _ZN9QVector2D10dotProductERKS_S1_@Qt_5 5.0.2
 _ZN9QVector2D9normalizeEv@Qt_5 5.0.2
 _ZN9QVector2DC1ERK9QVector3D@Qt_5 5.0.2
 _ZN9QVector2DC1ERK9QVector4D@Qt_5 5.0.2
 _ZN9QVector2DC2ERK9QVector3D@Qt_5 5.0.2
 _ZN9QVector2DC2ERK9QVector4D@Qt_5 5.0.2
 _ZN9QVector3D10dotProductERKS_S1_@Qt_5 5.0.2
 _ZN9QVector3D12crossProductERKS_S1_@Qt_5 5.0.2
 _ZN9QVector3D6normalERKS_S1_@Qt_5 5.0.2
 _ZN9QVector3D6normalERKS_S1_S1_@Qt_5 5.0.2
 _ZN9QVector3D9normalizeEv@Qt_5 5.0.2
 _ZN9QVector3DC1ERK9QVector2D@Qt_5 5.0.2
 _ZN9QVector3DC1ERK9QVector2Df@Qt_5 5.0.2
 _ZN9QVector3DC1ERK9QVector4D@Qt_5 5.0.2
 _ZN9QVector3DC2ERK9QVector2D@Qt_5 5.0.2
 _ZN9QVector3DC2ERK9QVector2Df@Qt_5 5.0.2
 _ZN9QVector3DC2ERK9QVector4D@Qt_5 5.0.2
 _ZN9QVector4D10dotProductERKS_S1_@Qt_5 5.0.2
 _ZN9QVector4D9normalizeEv@Qt_5 5.0.2
 _ZN9QVector4DC1ERK9QVector2D@Qt_5 5.0.2
 _ZN9QVector4DC1ERK9QVector2Dff@Qt_5 5.0.2
 _ZN9QVector4DC1ERK9QVector3D@Qt_5 5.0.2
 _ZN9QVector4DC1ERK9QVector3Df@Qt_5 5.0.2
 _ZN9QVector4DC2ERK9QVector2D@Qt_5 5.0.2
 _ZN9QVector4DC2ERK9QVector2Dff@Qt_5 5.0.2
 _ZN9QVector4DC2ERK9QVector3D@Qt_5 5.0.2
 _ZN9QVector4DC2ERK9QVector3Df@Qt_5 5.0.2
 _ZN9QtPrivate22QPixelFormat_createYUVEN12QPixelFormat9YUVLayoutEhNS0_10AlphaUsageENS0_13AlphaPositionENS0_18AlphaPremultipliedENS0_18TypeInterpretationENS0_9ByteOrderE@Qt_5 5.4.0
 _ZNK10QBlittable12capabilitiesEv@Qt_5_PRIVATE_API 5.0.2 1
 _ZNK10QBlittable4sizeEv@Qt_5_PRIVATE_API 5.0.2 1
 _ZNK10QBlittable8isLockedEv@Qt_5_PRIVATE_API 5.0.2 1
 _ZNK10QClipboard10metaObjectEv@Qt_5 5.0.2
 _ZNK10QClipboard12supportsModeENS_4ModeE@Qt_5 5.0.2
 _ZNK10QClipboard13ownsClipboardEv@Qt_5 5.0.2
 _ZNK10QClipboard13ownsSelectionEv@Qt_5 5.0.2
 _ZNK10QClipboard14ownsFindBufferEv@Qt_5 5.0.2
 _ZNK10QClipboard17supportsSelectionEv@Qt_5 5.0.2
 _ZNK10QClipboard18supportsFindBufferEv@Qt_5 5.0.2
 _ZNK10QClipboard4textENS_4ModeE@Qt_5 5.0.2
 _ZNK10QClipboard4textER7QStringNS_4ModeE@Qt_5 5.0.2
 _ZNK10QClipboard5imageENS_4ModeE@Qt_5 5.0.2
 _ZNK10QClipboard6pixmapENS_4ModeE@Qt_5 5.0.2
 _ZNK10QClipboard8mimeDataENS_4ModeE@Qt_5 5.0.2
 _ZNK10QClipboard8ownsModeENS_4ModeE@Qt_5 5.0.2
 _ZNK10QDropEvent6sourceEv@Qt_5 5.0.2
 _ZNK10QImageData19checkForAlphaPixelsEv@Qt_5_PRIVATE_API 5.0.2 1
 _ZNK10QImageData9doImageIOEPK6QImageP12QImageWriteri@Qt_5_PRIVATE_API 5.0.2 1
 _ZNK10QKeyMapper10metaObjectEv@Qt_5_PRIVATE_API 5.0.2 1
 _ZNK10QMatrix4x410copyDataToEPf@Qt_5 5.0.2
 _ZNK10QMatrix4x410transposedEv@Qt_5 5.0.2
 _ZNK10QMatrix4x411determinantEv@Qt_5 5.0.2
 _ZNK10QMatrix4x411toTransformEf@Qt_5 5.0.2
 _ZNK10QMatrix4x411toTransformEv@Qt_5 5.0.2
 _ZNK10QMatrix4x412normalMatrixEv@Qt_5 5.0.2
 _ZNK10QMatrix4x418orthonormalInverseEv@Qt_5 5.0.2
 _ZNK10QMatrix4x47mapRectERK5QRect@Qt_5 5.0.2
 _ZNK10QMatrix4x47mapRectERK6QRectF@Qt_5 5.0.2
 _ZNK10QMatrix4x48invertedEPb@Qt_5 5.0.2
 _ZNK10QMatrix4x48toAffineEv@Qt_5 5.0.2
 _ZNK10QMatrix4x4cv8QVariantEv@Qt_5 5.0.2
 _ZNK10QPdfEngine10pageLayoutEv@Qt_5_PRIVATE_API 5.3.0 1
 _ZNK10QPdfEngine10resolutionEv@Qt_5_PRIVATE_API 5.3.0 1
 _ZNK10QPdfEngine4typeEv@Qt_5_PRIVATE_API 5.0.2 1
 _ZNK10QPdfEngine6metricEN12QPaintDevice17PaintDeviceMetricE@Qt_5_PRIVATE_API 5.0.2 1
 _ZNK10QPdfWriter10metaObjectEv@Qt_5 5.0.2
 _ZNK10QPdfWriter10resolutionEv@Qt_5 5.3.0
 _ZNK10QPdfWriter11paintEngineEv@Qt_5 5.0.2
 _ZNK10QPdfWriter5titleEv@Qt_5 5.0.2
 _ZNK10QPdfWriter6metricEN12QPaintDevice17PaintDeviceMetricE@Qt_5 5.0.2
 _ZNK10QPdfWriter7creatorEv@Qt_5 5.0.2
 _ZNK10QPictureIO10parametersEv@Qt_5 5.0.2
 _ZNK10QPictureIO11descriptionEv@Qt_5 5.0.2
 _ZNK10QPictureIO5gammaEv@Qt_5 5.0.2
 _ZNK10QPictureIO6formatEv@Qt_5 5.0.2
 _ZNK10QPictureIO6statusEv@Qt_5 5.0.2
 _ZNK10QPictureIO7pictureEv@Qt_5 5.0.2
 _ZNK10QPictureIO7qualityEv@Qt_5 5.0.2
 _ZNK10QPictureIO8fileNameEv@Qt_5 5.0.2
 _ZNK10QPictureIO8ioDeviceEv@Qt_5 5.0.2
 _ZNK10QTextBlock10charFormatEv@Qt_5 5.0.2
 _ZNK10QTextBlock11blockFormatEv@Qt_5 5.0.2
 _ZNK10QTextBlock11blockNumberEv@Qt_5 5.0.2
 _ZNK10QTextBlock11textFormatsEv@Qt_5 5.3.0
 _ZNK10QTextBlock13textDirectionEv@Qt_5 5.0.2
 _ZNK10QTextBlock15charFormatIndexEv@Qt_5 5.0.2
 _ZNK10QTextBlock15firstLineNumberEv@Qt_5 5.0.2
 _ZNK10QTextBlock16blockFormatIndexEv@Qt_5 5.0.2
 _ZNK10QTextBlock3endEv@Qt_5 5.0.2
 _ZNK10QTextBlock4nextEv@Qt_5 5.0.2
 _ZNK10QTextBlock4textEv@Qt_5 5.0.2
 _ZNK10QTextBlock5beginEv@Qt_5 5.0.2
 _ZNK10QTextBlock6layoutEv@Qt_5 5.0.2
 _ZNK10QTextBlock6lengthEv@Qt_5 5.0.2
 _ZNK10QTextBlock7isValidEv@Qt_5 5.0.2
 _ZNK10QTextBlock8containsEi@Qt_5 5.0.2
 _ZNK10QTextBlock8documentEv@Qt_5 5.0.2
 _ZNK10QTextBlock8iterator8fragmentEv@Qt_5 5.0.2
 _ZNK10QTextBlock8positionEv@Qt_5 5.0.2
 _ZNK10QTextBlock8previousEv@Qt_5 5.0.2
 _ZNK10QTextBlock8revisionEv@Qt_5 5.0.2
 _ZNK10QTextBlock8textListEv@Qt_5 5.0.2
 _ZNK10QTextBlock8userDataEv@Qt_5 5.0.2
 _ZNK10QTextBlock9isVisibleEv@Qt_5 5.0.2
 _ZNK10QTextBlock9lineCountEv@Qt_5 5.0.2
 _ZNK10QTextBlock9userStateEv@Qt_5 5.0.2
 _ZNK10QTextFrame10layoutDataEv@Qt_5 5.0.2
 _ZNK10QTextFrame10metaObjectEv@Qt_5 5.0.2
 _ZNK10QTextFrame11childFramesEv@Qt_5 5.0.2
 _ZNK10QTextFrame11parentFrameEv@Qt_5 5.0.2
 _ZNK10QTextFrame12lastPositionEv@Qt_5 5.0.2
 _ZNK10QTextFrame13firstPositionEv@Qt_5 5.0.2
 _ZNK10QTextFrame18lastCursorPositionEv@Qt_5 5.0.2
 _ZNK10QTextFrame19firstCursorPositionEv@Qt_5 5.0.2
 _ZNK10QTextFrame3endEv@Qt_5 5.0.2
 _ZNK10QTextFrame5beginEv@Qt_5 5.0.2
 _ZNK10QTextFrame8iterator12currentBlockEv@Qt_5 5.0.2
 _ZNK10QTextFrame8iterator12currentFrameEv@Qt_5 5.0.2
 _ZNK10QTextTable10metaObjectEv@Qt_5 5.0.2
 _ZNK10QTextTable4rowsEv@Qt_5 5.0.2
 _ZNK10QTextTable6cellAtERK11QTextCursor@Qt_5 5.0.2
 _ZNK10QTextTable6cellAtEi@Qt_5 5.0.2
 _ZNK10QTextTable6cellAtEii@Qt_5 5.0.2
 _ZNK10QTextTable6rowEndERK11QTextCursor@Qt_5 5.0.2
 _ZNK10QTextTable7columnsEv@Qt_5 5.0.2
 _ZNK10QTextTable8rowStartERK11QTextCursor@Qt_5 5.0.2
 _ZNK10QTransform10transposedEv@Qt_5 5.0.2
 _ZNK10QTransform12mapToPolygonERK5QRect@Qt_5 5.0.2
 _ZNK10QTransform3mapERK12QPainterPath@Qt_5 5.0.2
 _ZNK10QTransform3mapERK5QLine@Qt_5 5.0.2
 _ZNK10QTransform3mapERK6QLineF@Qt_5 5.0.2
 _ZNK10QTransform3mapERK6QPoint@Qt_5 5.0.2
 _ZNK10QTransform3mapERK7QPointF@Qt_5 5.0.2
 _ZNK10QTransform3mapERK7QRegion@Qt_5 5.0.2
 _ZNK10QTransform3mapERK8QPolygon@Qt_5 5.0.2
 _ZNK10QTransform3mapERK9QPolygonF@Qt_5 5.0.2
 _ZNK10QTransform3mapEddPdS0_@Qt_5 5.2.0
 _ZNK10QTransform3mapEiiPiS0_@Qt_5 5.0.2
 _ZNK10QTransform4typeEv@Qt_5 5.0.2
 _ZNK10QTransform7adjointEv@Qt_5 5.0.2
 _ZNK10QTransform7mapRectERK5QRect@Qt_5 5.0.2
 _ZNK10QTransform7mapRectERK6QRectF@Qt_5 5.0.2
 _ZNK10QTransform8invertedEPb@Qt_5 5.0.2
 _ZNK10QTransform8toAffineEv@Qt_5 5.0.2
 _ZNK10QTransformcv8QVariantEv@Qt_5 5.0.2
 _ZNK10QTransformeqERKS_@Qt_5 5.0.2
 _ZNK10QTransformmlERKS_@Qt_5 5.0.2
 _ZNK10QTransformneERKS_@Qt_5 5.0.2
 _ZNK10QValidator10metaObjectEv@Qt_5 5.0.2
 _ZNK10QValidator5fixupER7QString@Qt_5 5.0.2
 _ZNK10QValidator6localeEv@Qt_5 5.0.2
 _ZNK10QZipReader10extractAllERK7QString@Qt_5_PRIVATE_API 5.0.2 1
 _ZNK10QZipReader10isReadableEv@Qt_5_PRIVATE_API 5.0.2 1
 _ZNK10QZipReader11entryInfoAtEi@Qt_5_PRIVATE_API 5.0.2 1
 _ZNK10QZipReader12fileInfoListEv@Qt_5_PRIVATE_API 5.0.2 1
 _ZNK10QZipReader5countEv@Qt_5_PRIVATE_API 5.0.2 1
 _ZNK10QZipReader6deviceEv@Qt_5_PRIVATE_API 5.0.2 1
 _ZNK10QZipReader6existsEv@Qt_5_PRIVATE_API 5.0.2 1
 _ZNK10QZipReader6statusEv@Qt_5_PRIVATE_API 5.0.2 1
 _ZNK10QZipReader8fileDataERK7QString@Qt_5_PRIVATE_API 5.0.2 1
 _ZNK10QZipWriter10isWritableEv@Qt_5_PRIVATE_API 5.0.2 1
 _ZNK10QZipWriter17compressionPolicyEv@Qt_5_PRIVATE_API 5.0.2 1
 _ZNK10QZipWriter19creationPermissionsEv@Qt_5_PRIVATE_API 5.0.2 1
 _ZNK10QZipWriter6deviceEv@Qt_5_PRIVATE_API 5.0.2 1
 _ZNK10QZipWriter6existsEv@Qt_5_PRIVATE_API 5.0.2 1
 _ZNK10QZipWriter6statusEv@Qt_5_PRIVATE_API 5.0.2 1
 _ZNK11QFocusEvent6reasonEv@Qt_5 5.0.2
 _ZNK11QFontEngine10glyphCacheEPKvNS_11GlyphFormatERK10QTransform@Qt_5_PRIVATE_API 5.3.0 1
 _ZNK11QFontEngine10glyphCountEv@Qt_5_PRIVATE_API 5.0.2 1
 _ZNK11QFontEngine10propertiesEv@Qt_5_PRIVATE_API 5.0.2 1
 _ZNK11QFontEngine12getSfntTableEj@Qt_5_PRIVATE_API 5.0.2 1
 _ZNK11QFontEngine12harfbuzzFaceEv@Qt_5_PRIVATE_API 5.0.2 1
 _ZNK11QFontEngine12harfbuzzFontEv@Qt_5_PRIVATE_API 5.0.2 1
 _ZNK11QFontEngine13lineThicknessEv@Qt_5_PRIVATE_API 5.0.2 1
 _ZNK11QFontEngine14minLeftBearingEv@Qt_5_PRIVATE_API 5.6.0~beta 1
 _ZNK11QFontEngine14supportsScriptEN5QChar6ScriptE@Qt_5_PRIVATE_API 5.1.0 1
 _ZNK11QFontEngine15minRightBearingEv@Qt_5_PRIVATE_API 5.6.0~beta 1
 _ZNK11QFontEngine16averageCharWidthEv@Qt_5_PRIVATE_API 5.0.2 1
 _ZNK11QFontEngine16getSfntTableDataEjPhPj@Qt_5_PRIVATE_API 5.3.0 1
 _ZNK11QFontEngine17underlinePositionEv@Qt_5_PRIVATE_API 5.0.2 1
 _ZNK11QFontEngine20subPixelPositionForXE6QFixed@Qt_5_PRIVATE_API 5.0.2 1
 _ZNK11QFontEngine22supportsTransformationERK10QTransform@Qt_5_PRIVATE_API 5.1.0 1
 _ZNK11QFontEngine25hasUnreliableGlyphOutlineEv@Qt_5_PRIVATE_API 5.3.1 1
 _ZNK11QFontEngine6handleEv@Qt_5_PRIVATE_API 5.6.1 1
 _ZNK11QFontEngine7xHeightEv@Qt_5_PRIVATE_API 5.0.2 1
 _ZNK11QFontEngine9canRenderEPK5QChari@Qt_5_PRIVATE_API 5.3.0 1
 _ZNK11QFontEngine9doKerningEP12QGlyphLayout6QFlagsINS_10ShaperFlagEE@Qt_5_PRIVATE_API 5.0.2 1
 _ZNK11QIconEngine14availableSizesEN5QIcon4ModeENS0_5StateE@Qt_5 5.0.2
 _ZNK11QIconEngine3keyEv@Qt_5 5.0.2
 _ZNK11QIconEngine5writeER11QDataStream@Qt_5 5.0.2
 _ZNK11QIconEngine6isNullEv@Qt_5 5.7.0
 _ZNK11QIconEngine8iconNameEv@Qt_5 5.0.2
 _ZNK11QIconLoader14findIconHelperERK7QStringS2_R11QStringList@Qt_5_PRIVATE_API 5.0.2 1
 _ZNK11QIconLoader16themeSearchPathsEv@Qt_5_PRIVATE_API 5.0.2 1
 _ZNK11QIconLoader8loadIconERK7QString@Qt_5_PRIVATE_API 5.0.2 1
 _ZNK11QMouseEvent5flagsEv@Qt_5 5.3.0
 _ZNK11QMouseEvent6sourceEv@Qt_5 5.3.0
 _ZNK11QPageLayout11orientationEv@Qt_5 5.3.0
 _ZNK11QPageLayout13marginsPixelsEi@Qt_5 5.3.0
 _ZNK11QPageLayout13marginsPointsEv@Qt_5 5.3.0
 _ZNK11QPageLayout14fullRectPixelsEi@Qt_5 5.3.0
 _ZNK11QPageLayout14fullRectPointsEv@Qt_5 5.3.0
 _ZNK11QPageLayout14isEquivalentToERKS_@Qt_5 5.3.0
 _ZNK11QPageLayout14maximumMarginsEv@Qt_5 5.3.0
 _ZNK11QPageLayout14minimumMarginsEv@Qt_5 5.3.0
 _ZNK11QPageLayout15paintRectPixelsEi@Qt_5 5.3.0
 _ZNK11QPageLayout15paintRectPointsEv@Qt_5 5.3.0
 _ZNK11QPageLayout4modeEv@Qt_5 5.3.0
 _ZNK11QPageLayout5unitsEv@Qt_5 5.3.0
 _ZNK11QPageLayout7isValidEv@Qt_5 5.3.0
 _ZNK11QPageLayout7marginsENS_4UnitE@Qt_5 5.3.0
 _ZNK11QPageLayout7marginsEv@Qt_5 5.3.0
 _ZNK11QPageLayout8fullRectENS_4UnitE@Qt_5 5.3.0
 _ZNK11QPageLayout8fullRectEv@Qt_5 5.3.0
 _ZNK11QPageLayout8pageSizeEv@Qt_5 5.3.0
 _ZNK11QPageLayout9paintRectENS_4UnitE@Qt_5 5.3.0
 _ZNK11QPageLayout9paintRectEv@Qt_5 5.3.0
 _ZNK11QQuaternion10normalizedEv@Qt_5 5.0.2
 _ZNK11QQuaternion13lengthSquaredEv@Qt_5 5.0.2
 _ZNK11QQuaternion13rotatedVectorERK9QVector3D@Qt_5 5.0.2
 _ZNK11QQuaternion14getEulerAnglesEPfS0_S0_@Qt_5 5.5.0
 _ZNK11QQuaternion15getAxisAndAngleEPfS0_S0_S0_@Qt_5 5.5.0
 _ZNK11QQuaternion16toRotationMatrixEv@Qt_5 5.5.0
 _ZNK11QQuaternion6lengthEv@Qt_5 5.0.2
 _ZNK11QQuaternion7getAxesEP9QVector3DS1_S1_@Qt_5 5.5.0
 _ZNK11QQuaternioncv8QVariantEv@Qt_5 5.0.2
 _ZNK11QStaticText10textFormatEv@Qt_5 5.0.2
 _ZNK11QStaticText10textOptionEv@Qt_5 5.0.2
 _ZNK11QStaticText15performanceHintEv@Qt_5 5.0.2
 _ZNK11QStaticText4sizeEv@Qt_5 5.0.2
 _ZNK11QStaticText4textEv@Qt_5 5.0.2
 _ZNK11QStaticText9textWidthEv@Qt_5 5.0.2
 _ZNK11QStaticTexteqERKS_@Qt_5 5.0.2
 _ZNK11QStaticTextneERKS_@Qt_5 5.0.2
 _ZNK11QStyleHints10metaObjectEv@Qt_5 5.0.2
 _ZNK11QStyleHints13startDragTimeEv@Qt_5 5.0.2
 _ZNK11QStyleHints15cursorFlashTimeEv@Qt_5 5.0.2
 _ZNK11QStyleHints15showIsMaximizedEv@Qt_5 5.6.0~beta
 _ZNK11QStyleHints16showIsFullScreenEv@Qt_5 5.0.2
 _ZNK11QStyleHints16tabFocusBehaviorEv@Qt_5 5.5.0
 _ZNK11QStyleHints16useRtlExtensionsEv@Qt_5 5.0.2
 _ZNK11QStyleHints17passwordMaskDelayEv@Qt_5 5.0.2
 _ZNK11QStyleHints17startDragDistanceEv@Qt_5 5.0.2
 _ZNK11QStyleHints17startDragVelocityEv@Qt_5 5.0.2
 _ZNK11QStyleHints18fontSmoothingGammaEv@Qt_5 5.0.2
 _ZNK11QStyleHints21keyboardInputIntervalEv@Qt_5 5.0.2
 _ZNK11QStyleHints21passwordMaskCharacterEv@Qt_5 5.1.0
 _ZNK11QStyleHints21singleClickActivationEv@Qt_5 5.5.0
 _ZNK11QStyleHints22keyboardAutoRepeatRateEv@Qt_5 5.0.2
 _ZNK11QStyleHints22setFocusOnTouchReleaseEv@Qt_5 5.2.0~alpha1
 _ZNK11QStyleHints24mouseDoubleClickIntervalEv@Qt_5 5.0.2
 _ZNK11QStyleHints25mousePressAndHoldIntervalEv@Qt_5 5.3.0
 _ZNK11QTextCursor10atBlockEndEv@Qt_5 5.0.2
 _ZNK11QTextCursor10charFormatEv@Qt_5 5.0.2
 _ZNK11QTextCursor11blockFormatEv@Qt_5 5.0.2
 _ZNK11QTextCursor11blockNumberEv@Qt_5 5.0.2
 _ZNK11QTextCursor11currentListEv@Qt_5 5.0.2
 _ZNK11QTextCursor12atBlockStartEv@Qt_5 5.0.2
 _ZNK11QTextCursor12columnNumberEv@Qt_5 5.0.2
 _ZNK11QTextCursor12currentFrameEv@Qt_5 5.0.2
 _ZNK11QTextCursor12currentTableEv@Qt_5 5.0.2
 _ZNK11QTextCursor12hasSelectionEv@Qt_5 5.0.2
 _ZNK11QTextCursor12selectedTextEv@Qt_5 5.0.2
 _ZNK11QTextCursor12selectionEndEv@Qt_5 5.0.2
 _ZNK11QTextCursor14selectionStartEv@Qt_5 5.0.2
 _ZNK11QTextCursor15blockCharFormatEv@Qt_5 5.0.2
 _ZNK11QTextCursor15positionInBlockEv@Qt_5 5.0.2
 _ZNK11QTextCursor16visualNavigationEv@Qt_5 5.0.2
 _ZNK11QTextCursor17verticalMovementXEv@Qt_5 5.0.2
 _ZNK11QTextCursor18selectedTableCellsEPiS0_S0_S0_@Qt_5 5.0.2
 _ZNK11QTextCursor19hasComplexSelectionEv@Qt_5 5.0.2
 _ZNK11QTextCursor20keepPositionOnInsertEv@Qt_5 5.0.2
 _ZNK11QTextCursor5atEndEv@Qt_5 5.0.2
 _ZNK11QTextCursor5blockEv@Qt_5 5.0.2
 _ZNK11QTextCursor6anchorEv@Qt_5 5.0.2
 _ZNK11QTextCursor6isNullEv@Qt_5 5.0.2
 _ZNK11QTextCursor7atStartEv@Qt_5 5.0.2
 _ZNK11QTextCursor8documentEv@Qt_5 5.0.2
 _ZNK11QTextCursor8isCopyOfERKS_@Qt_5 5.0.2
 _ZNK11QTextCursor8positionEv@Qt_5 5.0.2
 _ZNK11QTextCursor9selectionEv@Qt_5 5.0.2
 _ZNK11QTextCursoreqERKS_@Qt_5 5.0.2
 _ZNK11QTextCursorgeERKS_@Qt_5 5.0.2
 _ZNK11QTextCursorgtERKS_@Qt_5 5.0.2
 _ZNK11QTextCursorleERKS_@Qt_5 5.0.2
 _ZNK11QTextCursorltERKS_@Qt_5 5.0.2
 _ZNK11QTextCursorneERKS_@Qt_5 5.0.2
 _ZNK11QTextEngine10attributesEv@Qt_5_PRIVATE_API 5.0.2 1
 _ZNK11QTextEngine10elidedTextEN2Qt13TextElideModeERK6QFixediii@Qt_5_PRIVATE_API 5.0.2 1
 _ZNK11QTextEngine10fontEngineERK11QScriptItemP6QFixedS4_S4_@Qt_5_PRIVATE_API 5.0.2 1
 _ZNK11QTextEngine11boundingBoxEii@Qt_5_PRIVATE_API 5.0.2 1
 _ZNK11QTextEngine11formatIndexEPK11QScriptItem@Qt_5_PRIVATE_API 5.0.2 1
 _ZNK11QTextEngine11setBoundaryEi@Qt_5_PRIVATE_API 5.0.2 1
 _ZNK11QTextEngine13isRightToLeftEv@Qt_5_PRIVATE_API 5.0.2 1
 _ZNK11QTextEngine14resolveFormatsEv@Qt_5_PRIVATE_API 5.4.0 1
 _ZNK11QTextEngine15atWordSeparatorEi@Qt_5_PRIVATE_API 5.0.2 1
 _ZNK11QTextEngine16tightBoundingBoxEii@Qt_5_PRIVATE_API 5.0.2 1
 _ZNK11QTextEngine17calculateTabWidthEi6QFixed@Qt_5_PRIVATE_API 5.0.2 1
 _ZNK11QTextEngine19nextLogicalPositionEi@Qt_5_PRIVATE_API 5.0.2 1
 _ZNK11QTextEngine21addRequiredBoundariesEv@Qt_5_PRIVATE_API 5.0.2 1
 _ZNK11QTextEngine21shapeTextWithHarfbuzzERK11QScriptItemPKtiP11QFontEngineRK7QVectorIjEb@Qt_5_PRIVATE_API 5.2.0~alpha1 1
 _ZNK11QTextEngine23previousLogicalPositionEi@Qt_5_PRIVATE_API 5.0.2 1
 _ZNK11QTextEngine23shapeTextWithHarfbuzzNGERK11QScriptItemPKtiP11QFontEngineRK7QVectorIjEbb@Qt_5_PRIVATE_API 5.6.1 1
 _ZNK11QTextEngine4fontERK11QScriptItem@Qt_5_PRIVATE_API 5.0.2 1
 _ZNK11QTextEngine5shapeEi@Qt_5_PRIVATE_API 5.0.2 1
 _ZNK11QTextEngine5widthEii@Qt_5_PRIVATE_API 5.0.2 1
 _ZNK11QTextEngine6formatEPK11QScriptItem@Qt_5_PRIVATE_API 5.0.2 1
 _ZNK11QTextEngine7itemizeEv@Qt_5_PRIVATE_API 5.0.2 1
 _ZNK11QTextEngine8findItemEii@Qt_5_PRIVATE_API 5.6.0~beta 1
 _ZNK11QTextEngine8validateEv@Qt_5_PRIVATE_API 5.0.2 1
 _ZNK11QTextEngine9shapeTextEi@Qt_5_PRIVATE_API 5.0.2 1
 _ZNK11QTextFormat10propertiesEv@Qt_5 5.0.2
 _ZNK11QTextFormat11hasPropertyEi@Qt_5 5.0.2
 _ZNK11QTextFormat11intPropertyEi@Qt_5 5.0.2
 _ZNK11QTextFormat11objectIndexEv@Qt_5 5.0.2
 _ZNK11QTextFormat11penPropertyEi@Qt_5 5.0.2
 _ZNK11QTextFormat12boolPropertyEi@Qt_5 5.0.2
 _ZNK11QTextFormat12toCharFormatEv@Qt_5 5.0.2
 _ZNK11QTextFormat12toListFormatEv@Qt_5 5.0.2
 _ZNK11QTextFormat13brushPropertyEi@Qt_5 5.0.2
 _ZNK11QTextFormat13colorPropertyEi@Qt_5 5.0.2
 _ZNK11QTextFormat13propertyCountEv@Qt_5 5.0.2
 _ZNK11QTextFormat13toBlockFormatEv@Qt_5 5.0.2
 _ZNK11QTextFormat13toFrameFormatEv@Qt_5 5.0.2
 _ZNK11QTextFormat13toImageFormatEv@Qt_5 5.0.2
 _ZNK11QTextFormat13toTableFormatEv@Qt_5 5.0.2
 _ZNK11QTextFormat14doublePropertyEi@Qt_5 5.0.2
 _ZNK11QTextFormat14lengthPropertyEi@Qt_5 5.0.2
 _ZNK11QTextFormat14stringPropertyEi@Qt_5 5.0.2
 _ZNK11QTextFormat17toTableCellFormatEv@Qt_5 5.0.2
 _ZNK11QTextFormat20lengthVectorPropertyEi@Qt_5 5.0.2
 _ZNK11QTextFormat4typeEv@Qt_5 5.0.2
 _ZNK11QTextFormat8propertyEi@Qt_5 5.0.2
 _ZNK11QTextFormatcv8QVariantEv@Qt_5 5.0.2
 _ZNK11QTextFormateqERKS_@Qt_5 5.0.2
 _ZNK11QTextLayout10drawCursorEP8QPainterRK7QPointFi@Qt_5 5.0.2
 _ZNK11QTextLayout10drawCursorEP8QPainterRK7QPointFii@Qt_5 5.0.2
 _ZNK11QTextLayout10textOptionEv@Qt_5 5.0.2
 _ZNK11QTextLayout12boundingRectEv@Qt_5 5.0.2
 _ZNK11QTextLayout12cacheEnabledEv@Qt_5 5.0.2
 _ZNK11QTextLayout12maximumWidthEv@Qt_5 5.0.2
 _ZNK11QTextLayout12minimumWidthEv@Qt_5 5.0.2
 _ZNK11QTextLayout15cursorMoveStyleEv@Qt_5 5.0.2
 _ZNK11QTextLayout15preeditAreaTextEv@Qt_5 5.0.2
 _ZNK11QTextLayout17additionalFormatsEv@Qt_5 5.0.2
 _ZNK11QTextLayout18leftCursorPositionEi@Qt_5 5.0.2
 _ZNK11QTextLayout18nextCursorPositionEiNS_10CursorModeE@Qt_5 5.0.2
 _ZNK11QTextLayout19lineForTextPositionEi@Qt_5 5.0.2
 _ZNK11QTextLayout19preeditAreaPositionEv@Qt_5 5.0.2
 _ZNK11QTextLayout19rightCursorPositionEi@Qt_5 5.0.2
 _ZNK11QTextLayout21isValidCursorPositionEi@Qt_5 5.0.2
 _ZNK11QTextLayout22previousCursorPositionEiNS_10CursorModeE@Qt_5 5.0.2
 _ZNK11QTextLayout4drawEP8QPainterRK7QPointFRK7QVectorINS_11FormatRangeEERK6QRectF@Qt_5 5.0.2
 _ZNK11QTextLayout4fontEv@Qt_5 5.0.2
 _ZNK11QTextLayout4textEv@Qt_5 5.0.2
 _ZNK11QTextLayout6lineAtEi@Qt_5 5.0.2
 _ZNK11QTextLayout7formatsEv@Qt_5 5.6.0~beta
 _ZNK11QTextLayout8positionEv@Qt_5 5.0.2
 _ZNK11QTextLayout9glyphRunsEii@Qt_5 5.0.2
 _ZNK11QTextLayout9lineCountEv@Qt_5 5.0.2
 _ZNK11QTextLengthcv8QVariantEv@Qt_5 5.0.2
 _ZNK11QTextObject10metaObjectEv@Qt_5 5.0.2
 _ZNK11QTextObject11formatIndexEv@Qt_5 5.0.2
 _ZNK11QTextObject11objectIndexEv@Qt_5 5.0.2
 _ZNK11QTextObject6formatEv@Qt_5 5.0.2
 _ZNK11QTextObject8documentEv@Qt_5 5.0.2
 _ZNK11QTextObject9docHandleEv@Qt_5 5.0.2
 _ZNK11QTextOption4tabsEv@Qt_5 5.0.2
 _ZNK11QTextOption8tabArrayEv@Qt_5 5.0.2
 _ZNK11QTouchEvent10TouchPoint10screenRectEv@Qt_5 5.0.2
 _ZNK11QTouchEvent10TouchPoint12lastScenePosEv@Qt_5 5.0.2
 _ZNK11QTouchEvent10TouchPoint13lastScreenPosEv@Qt_5 5.0.2
 _ZNK11QTouchEvent10TouchPoint13normalizedPosEv@Qt_5 5.0.2
 _ZNK11QTouchEvent10TouchPoint13startScenePosEv@Qt_5 5.0.2
 _ZNK11QTouchEvent10TouchPoint14startScreenPosEv@Qt_5 5.0.2
 _ZNK11QTouchEvent10TouchPoint17lastNormalizedPosEv@Qt_5 5.0.2
 _ZNK11QTouchEvent10TouchPoint18rawScreenPositionsEv@Qt_5 5.0.2
 _ZNK11QTouchEvent10TouchPoint18startNormalizedPosEv@Qt_5 5.0.2
 _ZNK11QTouchEvent10TouchPoint2idEv@Qt_5 5.0.2
 _ZNK11QTouchEvent10TouchPoint3posEv@Qt_5 5.0.2
 _ZNK11QTouchEvent10TouchPoint4rectEv@Qt_5 5.0.2
 _ZNK11QTouchEvent10TouchPoint5flagsEv@Qt_5 5.0.2
 _ZNK11QTouchEvent10TouchPoint5stateEv@Qt_5 5.0.2
 _ZNK11QTouchEvent10TouchPoint7lastPosEv@Qt_5 5.0.2
 _ZNK11QTouchEvent10TouchPoint8pressureEv@Qt_5 5.0.2
 _ZNK11QTouchEvent10TouchPoint8scenePosEv@Qt_5 5.0.2
 _ZNK11QTouchEvent10TouchPoint8startPosEv@Qt_5 5.0.2
 _ZNK11QTouchEvent10TouchPoint8velocityEv@Qt_5 5.0.2
 _ZNK11QTouchEvent10TouchPoint9sceneRectEv@Qt_5 5.0.2
 _ZNK11QTouchEvent10TouchPoint9screenPosEv@Qt_5 5.0.2
 _ZNK11QVectorPath12addCacheDataEP14QPaintEngineExPvPFvS1_S2_E@Qt_5_PRIVATE_API 5.0.2 1
 _ZNK11QVectorPath16controlPointRectEv@Qt_5_PRIVATE_API 5.0.2 1
 _ZNK12QDragManager10metaObjectEv@Qt_5_PRIVATE_API 5.0.2 1
 _ZNK12QDragManager13currentTargetEv@Qt_5_PRIVATE_API 5.0.2 1
 _ZNK12QDragManager6sourceEv@Qt_5_PRIVATE_API 5.0.2 1
 _ZNK12QFontMetrics10elidedTextERK7QStringN2Qt13TextElideModeEii@Qt_5 5.0.2
 _ZNK12QFontMetrics10inFontUcs4Ej@Qt_5 5.0.2
 _ZNK12QFontMetrics11leftBearingE5QChar@Qt_5 5.0.2
 _ZNK12QFontMetrics11lineSpacingEv@Qt_5 5.0.2
 _ZNK12QFontMetrics11overlinePosEv@Qt_5 5.0.2
 _ZNK12QFontMetrics12boundingRectE5QChar@Qt_5 5.0.2
 _ZNK12QFontMetrics12boundingRectERK5QRectiRK7QStringiPi@Qt_5 5.0.2
 _ZNK12QFontMetrics12boundingRectERK7QString@Qt_5 5.0.2
 _ZNK12QFontMetrics12rightBearingE5QChar@Qt_5 5.0.2
 _ZNK12QFontMetrics12strikeOutPosEv@Qt_5 5.0.2
 _ZNK12QFontMetrics12underlinePosEv@Qt_5 5.0.2
 _ZNK12QFontMetrics14minLeftBearingEv@Qt_5 5.0.2
 _ZNK12QFontMetrics15minRightBearingEv@Qt_5 5.0.2
 _ZNK12QFontMetrics16averageCharWidthEv@Qt_5 5.0.2
 _ZNK12QFontMetrics17tightBoundingRectERK7QString@Qt_5 5.0.2
 _ZNK12QFontMetrics4sizeEiRK7QStringiPi@Qt_5 5.0.2
 _ZNK12QFontMetrics5widthE5QChar@Qt_5 5.0.2
 _ZNK12QFontMetrics5widthERK7QStringi@Qt_5 5.0.2
 _ZNK12QFontMetrics5widthERK7QStringii@Qt_5 5.0.2
 _ZNK12QFontMetrics6ascentEv@Qt_5 5.0.2
 _ZNK12QFontMetrics6heightEv@Qt_5 5.0.2
 _ZNK12QFontMetrics6inFontE5QChar@Qt_5 5.0.2
 _ZNK12QFontMetrics7descentEv@Qt_5 5.0.2
 _ZNK12QFontMetrics7leadingEv@Qt_5 5.0.2
 _ZNK12QFontMetrics7xHeightEv@Qt_5 5.0.2
 _ZNK12QFontMetrics8maxWidthEv@Qt_5 5.0.2
 _ZNK12QFontMetrics9charWidthERK7QStringi@Qt_5 5.0.2
 _ZNK12QFontMetrics9lineWidthEv@Qt_5 5.0.2
 _ZNK12QFontMetricseqERKS_@Qt_5 5.0.2
 _ZNK12QFontPrivate15engineForScriptEi@Qt_5_PRIVATE_API 5.0.2 1
 _ZNK12QFontPrivate20smallCapsFontPrivateEv@Qt_5_PRIVATE_API 5.0.2 1
 _ZNK12QFontPrivate26alterCharForCapitalizationER5QChar@Qt_5_PRIVATE_API 5.0.2 1
 _ZNK12QImageReader10imageCountEv@Qt_5 5.0.2
 _ZNK12QImageReader10scaledSizeEv@Qt_5 5.0.2
 _ZNK12QImageReader11errorStringEv@Qt_5 5.0.2
 _ZNK12QImageReader11imageFormatEv@Qt_5 5.0.2
 _ZNK12QImageReader13autoTransformEv@Qt_5 5.5.0
 _ZNK12QImageReader14nextImageDelayEv@Qt_5 5.0.2
 _ZNK12QImageReader14scaledClipRectEv@Qt_5 5.0.2
 _ZNK12QImageReader14supportsOptionEN15QImageIOHandler11ImageOptionE@Qt_5 5.0.2
 _ZNK12QImageReader14transformationEv@Qt_5 5.5.0
 _ZNK12QImageReader15backgroundColorEv@Qt_5 5.0.2
 _ZNK12QImageReader16currentImageRectEv@Qt_5 5.0.2
 _ZNK12QImageReader17supportedSubTypesEv@Qt_5 5.4.0
 _ZNK12QImageReader17supportsAnimationEv@Qt_5 5.0.2
 _ZNK12QImageReader18currentImageNumberEv@Qt_5 5.0.2
 _ZNK12QImageReader21autoDetectImageFormatEv@Qt_5 5.0.2
 _ZNK12QImageReader23decideFormatFromContentEv@Qt_5 5.0.2
 _ZNK12QImageReader4sizeEv@Qt_5 5.0.2
 _ZNK12QImageReader4textERK7QString@Qt_5 5.0.2
 _ZNK12QImageReader5errorEv@Qt_5 5.0.2
 _ZNK12QImageReader5gammaEv@Qt_5 5.6.0~beta
 _ZNK12QImageReader6deviceEv@Qt_5 5.0.2
 _ZNK12QImageReader6formatEv@Qt_5 5.0.2
 _ZNK12QImageReader7canReadEv@Qt_5 5.0.2
 _ZNK12QImageReader7qualityEv@Qt_5 5.0.2
 _ZNK12QImageReader7subTypeEv@Qt_5 5.4.0
 _ZNK12QImageReader8clipRectEv@Qt_5 5.0.2
 _ZNK12QImageReader8fileNameEv@Qt_5 5.0.2
 _ZNK12QImageReader8textKeysEv@Qt_5 5.0.2
 _ZNK12QImageReader9loopCountEv@Qt_5 5.0.2
 _ZNK12QImageWriter11compressionEv@Qt_5 5.0.2
 _ZNK12QImageWriter11descriptionEv@Qt_5 5.0.2
 _ZNK12QImageWriter11errorStringEv@Qt_5 5.0.2
 _ZNK12QImageWriter14optimizedWriteEv@Qt_5 5.5.0
 _ZNK12QImageWriter14supportsOptionEN15QImageIOHandler11ImageOptionE@Qt_5 5.0.2
 _ZNK12QImageWriter14transformationEv@Qt_5 5.5.0
 _ZNK12QImageWriter17supportedSubTypesEv@Qt_5 5.4.0
 _ZNK12QImageWriter20progressiveScanWriteEv@Qt_5 5.5.0
 _ZNK12QImageWriter5errorEv@Qt_5 5.0.2
 _ZNK12QImageWriter5gammaEv@Qt_5 5.0.2
 _ZNK12QImageWriter6deviceEv@Qt_5 5.0.2
 _ZNK12QImageWriter6formatEv@Qt_5 5.0.2
 _ZNK12QImageWriter7qualityEv@Qt_5 5.0.2
 _ZNK12QImageWriter7subTypeEv@Qt_5 5.4.0
 _ZNK12QImageWriter8canWriteEv@Qt_5 5.0.2
 _ZNK12QImageWriter8fileNameEv@Qt_5 5.0.2
 _ZNK12QInputMethod10metaObjectEv@Qt_5 5.0.2
 _ZNK12QInputMethod11isAnimatingEv@Qt_5 5.0.2
 _ZNK12QInputMethod14inputDirectionEv@Qt_5 5.0.2
 _ZNK12QInputMethod15anchorRectangleEv@Qt_5 5.7.0
 _ZNK12QInputMethod15cursorRectangleEv@Qt_5 5.0.2
 _ZNK12QInputMethod17keyboardRectangleEv@Qt_5 5.0.2
 _ZNK12QInputMethod18inputItemRectangleEv@Qt_5 5.1.0
 _ZNK12QInputMethod18inputItemTransformEv@Qt_5 5.0.2
 _ZNK12QInputMethod22inputItemClipRectangleEv@Qt_5 5.7.0
 _ZNK12QInputMethod6localeEv@Qt_5 5.0.2
 _ZNK12QInputMethod9isVisibleEv@Qt_5 5.0.2
 _ZNK12QKeySequence10isDetachedEv@Qt_5 5.0.2
 _ZNK12QKeySequence5countEv@Qt_5 5.0.2
 _ZNK12QKeySequence7isEmptyEv@Qt_5 5.0.2
 _ZNK12QKeySequence7matchesERKS_@Qt_5 5.0.2
 _ZNK12QKeySequence8toStringENS_14SequenceFormatE@Qt_5 5.0.2
 _ZNK12QKeySequencecv8QVariantEv@Qt_5 5.0.2
 _ZNK12QKeySequenceeqERKS_@Qt_5 5.0.2
 _ZNK12QKeySequenceixEj@Qt_5 5.0.2
 _ZNK12QKeySequenceltERKS_@Qt_5 5.0.2
 _ZNK12QPaintDevice10redirectedEP6QPoint@Qt_5 5.0.2
 _ZNK12QPaintDevice11initPainterEP8QPainter@Qt_5 5.0.2
 _ZNK12QPaintDevice13sharedPainterEv@Qt_5 5.0.2
 _ZNK12QPaintDevice6metricENS_17PaintDeviceMetricE@Qt_5 5.0.2
 _ZNK12QPaintDevice7devTypeEv@Qt_5 5.0.2
 _ZNK12QPaintEngine10systemClipEv@Qt_5 5.0.2
 _ZNK12QPaintEngine10systemRectEv@Qt_5 5.0.2
 _ZNK12QPaintEngine11paintDeviceEv@Qt_5 5.0.2
 _ZNK12QPaintEngine16coordinateOffsetEv@Qt_5 5.0.2
 _ZNK12QPaintEngine7painterEv@Qt_5 5.0.2
 _ZNK12QPainterPath10intersectsERK6QRectF@Qt_5 5.0.2
 _ZNK12QPainterPath10intersectsERKS_@Qt_5 5.0.2
 _ZNK12QPainterPath10simplifiedEv@Qt_5 5.0.2
 _ZNK12QPainterPath10subtractedERKS_@Qt_5 5.0.2
 _ZNK12QPainterPath10toReversedEv@Qt_5 5.0.2
 _ZNK12QPainterPath10translatedEdd@Qt_5 5.2.0
 _ZNK12QPainterPath11intersectedERKS_@Qt_5 5.0.2
 _ZNK12QPainterPath12boundingRectEv@Qt_5 5.0.2
 _ZNK12QPainterPath12elementCountEv@Qt_5 5.0.2
 _ZNK12QPainterPath13toFillPolygonERK10QTransform@Qt_5 5.0.2
 _ZNK12QPainterPath13toFillPolygonERK7QMatrix@Qt_5 5.0.2
 _ZNK12QPainterPath14angleAtPercentEd@Qt_5 5.2.0
 _ZNK12QPainterPath14pointAtPercentEd@Qt_5 5.2.0
 _ZNK12QPainterPath14slopeAtPercentEd@Qt_5 5.2.0
 _ZNK12QPainterPath14toFillPolygonsERK10QTransform@Qt_5 5.0.2
 _ZNK12QPainterPath14toFillPolygonsERK7QMatrix@Qt_5 5.0.2
 _ZNK12QPainterPath15currentPositionEv@Qt_5 5.0.2
 _ZNK12QPainterPath15percentAtLengthEd@Qt_5 5.2.0
 _ZNK12QPainterPath16controlPointRectEv@Qt_5 5.0.2
 _ZNK12QPainterPath17toSubpathPolygonsERK10QTransform@Qt_5 5.0.2
 _ZNK12QPainterPath17toSubpathPolygonsERK7QMatrix@Qt_5 5.0.2
 _ZNK12QPainterPath18subtractedInvertedERKS_@Qt_5 5.0.2
 _ZNK12QPainterPath19computeBoundingRectEv@Qt_5 5.0.2
 _ZNK12QPainterPath23computeControlPointRectEv@Qt_5 5.0.2
 _ZNK12QPainterPath6lengthEv@Qt_5 5.0.2
 _ZNK12QPainterPath6unitedERKS_@Qt_5 5.0.2
 _ZNK12QPainterPath7isEmptyEv@Qt_5 5.0.2
 _ZNK12QPainterPath8containsERK6QRectF@Qt_5 5.0.2
 _ZNK12QPainterPath8containsERK7QPointF@Qt_5 5.0.2
 _ZNK12QPainterPath8containsERKS_@Qt_5 5.0.2
 _ZNK12QPainterPath8fillRuleEv@Qt_5 5.0.2
 _ZNK12QPainterPath9elementAtEi@Qt_5 5.0.2
 _ZNK12QPainterPathanERKS_@Qt_5 5.0.2
 _ZNK12QPainterPatheqERKS_@Qt_5 5.0.2
 _ZNK12QPainterPathmiERKS_@Qt_5 5.0.2
 _ZNK12QPainterPathneERKS_@Qt_5 5.0.2
 _ZNK12QPainterPathorERKS_@Qt_5 5.0.2
 _ZNK12QPainterPathplERKS_@Qt_5 5.0.2
 _ZNK12QPixmapCache3Key7isValidEv@Qt_5 5.7.0
 _ZNK12QPixmapCache3KeyeqERKS0_@Qt_5 5.0.2
 _ZNK12QScrollEvent10contentPosEv@Qt_5 5.0.2
 _ZNK12QScrollEvent11scrollStateEv@Qt_5 5.0.2
 _ZNK12QScrollEvent17overshootDistanceEv@Qt_5 5.0.2
 _ZNK12QShortcutMap25hasShortcutForKeySequenceERK12QKeySequence@Qt_5_PRIVATE_API 5.0.2 1
 _ZNK12QShortcutMap7matchesERK12QKeySequenceS2_@Qt_5_PRIVATE_API 5.0.2 1
 _ZNK12QShortcutMap7matchesEv@Qt_5_PRIVATE_API 5.0.2 1
 _ZNK12QTabletEvent6buttonEv@Qt_5 5.4.0
 _ZNK12QTabletEvent7buttonsEv@Qt_5 5.4.0
 _ZNK12QTouchDevice12capabilitiesEv@Qt_5 5.0.2
 _ZNK12QTouchDevice18maximumTouchPointsEv@Qt_5 5.2.0~alpha1
 _ZNK12QTouchDevice4nameEv@Qt_5 5.0.2
 _ZNK12QTouchDevice4typeEv@Qt_5 5.0.2
 _ZNK13QBackingStore14staticContentsEv@Qt_5 5.0.2
 _ZNK13QBackingStore17hasStaticContentsEv@Qt_5 5.0.2
 _ZNK13QBackingStore4sizeEv@Qt_5 5.0.2
 _ZNK13QBackingStore6handleEv@Qt_5 5.0.2
 _ZNK13QBackingStore6windowEv@Qt_5 5.0.2
 _ZNK13QFontDatabase10isScalableERK7QStringS2_@Qt_5 5.0.2
 _ZNK13QFontDatabase12isFixedPitchERK7QStringS2_@Qt_5 5.0.2
 _ZNK13QFontDatabase14writingSystemsERK7QString@Qt_5 5.0.2
 _ZNK13QFontDatabase14writingSystemsEv@Qt_5 5.0.2
 _ZNK13QFontDatabase15isPrivateFamilyERK7QString@Qt_5 5.5.0
 _ZNK13QFontDatabase16isBitmapScalableERK7QStringS2_@Qt_5 5.0.2
 _ZNK13QFontDatabase18isSmoothlyScalableERK7QStringS2_@Qt_5 5.0.2
 _ZNK13QFontDatabase4boldERK7QStringS2_@Qt_5 5.0.2
 _ZNK13QFontDatabase4fontERK7QStringS2_i@Qt_5 5.0.2
 _ZNK13QFontDatabase6italicERK7QStringS2_@Qt_5 5.0.2
 _ZNK13QFontDatabase6stylesERK7QString@Qt_5 5.0.2
 _ZNK13QFontDatabase6weightERK7QStringS2_@Qt_5 5.0.2
 _ZNK13QFontDatabase8familiesENS_13WritingSystemE@Qt_5 5.0.2
 _ZNK13QFontDatabase9hasFamilyERK7QString@Qt_5 5.0.2
 _ZNK13QFontMetricsF10elidedTextERK7QStringN2Qt13TextElideModeEdi@Qt_5 5.2.0
 _ZNK13QFontMetricsF10inFontUcs4Ej@Qt_5 5.0.2
 _ZNK13QFontMetricsF11leftBearingE5QChar@Qt_5 5.0.2
 _ZNK13QFontMetricsF11lineSpacingEv@Qt_5 5.0.2
 _ZNK13QFontMetricsF11overlinePosEv@Qt_5 5.0.2
 _ZNK13QFontMetricsF12boundingRectE5QChar@Qt_5 5.0.2
 _ZNK13QFontMetricsF12boundingRectERK6QRectFiRK7QStringiPi@Qt_5 5.0.2
 _ZNK13QFontMetricsF12boundingRectERK7QString@Qt_5 5.0.2
 _ZNK13QFontMetricsF12rightBearingE5QChar@Qt_5 5.0.2
 _ZNK13QFontMetricsF12strikeOutPosEv@Qt_5 5.0.2
 _ZNK13QFontMetricsF12underlinePosEv@Qt_5 5.0.2
 _ZNK13QFontMetricsF14minLeftBearingEv@Qt_5 5.0.2
 _ZNK13QFontMetricsF15minRightBearingEv@Qt_5 5.0.2
 _ZNK13QFontMetricsF16averageCharWidthEv@Qt_5 5.0.2
 _ZNK13QFontMetricsF17tightBoundingRectERK7QString@Qt_5 5.0.2
 _ZNK13QFontMetricsF4sizeEiRK7QStringiPi@Qt_5 5.0.2
 _ZNK13QFontMetricsF5widthE5QChar@Qt_5 5.0.2
 _ZNK13QFontMetricsF5widthERK7QString@Qt_5 5.0.2
 _ZNK13QFontMetricsF6ascentEv@Qt_5 5.0.2
 _ZNK13QFontMetricsF6heightEv@Qt_5 5.0.2
 _ZNK13QFontMetricsF6inFontE5QChar@Qt_5 5.0.2
 _ZNK13QFontMetricsF7descentEv@Qt_5 5.0.2
 _ZNK13QFontMetricsF7leadingEv@Qt_5 5.0.2
 _ZNK13QFontMetricsF7xHeightEv@Qt_5 5.0.2
 _ZNK13QFontMetricsF8maxWidthEv@Qt_5 5.0.2
 _ZNK13QFontMetricsF9lineWidthEv@Qt_5 5.0.2
 _ZNK13QFontMetricsFeqERKS_@Qt_5 5.0.2
 _ZNK13QIntValidator10metaObjectEv@Qt_5 5.0.2
 _ZNK13QIntValidator5fixupER7QString@Qt_5 5.0.2
 _ZNK13QIntValidator8validateER7QStringRi@Qt_5 5.0.2
 _ZNK13QLayoutPolicy11controlTypeEv@Qt_5_PRIVATE_API 5.3.0 1
 _ZNK13QOpenGLBuffer12usagePatternEv@Qt_5 5.0.2
 _ZNK13QOpenGLBuffer4sizeEv@Qt_5 5.0.2
 _ZNK13QOpenGLBuffer4typeEv@Qt_5 5.0.2
 _ZNK13QOpenGLBuffer8bufferIdEv@Qt_5 5.0.2
 _ZNK13QOpenGLBuffer9isCreatedEv@Qt_5 5.0.2
 _ZNK13QOpenGLShader10isCompiledEv@Qt_5 5.0.2
 _ZNK13QOpenGLShader10metaObjectEv@Qt_5 5.0.2
 _ZNK13QOpenGLShader10shaderTypeEv@Qt_5 5.0.2
 _ZNK13QOpenGLShader10sourceCodeEv@Qt_5 5.0.2
 _ZNK13QOpenGLShader3logEv@Qt_5 5.0.2
 _ZNK13QOpenGLShader8shaderIdEv@Qt_5 5.0.2
 _ZNK13QOpenGLWindow10metaObjectEv@Qt_5 5.4.0
 _ZNK13QOpenGLWindow10redirectedEP6QPoint@Qt_5 5.4.0
 _ZNK13QOpenGLWindow12shareContextEv@Qt_5 5.5.0
 _ZNK13QOpenGLWindow14updateBehaviorEv@Qt_5 5.4.0
 _ZNK13QOpenGLWindow24defaultFramebufferObjectEv@Qt_5 5.4.0
 _ZNK13QOpenGLWindow6metricEN12QPaintDevice17PaintDeviceMetricE@Qt_5 5.4.0
 _ZNK13QOpenGLWindow7contextEv@Qt_5 5.4.0
 _ZNK13QOpenGLWindow7isValidEv@Qt_5 5.4.0
 _ZNK13QPlatformDrag11currentDragEv@Qt_5 5.0.2
 _ZNK13QPlatformDrag13defaultActionE6QFlagsIN2Qt10DropActionEES0_INS1_16KeyboardModifierEE@Qt_5 5.0.2
 _ZNK13QPlatformDrag14ownsDragObjectEv@Qt_5 5.4.1
 _ZNK13QPlatformMenu10metaObjectEv@Qt_5 5.0.2
 _ZNK13QPlatformMenu13createSubMenuEv@Qt_5 5.5.0
 _ZNK13QPlatformMenu14createMenuItemEv@Qt_5 5.3.0
 _ZNK13QRasterWindow10metaObjectEv@Qt_5 5.4.0
 _ZNK13QRasterWindow10redirectedEP6QPoint@Qt_5 5.4.0
 _ZNK13QRasterWindow6metricEN12QPaintDevice17PaintDeviceMetricE@Qt_5 5.4.0
 _ZNK13QStandardItem11columnCountEv@Qt_5 5.0.2
 _ZNK13QStandardItem11hasChildrenEv@Qt_5 5.0.2
 _ZNK13QStandardItem3rowEv@Qt_5 5.0.2
 _ZNK13QStandardItem4dataEi@Qt_5 5.0.2
 _ZNK13QStandardItem4typeEv@Qt_5 5.0.2
 _ZNK13QStandardItem5childEii@Qt_5 5.0.2
 _ZNK13QStandardItem5cloneEv@Qt_5 5.0.2
 _ZNK13QStandardItem5flagsEv@Qt_5 5.0.2
 _ZNK13QStandardItem5indexEv@Qt_5 5.0.2
 _ZNK13QStandardItem5modelEv@Qt_5 5.0.2
 _ZNK13QStandardItem5writeER11QDataStream@Qt_5 5.0.2
 _ZNK13QStandardItem6columnEv@Qt_5 5.0.2
 _ZNK13QStandardItem6parentEv@Qt_5 5.0.2
 _ZNK13QStandardItem8rowCountEv@Qt_5 5.0.2
 _ZNK13QStandardItemltERKS_@Qt_5 5.0.2
 _ZNK13QTextDocument10allFormatsEv@Qt_5 5.0.2
 _ZNK13QTextDocument10blockCountEv@Qt_5 5.0.2
 _ZNK13QTextDocument10firstBlockEv@Qt_5 5.0.2
 _ZNK13QTextDocument10idealWidthEv@Qt_5 5.0.2
 _ZNK13QTextDocument10isModifiedEv@Qt_5 5.0.2
 _ZNK13QTextDocument10metaObjectEv@Qt_5 5.0.2
 _ZNK13QTextDocument11characterAtEi@Qt_5 5.0.2
 _ZNK13QTextDocument11defaultFontEv@Qt_5 5.0.2
 _ZNK13QTextDocument11indentWidthEv@Qt_5 5.0.2
 _ZNK13QTextDocument11toPlainTextEv@Qt_5 5.0.2
 _ZNK13QTextDocument14characterCountEv@Qt_5 5.0.2
 _ZNK13QTextDocument14documentLayoutEv@Qt_5 5.0.2
 _ZNK13QTextDocument14documentMarginEv@Qt_5 5.0.2
 _ZNK13QTextDocument15isRedoAvailableEv@Qt_5 5.0.2
 _ZNK13QTextDocument15isUndoAvailableEv@Qt_5 5.0.2
 _ZNK13QTextDocument15metaInformationENS_15MetaInformationE@Qt_5 5.0.2
 _ZNK13QTextDocument15objectForFormatERK11QTextFormat@Qt_5 5.0.2
 _ZNK13QTextDocument16useDesignMetricsEv@Qt_5 5.0.2
 _ZNK13QTextDocument17defaultStyleSheetEv@Qt_5 5.0.2
 _ZNK13QTextDocument17defaultTextOptionEv@Qt_5 5.0.2
 _ZNK13QTextDocument17findBlockByNumberEi@Qt_5 5.0.2
 _ZNK13QTextDocument17isUndoRedoEnabledEv@Qt_5 5.0.2
 _ZNK13QTextDocument17maximumBlockCountEv@Qt_5 5.0.2
 _ZNK13QTextDocument18availableRedoStepsEv@Qt_5 5.0.2
 _ZNK13QTextDocument18availableUndoStepsEv@Qt_5 5.0.2
 _ZNK13QTextDocument21findBlockByLineNumberEi@Qt_5 5.0.2
 _ZNK13QTextDocument22defaultCursorMoveStyleEv@Qt_5 5.0.2
 _ZNK13QTextDocument3endEv@Qt_5 5.0.2
 _ZNK13QTextDocument4findERK18QRegularExpressionRK11QTextCursor6QFlagsINS_8FindFlagEE@Qt_5 5.5.0
 _ZNK13QTextDocument4findERK18QRegularExpressioni6QFlagsINS_8FindFlagEE@Qt_5 5.5.0
 _ZNK13QTextDocument4findERK7QRegExpRK11QTextCursor6QFlagsINS_8FindFlagEE@Qt_5 5.0.2
 _ZNK13QTextDocument4findERK7QRegExpi6QFlagsINS_8FindFlagEE@Qt_5 5.0.2
 _ZNK13QTextDocument4findERK7QStringRK11QTextCursor6QFlagsINS_8FindFlagEE@Qt_5 5.0.2
 _ZNK13QTextDocument4findERK7QStringi6QFlagsINS_8FindFlagEE@Qt_5 5.0.2
 _ZNK13QTextDocument4sizeEv@Qt_5 5.0.2
 _ZNK13QTextDocument5beginEv@Qt_5 5.0.2
 _ZNK13QTextDocument5cloneEP7QObject@Qt_5 5.0.2
 _ZNK13QTextDocument5printEP17QPagedPaintDevice@Qt_5 5.0.2
 _ZNK13QTextDocument6objectEi@Qt_5 5.0.2
 _ZNK13QTextDocument6toHtmlERK10QByteArray@Qt_5 5.0.2
 _ZNK13QTextDocument7baseUrlEv@Qt_5 5.3.0
 _ZNK13QTextDocument7frameAtEi@Qt_5 5.0.2
 _ZNK13QTextDocument7isEmptyEv@Qt_5 5.0.2
 _ZNK13QTextDocument8pageSizeEv@Qt_5 5.0.2
 _ZNK13QTextDocument8resourceEiRK4QUrl@Qt_5 5.0.2
 _ZNK13QTextDocument8revisionEv@Qt_5 5.0.2
 _ZNK13QTextDocument9docHandleEv@Qt_5 5.0.2
 _ZNK13QTextDocument9findBlockEi@Qt_5 5.0.2
 _ZNK13QTextDocument9lastBlockEv@Qt_5 5.0.2
 _ZNK13QTextDocument9lineCountEv@Qt_5 5.0.2
 _ZNK13QTextDocument9pageCountEv@Qt_5 5.0.2
 _ZNK13QTextDocument9rootFrameEv@Qt_5 5.0.2
 _ZNK13QTextDocument9textWidthEv@Qt_5 5.0.2
 _ZNK13QTextFragment10charFormatEv@Qt_5 5.0.2
 _ZNK13QTextFragment15charFormatIndexEv@Qt_5 5.0.2
 _ZNK13QTextFragment4textEv@Qt_5 5.0.2
 _ZNK13QTextFragment6lengthEv@Qt_5 5.0.2
 _ZNK13QTextFragment8containsEi@Qt_5 5.0.2
 _ZNK13QTextFragment8positionEv@Qt_5 5.0.2
 _ZNK13QTextFragment9glyphRunsEii@Qt_5 5.0.2
 _ZNK14QDistanceField13constScanLineEi@Qt_5_PRIVATE_API 5.2.0~alpha1 1
 _ZNK14QDistanceField4bitsEv@Qt_5_PRIVATE_API 5.2.0~alpha1 1
 _ZNK14QDistanceField4copyERK5QRect@Qt_5_PRIVATE_API 5.2.0~alpha1 1
 _ZNK14QDistanceField5glyphEv@Qt_5_PRIVATE_API 5.2.0~alpha1 1
 _ZNK14QDistanceField5widthEv@Qt_5_PRIVATE_API 5.2.0~alpha1 1
 _ZNK14QDistanceField6heightEv@Qt_5_PRIVATE_API 5.2.0~alpha1 1
 _ZNK14QDistanceField6isNullEv@Qt_5_PRIVATE_API 5.2.0~alpha1 1
 _ZNK14QDistanceField7toImageEN6QImage6FormatE@Qt_5_PRIVATE_API 5.2.0~alpha1 1
 _ZNK14QDistanceField8scanLineEi@Qt_5_PRIVATE_API 5.2.0~alpha1 1
 _ZNK14QDistanceField9constBitsEv@Qt_5_PRIVATE_API 5.2.0~alpha1 1
 _ZNK14QFileOpenEvent8openFileER5QFile6QFlagsIN9QIODevice12OpenModeFlagEE@Qt_5 5.0.2
 _ZNK14QGenericPlugin10metaObjectEv@Qt_5 5.0.2
 _ZNK14QImageIOPlugin10metaObjectEv@Qt_5 5.0.2
 _ZNK14QOpenGLContext10extensionsEv@Qt_5 5.0.2
 _ZNK14QOpenGLContext10isOpenGLESEv@Qt_5 5.3.0
 _ZNK14QOpenGLContext10metaObjectEv@Qt_5 5.0.2
 _ZNK14QOpenGLContext10shareGroupEv@Qt_5 5.0.2
 _ZNK14QOpenGLContext11shareHandleEv@Qt_5 5.0.2
 _ZNK14QOpenGLContext12hasExtensionERK10QByteArray@Qt_5 5.0.2
 _ZNK14QOpenGLContext12nativeHandleEv@Qt_5 5.4.0
 _ZNK14QOpenGLContext12shareContextEv@Qt_5 5.0.2
 _ZNK14QOpenGLContext14extraFunctionsEv@Qt_5 5.6.0~beta
 _ZNK14QOpenGLContext14getProcAddressEPKc@Qt_5 5.7.0
 _ZNK14QOpenGLContext14getProcAddressERK10QByteArray@Qt_5 5.0.2
 _ZNK14QOpenGLContext16qGLContextHandleEv@Qt_5 5.0.2
 _ZNK14QOpenGLContext16textureFunctionsEv@Qt_5 5.2.0~alpha1
 _ZNK14QOpenGLContext16versionFunctionsERK21QOpenGLVersionProfile@Qt_5 5.1.0
 _ZNK14QOpenGLContext23functionsBackendStorageEv@Qt_5 5.7.0
 _ZNK14QOpenGLContext24defaultFramebufferObjectEv@Qt_5 5.0.2
 _ZNK14QOpenGLContext6formatEv@Qt_5 5.0.2
 _ZNK14QOpenGLContext6handleEv@Qt_5 5.0.2
 _ZNK14QOpenGLContext6screenEv@Qt_5 5.0.2
 _ZNK14QOpenGLContext7isValidEv@Qt_5 5.0.2
 _ZNK14QOpenGLContext7surfaceEv@Qt_5 5.0.2
 _ZNK14QOpenGLContext9functionsEv@Qt_5 5.0.2
 _ZNK14QOpenGLTexture11borderColorEPf@Qt_5 5.2.0~alpha1
 _ZNK14QOpenGLTexture11borderColorEPi@Qt_5 5.2.0~alpha1
 _ZNK14QOpenGLTexture11borderColorEPj@Qt_5 5.2.0~alpha1
 _ZNK14QOpenGLTexture11borderColorEv@Qt_5 5.2.0~alpha1
 _ZNK14QOpenGLTexture11mipMaxLevelEv@Qt_5 5.2.0~alpha1
 _ZNK14QOpenGLTexture11swizzleMaskENS_16SwizzleComponentE@Qt_5 5.2.0~alpha1
 _ZNK14QOpenGLTexture12mipBaseLevelEv@Qt_5 5.2.0~alpha1
 _ZNK14QOpenGLTexture13isTextureViewEv@Qt_5 5.2.0~alpha1
 _ZNK14QOpenGLTexture13minMagFiltersEv@Qt_5 5.2.0~alpha1
 _ZNK14QOpenGLTexture13mipLevelRangeEv@Qt_5 5.2.0~alpha1
 _ZNK14QOpenGLTexture14comparisonModeEv@Qt_5 5.5.0
 _ZNK14QOpenGLTexture16depthStencilModeEv@Qt_5 5.2.0~alpha1
 _ZNK14QOpenGLTexture16maximumMipLevelsEv@Qt_5 5.2.0~alpha1
 _ZNK14QOpenGLTexture17createTextureViewENS_6TargetENS_13TextureFormatEiiii@Qt_5 5.2.0~alpha1
 _ZNK14QOpenGLTexture17levelofDetailBiasEv@Qt_5 5.2.0~alpha1
 _ZNK14QOpenGLTexture17maximumAnisotropyEv@Qt_5 5.2.0~alpha1
 _ZNK14QOpenGLTexture18comparisonFunctionEv@Qt_5 5.5.0
 _ZNK14QOpenGLTexture18isStorageAllocatedEv@Qt_5 5.2.0~alpha1
 _ZNK14QOpenGLTexture18levelOfDetailRangeEv@Qt_5 5.2.0~alpha1
 _ZNK14QOpenGLTexture18minificationFilterEv@Qt_5 5.2.0~alpha1
 _ZNK14QOpenGLTexture19magnificationFilterEv@Qt_5 5.2.0~alpha1
 _ZNK14QOpenGLTexture20maximumLevelOfDetailEv@Qt_5 5.2.0~alpha1
 _ZNK14QOpenGLTexture20minimumLevelOfDetailEv@Qt_5 5.2.0~alpha1
 _ZNK14QOpenGLTexture22isFixedSamplePositionsEv@Qt_5 5.4.0
 _ZNK14QOpenGLTexture29isAutoMipMapGenerationEnabledEv@Qt_5 5.2.0~alpha1
 _ZNK14QOpenGLTexture5depthEv@Qt_5 5.2.0~alpha1
 _ZNK14QOpenGLTexture5facesEv@Qt_5 5.2.0~alpha1
 _ZNK14QOpenGLTexture5widthEv@Qt_5 5.2.0~alpha1
 _ZNK14QOpenGLTexture6formatEv@Qt_5 5.2.0~alpha1
 _ZNK14QOpenGLTexture6heightEv@Qt_5 5.2.0~alpha1
 _ZNK14QOpenGLTexture6layersEv@Qt_5 5.2.0~alpha1
 _ZNK14QOpenGLTexture6targetEv@Qt_5 5.4.0
 _ZNK14QOpenGLTexture7isBoundEv@Qt_5 5.2.0~alpha1
 _ZNK14QOpenGLTexture7samplesEv@Qt_5 5.4.0
 _ZNK14QOpenGLTexture8wrapModeENS_19CoordinateDirectionE@Qt_5 5.2.0~alpha1
 _ZNK14QOpenGLTexture9isCreatedEv@Qt_5 5.2.0~alpha1
 _ZNK14QOpenGLTexture9mipLevelsEv@Qt_5 5.2.0~alpha1
 _ZNK14QOpenGLTexture9textureIdEv@Qt_5 5.2.0~alpha1
 _ZNK14QPaintEngineEx11createStateEP13QPainterState@Qt_5_PRIVATE_API 5.0.2 1
 _ZNK14QPaintEngineEx22shouldDrawCachedGlyphsEP11QFontEngineRK10QTransform@Qt_5_PRIVATE_API 5.0.2 1
 _ZNK14QPaintEngineEx36requiresPretransformedGlyphPositionsEP11QFontEngineRK10QTransform@Qt_5_PRIVATE_API 5.1.0 1
 _ZNK14QPlatformTheme11keyBindingsEN12QKeySequence11StandardKeyE@Qt_5 5.2.0~alpha1
 _ZNK14QPlatformTheme14fileIconPixmapERK9QFileInfoRK6QSizeF6QFlagsINS_10IconOptionEE@Qt_5 5.2.0~alpha1
 _ZNK14QPlatformTheme14standardPixmapENS_14StandardPixmapERK6QSizeF@Qt_5 5.0.2
 _ZNK14QPlatformTheme16createIconEngineERK7QString@Qt_5 5.1.0
 _ZNK14QPlatformTheme18createPlatformMenuEv@Qt_5 5.0.2
 _ZNK14QPlatformTheme18standardButtonTextEi@Qt_5 5.3.0
 _ZNK14QPlatformTheme21createPlatformMenuBarEv@Qt_5 5.0.2
 _ZNK14QPlatformTheme22createPlatformMenuItemEv@Qt_5 5.0.2
 _ZNK14QPlatformTheme23usePlatformNativeDialogENS_10DialogTypeE@Qt_5 5.0.2
 _ZNK14QPlatformTheme26createPlatformDialogHelperENS_10DialogTypeE@Qt_5 5.0.2
 _ZNK14QPlatformTheme28createPlatformSystemTrayIconEv@Qt_5 5.0.2
 _ZNK14QPlatformTheme4fontENS_4FontE@Qt_5 5.0.2
 _ZNK14QPlatformTheme7paletteENS_7PaletteE@Qt_5 5.0.2
 _ZNK14QPlatformTheme9themeHintENS_9ThemeHintE@Qt_5 5.0.2
 _ZNK14QSurfaceFormat10testOptionE6QFlagsINS_12FormatOptionEE@Qt_5 5.0.2
 _ZNK14QSurfaceFormat10testOptionENS_12FormatOptionE@Qt_5 5.3.0
 _ZNK14QSurfaceFormat12majorVersionEv@Qt_5 5.0.2
 _ZNK14QSurfaceFormat12minorVersionEv@Qt_5 5.0.2
 _ZNK14QSurfaceFormat12swapBehaviorEv@Qt_5 5.0.2
 _ZNK14QSurfaceFormat12swapIntervalEv@Qt_5 5.3.0
 _ZNK14QSurfaceFormat13redBufferSizeEv@Qt_5 5.0.2
 _ZNK14QSurfaceFormat14blueBufferSizeEv@Qt_5 5.0.2
 _ZNK14QSurfaceFormat14renderableTypeEv@Qt_5 5.0.2
 _ZNK14QSurfaceFormat15alphaBufferSizeEv@Qt_5 5.0.2
 _ZNK14QSurfaceFormat15depthBufferSizeEv@Qt_5 5.0.2
 _ZNK14QSurfaceFormat15greenBufferSizeEv@Qt_5 5.0.2
 _ZNK14QSurfaceFormat17stencilBufferSizeEv@Qt_5 5.0.2
 _ZNK14QSurfaceFormat7optionsEv@Qt_5 5.3.0
 _ZNK14QSurfaceFormat7profileEv@Qt_5 5.0.2
 _ZNK14QSurfaceFormat7samplesEv@Qt_5 5.0.2
 _ZNK14QSurfaceFormat7versionEv@Qt_5 5.1.0
 _ZNK14QSurfaceFormat8hasAlphaEv@Qt_5 5.0.2
 _ZNK14QTextTableCell10columnSpanEv@Qt_5 5.0.2
 _ZNK14QTextTableCell12lastPositionEv@Qt_5 5.0.2
 _ZNK14QTextTableCell13firstPositionEv@Qt_5 5.0.2
 _ZNK14QTextTableCell18lastCursorPositionEv@Qt_5 5.0.2
 _ZNK14QTextTableCell19firstCursorPositionEv@Qt_5 5.0.2
 _ZNK14QTextTableCell20tableCellFormatIndexEv@Qt_5 5.0.2
 _ZNK14QTextTableCell3endEv@Qt_5 5.0.2
 _ZNK14QTextTableCell3rowEv@Qt_5 5.0.2
 _ZNK14QTextTableCell5beginEv@Qt_5 5.0.2
 _ZNK14QTextTableCell6columnEv@Qt_5 5.0.2
 _ZNK14QTextTableCell6formatEv@Qt_5 5.0.2
 _ZNK14QTextTableCell7rowSpanEv@Qt_5 5.0.2
 _ZNK14QWindowPrivate14topLevelWindowEv@Qt_5_PRIVATE_API 5.3.0 1
 _ZNK14QWindowPrivate25closestAcceptableGeometryERK6QRectF@Qt_5_PRIVATE_API 5.4.1 1
 _ZNK15QFontEngineQPF210glyphIndexEj@Qt_5_PRIVATE_API 5.4.0 1
 _ZNK15QFontEngineQPF212maxCharWidthEv@Qt_5_PRIVATE_API 5.4.0 1
 _ZNK15QFontEngineQPF212stringToCMapEPK5QChariP12QGlyphLayoutPi6QFlagsIN11QFontEngine10ShaperFlagEE@Qt_5_PRIVATE_API 5.4.0 1
 _ZNK15QFontEngineQPF213lineThicknessEv@Qt_5_PRIVATE_API 5.4.0 1
 _ZNK15QFontEngineQPF214minLeftBearingEv@Qt_5_PRIVATE_API 5.4.0 1
 _ZNK15QFontEngineQPF214recalcAdvancesEP12QGlyphLayout6QFlagsIN11QFontEngine10ShaperFlagEE@Qt_5_PRIVATE_API 5.4.0 1
 _ZNK15QFontEngineQPF215minRightBearingEv@Qt_5_PRIVATE_API 5.4.0 1
 _ZNK15QFontEngineQPF216getSfntTableDataEjPhPj@Qt_5_PRIVATE_API 5.4.0 1
 _ZNK15QFontEngineQPF217underlinePositionEv@Qt_5_PRIVATE_API 5.4.0 1
 _ZNK15QFontEngineQPF26ascentEv@Qt_5_PRIVATE_API 5.4.0 1
 _ZNK15QFontEngineQPF27descentEv@Qt_5_PRIVATE_API 5.4.0 1
 _ZNK15QFontEngineQPF27isValidEv@Qt_5_PRIVATE_API 5.4.0 1
 _ZNK15QFontEngineQPF27leadingEv@Qt_5_PRIVATE_API 5.4.0 1
 _ZNK15QFontEngineQPF29findGlyphEj@Qt_5_PRIVATE_API 5.4.0 1
 _ZNK15QGridLayoutItem10columnSpanEN2Qt11OrientationE@Qt_5_PRIVATE_API 5.3.0 1
 _ZNK15QGridLayoutItem10lastColumnEN2Qt11OrientationE@Qt_5_PRIVATE_API 5.3.0 1
 _ZNK15QGridLayoutItem11firstColumnEN2Qt11OrientationE@Qt_5_PRIVATE_API 5.3.0 1
 _ZNK15QGridLayoutItem12controlTypesE10LayoutSide@Qt_5_PRIVATE_API 5.3.0 1
 _ZNK15QGridLayoutItem13stretchFactorEN2Qt11OrientationE@Qt_5_PRIVATE_API 5.3.0 1
 _ZNK15QGridLayoutItem14geometryWithinEddddd6QFlagsIN2Qt13AlignmentFlagEEb@Qt_5_PRIVATE_API 5.7.0 1
 _ZNK15QGridLayoutItem16effectiveMaxSizeERK6QSizeF@Qt_5_PRIVATE_API 5.3.0 1
 _ZNK15QGridLayoutItem3boxEN2Qt11OrientationEbd@Qt_5_PRIVATE_API 5.7.0 1
 _ZNK15QGridLayoutItem7lastRowEN2Qt11OrientationE@Qt_5_PRIVATE_API 5.3.0 1
 _ZNK15QGridLayoutItem7rowSpanEN2Qt11OrientationE@Qt_5_PRIVATE_API 5.3.0 1
 _ZNK15QGridLayoutItem8firstRowEN2Qt11OrientationE@Qt_5_PRIVATE_API 5.3.0 1
 _ZNK15QGuiApplication10metaObjectEv@Qt_5 5.0.2
 _ZNK15QGuiApplication10sessionKeyEv@Qt_5 5.0.2
 _ZNK15QGuiApplication15isSavingSessionEv@Qt_5 5.0.2
 _ZNK15QGuiApplication16devicePixelRatioEv@Qt_5 5.0.2
 _ZNK15QGuiApplication17isSessionRestoredEv@Qt_5 5.0.2
 _ZNK15QGuiApplication9sessionIdEv@Qt_5 5.0.2
 _ZNK15QImageIOHandler10imageCountEv@Qt_5 5.0.2
 _ZNK15QImageIOHandler14nextImageDelayEv@Qt_5 5.0.2
 _ZNK15QImageIOHandler14supportsOptionENS_11ImageOptionE@Qt_5 5.0.2
 _ZNK15QImageIOHandler16currentImageRectEv@Qt_5 5.0.2
 _ZNK15QImageIOHandler18currentImageNumberEv@Qt_5 5.0.2
 _ZNK15QImageIOHandler4nameEv@Qt_5 5.0.2
 _ZNK15QImageIOHandler6deviceEv@Qt_5 5.0.2
 _ZNK15QImageIOHandler6formatEv@Qt_5 5.0.2
 _ZNK15QImageIOHandler6optionENS_11ImageOptionE@Qt_5 5.0.2
 _ZNK15QImageIOHandler9loopCountEv@Qt_5 5.0.2
 _ZNK15QImageIOHandler9setFormatERK10QByteArray@Qt_5 5.0.2
 _ZNK15QLinearGradient5startEv@Qt_5 5.0.2
 _ZNK15QLinearGradient9finalStopEv@Qt_5 5.0.2
 _ZNK15QPlatformCursor3posEv@Qt_5 5.0.2
 _ZNK15QPlatformPixmap11transformedERK10QTransformN2Qt18TransformationModeE@Qt_5 5.0.2
 _ZNK15QPlatformPixmap30createCompatiblePlatformPixmapEv@Qt_5 5.0.2
 _ZNK15QPlatformPixmap7toImageERK5QRect@Qt_5 5.0.2
 (subst)_ZNK15QPlatformScreen10grabWindowE{quintptr}iiii@Qt_5 5.0.2
 _ZNK15QPlatformScreen10logicalDpiEv@Qt_5 5.0.2
 _ZNK15QPlatformScreen10powerStateEv@Qt_5 5.6.0~beta
 _ZNK15QPlatformScreen10topLevelAtERK6QPoint@Qt_5 5.0.2
 _ZNK15QPlatformScreen11orientationEv@Qt_5 5.0.2
 _ZNK15QPlatformScreen11refreshRateEv@Qt_5 5.0.2
 _ZNK15QPlatformScreen12physicalSizeEv@Qt_5 5.0.2
 _ZNK15QPlatformScreen12pixelDensityEv@Qt_5 5.6.0~beta
 _ZNK15QPlatformScreen15virtualSiblingsEv@Qt_5 5.0.2
 _ZNK15QPlatformScreen16devicePixelRatioEv@Qt_5 5.0.2
 _ZNK15QPlatformScreen17nativeOrientationEv@Qt_5 5.0.2
 _ZNK15QPlatformScreen17screenForPositionERK6QPoint@Qt_5 5.6.0~beta
 _ZNK15QPlatformScreen25deviceIndependentGeometryEv@Qt_5 5.6.0~beta
 _ZNK15QPlatformScreen28subpixelAntialiasingTypeHintEv@Qt_5 5.5.0
 _ZNK15QPlatformScreen6cursorEv@Qt_5 5.0.2
 _ZNK15QPlatformScreen6screenEv@Qt_5 5.0.2
 _ZNK15QPlatformWindow10isEmbeddedEPKS_@Qt_5 5.0.2
 _ZNK15QPlatformWindow11mapToGlobalERK6QPoint@Qt_5 5.0.2
 _ZNK15QPlatformWindow12frameMarginsEv@Qt_5 5.0.2
 _ZNK15QPlatformWindow12isAlertStateEv@Qt_5 5.1.0
 _ZNK15QPlatformWindow13mapFromGlobalERK6QPoint@Qt_5 5.0.2
 _ZNK15QPlatformWindow14normalGeometryEv@Qt_5 5.3.0
 _ZNK15QPlatformWindow14windowBaseSizeEv@Qt_5 5.6.0~beta
 _ZNK15QPlatformWindow14windowGeometryEv@Qt_5 5.6.0~beta
 _ZNK15QPlatformWindow16devicePixelRatioEv@Qt_5 5.0.2
 _ZNK15QPlatformWindow17screenForGeometryERK5QRect@Qt_5 5.4.0
 _ZNK15QPlatformWindow17windowMaximumSizeEv@Qt_5 5.6.0~beta
 _ZNK15QPlatformWindow17windowMinimumSizeEv@Qt_5 5.6.0~beta
 _ZNK15QPlatformWindow19windowFrameGeometryEv@Qt_5 5.6.0~beta
 _ZNK15QPlatformWindow19windowSizeIncrementEv@Qt_5 5.6.0~beta
 _ZNK15QPlatformWindow23frameStrutEventsEnabledEv@Qt_5 5.0.2
 _ZNK15QPlatformWindow31windowClosestAcceptableGeometryERK6QRectF@Qt_5 5.6.0~beta
 _ZNK15QPlatformWindow5winIdEv@Qt_5 5.0.2
 _ZNK15QPlatformWindow6formatEv@Qt_5 5.0.2
 _ZNK15QPlatformWindow6parentEv@Qt_5 5.0.2
 _ZNK15QPlatformWindow6screenEv@Qt_5 5.0.2
 _ZNK15QPlatformWindow6windowEv@Qt_5 5.0.2
 _ZNK15QPlatformWindow8geometryEv@Qt_5 5.0.2
 _ZNK15QPlatformWindow8isActiveEv@Qt_5 5.0.2
 _ZNK15QPlatformWindow9isExposedEv@Qt_5 5.0.2
 _ZNK15QRadialGradient10focalPointEv@Qt_5 5.0.2
 _ZNK15QRadialGradient11focalRadiusEv@Qt_5 5.0.2
 _ZNK15QRadialGradient12centerRadiusEv@Qt_5 5.0.2
 _ZNK15QRadialGradient6centerEv@Qt_5 5.0.2
 _ZNK15QRadialGradient6radiusEv@Qt_5 5.0.2
 _ZNK15QSessionManager10metaObjectEv@Qt_5 5.0.2
 _ZNK15QSessionManager10sessionKeyEv@Qt_5 5.0.2
 _ZNK15QSessionManager11restartHintEv@Qt_5 5.0.2
 _ZNK15QSessionManager14discardCommandEv@Qt_5 5.0.2
 _ZNK15QSessionManager14restartCommandEv@Qt_5 5.0.2
 _ZNK15QSessionManager8isPhase2Ev@Qt_5 5.0.2
 _ZNK15QSessionManager9sessionIdEv@Qt_5 5.0.2
 _ZNK15QTextBlockGroup10metaObjectEv@Qt_5 5.0.2
 _ZNK15QTextBlockGroup9blockListEv@Qt_5 5.0.2
 _ZNK15QTextCharFormat10anchorNameEv@Qt_5 5.0.2
 _ZNK15QTextCharFormat11anchorNamesEv@Qt_5 5.0.2
 _ZNK15QTextCharFormat13fontUnderlineEv@Qt_5 5.0.2
 _ZNK15QTextCharFormat4fontEv@Qt_5 5.0.2
 _ZNK15glyph_metrics_t11transformedERK10QTransform@Qt_5_PRIVATE_API 5.0.2 1
 _ZNK16QAccessibleCache10metaObjectEv@Qt_5_PRIVATE_API 5.3.0 1
 _ZNK16QAccessibleCache14idForInterfaceEP20QAccessibleInterface@Qt_5_PRIVATE_API 5.7.1 1
 _ZNK16QAccessibleCache14interfaceForIdEj@Qt_5_PRIVATE_API 5.3.0 1
 _ZNK16QAccessibleCache6insertEP7QObjectP20QAccessibleInterface@Qt_5_PRIVATE_API 5.3.0 1
 _ZNK16QAccessibleCache9acquireIdEv@Qt_5_PRIVATE_API 5.3.0 1
 _ZNK16QAccessibleEvent19accessibleInterfaceEv@Qt_5 5.0.2
 _ZNK16QAccessibleEvent8uniqueIdEv@Qt_5 5.2.0~rc1
 _ZNK16QConicalGradient5angleEv@Qt_5 5.0.2
 _ZNK16QConicalGradient6centerEv@Qt_5 5.0.2
 _ZNK16QDoubleValidator10metaObjectEv@Qt_5 5.0.2
 _ZNK16QDoubleValidator8notationEv@Qt_5 5.0.2
 _ZNK16QDoubleValidator8validateER7QStringRi@Qt_5 5.0.2
 _ZNK16QFontEngineMulti10glyphIndexEj@Qt_5_PRIVATE_API 5.3.0 1
 _ZNK16QFontEngineMulti12maxCharWidthEv@Qt_5_PRIVATE_API 5.0.2 1
 _ZNK16QFontEngineMulti12stringToCMapEPK5QChariP12QGlyphLayoutPi6QFlagsIN11QFontEngine10ShaperFlagEE@Qt_5_PRIVATE_API 5.0.2 1
 _ZNK16QFontEngineMulti13lineThicknessEv@Qt_5_PRIVATE_API 5.0.2 1
 _ZNK16QFontEngineMulti14minLeftBearingEv@Qt_5_PRIVATE_API 5.0.2 1
 _ZNK16QFontEngineMulti14recalcAdvancesEP12QGlyphLayout6QFlagsIN11QFontEngine10ShaperFlagEE@Qt_5_PRIVATE_API 5.0.2 1
 _ZNK16QFontEngineMulti15minRightBearingEv@Qt_5_PRIVATE_API 5.0.2 1
 _ZNK16QFontEngineMulti16averageCharWidthEv@Qt_5_PRIVATE_API 5.0.2 1
 _ZNK16QFontEngineMulti17underlinePositionEv@Qt_5_PRIVATE_API 5.0.2 1
 _ZNK16QFontEngineMulti32shouldLoadFontEngineForCharacterEij@Qt_5_PRIVATE_API 5.0.2 1
 _ZNK16QFontEngineMulti6ascentEv@Qt_5_PRIVATE_API 5.0.2 1
 _ZNK16QFontEngineMulti7descentEv@Qt_5_PRIVATE_API 5.0.2 1
 _ZNK16QFontEngineMulti7leadingEv@Qt_5_PRIVATE_API 5.0.2 1
 _ZNK16QFontEngineMulti7xHeightEv@Qt_5_PRIVATE_API 5.0.2 1
 _ZNK16QFontEngineMulti9canRenderEPK5QChari@Qt_5_PRIVATE_API 5.3.0 1
 _ZNK16QFontEngineMulti9doKerningEP12QGlyphLayout6QFlagsIN11QFontEngine10ShaperFlagEE@Qt_5_PRIVATE_API 5.0.2 1
 _ZNK16QOpenGLFunctions14openGLFeaturesEv@Qt_5 5.0.2
 _ZNK16QOpenGLFunctions16hasOpenGLFeatureENS_13OpenGLFeatureE@Qt_5 5.0.2
 _ZNK16QPlatformMenuBar10metaObjectEv@Qt_5 5.0.2
 _ZNK16QPlatformSurface7surfaceEv@Qt_5 5.0.2
 _ZNK16QRegExpValidator10metaObjectEv@Qt_5 5.0.2
 _ZNK16QRegExpValidator8validateER7QStringRi@Qt_5 5.0.2
 _ZNK16QTextBlockFormat12tabPositionsEv@Qt_5 5.0.2
 _ZNK16QTextFrameFormat10leftMarginEv@Qt_5 5.0.2
 _ZNK16QTextFrameFormat11rightMarginEv@Qt_5 5.0.2
 _ZNK16QTextFrameFormat12bottomMarginEv@Qt_5 5.0.2
 _ZNK16QTextFrameFormat9topMarginEv@Qt_5 5.0.2
 _ZNK17QAccessibleObject4rectEv@Qt_5 5.0.2
 _ZNK17QAccessibleObject6objectEv@Qt_5 5.0.2
 _ZNK17QAccessibleObject7childAtEii@Qt_5 5.0.2
 _ZNK17QAccessibleObject7isValidEv@Qt_5 5.0.2
 _ZNK17QAccessiblePlugin10metaObjectEv@Qt_5 5.0.2
 _ZNK17QGridLayoutEngine10rowSpacingEiN2Qt11OrientationE@Qt_5_PRIVATE_API 5.3.0 1
 _ZNK17QGridLayoutEngine11columnCountEN2Qt11OrientationE@Qt_5_PRIVATE_API 5.3.0 1
 _ZNK17QGridLayoutEngine11fillRowDataEP18QGridLayoutRowDataPKdS3_N2Qt11OrientationEPK24QAbstractLayoutStyleInfo@Qt_5_PRIVATE_API 5.3.0 1
 _ZNK17QGridLayoutEngine11rowSizeHintEN2Qt8SizeHintEiNS0_11OrientationE@Qt_5_PRIVATE_API 5.3.0 1
 _ZNK17QGridLayoutEngine12controlTypesE10LayoutSide@Qt_5_PRIVATE_API 5.3.0 1
 _ZNK17QGridLayoutEngine12rowAlignmentEiN2Qt11OrientationE@Qt_5_PRIVATE_API 5.3.0 1
 _ZNK17QGridLayoutEngine15visualDirectionEv@Qt_5_PRIVATE_API 5.3.0 1
 _ZNK17QGridLayoutEngine16effectiveLastRowEN2Qt11OrientationE@Qt_5_PRIVATE_API 5.3.0 1
 _ZNK17QGridLayoutEngine16ensureGeometriesERK6QSizeFPK24QAbstractLayoutStyleInfo@Qt_5_PRIVATE_API 5.3.0 1
 _ZNK17QGridLayoutEngine16rowStretchFactorEiN2Qt11OrientationE@Qt_5_PRIVATE_API 5.3.0 1
 _ZNK17QGridLayoutEngine17effectiveFirstRowEN2Qt11OrientationE@Qt_5_PRIVATE_API 5.3.0 1
 _ZNK17QGridLayoutEngine18effectiveAlignmentEPK15QGridLayoutItem@Qt_5_PRIVATE_API 5.3.0 1
 _ZNK17QGridLayoutEngine20hasDynamicConstraintEv@Qt_5_PRIVATE_API 5.3.0 1
 _ZNK17QGridLayoutEngine21constraintOrientationEv@Qt_5_PRIVATE_API 5.3.0 1
 _ZNK17QGridLayoutEngine22ensureColumnAndRowDataEP18QGridLayoutRowDataP14QGridLayoutBoxPKdS5_N2Qt11OrientationEPK24QAbstractLayoutStyleInfo@Qt_5_PRIVATE_API 5.3.0 1
 _ZNK17QGridLayoutEngine23ensureDynamicConstraintEv@Qt_5_PRIVATE_API 5.3.0 1
 _ZNK17QGridLayoutEngine31ensureEffectiveFirstAndLastRowsEv@Qt_5_PRIVATE_API 5.3.0 1
 _ZNK17QGridLayoutEngine6itemAtEi@Qt_5_PRIVATE_API 5.3.0 1
 _ZNK17QGridLayoutEngine6itemAtEiiN2Qt11OrientationE@Qt_5_PRIVATE_API 5.3.0 1
 _ZNK17QGridLayoutEngine7spacingEN2Qt11OrientationEPK24QAbstractLayoutStyleInfo@Qt_5_PRIVATE_API 5.3.0 1
 _ZNK17QGridLayoutEngine8cellRectERK6QRectFiiiiPK24QAbstractLayoutStyleInfo@Qt_5_PRIVATE_API 5.3.0 1
 _ZNK17QGridLayoutEngine8rowCountEN2Qt11OrientationE@Qt_5_PRIVATE_API 5.3.0 1
 _ZNK17QGridLayoutEngine8sizeHintEN2Qt8SizeHintERK6QSizeFPK24QAbstractLayoutStyleInfo@Qt_5_PRIVATE_API 5.3.0 1
 _ZNK17QGridLayoutEngine9itemCountEv@Qt_5_PRIVATE_API 5.3.0 1
 _ZNK17QIconEnginePlugin10metaObjectEv@Qt_5 5.0.2
 _ZNK17QInternalMimeData10metaObjectEv@Qt_5_PRIVATE_API 5.0.2 1
 _ZNK17QInternalMimeData12retrieveDataERK7QStringN8QVariant4TypeE@Qt_5_PRIVATE_API 5.0.2 1
 _ZNK17QInternalMimeData7formatsEv@Qt_5_PRIVATE_API 5.0.2 1
 _ZNK17QInternalMimeData9hasFormatERK7QString@Qt_5_PRIVATE_API 5.0.2 1
 _ZNK17QOffscreenSurface10metaObjectEv@Qt_5 5.1.0
 _ZNK17QOffscreenSurface11surfaceTypeEv@Qt_5 5.1.0
 _ZNK17QOffscreenSurface13surfaceHandleEv@Qt_5 5.1.0
 _ZNK17QOffscreenSurface15requestedFormatEv@Qt_5 5.1.0
 _ZNK17QOffscreenSurface4sizeEv@Qt_5 5.1.0
 _ZNK17QOffscreenSurface6formatEv@Qt_5 5.1.0
 _ZNK17QOffscreenSurface6handleEv@Qt_5 5.1.0
 _ZNK17QOffscreenSurface6screenEv@Qt_5 5.1.0
 _ZNK17QOffscreenSurface7isValidEv@Qt_5 5.1.0
 _ZNK17QOpenGLExtensions18hasOpenGLExtensionENS_15OpenGLExtensionE@Qt_5_PRIVATE_API 5.0.2 1
 (arch=!armel !armhf)_ZNK17QOpenGLTimerQuery10metaObjectEv@Qt_5 5.1.0
 (arch=!armel !armhf)_ZNK17QOpenGLTimerQuery13waitForResultEv@Qt_5 5.1.0
 (arch=!armel !armhf)_ZNK17QOpenGLTimerQuery16waitForTimestampEv@Qt_5 5.1.0
 (arch=!armel !armhf)_ZNK17QOpenGLTimerQuery17isResultAvailableEv@Qt_5 5.1.0
 (arch=!armel !armhf)_ZNK17QOpenGLTimerQuery8objectIdEv@Qt_5 5.1.0
 (arch=!armel !armhf)_ZNK17QOpenGLTimerQuery9isCreatedEv@Qt_5 5.1.0
 _ZNK17QPagedPaintDevice10pageLayoutEv@Qt_5 5.3.0
 _ZNK17QPagedPaintDevice10pageSizeMMEv@Qt_5 5.0.2
 _ZNK17QPagedPaintDevice16devicePageLayoutEv@Qt_5 5.3.0
 _ZNK17QPagedPaintDevice7marginsEv@Qt_5 5.0.2
 _ZNK17QPagedPaintDevice8pageSizeEv@Qt_5 5.0.2
 _ZNK17QPaintEngineState10clipRegionEv@Qt_5 5.0.2
 _ZNK17QPaintEngineState11brushOriginEv@Qt_5 5.0.2
 _ZNK17QPaintEngineState11renderHintsEv@Qt_5 5.0.2
 _ZNK17QPaintEngineState13clipOperationEv@Qt_5 5.0.2
 _ZNK17QPaintEngineState13isClipEnabledEv@Qt_5 5.0.2
 _ZNK17QPaintEngineState14backgroundModeEv@Qt_5 5.0.2
 _ZNK17QPaintEngineState15backgroundBrushEv@Qt_5 5.0.2
 _ZNK17QPaintEngineState15compositionModeEv@Qt_5 5.0.2
 _ZNK17QPaintEngineState17penNeedsResolvingEv@Qt_5 5.0.2
 _ZNK17QPaintEngineState19brushNeedsResolvingEv@Qt_5 5.0.2
 _ZNK17QPaintEngineState3penEv@Qt_5 5.0.2
 _ZNK17QPaintEngineState4fontEv@Qt_5 5.0.2
 _ZNK17QPaintEngineState5brushEv@Qt_5 5.0.2
 _ZNK17QPaintEngineState6matrixEv@Qt_5 5.0.2
 _ZNK17QPaintEngineState7opacityEv@Qt_5 5.0.2
 _ZNK17QPaintEngineState7painterEv@Qt_5 5.0.2
 _ZNK17QPaintEngineState8clipPathEv@Qt_5 5.0.2
 _ZNK17QPaintEngineState9transformEv@Qt_5 5.0.2
 _ZNK17QPdfEnginePrivate10pageMatrixEv@Qt_5_PRIVATE_API 5.0.2 1
 _ZNK17QPixmapIconEngine3keyEv@Qt_5_PRIVATE_API 5.5.0 1
 _ZNK17QPixmapIconEngine5cloneEv@Qt_5_PRIVATE_API 5.5.0 1
 _ZNK17QPixmapIconEngine5writeER11QDataStream@Qt_5_PRIVATE_API 5.5.0 1
 _ZNK17QPlatformMenuItem10metaObjectEv@Qt_5 5.0.2
 _ZNK17QPlatformServices18desktopEnvironmentEv@Qt_5 5.0.2
 _ZNK17QTextImageHandler10metaObjectEv@Qt_5_PRIVATE_API 5.0.2 1
 _ZNK17QTextInlineObject11formatIndexEv@Qt_5 5.0.2
 _ZNK17QTextInlineObject12textPositionEv@Qt_5 5.0.2
 _ZNK17QTextInlineObject13textDirectionEv@Qt_5 5.0.2
 _ZNK17QTextInlineObject4rectEv@Qt_5 5.0.2
 _ZNK17QTextInlineObject5widthEv@Qt_5 5.0.2
 _ZNK17QTextInlineObject6ascentEv@Qt_5 5.0.2
 _ZNK17QTextInlineObject6formatEv@Qt_5 5.0.2
 _ZNK17QTextInlineObject6heightEv@Qt_5 5.0.2
 _ZNK17QTextInlineObject7descentEv@Qt_5 5.0.2
 _ZNK18QFileDialogOptions10acceptModeEv@Qt_5 5.0.2
 _ZNK18QFileDialogOptions10testOptionENS_16FileDialogOptionE@Qt_5 5.0.2
 _ZNK18QFileDialogOptions11nameFiltersEv@Qt_5 5.0.2
 _ZNK18QFileDialogOptions11sidebarUrlsEv@Qt_5 5.0.2
 _ZNK18QFileDialogOptions11windowTitleEv@Qt_5 5.0.2
 _ZNK18QFileDialogOptions13defaultSuffixEv@Qt_5 5.0.2
 _ZNK18QFileDialogOptions15mimeTypeFiltersEv@Qt_5 5.2.0~alpha1
 _ZNK18QFileDialogOptions16initialDirectoryEv@Qt_5 5.0.2
 _ZNK18QFileDialogOptions16supportedSchemesEv@Qt_5 5.6.0~beta
 _ZNK18QFileDialogOptions21useDefaultNameFiltersEv@Qt_5 5.7.0
 _ZNK18QFileDialogOptions22initiallySelectedFilesEv@Qt_5 5.0.2
 _ZNK18QFileDialogOptions27initiallySelectedNameFilterEv@Qt_5 5.0.2
 _ZNK18QFileDialogOptions6filterEv@Qt_5 5.0.2
 _ZNK18QFileDialogOptions7historyEv@Qt_5 5.0.2
 _ZNK18QFileDialogOptions7optionsEv@Qt_5 5.0.2
 _ZNK18QFileDialogOptions8fileModeEv@Qt_5 5.0.2
 _ZNK18QFileDialogOptions8viewModeEv@Qt_5 5.0.2
 _ZNK18QFileDialogOptions9labelTextENS_11DialogLabelE@Qt_5 5.0.2
 _ZNK18QFontDialogOptions10testOptionENS_16FontDialogOptionE@Qt_5 5.0.2
 _ZNK18QFontDialogOptions11windowTitleEv@Qt_5 5.0.2
 _ZNK18QFontDialogOptions7optionsEv@Qt_5 5.0.2
 _ZNK18QOpenGLDebugLogger10metaObjectEv@Qt_5 5.1.0
 _ZNK18QOpenGLDebugLogger11loggingModeEv@Qt_5 5.1.0
 _ZNK18QOpenGLDebugLogger14loggedMessagesEv@Qt_5 5.1.0
 _ZNK18QOpenGLDebugLogger20maximumMessageLengthEv@Qt_5 5.1.0
 _ZNK18QOpenGLDebugLogger9isLoggingEv@Qt_5 5.1.0
 _ZNK18QOpenGLPaintDevice11paintEngineEv@Qt_5 5.0.2
 _ZNK18QOpenGLPaintDevice12paintFlippedEv@Qt_5 5.0.2
 _ZNK18QOpenGLPaintDevice13dotsPerMeterXEv@Qt_5 5.0.2
 _ZNK18QOpenGLPaintDevice13dotsPerMeterYEv@Qt_5 5.0.2
 _ZNK18QOpenGLPaintDevice4sizeEv@Qt_5 5.0.2
 _ZNK18QOpenGLPaintDevice6metricEN12QPaintDevice17PaintDeviceMetricE@Qt_5 5.0.2
 _ZNK18QOpenGLPaintDevice7contextEv@Qt_5 5.0.2
 (arch=!armel !armhf)_ZNK18QOpenGLTimeMonitor10metaObjectEv@Qt_5 5.1.0
 (arch=!armel !armhf)_ZNK18QOpenGLTimeMonitor11sampleCountEv@Qt_5 5.1.0
 (arch=!armel !armhf)_ZNK18QOpenGLTimeMonitor14waitForSamplesEv@Qt_5 5.1.0
 (arch=!armel !armhf)_ZNK18QOpenGLTimeMonitor16waitForIntervalsEv@Qt_5 5.1.0
 (arch=!armel !armhf)_ZNK18QOpenGLTimeMonitor17isResultAvailableEv@Qt_5 5.1.0
 (arch=!armel !armhf)_ZNK18QOpenGLTimeMonitor9isCreatedEv@Qt_5 5.1.0
 (arch=!armel !armhf)_ZNK18QOpenGLTimeMonitor9objectIdsEv@Qt_5 5.1.0
 _ZNK18QPaintDeviceWindow10metaObjectEv@Qt_5 5.4.0
 _ZNK18QPaintDeviceWindow11paintEngineEv@Qt_5 5.4.0
 _ZNK18QPaintDeviceWindow6metricEN12QPaintDevice17PaintDeviceMetricE@Qt_5 5.4.0
 _ZNK18QPlatformClipboard12supportsModeEN10QClipboard4ModeE@Qt_5 5.0.2
 _ZNK18QPlatformClipboard8ownsModeEN10QClipboard4ModeE@Qt_5 5.0.2
 _ZNK18QRasterPaintEngine11createStateEP13QPainterState@Qt_5_PRIVATE_API 5.0.2 1
 _ZNK18QRasterPaintEngine16clipBoundingRectEv@Qt_5_PRIVATE_API 5.0.2 1
 _ZNK18QRasterPaintEngine16coordinateOffsetEv@Qt_5_PRIVATE_API 5.0.2 1
 _ZNK18QRasterPaintEngine22shouldDrawCachedGlyphsEP11QFontEngineRK10QTransform@Qt_5_PRIVATE_API 5.1.0 1
 _ZNK18QRasterPaintEngine36requiresPretransformedGlyphPositionsEP11QFontEngineRK10QTransform@Qt_5_PRIVATE_API 5.1.0 1
 _ZNK18QRasterPaintEngine4sizeEv@Qt_5_PRIVATE_API 5.0.2 1
 _ZNK18QRasterPaintEngine8clipTypeEv@Qt_5_PRIVATE_API 5.0.2 1
 _ZNK18QStandardItemModel10headerDataEiN2Qt11OrientationEi@Qt_5 5.0.2
 _ZNK18QStandardItemModel10metaObjectEv@Qt_5 5.0.2
 _ZNK18QStandardItemModel11columnCountERK11QModelIndex@Qt_5 5.0.2
 _ZNK18QStandardItemModel11hasChildrenERK11QModelIndex@Qt_5 5.0.2
 _ZNK18QStandardItemModel13indexFromItemEPK13QStandardItem@Qt_5 5.0.2
 _ZNK18QStandardItemModel13itemFromIndexERK11QModelIndex@Qt_5 5.0.2
 _ZNK18QStandardItemModel13itemPrototypeEv@Qt_5 5.0.2
 _ZNK18QStandardItemModel17invisibleRootItemEv@Qt_5 5.0.2
 _ZNK18QStandardItemModel18verticalHeaderItemEi@Qt_5 5.0.2
 _ZNK18QStandardItemModel20horizontalHeaderItemEi@Qt_5 5.0.2
 _ZNK18QStandardItemModel20supportedDropActionsEv@Qt_5 5.0.2
 _ZNK18QStandardItemModel4dataERK11QModelIndexi@Qt_5 5.0.2
 _ZNK18QStandardItemModel4itemEii@Qt_5 5.0.2
 _ZNK18QStandardItemModel5flagsERK11QModelIndex@Qt_5 5.0.2
 _ZNK18QStandardItemModel5indexEiiRK11QModelIndex@Qt_5 5.0.2
 _ZNK18QStandardItemModel6parentERK11QModelIndex@Qt_5 5.0.2
 _ZNK18QStandardItemModel7siblingEiiRK11QModelIndex@Qt_5 5.0.2
 _ZNK18QStandardItemModel8itemDataERK11QModelIndex@Qt_5 5.0.2
 _ZNK18QStandardItemModel8mimeDataERK5QListI11QModelIndexE@Qt_5 5.0.2
 _ZNK18QStandardItemModel8rowCountERK11QModelIndex@Qt_5 5.0.2
 _ZNK18QStandardItemModel8sortRoleEv@Qt_5 5.0.2
 _ZNK18QStandardItemModel9findItemsERK7QString6QFlagsIN2Qt9MatchFlagEEi@Qt_5 5.0.2
 _ZNK18QStandardItemModel9mimeTypesEv@Qt_5 5.0.2
 _ZNK18QSyntaxHighlighter10metaObjectEv@Qt_5 5.0.2
 _ZNK18QSyntaxHighlighter12currentBlockEv@Qt_5 5.0.2
 _ZNK18QSyntaxHighlighter17currentBlockStateEv@Qt_5 5.0.2
 _ZNK18QSyntaxHighlighter18previousBlockStateEv@Qt_5 5.0.2
 _ZNK18QSyntaxHighlighter20currentBlockUserDataEv@Qt_5 5.0.2
 _ZNK18QSyntaxHighlighter6formatEi@Qt_5 5.0.2
 _ZNK18QSyntaxHighlighter8documentEv@Qt_5 5.0.2
 _ZNK18QTextCursorPrivate11blockLayoutER10QTextBlock@Qt_5_PRIVATE_API 5.0.2 1
 _ZNK18QTextCursorPrivate18selectedTableCellsEPiS0_S0_S0_@Qt_5_PRIVATE_API 5.0.2 1
 _ZNK18QTextCursorPrivate21complexSelectionTableEv@Qt_5_PRIVATE_API 5.0.2 1
 _ZNK18QTextCursorPrivate9canDeleteEi@Qt_5_PRIVATE_API 5.0.2 1
 _ZNK18QTextureGlyphCache18textureMapForGlyphEj6QFixed@Qt_5_PRIVATE_API 5.0.2 1
 _ZNK18QTextureGlyphCache30calculateSubPixelPositionCountEj@Qt_5_PRIVATE_API 5.0.2 1
 _ZNK19QColorDialogOptions10testOptionENS_17ColorDialogOptionE@Qt_5 5.0.2
 _ZNK19QColorDialogOptions11windowTitleEv@Qt_5 5.0.2
 _ZNK19QColorDialogOptions7optionsEv@Qt_5 5.0.2
 _ZNK19QInputDeviceManager10metaObjectEv@Qt_5_PRIVATE_API 5.5.0 1
 _ZNK19QInputDeviceManager11deviceCountENS_10DeviceTypeE@Qt_5_PRIVATE_API 5.5.0 1
 _ZNK19QOpenGLContextGroup10metaObjectEv@Qt_5 5.0.2
 _ZNK19QOpenGLContextGroup6sharesEv@Qt_5 5.0.2
 _ZNK19QOpenGLDebugMessage2idEv@Qt_5 5.1.0
 _ZNK19QOpenGLDebugMessage4typeEv@Qt_5 5.1.0
 _ZNK19QOpenGLDebugMessage6sourceEv@Qt_5 5.1.0
 _ZNK19QOpenGLDebugMessage7messageEv@Qt_5 5.1.0
 _ZNK19QOpenGLDebugMessage8severityEv@Qt_5 5.1.0
 _ZNK19QOpenGLDebugMessageeqERKS_@Qt_5 5.1.0
 _ZNK19QPainterPathStroker10dashOffsetEv@Qt_5 5.0.2
 _ZNK19QPainterPathStroker10miterLimitEv@Qt_5 5.0.2
 _ZNK19QPainterPathStroker11dashPatternEv@Qt_5 5.0.2
 _ZNK19QPainterPathStroker12createStrokeERK12QPainterPath@Qt_5 5.0.2
 _ZNK19QPainterPathStroker14curveThresholdEv@Qt_5 5.0.2
 _ZNK19QPainterPathStroker5widthEv@Qt_5 5.0.2
 _ZNK19QPainterPathStroker8capStyleEv@Qt_5 5.0.2
 _ZNK19QPainterPathStroker9joinStyleEv@Qt_5 5.0.2
 _ZNK19QScrollPrepareEvent10contentPosEv@Qt_5 5.0.2
 _ZNK19QScrollPrepareEvent12viewportSizeEv@Qt_5 5.0.2
 _ZNK19QScrollPrepareEvent15contentPosRangeEv@Qt_5 5.0.2
 _ZNK19QScrollPrepareEvent8startPosEv@Qt_5 5.0.2
 _ZNK19QTextDocumentLayout10idealWidthEv@Qt_5_PRIVATE_API 5.0.2 1
 _ZNK19QTextDocumentLayout10metaObjectEv@Qt_5_PRIVATE_API 5.0.2 1
 _ZNK19QTextDocumentLayout11cursorWidthEv@Qt_5_PRIVATE_API 5.0.2 1
 _ZNK19QTextDocumentLayout12documentSizeEv@Qt_5_PRIVATE_API 5.0.2 1
 _ZNK19QTextDocumentLayout12layoutStatusEv@Qt_5_PRIVATE_API 5.0.2 1
 _ZNK19QTextDocumentLayout16dynamicPageCountEv@Qt_5_PRIVATE_API 5.0.2 1
 _ZNK19QTextDocumentLayout17blockBoundingRectERK10QTextBlock@Qt_5_PRIVATE_API 5.0.2 1
 _ZNK19QTextDocumentLayout17frameBoundingRectEP10QTextFrame@Qt_5_PRIVATE_API 5.0.2 1
 _ZNK19QTextDocumentLayout17tableBoundingRectEP10QTextTable@Qt_5_PRIVATE_API 5.0.2 1
 _ZNK19QTextDocumentLayout19contentHasAlignmentEv@Qt_5_PRIVATE_API 5.0.2 1
 _ZNK19QTextDocumentLayout19dynamicDocumentSizeEv@Qt_5_PRIVATE_API 5.0.2 1
 _ZNK19QTextDocumentLayout21tableCellBoundingRectEP10QTextTableRK14QTextTableCell@Qt_5_PRIVATE_API 5.0.2 1
 _ZNK19QTextDocumentLayout7hitTestERK7QPointFN2Qt15HitTestAccuracyE@Qt_5_PRIVATE_API 5.0.2 1
 _ZNK19QTextDocumentLayout9pageCountEv@Qt_5_PRIVATE_API 5.0.2 1
 _ZNK19QTextDocumentWriter5codecEv@Qt_5 5.0.2
 _ZNK19QTextDocumentWriter6deviceEv@Qt_5 5.0.2
 _ZNK19QTextDocumentWriter6formatEv@Qt_5 5.0.2
 _ZNK19QTextDocumentWriter8fileNameEv@Qt_5 5.0.2
 _ZNK20QAccessibleInterface10focusChildEv@Qt_5 5.0.2
 _ZNK20QAccessibleInterface15backgroundColorEv@Qt_5 5.0.2
 _ZNK20QAccessibleInterface15foregroundColorEv@Qt_5 5.0.2
 _ZNK20QAccessibleInterface6windowEv@Qt_5 5.0.2
 _ZNK20QAccessibleInterface9relationsE6QFlagsIN11QAccessible12RelationFlagEE@Qt_5 5.0.2
 _ZNK20QOpenGLShaderProgram10metaObjectEv@Qt_5 5.0.2
 _ZNK20QOpenGLShaderProgram15uniformLocationEPKc@Qt_5 5.0.2
 _ZNK20QOpenGLShaderProgram15uniformLocationERK10QByteArray@Qt_5 5.0.2
 _ZNK20QOpenGLShaderProgram15uniformLocationERK7QString@Qt_5 5.0.2
 _ZNK20QOpenGLShaderProgram16patchVertexCountEv@Qt_5 5.1.0
 _ZNK20QOpenGLShaderProgram17attributeLocationEPKc@Qt_5 5.0.2
 _ZNK20QOpenGLShaderProgram17attributeLocationERK10QByteArray@Qt_5 5.0.2
 _ZNK20QOpenGLShaderProgram17attributeLocationERK7QString@Qt_5 5.0.2
 _ZNK20QOpenGLShaderProgram25maxGeometryOutputVerticesEv@Qt_5 5.1.0
 _ZNK20QOpenGLShaderProgram30defaultInnerTessellationLevelsEv@Qt_5 5.1.0
 _ZNK20QOpenGLShaderProgram30defaultOuterTessellationLevelsEv@Qt_5 5.1.0
 _ZNK20QOpenGLShaderProgram3logEv@Qt_5 5.0.2
 _ZNK20QOpenGLShaderProgram7shadersEv@Qt_5 5.0.2
 _ZNK20QOpenGLShaderProgram8isLinkedEv@Qt_5 5.0.2
 _ZNK20QOpenGLShaderProgram9programIdEv@Qt_5 5.0.2
 _ZNK20QPictureFormatPlugin10metaObjectEv@Qt_5 5.0.2
 _ZNK20QPlatformIntegration10themeNamesEv@Qt_5 5.0.2
 _ZNK20QPlatformIntegration12fontDatabaseEv@Qt_5 5.0.2
 _ZNK20QPlatformIntegration12inputContextEv@Qt_5 5.0.2
 _ZNK20QPlatformIntegration12possibleKeysEPK9QKeyEvent@Qt_5 5.0.2
 _ZNK20QPlatformIntegration13accessibilityEv@Qt_5 5.0.2
 _ZNK20QPlatformIntegration13hasCapabilityENS_10CapabilityE@Qt_5 5.0.2
 _ZNK20QPlatformIntegration15nativeInterfaceEv@Qt_5 5.0.2
 _ZNK20QPlatformIntegration18defaultWindowStateE6QFlagsIN2Qt10WindowTypeEE@Qt_5 5.2.0~rc1
 _ZNK20QPlatformIntegration18setApplicationIconERK5QIcon@Qt_5 5.5.0
 _ZNK20QPlatformIntegration19createPlatformThemeERK7QString@Qt_5 5.0.2
 _ZNK20QPlatformIntegration20createPlatformPixmapEN15QPlatformPixmap9PixelTypeE@Qt_5 5.0.2
 _ZNK20QPlatformIntegration22createImagePaintEngineEP12QPaintDevice@Qt_5 5.0.2
 _ZNK20QPlatformIntegration22queryKeyboardModifiersEv@Qt_5 5.0.2
 _ZNK20QPlatformIntegration27createPlatformOpenGLContextEP14QOpenGLContext@Qt_5 5.0.2
 _ZNK20QPlatformIntegration28createPlatformSessionManagerERK7QStringS2_@Qt_5 5.2.0~alpha1
 _ZNK20QPlatformIntegration30createPlatformOffscreenSurfaceEP17QOffscreenSurface@Qt_5 5.1.0
 _ZNK20QPlatformIntegration33createPlatformSharedGraphicsCacheEPKc@Qt_5 5.0.2
 _ZNK20QPlatformIntegration4beepEv@Qt_5 5.7.0
 _ZNK20QPlatformIntegration4dragEv@Qt_5 5.0.2
 _ZNK20QPlatformIntegration8servicesEv@Qt_5 5.0.2
 _ZNK20QPlatformIntegration9clipboardEv@Qt_5 5.0.2
 _ZNK20QPlatformIntegration9styleHintENS_9StyleHintE@Qt_5 5.0.2
 _ZNK20QPlatformTextureList10metaObjectEv@Qt_5 5.3.0
 _ZNK20QPlatformTextureList5countEv@Qt_5 5.3.0
 _ZNK20QPlatformTextureList5flagsEi@Qt_5 5.4.1
 _ZNK20QPlatformTextureList8clipRectEi@Qt_5 5.5.0
 _ZNK20QPlatformTextureList8geometryEi@Qt_5 5.3.0
 _ZNK20QPlatformTextureList8isLockedEv@Qt_5 5.3.0
 _ZNK20QPlatformTextureList9textureIdEi@Qt_5 5.3.0
 _ZNK20QPlatformThemePlugin10metaObjectEv@Qt_5 5.0.2
 _ZNK21QMessageDialogOptions11windowTitleEv@Qt_5 5.2.0~alpha1
 _ZNK21QMessageDialogOptions12detailedTextEv@Qt_5 5.2.0~alpha1
 _ZNK21QMessageDialogOptions15informativeTextEv@Qt_5 5.2.0~alpha1
 _ZNK21QMessageDialogOptions15standardButtonsEv@Qt_5 5.2.0~alpha1
 _ZNK21QMessageDialogOptions4iconEv@Qt_5 5.2.0~alpha1
 _ZNK21QMessageDialogOptions4textEv@Qt_5 5.2.0~alpha1
 _ZNK21QOpenGL2PaintEngineEx11createStateEP13QPainterState@Qt_5_PRIVATE_API 5.0.2 1
 _ZNK21QOpenGL2PaintEngineEx22isNativePaintingActiveEv@Qt_5_PRIVATE_API 5.0.2 1
 _ZNK21QOpenGL2PaintEngineEx22shouldDrawCachedGlyphsEP11QFontEngineRK10QTransform@Qt_5_PRIVATE_API 5.1.0 1
 _ZNK21QOpenGLTextureBlitter25supportsExternalOESTargetEv@Qt_5_PRIVATE_API 5.6.0~beta 1
 _ZNK21QOpenGLTextureBlitter9isCreatedEv@Qt_5_PRIVATE_API 5.3.0 1
 _ZNK21QOpenGLVersionProfile11hasProfilesEv@Qt_5 5.1.0
 _ZNK21QOpenGLVersionProfile15isLegacyVersionEv@Qt_5 5.1.0
 _ZNK21QOpenGLVersionProfile7isValidEv@Qt_5 5.1.0
 _ZNK21QOpenGLVersionProfile7profileEv@Qt_5 5.1.0
 _ZNK21QOpenGLVersionProfile7versionEv@Qt_5 5.1.0
 _ZNK21QPaintEngineExPrivate17hasClipOperationsEv@Qt_5_PRIVATE_API 5.0.2 1
 _ZNK21QPlatformBackingStore14graphicsBufferEv@Qt_5 5.5.0
 _ZNK21QPlatformBackingStore6windowEv@Qt_5 5.0.2
 _ZNK21QPlatformBackingStore7toImageEv@Qt_5 5.3.0
 _ZNK21QPlatformBackingStore9toTextureERK7QRegionP5QSizeP6QFlagsINS_11TextureFlagEE@Qt_5 5.5.0
 _ZNK21QPlatformDialogHelper10metaObjectEv@Qt_5 5.0.2
 _ZNK21QPlatformDialogHelper9styleHintENS_9StyleHintE@Qt_5 5.0.2
 _ZNK21QPlatformFontDatabase11defaultFontEv@Qt_5 5.0.2
 _ZNK21QPlatformFontDatabase13standardSizesEv@Qt_5 5.0.2
 _ZNK21QPlatformFontDatabase18fallbacksForFamilyERK7QStringN5QFont5StyleENS3_9StyleHintEN5QChar6ScriptE@Qt_5 5.1.0
 _ZNK21QPlatformFontDatabase19fontsAlwaysScalableEv@Qt_5 5.0.2
 _ZNK21QPlatformFontDatabase19isPrivateFontFamilyERK7QString@Qt_5 5.3.2
 _ZNK21QPlatformFontDatabase22resolveFontFamilyAliasERK7QString@Qt_5 5.0.2
 _ZNK21QPlatformFontDatabase28subpixelAntialiasingTypeHintEv@Qt_5 5.5.0
 _ZNK21QPlatformFontDatabase7fontDirEv@Qt_5 5.0.2
 _ZNK21QPlatformInputContext10metaObjectEv@Qt_5 5.0.2
 _ZNK21QPlatformInputContext11isAnimatingEv@Qt_5 5.0.2
 _ZNK21QPlatformInputContext12keyboardRectEv@Qt_5 5.0.2
 _ZNK21QPlatformInputContext13hasCapabilityENS_10CapabilityE@Qt_5 5.4.1
 _ZNK21QPlatformInputContext14inputDirectionEv@Qt_5 5.0.2
 _ZNK21QPlatformInputContext19inputMethodAcceptedEv@Qt_5 5.0.2
 _ZNK21QPlatformInputContext19isInputPanelVisibleEv@Qt_5 5.0.2
 _ZNK21QPlatformInputContext6localeEv@Qt_5 5.0.2
 _ZNK21QPlatformInputContext7isValidEv@Qt_5 5.0.2
 _ZNK21QRasterPlatformPixmap11paintEngineEv@Qt_5_PRIVATE_API 5.0.2 1
 _ZNK21QRasterPlatformPixmap15hasAlphaChannelEv@Qt_5_PRIVATE_API 5.0.2 1
 _ZNK21QRasterPlatformPixmap16devicePixelRatioEv@Qt_5_PRIVATE_API 5.0.2 1
 _ZNK21QRasterPlatformPixmap30createCompatiblePlatformPixmapEv@Qt_5_PRIVATE_API 5.0.2 1
 _ZNK21QRasterPlatformPixmap6metricEN12QPaintDevice17PaintDeviceMetricE@Qt_5_PRIVATE_API 5.0.2 1
 _ZNK21QRasterPlatformPixmap7toImageERK5QRect@Qt_5_PRIVATE_API 5.0.2 1
 _ZNK21QRasterPlatformPixmap7toImageEv@Qt_5_PRIVATE_API 5.0.2 1
 _ZNK21QTextDocumentFragment11toPlainTextEv@Qt_5 5.0.2
 _ZNK21QTextDocumentFragment6toHtmlERK10QByteArray@Qt_5 5.0.2
 _ZNK21QTextDocumentFragment7isEmptyEv@Qt_5 5.0.2
 _ZNK21QTextFormatCollection15hasFormatCachedERK11QTextFormat@Qt_5_PRIVATE_API 5.0.2 1
 _ZNK21QTextFormatCollection17objectFormatIndexEi@Qt_5_PRIVATE_API 5.0.2 1
 _ZNK21QTextFormatCollection6formatEi@Qt_5_PRIVATE_API 5.0.2 1
 _ZNK22QAccessibleApplication10childCountEv@Qt_5 5.0.2
 _ZNK22QAccessibleApplication10focusChildEv@Qt_5 5.0.2
 _ZNK22QAccessibleApplication12indexOfChildEPK20QAccessibleInterface@Qt_5 5.0.2
 _ZNK22QAccessibleApplication4roleEv@Qt_5 5.0.2
 _ZNK22QAccessibleApplication4textEN11QAccessible4TextE@Qt_5 5.0.2
 _ZNK22QAccessibleApplication5childEi@Qt_5 5.0.2
 _ZNK22QAccessibleApplication5stateEv@Qt_5 5.0.2
 _ZNK22QAccessibleApplication6parentEv@Qt_5 5.0.2
 _ZNK22QAccessibleApplication6windowEv@Qt_5 5.0.2
 _ZNK22QGuiApplicationPrivate15isWindowBlockedEP7QWindowPS1_@Qt_5_PRIVATE_API 5.0.2 1
 _ZNK22QInputMethodQueryEvent5valueEN2Qt16InputMethodQueryE@Qt_5 5.0.2
 _ZNK22QPlatformOpenGLContext24defaultFramebufferObjectEP16QPlatformSurface@Qt_5 5.0.2
 _ZNK22QPlatformOpenGLContext7contextEv@Qt_5 5.0.2
 _ZNK23QAccessibleBridgePlugin10metaObjectEv@Qt_5 5.0.2
 _ZNK23QPlatformDragQtResponse10answerRectEv@Qt_5 5.0.2
 _ZNK23QPlatformDropQtResponse10isAcceptedEv@Qt_5 5.0.2
 _ZNK23QPlatformDropQtResponse14acceptedActionEv@Qt_5 5.0.2
 _ZNK23QPlatformGraphicsBuffer10metaObjectEv@Qt_5 5.5.0
 _ZNK23QPlatformGraphicsBuffer12bytesPerLineEv@Qt_5 5.5.0
 _ZNK23QPlatformGraphicsBuffer13bindToTextureERK5QRect@Qt_5 5.5.0
 _ZNK23QPlatformGraphicsBuffer4dataEv@Qt_5 5.5.0
 _ZNK23QPlatformGraphicsBuffer6originEv@Qt_5 5.5.0
 _ZNK23QPlatformGraphicsBuffer9byteCountEv@Qt_5 5.5.0
 _ZNK23QPlatformSessionManager10sessionKeyEv@Qt_5 5.2.0~alpha1
 _ZNK23QPlatformSessionManager11restartHintEv@Qt_5 5.2.0~alpha1
 _ZNK23QPlatformSessionManager14discardCommandEv@Qt_5 5.2.0~alpha1
 _ZNK23QPlatformSessionManager14restartCommandEv@Qt_5 5.2.0~alpha1
 _ZNK23QPlatformSessionManager8isPhase2Ev@Qt_5 5.2.0~alpha1
 _ZNK23QPlatformSessionManager9sessionIdEv@Qt_5 5.2.0~alpha1
 _ZNK23QPlatformSystemTrayIcon10createMenuEv@Qt_5 5.3.0
 _ZNK23QPlatformSystemTrayIcon10metaObjectEv@Qt_5 5.0.2
 _ZNK23QWindowStateChangeEvent10isOverrideEv@Qt_5 5.0.2
 _ZNK24QAbstractOpenGLFunctions13isInitializedEv@Qt_5 5.5.0
 _ZNK24QAbstractOpenGLFunctions13owningContextEv@Qt_5 5.5.0
 _ZNK24QAccessibleTextInterface12textAtOffsetEiN11QAccessible16TextBoundaryTypeEPiS2_@Qt_5 5.1.0
 _ZNK24QAccessibleTextInterface15textAfterOffsetEiN11QAccessible16TextBoundaryTypeEPiS2_@Qt_5 5.1.0
 _ZNK24QAccessibleTextInterface16textBeforeOffsetEiN11QAccessible16TextBoundaryTypeEPiS2_@Qt_5 5.1.0
 _ZNK24QBlittablePlatformPixmap11paintEngineEv@Qt_5 5.0.2
 _ZNK24QBlittablePlatformPixmap15hasAlphaChannelEv@Qt_5 5.0.2
 _ZNK24QBlittablePlatformPixmap16devicePixelRatioEv@Qt_5 5.0.2
 _ZNK24QBlittablePlatformPixmap6metricEN12QPaintDevice17PaintDeviceMetricE@Qt_5 5.0.2
 _ZNK24QBlittablePlatformPixmap7toImageEv@Qt_5 5.0.2
 _ZNK24QBlittablePlatformPixmap9blittableEv@Qt_5 5.0.2
 _ZNK24QOpenGLCustomShaderStage6sourceEv@Qt_5_PRIVATE_API 5.0.2 1
 _ZNK24QOpenGLFramebufferObject10attachmentEv@Qt_5 5.0.2
 _ZNK24QOpenGLFramebufferObject4sizeEv@Qt_5 5.0.2
 _ZNK24QOpenGLFramebufferObject5sizesEv@Qt_5 5.6.0~beta
 _ZNK24QOpenGLFramebufferObject6formatEv@Qt_5 5.0.2
 _ZNK24QOpenGLFramebufferObject6handleEv@Qt_5 5.0.2
 _ZNK24QOpenGLFramebufferObject7isBoundEv@Qt_5 5.0.2
 _ZNK24QOpenGLFramebufferObject7isValidEv@Qt_5 5.0.2
 _ZNK24QOpenGLFramebufferObject7textureEv@Qt_5 5.0.2
 _ZNK24QOpenGLFramebufferObject7toImageEb@Qt_5 5.4.0
 _ZNK24QOpenGLFramebufferObject7toImageEbi@Qt_5 5.6.0~beta
 _ZNK24QOpenGLFramebufferObject7toImageEv@Qt_5 5.0.2
 _ZNK24QOpenGLFramebufferObject8texturesEv@Qt_5 5.6.0~beta
 _ZNK24QOpenGLTextureGlyphCache12glyphPaddingEv@Qt_5_PRIVATE_API 5.0.2 1
 _ZNK24QOpenGLTextureGlyphCache15maxTextureWidthEv@Qt_5_PRIVATE_API 5.0.2 1
 _ZNK24QOpenGLTextureGlyphCache16maxTextureHeightEv@Qt_5_PRIVATE_API 5.0.2 1
 _ZNK24QOpenGLVertexArrayObject10metaObjectEv@Qt_5 5.1.0
 _ZNK24QOpenGLVertexArrayObject8objectIdEv@Qt_5 5.1.0
 _ZNK24QOpenGLVertexArrayObject9isCreatedEv@Qt_5 5.1.0
 _ZNK24QPlatformNativeInterface10metaObjectEv@Qt_5 5.0.2
 _ZNK24QPlatformNativeInterface14windowPropertyEP15QPlatformWindowRK7QString@Qt_5 5.0.2
 _ZNK24QPlatformNativeInterface14windowPropertyEP15QPlatformWindowRK7QStringRK8QVariant@Qt_5 5.0.2
 _ZNK24QPlatformNativeInterface16platformFunctionERK10QByteArray@Qt_5 5.4.0
 _ZNK24QPlatformNativeInterface16windowPropertiesEP15QPlatformWindow@Qt_5 5.0.2
 _ZNK24QSupportedWritingSystems9supportedEN13QFontDatabase13WritingSystemE@Qt_5 5.0.2
 _ZNK25QPlatformFileDialogHelper10metaObjectEv@Qt_5 5.0.2
 _ZNK25QPlatformFileDialogHelper14isSupportedUrlERK4QUrl@Qt_5 5.2.0~alpha1
 _ZNK25QPlatformFileDialogHelper7optionsEv@Qt_5 5.0.2
 _ZNK25QPlatformFontDialogHelper10metaObjectEv@Qt_5 5.0.2
 _ZNK25QPlatformFontDialogHelper7optionsEv@Qt_5 5.0.2
 _ZNK25QPlatformOffscreenSurface16offscreenSurfaceEv@Qt_5 5.1.0
 _ZNK25QPlatformOffscreenSurface6formatEv@Qt_5 5.1.0
 _ZNK25QPlatformOffscreenSurface6screenEv@Qt_5 5.1.0
 _ZNK25QPlatformOffscreenSurface7isValidEv@Qt_5 5.1.0
 _ZNK26QAccessibleActionInterface19localizedActionNameERK7QString@Qt_5 5.0.2
 _ZNK26QAccessibleActionInterface26localizedActionDescriptionERK7QString@Qt_5 5.0.2
 _ZNK26QInputDeviceManagerPrivate11deviceCountEN19QInputDeviceManager10DeviceTypeE@Qt_5_PRIVATE_API 5.5.0 1
 _ZNK26QOpenGLEngineShaderManager10metaObjectEv@Qt_5_PRIVATE_API 5.0.2 1
 _ZNK26QPlatformColorDialogHelper10metaObjectEv@Qt_5 5.0.2
 _ZNK26QPlatformColorDialogHelper7optionsEv@Qt_5 5.0.2
 _ZNK26QPlatformIntegrationPlugin10metaObjectEv@Qt_5 5.0.2
 _ZNK27QAbstractTextDocumentLayout10metaObjectEv@Qt_5 5.0.2
 _ZNK27QAbstractTextDocumentLayout11paintDeviceEv@Qt_5 5.0.2
 _ZNK27QAbstractTextDocumentLayout16handlerForObjectEi@Qt_5 5.0.2
 _ZNK27QAbstractTextDocumentLayout8anchorAtERK7QPointF@Qt_5 5.0.2
 _ZNK27QAbstractTextDocumentLayout8documentEv@Qt_5 5.0.2
 _ZNK27QOpenGLPixelTransferOptions10skipImagesEv@Qt_5 5.2.0~alpha1
 _ZNK27QOpenGLPixelTransferOptions10skipPixelsEv@Qt_5 5.2.0~alpha1
 _ZNK27QOpenGLPixelTransferOptions11imageHeightEv@Qt_5 5.2.0~alpha1
 _ZNK27QOpenGLPixelTransferOptions18isSwapBytesEnabledEv@Qt_5 5.2.0~alpha1
 _ZNK27QOpenGLPixelTransferOptions26isLeastSignificantBitFirstEv@Qt_5 5.2.0~alpha1
 _ZNK27QOpenGLPixelTransferOptions8skipRowsEv@Qt_5 5.2.0~alpha1
 _ZNK27QOpenGLPixelTransferOptions9alignmentEv@Qt_5 5.2.0~alpha1
 _ZNK27QOpenGLPixelTransferOptions9rowLengthEv@Qt_5 5.2.0~alpha1
 _ZNK27QPlatformInputContextPlugin10metaObjectEv@Qt_5 5.0.2
 _ZNK27QRegularExpressionValidator10metaObjectEv@Qt_5 5.1.0
 _ZNK27QRegularExpressionValidator17regularExpressionEv@Qt_5 5.1.0
 _ZNK27QRegularExpressionValidator8validateER7QStringRi@Qt_5 5.1.0
 _ZNK28QApplicationStateChangeEvent16applicationStateEv@Qt_5 5.1.0
 _ZNK28QPlatformMessageDialogHelper10metaObjectEv@Qt_5 5.2.0~alpha1
 _ZNK28QPlatformMessageDialogHelper7optionsEv@Qt_5 5.2.0~alpha1
 _ZNK28QPlatformSharedGraphicsCache10metaObjectEv@Qt_5 5.0.2
 _ZNK29QScreenOrientationChangeEvent11orientationEv@Qt_5 5.0.2
 _ZNK29QScreenOrientationChangeEvent6screenEv@Qt_5 5.0.2
 _ZNK30QOpenGLFramebufferObjectFormat10attachmentEv@Qt_5 5.0.2
 _ZNK30QOpenGLFramebufferObjectFormat13textureTargetEv@Qt_5 5.0.2
 _ZNK30QOpenGLFramebufferObjectFormat21internalTextureFormatEv@Qt_5 5.0.2
 _ZNK30QOpenGLFramebufferObjectFormat6mipmapEv@Qt_5 5.0.2
 _ZNK30QOpenGLFramebufferObjectFormat7samplesEv@Qt_5 5.0.2
 _ZNK30QOpenGLFramebufferObjectFormateqERKS_@Qt_5 5.0.2
 _ZNK30QOpenGLFramebufferObjectFormatneERKS_@Qt_5 5.0.2
 _ZNK31QOpenGLMultiGroupSharedResource9resourcesEv@Qt_5_PRIVATE_API 5.0.2 1
 _ZNK4QCss11Declaration10brushValueERK8QPalette@Qt_5_PRIVATE_API 5.0.2 1
 _ZNK4QCss11Declaration10colorValueERK8QPalette@Qt_5_PRIVATE_API 5.0.2 1
 _ZNK4QCss11Declaration10styleValueEv@Qt_5_PRIVATE_API 5.0.2 1
 _ZNK4QCss11Declaration11brushValuesEP6QBrushRK8QPalette@Qt_5_PRIVATE_API 5.0.2 1
 _ZNK4QCss11Declaration11colorValuesEP6QColorRK8QPalette@Qt_5_PRIVATE_API 5.0.2 1
 _ZNK4QCss11Declaration11originValueEv@Qt_5_PRIVATE_API 5.0.2 1
 _ZNK4QCss11Declaration11repeatValueEv@Qt_5_PRIVATE_API 5.0.2 1
 _ZNK4QCss11Declaration11styleValuesEPNS_11BorderStyleE@Qt_5_PRIVATE_API 5.0.2 1
 _ZNK4QCss11Declaration13positionValueEv@Qt_5_PRIVATE_API 5.0.2 1
 _ZNK4QCss11Declaration14alignmentValueEv@Qt_5_PRIVATE_API 5.0.2 1
 _ZNK4QCss11Declaration15attachmentValueEv@Qt_5_PRIVATE_API 5.0.2 1
 _ZNK4QCss11Declaration16borderImageValueEP7QStringPiPNS_8TileModeES5_@Qt_5_PRIVATE_API 5.0.2 1
 _ZNK4QCss11Declaration18styleFeaturesValueEv@Qt_5_PRIVATE_API 5.0.2 1
 _ZNK4QCss11Declaration8intValueEPiPKc@Qt_5_PRIVATE_API 5.0.2 1
 _ZNK4QCss11Declaration8uriValueEv@Qt_5_PRIVATE_API 5.0.2 1
 _ZNK4QCss11Declaration9iconValueEv@Qt_5_PRIVATE_API 5.0.2 1
 _ZNK4QCss11Declaration9realValueEPdPKc@Qt_5_PRIVATE_API 5.2.0 1
 _ZNK4QCss11Declaration9rectValueEv@Qt_5_PRIVATE_API 5.0.2 1
 _ZNK4QCss11Declaration9sizeValueEv@Qt_5_PRIVATE_API 5.0.2 1
 _ZNK4QCss13StyleSelector14nodeNameEqualsENS0_7NodePtrERK7QString@Qt_5_PRIVATE_API 5.0.2 1
 _ZNK4QCss13StyleSelector7nodeIdsENS0_7NodePtrE@Qt_5_PRIVATE_API 5.0.2 1
 _ZNK4QCss5Value8toStringEv@Qt_5 5.0.2
 _ZNK4QCss6Parser13unquotedLexemEv@Qt_5_PRIVATE_API 5.0.2 1
 _ZNK4QCss6Symbol5lexemEv@Qt_5 5.0.2
 _ZNK4QCss8Selector11pseudoClassEPy@Qt_5_PRIVATE_API 5.0.2 1
 _ZNK4QCss8Selector11specificityEv@Qt_5_PRIVATE_API 5.0.2 1
 _ZNK4QCss8Selector13pseudoElementEv@Qt_5_PRIVATE_API 5.0.2 1
 _ZNK4QPen10dashOffsetEv@Qt_5 5.0.2
 _ZNK4QPen10isCosmeticEv@Qt_5 5.0.2
 _ZNK4QPen10miterLimitEv@Qt_5 5.0.2
 _ZNK4QPen11dashPatternEv@Qt_5 5.0.2
 _ZNK4QPen5brushEv@Qt_5 5.0.2
 _ZNK4QPen5colorEv@Qt_5 5.0.2
 _ZNK4QPen5styleEv@Qt_5 5.0.2
 _ZNK4QPen5widthEv@Qt_5 5.0.2
 _ZNK4QPen6widthFEv@Qt_5 5.0.2
 _ZNK4QPen7isSolidEv@Qt_5 5.0.2
 _ZNK4QPen8capStyleEv@Qt_5 5.0.2
 _ZNK4QPen9joinStyleEv@Qt_5 5.0.2
 _ZNK4QPencv8QVariantEv@Qt_5 5.0.2
 _ZNK4QPeneqERKS_@Qt_5 5.0.2
 _ZNK5QDrag10dragCursorEN2Qt10DropActionE@Qt_5 5.0.2
 _ZNK5QDrag10metaObjectEv@Qt_5 5.0.2
 _ZNK5QDrag13defaultActionEv@Qt_5 5.0.2
 _ZNK5QDrag16supportedActionsEv@Qt_5 5.0.2
 _ZNK5QDrag6pixmapEv@Qt_5 5.0.2
 _ZNK5QDrag6sourceEv@Qt_5 5.0.2
 _ZNK5QDrag6targetEv@Qt_5 5.0.2
 _ZNK5QDrag7hotSpotEv@Qt_5 5.0.2
 _ZNK5QDrag8mimeDataEv@Qt_5 5.0.2
 _ZNK5QFont10exactMatchEv@Qt_5 5.0.2
 _ZNK5QFont10fixedPitchEv@Qt_5 5.0.2
 _ZNK5QFont10pointSizeFEv@Qt_5 5.0.2
 _ZNK5QFont11wordSpacingEv@Qt_5 5.0.2
 _ZNK5QFont13defaultFamilyEv@Qt_5 5.0.2
 _ZNK5QFont13letterSpacingEv@Qt_5 5.0.2
 _ZNK5QFont13styleStrategyEv@Qt_5 5.0.2
 _ZNK5QFont14capitalizationEv@Qt_5 5.0.2
 _ZNK5QFont14lastResortFontEv@Qt_5 5.0.2
 _ZNK5QFont16lastResortFamilyEv@Qt_5 5.0.2
 _ZNK5QFont17hintingPreferenceEv@Qt_5 5.0.2
 _ZNK5QFont17letterSpacingTypeEv@Qt_5 5.0.2
 _ZNK5QFont3keyEv@Qt_5 5.0.2
 _ZNK5QFont5styleEv@Qt_5 5.0.2
 _ZNK5QFont6familyEv@Qt_5 5.0.2
 _ZNK5QFont6weightEv@Qt_5 5.0.2
 _ZNK5QFont7kerningEv@Qt_5 5.0.2
 _ZNK5QFont7rawModeEv@Qt_5 5.0.2
 _ZNK5QFont7rawNameEv@Qt_5 5.0.2
 _ZNK5QFont7resolveERKS_@Qt_5 5.0.2
 _ZNK5QFont7stretchEv@Qt_5 5.0.2
 _ZNK5QFont8isCopyOfERKS_@Qt_5 5.0.2
 _ZNK5QFont8overlineEv@Qt_5 5.0.2
 _ZNK5QFont8toStringEv@Qt_5 5.0.2
 _ZNK5QFont9pixelSizeEv@Qt_5 5.0.2
 _ZNK5QFont9pointSizeEv@Qt_5 5.0.2
 _ZNK5QFont9strikeOutEv@Qt_5 5.0.2
 _ZNK5QFont9styleHintEv@Qt_5 5.0.2
 _ZNK5QFont9styleNameEv@Qt_5 5.0.2
 _ZNK5QFont9underlineEv@Qt_5 5.0.2
 _ZNK5QFontcv8QVariantEv@Qt_5 5.0.2
 _ZNK5QFonteqERKS_@Qt_5 5.0.2
 _ZNK5QFontltERKS_@Qt_5 5.0.2
 _ZNK5QFontneERKS_@Qt_5 5.0.2
 _ZNK5QIcon10actualSizeEP7QWindowRK5QSizeNS_4ModeENS_5StateE@Qt_5 5.1.0
 _ZNK5QIcon10actualSizeERK5QSizeNS_4ModeENS_5StateE@Qt_5 5.0.2
 _ZNK5QIcon10isDetachedEv@Qt_5 5.0.2
 _ZNK5QIcon14availableSizesENS_4ModeENS_5StateE@Qt_5 5.0.2
 _ZNK5QIcon4nameEv@Qt_5 5.0.2
 _ZNK5QIcon5paintEP8QPainterRK5QRect6QFlagsIN2Qt13AlignmentFlagEENS_4ModeENS_5StateE@Qt_5 5.0.2
 _ZNK5QIcon6isMaskEv@Qt_5 5.6.0~beta
 _ZNK5QIcon6isNullEv@Qt_5 5.0.2
 _ZNK5QIcon6pixmapEP7QWindowRK5QSizeNS_4ModeENS_5StateE@Qt_5 5.1.0
 _ZNK5QIcon6pixmapERK5QSizeNS_4ModeENS_5StateE@Qt_5 5.0.2
 _ZNK5QIcon8cacheKeyEv@Qt_5 5.0.2
 _ZNK5QIconcv8QVariantEv@Qt_5 5.0.2
 _ZNK6QBrush12textureImageEv@Qt_5 5.0.2
 _ZNK6QBrush7textureEv@Qt_5 5.0.2
 _ZNK6QBrush8gradientEv@Qt_5 5.0.2
 _ZNK6QBrush8isOpaqueEv@Qt_5 5.0.2
 _ZNK6QBrushcv8QVariantEv@Qt_5 5.0.2
 _ZNK6QBrusheqERKS_@Qt_5 5.0.2
 _ZNK6QColor10lightnessFEv@Qt_5 5.0.2
 _ZNK6QColor10saturationEv@Qt_5 5.0.2
 _ZNK6QColor11saturationFEv@Qt_5 5.0.2
 _ZNK6QColor13hslSaturationEv@Qt_5 5.0.2
 _ZNK6QColor13hsvSaturationEv@Qt_5 5.0.2
 _ZNK6QColor14hslSaturationFEv@Qt_5 5.0.2
 _ZNK6QColor14hsvSaturationFEv@Qt_5 5.0.2
 _ZNK6QColor3hueEv@Qt_5 5.0.2
 _ZNK6QColor3redEv@Qt_5 5.0.2
 _ZNK6QColor3rgbEv@Qt_5 5.0.2
 _ZNK6QColor4blueEv@Qt_5 5.0.2
 _ZNK6QColor4cyanEv@Qt_5 5.0.2
 _ZNK6QColor4darkEi@Qt_5 5.0.2
 _ZNK6QColor4hueFEv@Qt_5 5.0.2
 _ZNK6QColor4nameENS_10NameFormatE@Qt_5 5.2.0~alpha1
 _ZNK6QColor4nameEv@Qt_5 5.0.2
 _ZNK6QColor4redFEv@Qt_5 5.0.2
 _ZNK6QColor4rgbaEv@Qt_5 5.0.2
 _ZNK6QColor5alphaEv@Qt_5 5.0.2
 _ZNK6QColor5blackEv@Qt_5 5.0.2
 _ZNK6QColor5blueFEv@Qt_5 5.0.2
 _ZNK6QColor5cyanFEv@Qt_5 5.0.2
 _ZNK6QColor5greenEv@Qt_5 5.0.2
 _ZNK6QColor5lightEi@Qt_5 5.0.2
 _ZNK6QColor5toHslEv@Qt_5 5.0.2
 _ZNK6QColor5toHsvEv@Qt_5 5.0.2
 _ZNK6QColor5toRgbEv@Qt_5 5.0.2
 _ZNK6QColor5valueEv@Qt_5 5.0.2
 _ZNK6QColor6alphaFEv@Qt_5 5.0.2
 _ZNK6QColor6blackFEv@Qt_5 5.0.2
 _ZNK6QColor6getHslEPiS0_S0_S0_@Qt_5 5.0.2
 _ZNK6QColor6getHsvEPiS0_S0_S0_@Qt_5 5.0.2
 _ZNK6QColor6getRgbEPiS0_S0_S0_@Qt_5 5.0.2
 _ZNK6QColor6greenFEv@Qt_5 5.0.2
 _ZNK6QColor6hslHueEv@Qt_5 5.0.2
 _ZNK6QColor6hsvHueEv@Qt_5 5.0.2
 _ZNK6QColor6rgba64Ev@Qt_5 5.6.0~beta
 _ZNK6QColor6toCmykEv@Qt_5 5.0.2
 _ZNK6QColor6valueFEv@Qt_5 5.0.2
 _ZNK6QColor6yellowEv@Qt_5 5.0.2
 _ZNK6QColor7getHslFEPdS0_S0_S0_@Qt_5 5.2.0
 _ZNK6QColor7getHsvFEPdS0_S0_S0_@Qt_5 5.2.0
 _ZNK6QColor7getRgbFEPdS0_S0_S0_@Qt_5 5.2.0
 _ZNK6QColor7hslHueFEv@Qt_5 5.0.2
 _ZNK6QColor7hsvHueFEv@Qt_5 5.0.2
 _ZNK6QColor7magentaEv@Qt_5 5.0.2
 _ZNK6QColor7yellowFEv@Qt_5 5.0.2
 _ZNK6QColor8magentaFEv@Qt_5 5.0.2
 _ZNK6QColor9convertToENS_4SpecE@Qt_5 5.0.2
 _ZNK6QColor9lightnessEv@Qt_5 5.0.2
 _ZNK6QColorcv8QVariantEv@Qt_5 5.0.2
 _ZNK6QColoreqERKS_@Qt_5 5.0.2
 _ZNK6QColorneERKS_@Qt_5 5.0.2
 _ZNK6QImage10colorCountEv@Qt_5 5.0.2
 _ZNK6QImage10colorTableEv@Qt_5 5.0.2
 _ZNK6QImage10isDetachedEv@Qt_5 5.0.2
 _ZNK6QImage10pixelColorEii@Qt_5 5.6.0~beta
 _ZNK6QImage10pixelIndexEii@Qt_5 5.0.2
 _ZNK6QImage10rgbSwappedEv@Qt_5 5.0.2
 _ZNK6QImage11isGrayscaleEv@Qt_5 5.0.2
 _ZNK6QImage11paintEngineEv@Qt_5 5.0.2
 _ZNK6QImage11pixelFormatEv@Qt_5 5.4.0
 _ZNK6QImage11transformedERK10QTransformN2Qt18TransformationModeE@Qt_5 5.0.2
 _ZNK6QImage11transformedERK7QMatrixN2Qt18TransformationModeE@Qt_5 5.0.2
 _ZNK6QImage12alphaChannelEv@Qt_5 5.0.2
 _ZNK6QImage12bytesPerLineEv@Qt_5 5.0.2
 _ZNK6QImage12smoothScaledEii@Qt_5 5.5.0
 _ZNK6QImage13bitPlaneCountEv@Qt_5 5.0.2
 _ZNK6QImage13constScanLineEi@Qt_5 5.0.2
 _ZNK6QImage13dotsPerMeterXEv@Qt_5 5.0.2
 _ZNK6QImage13dotsPerMeterYEv@Qt_5 5.0.2
 _ZNK6QImage13scaledToWidthEiN2Qt18TransformationModeE@Qt_5 5.0.2
 _ZNK6QImage14scaledToHeightEiN2Qt18TransformationModeE@Qt_5 5.0.2
 _ZNK6QImage15convertToFormatENS_6FormatE6QFlagsIN2Qt19ImageConversionFlagEE@Qt_5 5.0.2
 _ZNK6QImage15convertToFormatENS_6FormatERK7QVectorIjE6QFlagsIN2Qt19ImageConversionFlagEE@Qt_5 5.0.2
 _ZNK6QImage15createAlphaMaskE6QFlagsIN2Qt19ImageConversionFlagEE@Qt_5 5.0.2
 _ZNK6QImage15hasAlphaChannelEv@Qt_5 5.0.2
 _ZNK6QImage15mirrored_helperEbb@Qt_5 5.3.0
 _ZNK6QImage16devicePixelRatioEv@Qt_5 5.0.2
 _ZNK6QImage17rgbSwapped_helperEv@Qt_5 5.3.0
 _ZNK6QImage19createHeuristicMaskEb@Qt_5 5.0.2
 _ZNK6QImage19createMaskFromColorEjN2Qt8MaskModeE@Qt_5 5.0.2
 _ZNK6QImage22convertToFormat_helperENS_6FormatE6QFlagsIN2Qt19ImageConversionFlagEE@Qt_5 5.3.0
 _ZNK6QImage4bitsEv@Qt_5 5.0.2
 _ZNK6QImage4copyERK5QRect@Qt_5 5.0.2
 _ZNK6QImage4rectEv@Qt_5 5.0.2
 _ZNK6QImage4saveEP9QIODevicePKci@Qt_5 5.0.2
 _ZNK6QImage4saveERK7QStringPKci@Qt_5 5.0.2
 _ZNK6QImage4sizeEv@Qt_5 5.0.2
 _ZNK6QImage4textERK7QString@Qt_5 5.0.2
 _ZNK6QImage5colorEi@Qt_5 5.0.2
 _ZNK6QImage5depthEv@Qt_5 5.0.2
 _ZNK6QImage5pixelEii@Qt_5 5.0.2
 _ZNK6QImage5validEii@Qt_5 5.0.2
 _ZNK6QImage5widthEv@Qt_5 5.0.2
 _ZNK6QImage6formatEv@Qt_5 5.0.2
 _ZNK6QImage6heightEv@Qt_5 5.0.2
 _ZNK6QImage6isNullEv@Qt_5 5.0.2
 _ZNK6QImage6metricEN12QPaintDevice17PaintDeviceMetricE@Qt_5 5.0.2
 _ZNK6QImage6offsetEv@Qt_5 5.0.2
 _ZNK6QImage6scaledERK5QSizeN2Qt15AspectRatioModeENS3_18TransformationModeE@Qt_5 5.0.2
 _ZNK6QImage7allGrayEv@Qt_5 5.0.2
 _ZNK6QImage7devTypeEv@Qt_5 5.0.2
 _ZNK6QImage8cacheKeyEv@Qt_5 5.0.2
 _ZNK6QImage8mirroredEbb@Qt_5 5.0.2
 _ZNK6QImage8scanLineEi@Qt_5 5.0.2
 _ZNK6QImage8textKeysEv@Qt_5 5.0.2
 _ZNK6QImage9byteCountEv@Qt_5 5.0.2
 _ZNK6QImage9constBitsEv@Qt_5 5.0.2
 _ZNK6QImagecv8QVariantEv@Qt_5 5.0.2
 _ZNK6QImageeqERKS_@Qt_5 5.0.2
 _ZNK6QImageneERKS_@Qt_5 5.0.2
 _ZNK6QMovie10frameCountEv@Qt_5 5.0.2
 _ZNK6QMovie10metaObjectEv@Qt_5 5.0.2
 _ZNK6QMovie12currentImageEv@Qt_5 5.0.2
 _ZNK6QMovie13currentPixmapEv@Qt_5 5.0.2
 _ZNK6QMovie14nextFrameDelayEv@Qt_5 5.0.2
 _ZNK6QMovie15backgroundColorEv@Qt_5 5.0.2
 _ZNK6QMovie18currentFrameNumberEv@Qt_5 5.0.2
 _ZNK6QMovie5speedEv@Qt_5 5.0.2
 _ZNK6QMovie5stateEv@Qt_5 5.0.2
 _ZNK6QMovie6deviceEv@Qt_5 5.0.2
 _ZNK6QMovie6formatEv@Qt_5 5.0.2
 _ZNK6QMovie7isValidEv@Qt_5 5.0.2
 _ZNK6QMovie8fileNameEv@Qt_5 5.0.2
 _ZNK6QMovie9cacheModeEv@Qt_5 5.0.2
 _ZNK6QMovie9frameRectEv@Qt_5 5.0.2
 _ZNK6QMovie9loopCountEv@Qt_5 5.0.2
 _ZNK7QBezier10addIfCloseEPdd@Qt_5_PRIVATE_API 5.2.0 1
 _ZNK7QBezier11getSubRangeEdd@Qt_5_PRIVATE_API 5.2.0 1
 _ZNK7QBezier12addToPolygonEP9QPolygonFd@Qt_5_PRIVATE_API 5.2.0 1
 _ZNK7QBezier12addToPolygonER11QDataBufferI7QPointFEd@Qt_5_PRIVATE_API 5.2.0 1
 _ZNK7QBezier16bezierOnIntervalEdd@Qt_5_PRIVATE_API 5.2.0 1
 _ZNK7QBezier17stationaryYPointsERdS0_@Qt_5_PRIVATE_API 5.2.0 1
 _ZNK7QBezier5mapByERK10QTransform@Qt_5_PRIVATE_API 5.0.2 1
 _ZNK7QBezier5tForYEddd@Qt_5_PRIVATE_API 5.2.0 1
 _ZNK7QBezier6boundsEv@Qt_5_PRIVATE_API 5.0.2 1
 _ZNK7QBezier6lengthEd@Qt_5_PRIVATE_API 5.2.0 1
 _ZNK7QBezier7shiftedEPS_idf@Qt_5_PRIVATE_API 5.2.0 1
 _ZNK7QBezier9tAtLengthEd@Qt_5_PRIVATE_API 5.2.0 1
 _ZNK7QBezier9toPolygonEd@Qt_5_PRIVATE_API 5.2.0 1
 _ZNK7QBitmap11transformedERK10QTransform@Qt_5 5.0.2
 _ZNK7QBitmap11transformedERK7QMatrix@Qt_5 5.0.2
 _ZNK7QBitmapcv8QVariantEv@Qt_5 5.0.2
 _ZNK7QCursor4maskEv@Qt_5 5.0.2
 _ZNK7QCursor5shapeEv@Qt_5 5.0.2
 _ZNK7QCursor6bitmapEv@Qt_5 5.0.2
 _ZNK7QCursor6pixmapEv@Qt_5 5.0.2
 _ZNK7QCursor7hotSpotEv@Qt_5 5.0.2
 _ZNK7QCursorcv8QVariantEv@Qt_5 5.0.2
 _ZNK7QMatrix12mapToPolygonERK5QRect@Qt_5 5.0.2
 _ZNK7QMatrix3mapERK12QPainterPath@Qt_5 5.0.2
 _ZNK7QMatrix3mapERK5QLine@Qt_5 5.0.2
 _ZNK7QMatrix3mapERK6QLineF@Qt_5 5.0.2
 _ZNK7QMatrix3mapERK6QPoint@Qt_5 5.0.2
 _ZNK7QMatrix3mapERK7QPointF@Qt_5 5.0.2
 _ZNK7QMatrix3mapERK7QRegion@Qt_5 5.0.2
 _ZNK7QMatrix3mapERK8QPolygon@Qt_5 5.0.2
 _ZNK7QMatrix3mapERK9QPolygonF@Qt_5 5.0.2
 _ZNK7QMatrix3mapEddPdS0_@Qt_5 5.2.0
 _ZNK7QMatrix3mapEiiPiS0_@Qt_5 5.0.2
 _ZNK7QMatrix7mapRectERK5QRect@Qt_5 5.0.2
 _ZNK7QMatrix7mapRectERK6QRectF@Qt_5 5.0.2
 _ZNK7QMatrix8invertedEPb@Qt_5 5.0.2
 _ZNK7QMatrixcv8QVariantEv@Qt_5 5.0.2
 _ZNK7QMatrixeqERKS_@Qt_5 5.0.2
 _ZNK7QMatrixmlERKS_@Qt_5 5.0.2
 _ZNK7QMatrixneERKS_@Qt_5 5.0.2
 _ZNK7QPixmap10isDetachedEv@Qt_5 5.0.2
 _ZNK7QPixmap11paintEngineEv@Qt_5 5.0.2
 _ZNK7QPixmap11transformedERK10QTransformN2Qt18TransformationModeE@Qt_5 5.0.2
 _ZNK7QPixmap11transformedERK7QMatrixN2Qt18TransformationModeE@Qt_5 5.0.2
 _ZNK7QPixmap13scaledToWidthEiN2Qt18TransformationModeE@Qt_5 5.0.2
 _ZNK7QPixmap14scaledToHeightEiN2Qt18TransformationModeE@Qt_5 5.0.2
 _ZNK7QPixmap15hasAlphaChannelEv@Qt_5 5.0.2
 _ZNK7QPixmap16devicePixelRatioEv@Qt_5 5.0.2
 _ZNK7QPixmap19createHeuristicMaskEb@Qt_5 5.0.2
 _ZNK7QPixmap19createMaskFromColorERK6QColorN2Qt8MaskModeE@Qt_5 5.0.2
 _ZNK7QPixmap4copyERK5QRect@Qt_5 5.0.2
 _ZNK7QPixmap4maskEv@Qt_5 5.0.2
 _ZNK7QPixmap4rectEv@Qt_5 5.0.2
 _ZNK7QPixmap4saveEP9QIODevicePKci@Qt_5 5.0.2
 _ZNK7QPixmap4saveERK7QStringPKci@Qt_5 5.0.2
 _ZNK7QPixmap4sizeEv@Qt_5 5.0.2
 _ZNK7QPixmap5depthEv@Qt_5 5.0.2
 _ZNK7QPixmap5widthEv@Qt_5 5.0.2
 _ZNK7QPixmap6handleEv@Qt_5 5.0.2
 _ZNK7QPixmap6heightEv@Qt_5 5.0.2
 _ZNK7QPixmap6isNullEv@Qt_5 5.0.2
 _ZNK7QPixmap6metricEN12QPaintDevice17PaintDeviceMetricE@Qt_5 5.0.2
 _ZNK7QPixmap6scaledERK5QSizeN2Qt15AspectRatioModeENS3_18TransformationModeE@Qt_5 5.0.2
 _ZNK7QPixmap7devTypeEv@Qt_5 5.0.2
 _ZNK7QPixmap7toImageEv@Qt_5 5.0.2
 _ZNK7QPixmap8cacheKeyEv@Qt_5 5.0.2
 _ZNK7QPixmap8hasAlphaEv@Qt_5 5.0.2
 _ZNK7QPixmap9doImageIOEP12QImageWriteri@Qt_5 5.0.2
 _ZNK7QPixmap9isQBitmapEv@Qt_5 5.0.2
 _ZNK7QPixmapcv8QVariantEv@Qt_5 5.0.2
 _ZNK7QRegion10intersectsERK5QRect@Qt_5 5.0.2
 _ZNK7QRegion10intersectsERKS_@Qt_5 5.0.2
 _ZNK7QRegion10subtractedERKS_@Qt_5 5.0.2
 _ZNK7QRegion10translatedEii@Qt_5 5.0.2
 _ZNK7QRegion11intersectedERK5QRect@Qt_5 5.0.2
 _ZNK7QRegion11intersectedERKS_@Qt_5 5.0.2
 _ZNK7QRegion12boundingRectEv@Qt_5 5.0.2
 _ZNK7QRegion4copyEv@Qt_5 5.0.2
 _ZNK7QRegion5rectsEv@Qt_5 5.0.2
 _ZNK7QRegion5xoredERKS_@Qt_5 5.0.2
 _ZNK7QRegion6isNullEv@Qt_5 5.0.2
 _ZNK7QRegion6unitedERK5QRect@Qt_5 5.0.2
 _ZNK7QRegion6unitedERKS_@Qt_5 5.0.2
 _ZNK7QRegion7isEmptyEv@Qt_5 5.0.2
 _ZNK7QRegion8containsERK5QRect@Qt_5 5.0.2
 _ZNK7QRegion8containsERK6QPoint@Qt_5 5.0.2
 _ZNK7QRegion9rectCountEv@Qt_5 5.0.2
 _ZNK7QRegionanERK5QRect@Qt_5 5.0.2
 _ZNK7QRegionanERKS_@Qt_5 5.0.2
 _ZNK7QRegioncv8QVariantEv@Qt_5 5.0.2
 _ZNK7QRegioneoERKS_@Qt_5 5.0.2
 _ZNK7QRegioneqERKS_@Qt_5 5.0.2
 _ZNK7QRegionmiERKS_@Qt_5 5.0.2
 _ZNK7QRegionorERKS_@Qt_5 5.0.2
 _ZNK7QRegionplERK5QRect@Qt_5 5.0.2
 _ZNK7QRegionplERKS_@Qt_5 5.0.2
 _ZNK7QScreen10isPortraitEN2Qt17ScreenOrientationE@Qt_5 5.0.2
 _ZNK7QScreen10mapBetweenEN2Qt17ScreenOrientationES1_RK5QRect@Qt_5 5.0.2
 _ZNK7QScreen10metaObjectEv@Qt_5 5.0.2
 _ZNK7QScreen11isLandscapeEN2Qt17ScreenOrientationE@Qt_5 5.0.2
 _ZNK7QScreen11orientationEv@Qt_5 5.0.2
 _ZNK7QScreen11refreshRateEv@Qt_5 5.0.2
 _ZNK7QScreen11virtualSizeEv@Qt_5 5.0.2
 _ZNK7QScreen12angleBetweenEN2Qt17ScreenOrientationES1_@Qt_5 5.0.2
 _ZNK7QScreen12physicalSizeEv@Qt_5 5.0.2
 _ZNK7QScreen13availableSizeEv@Qt_5 5.0.2
 _ZNK7QScreen15virtualGeometryEv@Qt_5 5.0.2
 _ZNK7QScreen15virtualSiblingsEv@Qt_5 5.0.2
 _ZNK7QScreen16devicePixelRatioEv@Qt_5 5.0.2
 _ZNK7QScreen16transformBetweenEN2Qt17ScreenOrientationES1_RK5QRect@Qt_5 5.0.2
 _ZNK7QScreen17availableGeometryEv@Qt_5 5.0.2
 _ZNK7QScreen17nativeOrientationEv@Qt_5 5.2.0~alpha1
 _ZNK7QScreen18logicalDotsPerInchEv@Qt_5 5.0.2
 _ZNK7QScreen18primaryOrientationEv@Qt_5 5.0.2
 _ZNK7QScreen19logicalDotsPerInchXEv@Qt_5 5.0.2
 _ZNK7QScreen19logicalDotsPerInchYEv@Qt_5 5.0.2
 _ZNK7QScreen19physicalDotsPerInchEv@Qt_5 5.0.2
 _ZNK7QScreen20availableVirtualSizeEv@Qt_5 5.0.2
 _ZNK7QScreen20physicalDotsPerInchXEv@Qt_5 5.0.2
 _ZNK7QScreen20physicalDotsPerInchYEv@Qt_5 5.0.2
 _ZNK7QScreen21orientationUpdateMaskEv@Qt_5 5.0.2
 _ZNK7QScreen24availableVirtualGeometryEv@Qt_5 5.0.2
 _ZNK7QScreen4nameEv@Qt_5 5.0.2
 _ZNK7QScreen4sizeEv@Qt_5 5.0.2
 _ZNK7QScreen5depthEv@Qt_5 5.0.2
 _ZNK7QScreen6handleEv@Qt_5 5.0.2
 _ZNK7QScreen8geometryEv@Qt_5 5.0.2
 _ZNK7QWindow10isTopLevelEv@Qt_5 5.0.2
 _ZNK7QWindow10metaObjectEv@Qt_5 5.0.2
 _ZNK7QWindow10visibilityEv@Qt_5 5.1.0
 _ZNK7QWindow11focusObjectEv@Qt_5 5.0.2
 _ZNK7QWindow11mapToGlobalERK6QPoint@Qt_5 5.0.2
 _ZNK7QWindow11maximumSizeEv@Qt_5 5.0.2
 _ZNK7QWindow11minimumSizeEv@Qt_5 5.0.2
 _ZNK7QWindow11surfaceTypeEv@Qt_5 5.0.2
 _ZNK7QWindow11windowStateEv@Qt_5 5.0.2
 _ZNK7QWindow12frameMarginsEv@Qt_5 5.0.2
 _ZNK7QWindow12isAncestorOfEPKS_NS_12AncestorModeE@Qt_5 5.0.2
 _ZNK7QWindow13frameGeometryEv@Qt_5 5.0.2
 _ZNK7QWindow13framePositionEv@Qt_5 5.0.2
 _ZNK7QWindow13mapFromGlobalERK6QPoint@Qt_5 5.0.2
 _ZNK7QWindow13sizeIncrementEv@Qt_5 5.0.2
 _ZNK7QWindow13surfaceHandleEv@Qt_5 5.0.2
 _ZNK7QWindow14accessibleRootEv@Qt_5 5.0.2
 _ZNK7QWindow15requestedFormatEv@Qt_5 5.0.2
 _ZNK7QWindow15transientParentEv@Qt_5 5.0.2
 _ZNK7QWindow16devicePixelRatioEv@Qt_5 5.0.2
 _ZNK7QWindow18contentOrientationEv@Qt_5 5.0.2
 _ZNK7QWindow4iconEv@Qt_5 5.0.2
 _ZNK7QWindow4maskEv@Qt_5 5.1.0
 _ZNK7QWindow4typeEv@Qt_5 5.0.2
 _ZNK7QWindow5flagsEv@Qt_5 5.0.2
 _ZNK7QWindow5titleEv@Qt_5 5.0.2
 _ZNK7QWindow5winIdEv@Qt_5 5.0.2
 _ZNK7QWindow6cursorEv@Qt_5 5.0.2
 _ZNK7QWindow6formatEv@Qt_5 5.0.2
 _ZNK7QWindow6handleEv@Qt_5 5.0.2
 _ZNK7QWindow6parentEv@Qt_5 5.0.2
 _ZNK7QWindow6screenEv@Qt_5 5.0.2
 _ZNK7QWindow7isModalEv@Qt_5 5.0.2
 _ZNK7QWindow7opacityEv@Qt_5 5.1.0
 _ZNK7QWindow8baseSizeEv@Qt_5 5.0.2
 _ZNK7QWindow8filePathEv@Qt_5 5.0.2
 _ZNK7QWindow8geometryEv@Qt_5 5.0.2
 _ZNK7QWindow8isActiveEv@Qt_5 5.0.2
 _ZNK7QWindow8modalityEv@Qt_5 5.0.2
 _ZNK7QWindow9isExposedEv@Qt_5 5.0.2
 _ZNK7QWindow9isVisibleEv@Qt_5 5.0.2
 _ZNK8QPainter10backgroundEv@Qt_5 5.0.2
 _ZNK8QPainter10clipRegionEv@Qt_5 5.0.2
 _ZNK8QPainter11brushOriginEv@Qt_5 5.0.2
 _ZNK8QPainter11fontMetricsEv@Qt_5 5.0.2
 _ZNK8QPainter11hasClippingEv@Qt_5 5.0.2
 _ZNK8QPainter11paintEngineEv@Qt_5 5.0.2
 _ZNK8QPainter11renderHintsEv@Qt_5 5.0.2
 _ZNK8QPainter11worldMatrixEv@Qt_5 5.0.2
 _ZNK8QPainter12deviceMatrixEv@Qt_5 5.0.2
 _ZNK8QPainter13matrixEnabledEv@Qt_5 5.0.2
 _ZNK8QPainter14backgroundModeEv@Qt_5 5.0.2
 _ZNK8QPainter14combinedMatrixEv@Qt_5 5.0.2
 _ZNK8QPainter14worldTransformEv@Qt_5 5.0.2
 _ZNK8QPainter15compositionModeEv@Qt_5 5.0.2
 _ZNK8QPainter15deviceTransformEv@Qt_5 5.0.2
 _ZNK8QPainter15layoutDirectionEv@Qt_5 5.0.2
 _ZNK8QPainter16clipBoundingRectEv@Qt_5 5.0.2
 _ZNK8QPainter17combinedTransformEv@Qt_5 5.0.2
 _ZNK8QPainter18worldMatrixEnabledEv@Qt_5 5.0.2
 _ZNK8QPainter20viewTransformEnabledEv@Qt_5 5.0.2
 _ZNK8QPainter3penEv@Qt_5 5.0.2
 _ZNK8QPainter4fontEv@Qt_5 5.0.2
 _ZNK8QPainter5brushEv@Qt_5 5.0.2
 _ZNK8QPainter6deviceEv@Qt_5 5.0.2
 _ZNK8QPainter6matrixEv@Qt_5 5.0.2
 _ZNK8QPainter6windowEv@Qt_5 5.0.2
 _ZNK8QPainter7opacityEv@Qt_5 5.0.2
 _ZNK8QPainter8clipPathEv@Qt_5 5.0.2
 _ZNK8QPainter8fontInfoEv@Qt_5 5.0.2
 _ZNK8QPainter8isActiveEv@Qt_5 5.0.2
 _ZNK8QPainter8viewportEv@Qt_5 5.0.2
 _ZNK8QPainter9transformEv@Qt_5 5.0.2
 _ZNK8QPalette10isBrushSetENS_10ColorGroupENS_9ColorRoleE@Qt_5 5.0.2
 _ZNK8QPalette5brushENS_10ColorGroupENS_9ColorRoleE@Qt_5 5.0.2
 _ZNK8QPalette7isEqualENS_10ColorGroupES0_@Qt_5 5.0.2
 _ZNK8QPalette7resolveERKS_@Qt_5 5.0.2
 _ZNK8QPalette8cacheKeyEv@Qt_5 5.0.2
 _ZNK8QPalette8isCopyOfERKS_@Qt_5 5.0.2
 _ZNK8QPalettecv8QVariantEv@Qt_5 5.0.2
 _ZNK8QPaletteeqERKS_@Qt_5 5.0.2
 _ZNK8QPicture10isDetachedEv@Qt_5 5.0.2
 _ZNK8QPicture11paintEngineEv@Qt_5 5.0.2
 _ZNK8QPicture12boundingRectEv@Qt_5 5.0.2
 _ZNK8QPicture4dataEv@Qt_5 5.0.2
 _ZNK8QPicture4sizeEv@Qt_5 5.0.2
 _ZNK8QPicture6isNullEv@Qt_5 5.0.2
 _ZNK8QPicture6metricEN12QPaintDevice17PaintDeviceMetricE@Qt_5 5.0.2
 _ZNK8QPicture7devTypeEv@Qt_5 5.0.2
 _ZNK8QPolygon10subtractedERKS_@Qt_5 5.0.2
 _ZNK8QPolygon10translatedEii@Qt_5 5.0.2
 _ZNK8QPolygon11intersectedERKS_@Qt_5 5.0.2
 _ZNK8QPolygon12boundingRectEv@Qt_5 5.0.2
 _ZNK8QPolygon13containsPointERK6QPointN2Qt8FillRuleE@Qt_5 5.0.2
 _ZNK8QPolygon5pointEiPiS0_@Qt_5 5.0.2
 _ZNK8QPolygon6unitedERKS_@Qt_5 5.0.2
 _ZNK8QPolygoncv8QVariantEv@Qt_5 5.0.2
 _ZNK8QRawFont10familyNameEv@Qt_5 5.0.2
 _ZNK8QRawFont10unitsPerEmEv@Qt_5 5.0.2
 _ZNK8QRawFont12boundingRectEj@Qt_5 5.0.2
 _ZNK8QRawFont12maxCharWidthEv@Qt_5 5.0.2
 _ZNK8QRawFont12pathForGlyphEj@Qt_5 5.0.2
 _ZNK8QRawFont13lineThicknessEv@Qt_5 5.0.2
 _ZNK8QRawFont16alphaMapForGlyphEjNS_16AntialiasingTypeERK10QTransform@Qt_5 5.0.2
 _ZNK8QRawFont16averageCharWidthEv@Qt_5 5.0.2
 _ZNK8QRawFont17hintingPreferenceEv@Qt_5 5.0.2
 _ZNK8QRawFont17supportsCharacterE5QChar@Qt_5 5.0.2
 _ZNK8QRawFont17supportsCharacterEj@Qt_5 5.0.2
 _ZNK8QRawFont17underlinePositionEv@Qt_5 5.0.2
 _ZNK8QRawFont20glyphIndexesForCharsEPK5QChariPjPi@Qt_5 5.0.2
 _ZNK8QRawFont21glyphIndexesForStringERK7QString@Qt_5 5.0.2
 _ZNK8QRawFont23advancesForGlyphIndexesEPKjP7QPointFi6QFlagsINS_10LayoutFlagEE@Qt_5 5.1.0
 _ZNK8QRawFont23advancesForGlyphIndexesEPKjP7QPointFi@Qt_5 5.0.2
 _ZNK8QRawFont23supportedWritingSystemsEv@Qt_5 5.0.2
 _ZNK8QRawFont5styleEv@Qt_5 5.0.2
 _ZNK8QRawFont6ascentEv@Qt_5 5.0.2
 _ZNK8QRawFont6weightEv@Qt_5 5.0.2
 _ZNK8QRawFont7descentEv@Qt_5 5.0.2
 _ZNK8QRawFont7isValidEv@Qt_5 5.0.2
 _ZNK8QRawFont7leadingEv@Qt_5 5.0.2
 _ZNK8QRawFont7xHeightEv@Qt_5 5.0.2
 _ZNK8QRawFont9fontTableEPKc@Qt_5 5.0.2
 _ZNK8QRawFont9pixelSizeEv@Qt_5 5.0.2
 _ZNK8QRawFont9styleNameEv@Qt_5 5.0.2
 _ZNK8QRawFonteqERKS_@Qt_5 5.0.2
 _ZNK8QSurface12surfaceClassEv@Qt_5 5.0.2
 _ZNK8QSurface14supportsOpenGLEv@Qt_5 5.3.0
 _ZNK9QFontInfo10exactMatchEv@Qt_5 5.0.2
 _ZNK9QFontInfo10fixedPitchEv@Qt_5 5.0.2
 _ZNK9QFontInfo10pointSizeFEv@Qt_5 5.0.2
 _ZNK9QFontInfo5styleEv@Qt_5 5.0.2
 _ZNK9QFontInfo6familyEv@Qt_5 5.0.2
 _ZNK9QFontInfo6italicEv@Qt_5 5.0.2
 _ZNK9QFontInfo6weightEv@Qt_5 5.0.2
 _ZNK9QFontInfo7rawModeEv@Qt_5 5.0.2
 _ZNK9QFontInfo8overlineEv@Qt_5 5.0.2
 _ZNK9QFontInfo9pixelSizeEv@Qt_5 5.0.2
 _ZNK9QFontInfo9pointSizeEv@Qt_5 5.0.2
 _ZNK9QFontInfo9strikeOutEv@Qt_5 5.0.2
 _ZNK9QFontInfo9styleHintEv@Qt_5 5.0.2
 _ZNK9QFontInfo9styleNameEv@Qt_5 5.0.2
 _ZNK9QFontInfo9underlineEv@Qt_5 5.0.2
 _ZNK9QGlyphRun12boundingRectEv@Qt_5 5.0.2
 _ZNK9QGlyphRun12glyphIndexesEv@Qt_5 5.0.2
 _ZNK9QGlyphRun13isRightToLeftEv@Qt_5 5.0.2
 _ZNK9QGlyphRun5flagsEv@Qt_5 5.0.2
 _ZNK9QGlyphRun7isEmptyEv@Qt_5 5.0.2
 _ZNK9QGlyphRun7rawFontEv@Qt_5 5.0.2
 _ZNK9QGlyphRun8overlineEv@Qt_5 5.0.2
 _ZNK9QGlyphRun9positionsEv@Qt_5 5.0.2
 _ZNK9QGlyphRun9strikeOutEv@Qt_5 5.0.2
 _ZNK9QGlyphRun9underlineEv@Qt_5 5.0.2
 _ZNK9QGlyphRuneqERKS_@Qt_5 5.0.2
 _ZNK9QGradient14coordinateModeEv@Qt_5 5.0.2
 _ZNK9QGradient17interpolationModeEv@Qt_5 5.0.2
 _ZNK9QGradient5stopsEv@Qt_5 5.0.2
 _ZNK9QGradienteqERKS_@Qt_5 5.0.2
 _ZNK9QKeyEvent7matchesEN12QKeySequence11StandardKeyE@Qt_5 5.0.2
 _ZNK9QKeyEvent9modifiersEv@Qt_5 5.0.2
 _ZNK9QPageSize10rectPixelsEi@Qt_5 5.3.0
 _ZNK9QPageSize10rectPointsEv@Qt_5 5.3.0
 _ZNK9QPageSize10sizePixelsEi@Qt_5 5.3.0
 _ZNK9QPageSize10sizePointsEv@Qt_5 5.3.0
 _ZNK9QPageSize14definitionSizeEv@Qt_5 5.3.0
 _ZNK9QPageSize14isEquivalentToERKS_@Qt_5 5.3.0
 _ZNK9QPageSize15definitionUnitsEv@Qt_5 5.3.0
 _ZNK9QPageSize2idEv@Qt_5 5.3.0
 _ZNK9QPageSize3keyEv@Qt_5 5.3.0
 _ZNK9QPageSize4nameEv@Qt_5 5.3.0
 _ZNK9QPageSize4rectENS_4UnitE@Qt_5 5.3.0
 _ZNK9QPageSize4sizeENS_4UnitE@Qt_5 5.3.0
 _ZNK9QPageSize7isValidEv@Qt_5 5.3.0
 _ZNK9QPageSize9windowsIdEv@Qt_5 5.3.0
 _ZNK9QPolygonF10subtractedERKS_@Qt_5 5.0.2
 _ZNK9QPolygonF10translatedERK7QPointF@Qt_5 5.0.2
 _ZNK9QPolygonF11intersectedERKS_@Qt_5 5.0.2
 _ZNK9QPolygonF12boundingRectEv@Qt_5 5.0.2
 _ZNK9QPolygonF13containsPointERK7QPointFN2Qt8FillRuleE@Qt_5 5.0.2
 _ZNK9QPolygonF6unitedERKS_@Qt_5 5.0.2
 _ZNK9QPolygonF9toPolygonEv@Qt_5 5.0.2
 _ZNK9QPolygonFcv8QVariantEv@Qt_5 5.0.2
 _ZNK9QTextItem11renderFlagsEv@Qt_5 5.0.2
 _ZNK9QTextItem4fontEv@Qt_5 5.0.2
 _ZNK9QTextItem4textEv@Qt_5 5.0.2
 _ZNK9QTextItem5widthEv@Qt_5 5.0.2
 _ZNK9QTextItem6ascentEv@Qt_5 5.0.2
 _ZNK9QTextItem7descentEv@Qt_5 5.0.2
 _ZNK9QTextLine10textLengthEv@Qt_5 5.0.2
 _ZNK9QTextLine15leadingIncludedEv@Qt_5 5.0.2
 _ZNK9QTextLine15naturalTextRectEv@Qt_5 5.0.2
 _ZNK9QTextLine16naturalTextWidthEv@Qt_5 5.0.2
 _ZNK9QTextLine17horizontalAdvanceEv@Qt_5 5.0.2
 _ZNK9QTextLine1xEv@Qt_5 5.0.2
 _ZNK9QTextLine1yEv@Qt_5 5.0.2
 _ZNK9QTextLine4drawEP8QPainterRK7QPointFPKN11QTextLayout11FormatRangeE@Qt_5 5.0.2
 _ZNK9QTextLine4rectEv@Qt_5 5.0.2
 _ZNK9QTextLine5widthEv@Qt_5 5.0.2
 _ZNK9QTextLine6ascentEv@Qt_5 5.0.2
 _ZNK9QTextLine6heightEv@Qt_5 5.0.2
 _ZNK9QTextLine7descentEv@Qt_5 5.0.2
 _ZNK9QTextLine7leadingEv@Qt_5 5.0.2
 _ZNK9QTextLine8positionEv@Qt_5 5.0.2
 _ZNK9QTextLine9cursorToXEPiNS_4EdgeE@Qt_5 5.0.2
 _ZNK9QTextLine9glyphRunsEii@Qt_5 5.0.2
 _ZNK9QTextLine9textStartEv@Qt_5 5.0.2
 _ZNK9QTextLine9xToCursorEdNS_14CursorPositionE@Qt_5 5.2.0
 _ZNK9QTextList10itemNumberERK10QTextBlock@Qt_5 5.0.2
 _ZNK9QTextList10metaObjectEv@Qt_5 5.0.2
 _ZNK9QTextList4itemEi@Qt_5 5.0.2
 _ZNK9QTextList5countEv@Qt_5 5.0.2
 _ZNK9QTextList8itemTextERK10QTextBlock@Qt_5 5.0.2
 _ZNK9QVector2D10normalizedEv@Qt_5 5.0.2
 _ZNK9QVector2D10toVector3DEv@Qt_5 5.0.2
 _ZNK9QVector2D10toVector4DEv@Qt_5 5.0.2
 _ZNK9QVector2D13lengthSquaredEv@Qt_5 5.0.2
 _ZNK9QVector2D14distanceToLineERKS_S1_@Qt_5 5.1.0
 _ZNK9QVector2D15distanceToPointERKS_@Qt_5 5.1.0
 _ZNK9QVector2D6lengthEv@Qt_5 5.0.2
 _ZNK9QVector2Dcv8QVariantEv@Qt_5 5.0.2
 _ZNK9QVector3D10normalizedEv@Qt_5 5.0.2
 _ZNK9QVector3D10toVector2DEv@Qt_5 5.0.2
 _ZNK9QVector3D10toVector4DEv@Qt_5 5.0.2
 _ZNK9QVector3D13lengthSquaredEv@Qt_5 5.0.2
 _ZNK9QVector3D14distanceToLineERKS_S1_@Qt_5 5.0.2
 _ZNK9QVector3D15distanceToPlaneERKS_S1_@Qt_5 5.0.2
 _ZNK9QVector3D15distanceToPlaneERKS_S1_S1_@Qt_5 5.0.2
 _ZNK9QVector3D15distanceToPointERKS_@Qt_5 5.1.0
 _ZNK9QVector3D6lengthEv@Qt_5 5.0.2
 _ZNK9QVector3D7projectERK10QMatrix4x4S2_RK5QRect@Qt_5 5.5.0
 _ZNK9QVector3D9unprojectERK10QMatrix4x4S2_RK5QRect@Qt_5 5.5.0
 _ZNK9QVector3Dcv8QVariantEv@Qt_5 5.0.2
 _ZNK9QVector4D10normalizedEv@Qt_5 5.0.2
 _ZNK9QVector4D10toVector2DEv@Qt_5 5.0.2
 _ZNK9QVector4D10toVector3DEv@Qt_5 5.0.2
 _ZNK9QVector4D13lengthSquaredEv@Qt_5 5.0.2
 _ZNK9QVector4D16toVector2DAffineEv@Qt_5 5.0.2
 _ZNK9QVector4D16toVector3DAffineEv@Qt_5 5.0.2
 _ZNK9QVector4D6lengthEv@Qt_5 5.0.2
 _ZNK9QVector4Dcv8QVariantEv@Qt_5 5.0.2
 (optional=templinst|arch=armel armhf hurd-i386 i386 kfreebsd-i386 m68k mips mipsel powerpc powerpcspe)_ZSt4swapIN8QVariant7PrivateEENSt9enable_ifIXsrSt6__and_IJSt21is_move_constructibleIT_ESt18is_move_assignableIS5_EEE5valueEvE4typeERS5_SC_@Qt_5 5.7.1
 _ZTI10QBasicDrag@Qt_5_PRIVATE_API 5.1.0 1
 _ZTI10QBlittable@Qt_5_PRIVATE_API 5.0.2 1
 _ZTI10QClipboard@Qt_5 5.0.2
 _ZTI10QDropEvent@Qt_5 5.0.2
 _ZTI10QHelpEvent@Qt_5 5.0.2
 _ZTI10QHideEvent@Qt_5 5.0.2
 _ZTI10QKeyMapper@Qt_5_PRIVATE_API 5.0.2 1
 _ZTI10QMoveEvent@Qt_5 5.0.2
 _ZTI10QPdfEngine@Qt_5_PRIVATE_API 5.0.2 1
 _ZTI10QPdfWriter@Qt_5 5.0.2
 _ZTI10QShowEvent@Qt_5 5.0.2
 _ZTI10QTextFrame@Qt_5 5.0.2
 _ZTI10QTextTable@Qt_5 5.0.2
 _ZTI10QValidator@Qt_5 5.0.2
 _ZTI11QCloseEvent@Qt_5 5.0.2
 _ZTI11QEnterEvent@Qt_5 5.0.2
 _ZTI11QFocusEvent@Qt_5 5.0.2
 _ZTI11QFontEngine@Qt_5_PRIVATE_API 5.0.2 1
 _ZTI11QHoverEvent@Qt_5 5.0.2
 _ZTI11QIconEngine@Qt_5 5.0.2
 _ZTI11QInputEvent@Qt_5 5.0.2
 _ZTI11QMouseEvent@Qt_5 5.0.2
 _ZTI11QPaintEvent@Qt_5 5.0.2
 _ZTI11QSharedData@Qt_5 5.0.2
 _ZTI11QSimpleDrag@Qt_5_PRIVATE_API 5.1.0 1
 _ZTI11QStrokerOps@Qt_5_PRIVATE_API 5.0.2 1
 _ZTI11QStyleHints@Qt_5 5.0.2
 _ZTI11QTextObject@Qt_5 5.0.2
 _ZTI11QTouchEvent@Qt_5 5.0.2
 _ZTI11QWheelEvent@Qt_5 5.0.2
 _ZTI12QActionEvent@Qt_5 5.0.2
 _ZTI12QDashStroker@Qt_5_PRIVATE_API 5.0.2 1
 _ZTI12QDragManager@Qt_5_PRIVATE_API 5.0.2 1
 _ZTI12QExposeEvent@Qt_5 5.0.2
 _ZTI12QInputMethod@Qt_5 5.0.2
 _ZTI12QPaintDevice@Qt_5 5.0.2
 _ZTI12QPaintEngine@Qt_5 5.0.2
 _ZTI12QResizeEvent@Qt_5 5.0.2
 _ZTI12QScrollEvent@Qt_5 5.0.2
 _ZTI12QTabletEvent@Qt_5 5.0.2
 _ZTI13QIntValidator@Qt_5 5.0.2
 _ZTI13QOpenGLShader@Qt_5 5.0.2
 _ZTI13QOpenGLWindow@Qt_5 5.4.0
 _ZTI13QPainterState@Qt_5_PRIVATE_API 5.0.2 1
 _ZTI13QPlatformDrag@Qt_5 5.0.2
 _ZTI13QPlatformMenu@Qt_5 5.0.2
 _ZTI13QRasterWindow@Qt_5 5.4.0
 _ZTI13QStandardItem@Qt_5 5.0.2
 _ZTI13QTextDocument@Qt_5 5.0.2
 _ZTI14QDragMoveEvent@Qt_5 5.0.2
 _ZTI14QFileOpenEvent@Qt_5 5.0.2
 _ZTI14QGenericPlugin@Qt_5 5.0.2
 _ZTI14QIconDragEvent@Qt_5 5.0.2
 _ZTI14QImageIOPlugin@Qt_5 5.0.2
 _ZTI14QOpenGLContext@Qt_5 5.0.2
 _ZTI14QPaintEngineEx@Qt_5_PRIVATE_API 5.0.2 1
 _ZTI14QPlatformTheme@Qt_5 5.0.2
 _ZTI14QShortcutEvent@Qt_5 5.0.2
 _ZTI14QWindowPrivate@Qt_5_PRIVATE_API 5.0.2 1
 _ZTI15QDragEnterEvent@Qt_5 5.0.2
 _ZTI15QDragLeaveEvent@Qt_5 5.0.2
 _ZTI15QFontEngineQPF2@Qt_5_PRIVATE_API 5.4.0 1
 _ZTI15QGridLayoutItem@Qt_5_PRIVATE_API 5.3.0 1
 _ZTI15QGuiApplication@Qt_5 5.0.2
 _ZTI15QImageIOHandler@Qt_5 5.0.2
 _ZTI15QPlatformCursor@Qt_5 5.0.2
 _ZTI15QPlatformPixmap@Qt_5 5.0.2
 _ZTI15QPlatformScreen@Qt_5 5.0.2
 _ZTI15QPlatformWindow@Qt_5 5.0.2
 _ZTI15QSessionManager@Qt_5 5.0.2
 _ZTI15QStatusTipEvent@Qt_5 5.0.2
 _ZTI15QTextBlockGroup@Qt_5 5.0.2
 _ZTI16QAccessibleCache@Qt_5_PRIVATE_API 5.3.0 1
 _ZTI16QAccessibleEvent@Qt_5 5.0.2
 _ZTI16QDoubleValidator@Qt_5 5.0.2
 _ZTI16QFontEngineMulti@Qt_5_PRIVATE_API 5.0.2 1
 _ZTI16QPlatformMenuBar@Qt_5 5.0.2
 _ZTI16QPlatformSurface@Qt_5 5.0.2
 _ZTI16QRegExpValidator@Qt_5 5.0.2
 _ZTI17QAccessibleObject@Qt_5 5.0.2
 _ZTI17QAccessiblePlugin@Qt_5 5.0.2
 _ZTI17QContextMenuEvent@Qt_5 5.0.2
 _ZTI17QIconEnginePlugin@Qt_5 5.0.2
 _ZTI17QInputMethodEvent@Qt_5 5.0.2
 _ZTI17QInternalMimeData@Qt_5_PRIVATE_API 5.0.2 1
 _ZTI17QOffscreenSurface@Qt_5 5.1.0
 (arch=!armel !armhf)_ZTI17QOpenGLTimerQuery@Qt_5 5.1.0
 _ZTI17QPagedPaintDevice@Qt_5 5.0.2
 _ZTI17QPaintEngineState@Qt_5 5.0.2
 _ZTI17QPdfEnginePrivate@Qt_5_PRIVATE_API 5.0.2 1
 _ZTI17QPixmapIconEngine@Qt_5_PRIVATE_API 5.5.0 1
 _ZTI17QPlatformMenuItem@Qt_5 5.0.2
 _ZTI17QPlatformServices@Qt_5 5.0.2
 _ZTI17QTextImageHandler@Qt_5_PRIVATE_API 5.0.2 1
 _ZTI18QOpenGLDebugLogger@Qt_5 5.1.0
 _ZTI18QOpenGLPaintDevice@Qt_5 5.0.2
 (arch=!armel !armhf)_ZTI18QOpenGLTimeMonitor@Qt_5 5.1.0
 _ZTI18QPaintDeviceWindow@Qt_5 5.4.0
 _ZTI18QPlatformClipboard@Qt_5 5.0.2
 _ZTI18QRasterPaintEngine@Qt_5_PRIVATE_API 5.0.2 1
 _ZTI18QStandardItemModel@Qt_5 5.0.2
 _ZTI18QSyntaxHighlighter@Qt_5 5.0.2
 _ZTI18QTextBlockUserData@Qt_5 5.0.2
 _ZTI18QTextureGlyphCache@Qt_5_PRIVATE_API 5.0.2 1
 _ZTI19QBlitterPaintEngine@Qt_5_PRIVATE_API 5.0.2 1
 _ZTI19QInputDeviceManager@Qt_5_PRIVATE_API 5.5.0 1
 _ZTI19QNativeGestureEvent@Qt_5 5.2.0~beta1
 _ZTI19QOpenGLContextGroup@Qt_5 5.0.2
 _ZTI19QOpenGLTextureCache@Qt_5_PRIVATE_API 5.0.2 1
 _ZTI19QPaintEnginePrivate@Qt_5_PRIVATE_API 5.0.2 1
 _ZTI19QScrollPrepareEvent@Qt_5 5.0.2
 _ZTI19QStaticTextUserData@Qt_5_PRIVATE_API 5.6.0~beta 1
 _ZTI19QTextDocumentLayout@Qt_5_PRIVATE_API 5.0.2 1
 _ZTI19QToolBarChangeEvent@Qt_5 5.0.2
 _ZTI20QAccessibleInterface@Qt_5 5.0.2
 (arch=!armel !armhf)_ZTI20QOpenGLFunctions_1_0@Qt_5 5.1.0
 (arch=!armel !armhf)_ZTI20QOpenGLFunctions_1_1@Qt_5 5.1.0
 (arch=!armel !armhf)_ZTI20QOpenGLFunctions_1_2@Qt_5 5.1.0
 (arch=!armel !armhf)_ZTI20QOpenGLFunctions_1_3@Qt_5 5.1.0
 (arch=!armel !armhf)_ZTI20QOpenGLFunctions_1_4@Qt_5 5.1.0
 (arch=!armel !armhf)_ZTI20QOpenGLFunctions_1_5@Qt_5 5.1.0
 (arch=!armel !armhf)_ZTI20QOpenGLFunctions_2_0@Qt_5 5.1.0
 (arch=!armel !armhf)_ZTI20QOpenGLFunctions_2_1@Qt_5 5.1.0
 (arch=!armel !armhf)_ZTI20QOpenGLFunctions_3_0@Qt_5 5.1.0
 (arch=!armel !armhf)_ZTI20QOpenGLFunctions_3_1@Qt_5 5.1.0
 (arch=armel armhf)_ZTI20QOpenGLFunctions_ES2@Qt_5 5.2.0
 _ZTI20QOpenGLShaderProgram@Qt_5 5.0.2
 _ZTI20QPictureFormatPlugin@Qt_5 5.0.2
 _ZTI20QPlatformIntegration@Qt_5 5.0.2
 _ZTI20QPlatformTextureList@Qt_5 5.3.0
 _ZTI20QPlatformThemePlugin@Qt_5 5.0.2
 _ZTI20QTextFrameLayoutData@Qt_5 5.0.2
 _ZTI20QTextObjectInterface@Qt_5 5.0.2
 _ZTI21QFontEngineGlyphCache@Qt_5_PRIVATE_API 5.6.0~beta 1
 _ZTI21QOpenGL2PaintEngineEx@Qt_5_PRIVATE_API 5.0.2 1
 _ZTI21QOpenGLContextPrivate@Qt_5_PRIVATE_API 5.0.2 1
 _ZTI21QOpenGLSharedResource@Qt_5_PRIVATE_API 5.6.0~beta 1
 _ZTI21QPaintEngineExPrivate@Qt_5_PRIVATE_API 5.0.2 1
 _ZTI21QPlatformBackingStore@Qt_5 5.0.2
 _ZTI21QPlatformDialogHelper@Qt_5 5.0.2
 _ZTI21QPlatformFontDatabase@Qt_5 5.0.2
 _ZTI21QPlatformInputContext@Qt_5 5.0.2
 _ZTI21QPlatformSurfaceEvent@Qt_5 5.5.0
 _ZTI21QPlatformThemePrivate@Qt_5 5.1.0
 _ZTI21QRasterPlatformPixmap@Qt_5_PRIVATE_API 5.0.2 1
 _ZTI22QAccessibleApplication@Qt_5 5.0.2
 _ZTI22QGuiApplicationPrivate@Qt_5_PRIVATE_API 5.0.2 1
 _ZTI22QInputMethodQueryEvent@Qt_5 5.0.2
 _ZTI22QPlatformAccessibility@Qt_5 5.0.2
 _ZTI22QPlatformOpenGLContext@Qt_5 5.0.2
 _ZTI22QWhatsThisClickedEvent@Qt_5 5.0.2
 _ZTI23QAccessibleBridgePlugin@Qt_5 5.0.2
 _ZTI23QImageTextureGlyphCache@Qt_5_PRIVATE_API 5.0.2 1
 _ZTI23QPlatformGraphicsBuffer@Qt_5 5.5.0
 _ZTI23QPlatformSessionManager@Qt_5 5.2.0~alpha1
 _ZTI23QPlatformSystemTrayIcon@Qt_5 5.0.2
 _ZTI23QWindowStateChangeEvent@Qt_5 5.0.2
 _ZTI24QAbstractOpenGLFunctions@Qt_5 5.5.0
 _ZTI24QAccessibleTextInterface@Qt_5 5.0.2
 _ZTI24QBlittablePlatformPixmap@Qt_5 5.0.2
 _ZTI24QOffscreenSurfacePrivate@Qt_5 5.1.0
 _ZTI24QOpenGLCustomShaderStage@Qt_5_PRIVATE_API 5.0.2 1
 _ZTI24QOpenGLFramebufferObject@Qt_5 5.0.2
 _ZTI24QOpenGLTextureGlyphCache@Qt_5_PRIVATE_API 5.0.2 1
 _ZTI24QOpenGLVertexArrayObject@Qt_5 5.1.0
 _ZTI24QPagedPaintDevicePrivate@Qt_5_PRIVATE_API 5.3.0 1
 _ZTI24QPlatformNativeInterface@Qt_5 5.0.2
 _ZTI25QAccessibleImageInterface@Qt_5 5.6.0~beta
 _ZTI25QAccessibleTableInterface@Qt_5 5.6.0~beta
 _ZTI25QAccessibleValueInterface@Qt_5 5.6.0~beta
 (arch=!armel !armhf)_ZTI25QOpenGLFunctions_3_2_Core@Qt_5 5.1.0
 (arch=!armel !armhf)_ZTI25QOpenGLFunctions_3_3_Core@Qt_5 5.1.0
 (arch=!armel !armhf)_ZTI25QOpenGLFunctions_4_0_Core@Qt_5 5.1.0
 (arch=!armel !armhf)_ZTI25QOpenGLFunctions_4_1_Core@Qt_5 5.1.0
 (arch=!armel !armhf)_ZTI25QOpenGLFunctions_4_2_Core@Qt_5 5.1.0
 (arch=!armel !armhf)_ZTI25QOpenGLFunctions_4_3_Core@Qt_5 5.1.0
 (arch=!armel !armhf)_ZTI25QOpenGLFunctions_4_4_Core@Qt_5 5.5.0
 (arch=!armel !armhf)_ZTI25QOpenGLFunctions_4_5_Core@Qt_5 5.5.0
 _ZTI25QOpenGLPaintDevicePrivate@Qt_5_PRIVATE_API 5.4.0 1
 _ZTI25QPaintDeviceWindowPrivate@Qt_5_PRIVATE_API 5.4.0 1
 _ZTI25QPlatformFileDialogHelper@Qt_5 5.0.2
 _ZTI25QPlatformFontDialogHelper@Qt_5 5.0.2
 _ZTI25QPlatformOffscreenSurface@Qt_5 5.1.0
 _ZTI25QWindowSystemEventHandler@Qt_5 5.6.0~beta
 _ZTI26QAccessibleActionInterface@Qt_5 5.0.2
 _ZTI26QAccessibleTextCursorEvent@Qt_5 5.6.0~beta
 _ZTI26QAccessibleTextInsertEvent@Qt_5 5.6.0~beta
 _ZTI26QAccessibleTextRemoveEvent@Qt_5 5.6.0~beta
 _ZTI26QAccessibleTextUpdateEvent@Qt_5 5.6.0~beta
 _ZTI26QInputDeviceManagerPrivate@Qt_5_PRIVATE_API 5.5.0 1
 _ZTI26QOpenGLContextGroupPrivate@Qt_5_PRIVATE_API 5.0.2 1
 _ZTI26QOpenGLEngineShaderManager@Qt_5_PRIVATE_API 5.0.2 1
 _ZTI26QOpenGLSharedResourceGuard@Qt_5_PRIVATE_API 5.0.2 1
 _ZTI26QPlatformColorDialogHelper@Qt_5 5.0.2
 _ZTI26QPlatformIntegrationPlugin@Qt_5 5.0.2
 _ZTI27QAbstractTextDocumentLayout@Qt_5 5.0.2
 _ZTI27QAccessibleStateChangeEvent@Qt_5 5.0.2
 _ZTI27QAccessibleValueChangeEvent@Qt_5 5.6.0~beta
 _ZTI27QPlatformInputContextPlugin@Qt_5 5.0.2
 _ZTI27QRegularExpressionValidator@Qt_5 5.1.0
 _ZTI28QApplicationStateChangeEvent@Qt_5 5.1.0
 _ZTI28QPlatformMessageDialogHelper@Qt_5 5.2.0~alpha1
 _ZTI28QPlatformSharedGraphicsCache@Qt_5 5.0.2
 _ZTI29QAccessibleTableCellInterface@Qt_5 5.6.0~beta
 _ZTI29QAccessibleTextSelectionEvent@Qt_5 5.6.0~beta
 _ZTI29QScreenOrientationChangeEvent@Qt_5 5.0.2
 _ZTI32QAccessibleEditableTextInterface@Qt_5 5.6.0~beta
 _ZTI32QAccessibleTableModelChangeEvent@Qt_5 5.6.0~beta
 _ZTI34QAbstractTextDocumentLayoutPrivate@Qt_5_PRIVATE_API 5.6.0~beta 1
 (arch=!armel !armhf)_ZTI34QOpenGLFunctions_3_2_Compatibility@Qt_5 5.1.0
 (arch=!armel !armhf)_ZTI34QOpenGLFunctions_3_3_Compatibility@Qt_5 5.1.0
 (arch=!armel !armhf)_ZTI34QOpenGLFunctions_4_0_Compatibility@Qt_5 5.1.0
 (arch=!armel !armhf)_ZTI34QOpenGLFunctions_4_1_Compatibility@Qt_5 5.1.0
 (arch=!armel !armhf)_ZTI34QOpenGLFunctions_4_2_Compatibility@Qt_5 5.1.0
 (arch=!armel !armhf)_ZTI34QOpenGLFunctions_4_3_Compatibility@Qt_5 5.1.0
 (arch=!armel !armhf)_ZTI34QOpenGLFunctions_4_4_Compatibility@Qt_5 5.5.0
 (arch=!armel !armhf)_ZTI34QOpenGLFunctions_4_5_Compatibility@Qt_5 5.5.0
 _ZTI5QDrag@Qt_5 5.0.2
 _ZTI6QImage@Qt_5 5.0.2
 _ZTI6QMovie@Qt_5 5.0.2
 _ZTI7QBitmap@Qt_5 5.0.2
 _ZTI7QPixmap@Qt_5 5.0.2
 _ZTI7QScreen@Qt_5 5.0.2
 _ZTI7QWindow@Qt_5 5.0.2
 _ZTI8QPicture@Qt_5 5.0.2
 _ZTI8QStroker@Qt_5_PRIVATE_API 5.0.2 1
 _ZTI8QSurface@Qt_5 5.0.2
 _ZTI9QKeyEvent@Qt_5 5.0.2
 _ZTI9QTextList@Qt_5 5.0.2
 _ZTIN11QAccessible18ActivationObserverE@Qt_5 5.6.0~beta
 _ZTIN29QWindowSystemInterfacePrivate10CloseEventE@Qt_5 5.0.2
 _ZTIN29QWindowSystemInterfacePrivate10EnterEventE@Qt_5 5.0.2
 _ZTIN29QWindowSystemInterfacePrivate10InputEventE@Qt_5 5.0.2
 _ZTIN29QWindowSystemInterfacePrivate10LeaveEventE@Qt_5 5.0.2
 _ZTIN29QWindowSystemInterfacePrivate10MouseEventE@Qt_5 5.0.2
 _ZTIN29QWindowSystemInterfacePrivate10TouchEventE@Qt_5 5.0.2
 _ZTIN29QWindowSystemInterfacePrivate10WheelEventE@Qt_5 5.0.2
 _ZTIN29QWindowSystemInterfacePrivate11ExposeEventE@Qt_5 5.0.2
 _ZTIN29QWindowSystemInterfacePrivate11TabletEventE@Qt_5 5.0.2
 _ZTIN29QWindowSystemInterfacePrivate12GestureEventE@Qt_5 5.2.0~beta1
 _ZTIN29QWindowSystemInterfacePrivate13FileOpenEventE@Qt_5 5.0.2
 _ZTIN29QWindowSystemInterfacePrivate16ContextMenuEventE@Qt_5 5.0.2
 _ZTIN29QWindowSystemInterfacePrivate16FlushEventsEventE@Qt_5 5.1.0
 _ZTIN29QWindowSystemInterfacePrivate16ThemeChangeEventE@Qt_5 5.0.2
 _ZTIN29QWindowSystemInterfacePrivate17WindowSystemEventE@Qt_5 5.0.2
 _ZTIN29QWindowSystemInterfacePrivate18PlatformPanelEventE@Qt_5 5.0.2
 _ZTIN29QWindowSystemInterfacePrivate19GeometryChangeEventE@Qt_5 5.0.2
 _ZTIN29QWindowSystemInterfacePrivate19ScreenGeometryEventE@Qt_5 5.0.2
 _ZTIN29QWindowSystemInterfacePrivate20ActivatedWindowEventE@Qt_5 5.0.2
 _ZTIN29QWindowSystemInterfacePrivate22ScreenOrientationEventE@Qt_5 5.0.2
 _ZTIN29QWindowSystemInterfacePrivate22ScreenRefreshRateEventE@Qt_5 5.0.2
 _ZTIN29QWindowSystemInterfacePrivate23WindowStateChangedEventE@Qt_5 5.0.2
 _ZTIN29QWindowSystemInterfacePrivate24WindowScreenChangedEventE@Qt_5 5.1.0
 _ZTIN29QWindowSystemInterfacePrivate25TabletEnterProximityEventE@Qt_5 5.0.2
 _ZTIN29QWindowSystemInterfacePrivate25TabletLeaveProximityEventE@Qt_5 5.0.2
 _ZTIN29QWindowSystemInterfacePrivate28ApplicationStateChangedEventE@Qt_5 5.1.0
 _ZTIN29QWindowSystemInterfacePrivate29ScreenLogicalDotsPerInchEventE@Qt_5 5.0.2
 _ZTIN29QWindowSystemInterfacePrivate8KeyEventE@Qt_5 5.0.2
 _ZTIN29QWindowSystemInterfacePrivate9UserEventE@Qt_5 5.0.2
 _ZTIN4QCss13StyleSelectorE@Qt_5_PRIVATE_API 5.0.2 1
 _ZTS10QBasicDrag@Qt_5_PRIVATE_API 5.1.0 1
 _ZTS10QBlittable@Qt_5_PRIVATE_API 5.0.2 1
 _ZTS10QClipboard@Qt_5 5.0.2
 _ZTS10QDropEvent@Qt_5 5.0.2
 _ZTS10QHelpEvent@Qt_5 5.0.2
 _ZTS10QHideEvent@Qt_5 5.0.2
 _ZTS10QKeyMapper@Qt_5_PRIVATE_API 5.0.2 1
 _ZTS10QMoveEvent@Qt_5 5.0.2
 _ZTS10QPdfEngine@Qt_5_PRIVATE_API 5.0.2 1
 _ZTS10QPdfWriter@Qt_5 5.0.2
 _ZTS10QShowEvent@Qt_5 5.0.2
 _ZTS10QTextFrame@Qt_5 5.0.2
 _ZTS10QTextTable@Qt_5 5.0.2
 _ZTS10QValidator@Qt_5 5.0.2
 _ZTS11QCloseEvent@Qt_5 5.0.2
 _ZTS11QEnterEvent@Qt_5 5.0.2
 _ZTS11QFocusEvent@Qt_5 5.0.2
 _ZTS11QFontEngine@Qt_5_PRIVATE_API 5.0.2 1
 _ZTS11QHoverEvent@Qt_5 5.0.2
 _ZTS11QIconEngine@Qt_5 5.0.2
 _ZTS11QInputEvent@Qt_5 5.0.2
 _ZTS11QMouseEvent@Qt_5 5.0.2
 _ZTS11QPaintEvent@Qt_5 5.0.2
 _ZTS11QSharedData@Qt_5 5.0.2
 _ZTS11QSimpleDrag@Qt_5_PRIVATE_API 5.1.0 1
 _ZTS11QStrokerOps@Qt_5_PRIVATE_API 5.0.2 1
 _ZTS11QStyleHints@Qt_5 5.0.2
 _ZTS11QTextObject@Qt_5 5.0.2
 _ZTS11QTouchEvent@Qt_5 5.0.2
 _ZTS11QWheelEvent@Qt_5 5.0.2
 _ZTS12QActionEvent@Qt_5 5.0.2
 _ZTS12QDashStroker@Qt_5_PRIVATE_API 5.0.2 1
 _ZTS12QDragManager@Qt_5_PRIVATE_API 5.0.2 1
 _ZTS12QExposeEvent@Qt_5 5.0.2
 _ZTS12QInputMethod@Qt_5 5.0.2
 _ZTS12QPaintDevice@Qt_5 5.0.2
 _ZTS12QPaintEngine@Qt_5 5.0.2
 _ZTS12QResizeEvent@Qt_5 5.0.2
 _ZTS12QScrollEvent@Qt_5 5.0.2
 _ZTS12QTabletEvent@Qt_5 5.0.2
 _ZTS13QIntValidator@Qt_5 5.0.2
 _ZTS13QOpenGLShader@Qt_5 5.0.2
 _ZTS13QOpenGLWindow@Qt_5 5.4.0
 _ZTS13QPainterState@Qt_5_PRIVATE_API 5.0.2 1
 _ZTS13QPlatformDrag@Qt_5 5.0.2
 _ZTS13QPlatformMenu@Qt_5 5.0.2
 _ZTS13QRasterWindow@Qt_5 5.4.0
 _ZTS13QStandardItem@Qt_5 5.0.2
 _ZTS13QTextDocument@Qt_5 5.0.2
 _ZTS14QDragMoveEvent@Qt_5 5.0.2
 _ZTS14QFileOpenEvent@Qt_5 5.0.2
 _ZTS14QGenericPlugin@Qt_5 5.0.2
 _ZTS14QIconDragEvent@Qt_5 5.0.2
 _ZTS14QImageIOPlugin@Qt_5 5.0.2
 _ZTS14QOpenGLContext@Qt_5 5.0.2
 _ZTS14QPaintEngineEx@Qt_5_PRIVATE_API 5.0.2 1
 _ZTS14QPlatformTheme@Qt_5 5.0.2
 _ZTS14QShortcutEvent@Qt_5 5.0.2
 _ZTS14QWindowPrivate@Qt_5_PRIVATE_API 5.0.2 1
 _ZTS15QDragEnterEvent@Qt_5 5.0.2
 _ZTS15QDragLeaveEvent@Qt_5 5.0.2
 _ZTS15QFontEngineQPF2@Qt_5_PRIVATE_API 5.4.0 1
 _ZTS15QGridLayoutItem@Qt_5_PRIVATE_API 5.3.0 1
 _ZTS15QGuiApplication@Qt_5 5.0.2
 _ZTS15QImageIOHandler@Qt_5 5.0.2
 _ZTS15QPlatformCursor@Qt_5 5.0.2
 _ZTS15QPlatformPixmap@Qt_5 5.0.2
 _ZTS15QPlatformScreen@Qt_5 5.0.2
 _ZTS15QPlatformWindow@Qt_5 5.0.2
 _ZTS15QSessionManager@Qt_5 5.0.2
 _ZTS15QStatusTipEvent@Qt_5 5.0.2
 _ZTS15QTextBlockGroup@Qt_5 5.0.2
 _ZTS16QAccessibleCache@Qt_5_PRIVATE_API 5.3.0 1
 _ZTS16QAccessibleEvent@Qt_5 5.0.2
 _ZTS16QDoubleValidator@Qt_5 5.0.2
 _ZTS16QFontEngineMulti@Qt_5_PRIVATE_API 5.0.2 1
 _ZTS16QPlatformMenuBar@Qt_5 5.0.2
 _ZTS16QPlatformSurface@Qt_5 5.0.2
 _ZTS16QRegExpValidator@Qt_5 5.0.2
 _ZTS17QAccessibleObject@Qt_5 5.0.2
 _ZTS17QAccessiblePlugin@Qt_5 5.0.2
 _ZTS17QContextMenuEvent@Qt_5 5.0.2
 _ZTS17QIconEnginePlugin@Qt_5 5.0.2
 _ZTS17QInputMethodEvent@Qt_5 5.0.2
 _ZTS17QInternalMimeData@Qt_5_PRIVATE_API 5.0.2 1
 _ZTS17QOffscreenSurface@Qt_5 5.1.0
 (arch=!armel !armhf)_ZTS17QOpenGLTimerQuery@Qt_5 5.1.0
 _ZTS17QPagedPaintDevice@Qt_5 5.0.2
 _ZTS17QPaintEngineState@Qt_5 5.0.2
 _ZTS17QPdfEnginePrivate@Qt_5_PRIVATE_API 5.0.2 1
 _ZTS17QPixmapIconEngine@Qt_5_PRIVATE_API 5.5.0 1
 _ZTS17QPlatformMenuItem@Qt_5 5.0.2
 _ZTS17QPlatformServices@Qt_5 5.0.2
 _ZTS17QTextImageHandler@Qt_5_PRIVATE_API 5.0.2 1
 _ZTS18QOpenGLDebugLogger@Qt_5 5.1.0
 _ZTS18QOpenGLPaintDevice@Qt_5 5.0.2
 (arch=!armel !armhf)_ZTS18QOpenGLTimeMonitor@Qt_5 5.1.0
 _ZTS18QPaintDeviceWindow@Qt_5 5.4.0
 _ZTS18QPlatformClipboard@Qt_5 5.0.2
 _ZTS18QRasterPaintEngine@Qt_5_PRIVATE_API 5.0.2 1
 _ZTS18QStandardItemModel@Qt_5 5.0.2
 _ZTS18QSyntaxHighlighter@Qt_5 5.0.2
 _ZTS18QTextBlockUserData@Qt_5 5.0.2
 _ZTS18QTextureGlyphCache@Qt_5_PRIVATE_API 5.0.2 1
 _ZTS19QBlitterPaintEngine@Qt_5_PRIVATE_API 5.0.2 1
 _ZTS19QInputDeviceManager@Qt_5_PRIVATE_API 5.5.0 1
 _ZTS19QNativeGestureEvent@Qt_5 5.2.0~beta1
 _ZTS19QOpenGLContextGroup@Qt_5 5.0.2
 _ZTS19QOpenGLTextureCache@Qt_5_PRIVATE_API 5.0.2 1
 _ZTS19QPaintEnginePrivate@Qt_5_PRIVATE_API 5.0.2 1
 _ZTS19QScrollPrepareEvent@Qt_5 5.0.2
 _ZTS19QStaticTextUserData@Qt_5_PRIVATE_API 5.6.0~beta 1
 _ZTS19QTextDocumentLayout@Qt_5_PRIVATE_API 5.0.2 1
 _ZTS19QToolBarChangeEvent@Qt_5 5.0.2
 _ZTS20QAccessibleInterface@Qt_5 5.0.2
 (arch=!armel !armhf)_ZTS20QOpenGLFunctions_1_0@Qt_5 5.1.0
 (arch=!armel !armhf)_ZTS20QOpenGLFunctions_1_1@Qt_5 5.1.0
 (arch=!armel !armhf)_ZTS20QOpenGLFunctions_1_2@Qt_5 5.1.0
 (arch=!armel !armhf)_ZTS20QOpenGLFunctions_1_3@Qt_5 5.1.0
 (arch=!armel !armhf)_ZTS20QOpenGLFunctions_1_4@Qt_5 5.1.0
 (arch=!armel !armhf)_ZTS20QOpenGLFunctions_1_5@Qt_5 5.1.0
 (arch=!armel !armhf)_ZTS20QOpenGLFunctions_2_0@Qt_5 5.1.0
 (arch=!armel !armhf)_ZTS20QOpenGLFunctions_2_1@Qt_5 5.1.0
 (arch=!armel !armhf)_ZTS20QOpenGLFunctions_3_0@Qt_5 5.1.0
 (arch=!armel !armhf)_ZTS20QOpenGLFunctions_3_1@Qt_5 5.1.0
 (arch=armel armhf)_ZTS20QOpenGLFunctions_ES2@Qt_5 5.2.0
 _ZTS20QOpenGLShaderProgram@Qt_5 5.0.2
 _ZTS20QPictureFormatPlugin@Qt_5 5.0.2
 _ZTS20QPlatformIntegration@Qt_5 5.0.2
 _ZTS20QPlatformTextureList@Qt_5 5.3.0
 _ZTS20QPlatformThemePlugin@Qt_5 5.0.2
 _ZTS20QTextFrameLayoutData@Qt_5 5.0.2
 _ZTS20QTextObjectInterface@Qt_5 5.0.2
 _ZTS21QFontEngineGlyphCache@Qt_5_PRIVATE_API 5.6.0~beta 1
 _ZTS21QOpenGL2PaintEngineEx@Qt_5_PRIVATE_API 5.0.2 1
 _ZTS21QOpenGLContextPrivate@Qt_5_PRIVATE_API 5.0.2 1
 _ZTS21QOpenGLSharedResource@Qt_5_PRIVATE_API 5.6.0~beta 1
 _ZTS21QPaintEngineExPrivate@Qt_5_PRIVATE_API 5.0.2 1
 _ZTS21QPlatformBackingStore@Qt_5 5.0.2
 _ZTS21QPlatformDialogHelper@Qt_5 5.0.2
 _ZTS21QPlatformFontDatabase@Qt_5 5.0.2
 _ZTS21QPlatformInputContext@Qt_5 5.0.2
 _ZTS21QPlatformSurfaceEvent@Qt_5 5.5.0
 _ZTS21QPlatformThemePrivate@Qt_5 5.1.0
 _ZTS21QRasterPlatformPixmap@Qt_5_PRIVATE_API 5.0.2 1
 _ZTS22QAccessibleApplication@Qt_5 5.0.2
 _ZTS22QGuiApplicationPrivate@Qt_5_PRIVATE_API 5.0.2 1
 _ZTS22QInputMethodQueryEvent@Qt_5 5.0.2
 _ZTS22QPlatformAccessibility@Qt_5 5.0.2
 _ZTS22QPlatformOpenGLContext@Qt_5 5.0.2
 _ZTS22QWhatsThisClickedEvent@Qt_5 5.0.2
 _ZTS23QAccessibleBridgePlugin@Qt_5 5.0.2
 _ZTS23QImageTextureGlyphCache@Qt_5_PRIVATE_API 5.0.2 1
 _ZTS23QPlatformGraphicsBuffer@Qt_5 5.5.0
 _ZTS23QPlatformSessionManager@Qt_5 5.2.0~alpha1
 _ZTS23QPlatformSystemTrayIcon@Qt_5 5.0.2
 _ZTS23QWindowStateChangeEvent@Qt_5 5.0.2
 _ZTS24QAbstractOpenGLFunctions@Qt_5 5.5.0
 _ZTS24QAccessibleTextInterface@Qt_5 5.0.2
 _ZTS24QBlittablePlatformPixmap@Qt_5 5.0.2
 _ZTS24QOffscreenSurfacePrivate@Qt_5 5.1.0
 _ZTS24QOpenGLCustomShaderStage@Qt_5_PRIVATE_API 5.0.2 1
 _ZTS24QOpenGLFramebufferObject@Qt_5 5.0.2
 _ZTS24QOpenGLTextureGlyphCache@Qt_5_PRIVATE_API 5.0.2 1
 _ZTS24QOpenGLVertexArrayObject@Qt_5 5.1.0
 _ZTS24QPagedPaintDevicePrivate@Qt_5_PRIVATE_API 5.3.0 1
 _ZTS24QPlatformNativeInterface@Qt_5 5.0.2
 _ZTS25QAccessibleImageInterface@Qt_5 5.6.0~beta
 _ZTS25QAccessibleTableInterface@Qt_5 5.6.0~beta
 _ZTS25QAccessibleValueInterface@Qt_5 5.6.0~beta
 (arch=!armel !armhf)_ZTS25QOpenGLFunctions_3_2_Core@Qt_5 5.1.0
 (arch=!armel !armhf)_ZTS25QOpenGLFunctions_3_3_Core@Qt_5 5.1.0
 (arch=!armel !armhf)_ZTS25QOpenGLFunctions_4_0_Core@Qt_5 5.1.0
 (arch=!armel !armhf)_ZTS25QOpenGLFunctions_4_1_Core@Qt_5 5.1.0
 (arch=!armel !armhf)_ZTS25QOpenGLFunctions_4_2_Core@Qt_5 5.1.0
 (arch=!armel !armhf)_ZTS25QOpenGLFunctions_4_3_Core@Qt_5 5.1.0
 (arch=!armel !armhf)_ZTS25QOpenGLFunctions_4_4_Core@Qt_5 5.5.0
 (arch=!armel !armhf)_ZTS25QOpenGLFunctions_4_5_Core@Qt_5 5.5.0
 _ZTS25QOpenGLPaintDevicePrivate@Qt_5_PRIVATE_API 5.4.0 1
 _ZTS25QPaintDeviceWindowPrivate@Qt_5_PRIVATE_API 5.4.0 1
 _ZTS25QPlatformFileDialogHelper@Qt_5 5.0.2
 _ZTS25QPlatformFontDialogHelper@Qt_5 5.0.2
 _ZTS25QPlatformOffscreenSurface@Qt_5 5.1.0
 _ZTS25QWindowSystemEventHandler@Qt_5 5.6.0~beta
 _ZTS26QAccessibleActionInterface@Qt_5 5.0.2
 _ZTS26QAccessibleTextCursorEvent@Qt_5 5.6.0~beta
 _ZTS26QAccessibleTextInsertEvent@Qt_5 5.6.0~beta
 _ZTS26QAccessibleTextRemoveEvent@Qt_5 5.6.0~beta
 _ZTS26QAccessibleTextUpdateEvent@Qt_5 5.6.0~beta
 _ZTS26QInputDeviceManagerPrivate@Qt_5_PRIVATE_API 5.5.0 1
 _ZTS26QOpenGLContextGroupPrivate@Qt_5_PRIVATE_API 5.0.2 1
 _ZTS26QOpenGLEngineShaderManager@Qt_5_PRIVATE_API 5.0.2 1
 _ZTS26QOpenGLSharedResourceGuard@Qt_5_PRIVATE_API 5.0.2 1
 _ZTS26QPlatformColorDialogHelper@Qt_5 5.0.2
 _ZTS26QPlatformIntegrationPlugin@Qt_5 5.0.2
 _ZTS27QAbstractTextDocumentLayout@Qt_5 5.0.2
 _ZTS27QAccessibleStateChangeEvent@Qt_5 5.0.2
 _ZTS27QAccessibleValueChangeEvent@Qt_5 5.6.0~beta
 _ZTS27QPlatformInputContextPlugin@Qt_5 5.0.2
 _ZTS27QRegularExpressionValidator@Qt_5 5.1.0
 _ZTS28QApplicationStateChangeEvent@Qt_5 5.1.0
 _ZTS28QPlatformMessageDialogHelper@Qt_5 5.2.0~alpha1
 _ZTS28QPlatformSharedGraphicsCache@Qt_5 5.0.2
 _ZTS29QAccessibleTableCellInterface@Qt_5 5.6.0~beta
 _ZTS29QAccessibleTextSelectionEvent@Qt_5 5.6.0~beta
 _ZTS29QScreenOrientationChangeEvent@Qt_5 5.0.2
 _ZTS32QAccessibleEditableTextInterface@Qt_5 5.6.0~beta
 _ZTS32QAccessibleTableModelChangeEvent@Qt_5 5.6.0~beta
 _ZTS34QAbstractTextDocumentLayoutPrivate@Qt_5_PRIVATE_API 5.6.0~beta 1
 (arch=!armel !armhf)_ZTS34QOpenGLFunctions_3_2_Compatibility@Qt_5 5.1.0
 (arch=!armel !armhf)_ZTS34QOpenGLFunctions_3_3_Compatibility@Qt_5 5.1.0
 (arch=!armel !armhf)_ZTS34QOpenGLFunctions_4_0_Compatibility@Qt_5 5.1.0
 (arch=!armel !armhf)_ZTS34QOpenGLFunctions_4_1_Compatibility@Qt_5 5.1.0
 (arch=!armel !armhf)_ZTS34QOpenGLFunctions_4_2_Compatibility@Qt_5 5.1.0
 (arch=!armel !armhf)_ZTS34QOpenGLFunctions_4_3_Compatibility@Qt_5 5.1.0
 (arch=!armel !armhf)_ZTS34QOpenGLFunctions_4_4_Compatibility@Qt_5 5.5.0
 (arch=!armel !armhf)_ZTS34QOpenGLFunctions_4_5_Compatibility@Qt_5 5.5.0
 _ZTS5QDrag@Qt_5 5.0.2
 _ZTS6QImage@Qt_5 5.0.2
 _ZTS6QMovie@Qt_5 5.0.2
 _ZTS7QBitmap@Qt_5 5.0.2
 _ZTS7QPixmap@Qt_5 5.0.2
 _ZTS7QScreen@Qt_5 5.0.2
 _ZTS7QWindow@Qt_5 5.0.2
 _ZTS8QPicture@Qt_5 5.0.2
 _ZTS8QStroker@Qt_5_PRIVATE_API 5.0.2 1
 _ZTS8QSurface@Qt_5 5.0.2
 _ZTS9QKeyEvent@Qt_5 5.0.2
 _ZTS9QTextList@Qt_5 5.0.2
 _ZTSN11QAccessible18ActivationObserverE@Qt_5 5.6.0~beta
 _ZTSN29QWindowSystemInterfacePrivate10CloseEventE@Qt_5 5.0.2
 _ZTSN29QWindowSystemInterfacePrivate10EnterEventE@Qt_5 5.0.2
 _ZTSN29QWindowSystemInterfacePrivate10InputEventE@Qt_5 5.0.2
 _ZTSN29QWindowSystemInterfacePrivate10LeaveEventE@Qt_5 5.0.2
 _ZTSN29QWindowSystemInterfacePrivate10MouseEventE@Qt_5 5.0.2
 _ZTSN29QWindowSystemInterfacePrivate10TouchEventE@Qt_5 5.0.2
 _ZTSN29QWindowSystemInterfacePrivate10WheelEventE@Qt_5 5.0.2
 _ZTSN29QWindowSystemInterfacePrivate11ExposeEventE@Qt_5 5.0.2
 _ZTSN29QWindowSystemInterfacePrivate11TabletEventE@Qt_5 5.0.2
 _ZTSN29QWindowSystemInterfacePrivate12GestureEventE@Qt_5 5.2.0~beta1
 _ZTSN29QWindowSystemInterfacePrivate13FileOpenEventE@Qt_5 5.0.2
 _ZTSN29QWindowSystemInterfacePrivate16ContextMenuEventE@Qt_5 5.0.2
 _ZTSN29QWindowSystemInterfacePrivate16FlushEventsEventE@Qt_5 5.1.0
 _ZTSN29QWindowSystemInterfacePrivate16ThemeChangeEventE@Qt_5 5.0.2
 _ZTSN29QWindowSystemInterfacePrivate17WindowSystemEventE@Qt_5 5.0.2
 _ZTSN29QWindowSystemInterfacePrivate18PlatformPanelEventE@Qt_5 5.0.2
 _ZTSN29QWindowSystemInterfacePrivate19GeometryChangeEventE@Qt_5 5.0.2
 _ZTSN29QWindowSystemInterfacePrivate19ScreenGeometryEventE@Qt_5 5.0.2
 _ZTSN29QWindowSystemInterfacePrivate20ActivatedWindowEventE@Qt_5 5.0.2
 _ZTSN29QWindowSystemInterfacePrivate22ScreenOrientationEventE@Qt_5 5.0.2
 _ZTSN29QWindowSystemInterfacePrivate22ScreenRefreshRateEventE@Qt_5 5.0.2
 _ZTSN29QWindowSystemInterfacePrivate23WindowStateChangedEventE@Qt_5 5.0.2
 _ZTSN29QWindowSystemInterfacePrivate24WindowScreenChangedEventE@Qt_5 5.1.0
 _ZTSN29QWindowSystemInterfacePrivate25TabletEnterProximityEventE@Qt_5 5.0.2
 _ZTSN29QWindowSystemInterfacePrivate25TabletLeaveProximityEventE@Qt_5 5.0.2
 _ZTSN29QWindowSystemInterfacePrivate28ApplicationStateChangedEventE@Qt_5 5.1.0
 _ZTSN29QWindowSystemInterfacePrivate29ScreenLogicalDotsPerInchEventE@Qt_5 5.0.2
 _ZTSN29QWindowSystemInterfacePrivate8KeyEventE@Qt_5 5.0.2
 _ZTSN29QWindowSystemInterfacePrivate9UserEventE@Qt_5 5.0.2
 _ZTSN4QCss13StyleSelectorE@Qt_5_PRIVATE_API 5.0.2 1
 _ZTV10QBasicDrag@Qt_5_PRIVATE_API 5.1.0 1
 _ZTV10QBlittable@Qt_5_PRIVATE_API 5.0.2 1
 _ZTV10QClipboard@Qt_5 5.0.2
 _ZTV10QDropEvent@Qt_5 5.0.2
 _ZTV10QHelpEvent@Qt_5 5.0.2
 _ZTV10QHideEvent@Qt_5 5.0.2
 _ZTV10QKeyMapper@Qt_5_PRIVATE_API 5.0.2 1
 _ZTV10QMoveEvent@Qt_5 5.0.2
 _ZTV10QPdfEngine@Qt_5_PRIVATE_API 5.0.2 1
 _ZTV10QPdfWriter@Qt_5 5.0.2
 _ZTV10QShowEvent@Qt_5 5.0.2
 _ZTV10QTextFrame@Qt_5 5.0.2
 _ZTV10QTextTable@Qt_5 5.0.2
 _ZTV10QValidator@Qt_5 5.0.2
 _ZTV11QCloseEvent@Qt_5 5.0.2
 _ZTV11QEnterEvent@Qt_5 5.0.2
 _ZTV11QFocusEvent@Qt_5 5.0.2
 _ZTV11QFontEngine@Qt_5_PRIVATE_API 5.0.2 1
 _ZTV11QHoverEvent@Qt_5 5.0.2
 _ZTV11QIconEngine@Qt_5 5.0.2
 _ZTV11QInputEvent@Qt_5 5.0.2
 _ZTV11QMouseEvent@Qt_5 5.0.2
 _ZTV11QPaintEvent@Qt_5 5.0.2
 _ZTV11QSimpleDrag@Qt_5_PRIVATE_API 5.1.0 1
 _ZTV11QStrokerOps@Qt_5_PRIVATE_API 5.0.2 1
 _ZTV11QStyleHints@Qt_5 5.0.2
 _ZTV11QTextObject@Qt_5 5.0.2
 _ZTV11QTouchEvent@Qt_5 5.0.2
 _ZTV11QWheelEvent@Qt_5 5.0.2
 _ZTV12QActionEvent@Qt_5 5.0.2
 _ZTV12QDashStroker@Qt_5_PRIVATE_API 5.0.2 1
 _ZTV12QDragManager@Qt_5_PRIVATE_API 5.0.2 1
 _ZTV12QExposeEvent@Qt_5 5.0.2
 _ZTV12QInputMethod@Qt_5 5.0.2
 _ZTV12QPaintDevice@Qt_5 5.0.2
 _ZTV12QPaintEngine@Qt_5 5.0.2
 _ZTV12QResizeEvent@Qt_5 5.0.2
 _ZTV12QScrollEvent@Qt_5 5.0.2
 _ZTV12QTabletEvent@Qt_5 5.0.2
 _ZTV13QIntValidator@Qt_5 5.0.2
 _ZTV13QOpenGLShader@Qt_5 5.0.2
 _ZTV13QOpenGLWindow@Qt_5 5.4.0
 _ZTV13QPainterState@Qt_5_PRIVATE_API 5.0.2 1
 _ZTV13QPlatformDrag@Qt_5 5.0.2
 _ZTV13QPlatformMenu@Qt_5 5.0.2
 _ZTV13QRasterWindow@Qt_5 5.4.0
 _ZTV13QStandardItem@Qt_5 5.0.2
 _ZTV13QTextDocument@Qt_5 5.0.2
 _ZTV14QDragMoveEvent@Qt_5 5.0.2
 _ZTV14QFileOpenEvent@Qt_5 5.0.2
 _ZTV14QGenericPlugin@Qt_5 5.0.2
 _ZTV14QIconDragEvent@Qt_5 5.0.2
 _ZTV14QImageIOPlugin@Qt_5 5.0.2
 _ZTV14QOpenGLContext@Qt_5 5.0.2
 _ZTV14QPaintEngineEx@Qt_5_PRIVATE_API 5.0.2 1
 _ZTV14QPlatformTheme@Qt_5 5.0.2
 _ZTV14QShortcutEvent@Qt_5 5.0.2
 _ZTV14QWindowPrivate@Qt_5_PRIVATE_API 5.0.2 1
 _ZTV15QDragEnterEvent@Qt_5 5.0.2
 _ZTV15QDragLeaveEvent@Qt_5 5.0.2
 _ZTV15QFontEngineQPF2@Qt_5_PRIVATE_API 5.4.0 1
 _ZTV15QGridLayoutItem@Qt_5_PRIVATE_API 5.3.0 1
 _ZTV15QGuiApplication@Qt_5 5.0.2
 _ZTV15QImageIOHandler@Qt_5 5.0.2
 _ZTV15QPlatformCursor@Qt_5 5.0.2
 _ZTV15QPlatformPixmap@Qt_5 5.0.2
 _ZTV15QPlatformScreen@Qt_5 5.0.2
 _ZTV15QPlatformWindow@Qt_5 5.0.2
 _ZTV15QSessionManager@Qt_5 5.0.2
 _ZTV15QStatusTipEvent@Qt_5 5.0.2
 _ZTV15QTextBlockGroup@Qt_5 5.0.2
 _ZTV16QAccessibleCache@Qt_5_PRIVATE_API 5.3.0 1
 _ZTV16QAccessibleEvent@Qt_5 5.0.2
 _ZTV16QDoubleValidator@Qt_5 5.0.2
 _ZTV16QFontEngineMulti@Qt_5_PRIVATE_API 5.0.2 1
 _ZTV16QPlatformMenuBar@Qt_5 5.0.2
 _ZTV16QPlatformSurface@Qt_5 5.0.2
 _ZTV16QRegExpValidator@Qt_5 5.0.2
 _ZTV17QAccessibleObject@Qt_5 5.0.2
 _ZTV17QAccessiblePlugin@Qt_5 5.0.2
 _ZTV17QContextMenuEvent@Qt_5 5.0.2
 _ZTV17QIconEnginePlugin@Qt_5 5.0.2
 _ZTV17QInputMethodEvent@Qt_5 5.0.2
 _ZTV17QInternalMimeData@Qt_5_PRIVATE_API 5.0.2 1
 _ZTV17QOffscreenSurface@Qt_5 5.1.0
 (arch=!armel !armhf)_ZTV17QOpenGLTimerQuery@Qt_5 5.1.0
 _ZTV17QPagedPaintDevice@Qt_5 5.0.2
 _ZTV17QPdfEnginePrivate@Qt_5_PRIVATE_API 5.0.2 1
 _ZTV17QPixmapIconEngine@Qt_5_PRIVATE_API 5.5.0 1
 _ZTV17QPlatformMenuItem@Qt_5 5.0.2
 _ZTV17QPlatformServices@Qt_5 5.0.2
 _ZTV17QTextImageHandler@Qt_5_PRIVATE_API 5.0.2 1
 _ZTV18QOpenGLDebugLogger@Qt_5 5.1.0
 _ZTV18QOpenGLPaintDevice@Qt_5 5.0.2
 (arch=!armel !armhf)_ZTV18QOpenGLTimeMonitor@Qt_5 5.1.0
 _ZTV18QPaintDeviceWindow@Qt_5 5.4.0
 _ZTV18QPlatformClipboard@Qt_5 5.0.2
 _ZTV18QRasterPaintEngine@Qt_5_PRIVATE_API 5.0.2 1
 _ZTV18QStandardItemModel@Qt_5 5.0.2
 _ZTV18QSyntaxHighlighter@Qt_5 5.0.2
 _ZTV18QTextBlockUserData@Qt_5 5.0.2
 _ZTV18QTextureGlyphCache@Qt_5_PRIVATE_API 5.0.2 1
 _ZTV19QBlitterPaintEngine@Qt_5_PRIVATE_API 5.0.2 1
 _ZTV19QInputDeviceManager@Qt_5_PRIVATE_API 5.5.0 1
 _ZTV19QNativeGestureEvent@Qt_5 5.2.0~beta1
 _ZTV19QOpenGLContextGroup@Qt_5 5.0.2
 _ZTV19QOpenGLTextureCache@Qt_5_PRIVATE_API 5.0.2 1
 _ZTV19QPaintEnginePrivate@Qt_5_PRIVATE_API 5.0.2 1
 _ZTV19QScrollPrepareEvent@Qt_5 5.0.2
 _ZTV19QStaticTextUserData@Qt_5_PRIVATE_API 5.6.0~beta 1
 _ZTV19QTextDocumentLayout@Qt_5_PRIVATE_API 5.0.2 1
 _ZTV19QToolBarChangeEvent@Qt_5 5.0.2
 _ZTV20QAccessibleInterface@Qt_5 5.0.2
 (arch=!armel !armhf)_ZTV20QOpenGLFunctions_1_0@Qt_5 5.1.0
 (arch=!armel !armhf)_ZTV20QOpenGLFunctions_1_1@Qt_5 5.1.0
 (arch=!armel !armhf)_ZTV20QOpenGLFunctions_1_2@Qt_5 5.1.0
 (arch=!armel !armhf)_ZTV20QOpenGLFunctions_1_3@Qt_5 5.1.0
 (arch=!armel !armhf)_ZTV20QOpenGLFunctions_1_4@Qt_5 5.1.0
 (arch=!armel !armhf)_ZTV20QOpenGLFunctions_1_5@Qt_5 5.1.0
 (arch=!armel !armhf)_ZTV20QOpenGLFunctions_2_0@Qt_5 5.1.0
 (arch=!armel !armhf)_ZTV20QOpenGLFunctions_2_1@Qt_5 5.1.0
 (arch=!armel !armhf)_ZTV20QOpenGLFunctions_3_0@Qt_5 5.1.0
 (arch=!armel !armhf)_ZTV20QOpenGLFunctions_3_1@Qt_5 5.1.0
 (arch=armel armhf)_ZTV20QOpenGLFunctions_ES2@Qt_5 5.2.0
 _ZTV20QOpenGLShaderProgram@Qt_5 5.0.2
 _ZTV20QPictureFormatPlugin@Qt_5 5.0.2
 _ZTV20QPlatformIntegration@Qt_5 5.0.2
 _ZTV20QPlatformTextureList@Qt_5 5.3.0
 _ZTV20QPlatformThemePlugin@Qt_5 5.0.2
 _ZTV20QTextFrameLayoutData@Qt_5 5.0.2
 _ZTV20QTextObjectInterface@Qt_5 5.6.0~beta
 _ZTV21QFontEngineGlyphCache@Qt_5_PRIVATE_API 5.6.0~beta 1
 _ZTV21QOpenGL2PaintEngineEx@Qt_5_PRIVATE_API 5.0.2 1
 _ZTV21QOpenGLContextPrivate@Qt_5_PRIVATE_API 5.0.2 1
 _ZTV21QOpenGLSharedResource@Qt_5_PRIVATE_API 5.0.2 1
 _ZTV21QPaintEngineExPrivate@Qt_5_PRIVATE_API 5.0.2 1
 _ZTV21QPlatformBackingStore@Qt_5 5.0.2
 _ZTV21QPlatformDialogHelper@Qt_5 5.0.2
 _ZTV21QPlatformFontDatabase@Qt_5 5.0.2
 _ZTV21QPlatformInputContext@Qt_5 5.0.2
 _ZTV21QPlatformSurfaceEvent@Qt_5 5.5.0
 _ZTV21QPlatformThemePrivate@Qt_5 5.1.0
 _ZTV21QRasterPlatformPixmap@Qt_5_PRIVATE_API 5.0.2 1
 _ZTV22QAccessibleApplication@Qt_5 5.0.2
 _ZTV22QGuiApplicationPrivate@Qt_5_PRIVATE_API 5.0.2 1
 _ZTV22QInputMethodQueryEvent@Qt_5 5.0.2
 _ZTV22QPlatformAccessibility@Qt_5 5.0.2
 _ZTV22QPlatformOpenGLContext@Qt_5 5.0.2
 _ZTV22QWhatsThisClickedEvent@Qt_5 5.0.2
 _ZTV23QAccessibleBridgePlugin@Qt_5 5.0.2
 _ZTV23QImageTextureGlyphCache@Qt_5_PRIVATE_API 5.0.2 1
 _ZTV23QPlatformGraphicsBuffer@Qt_5 5.5.0
 _ZTV23QPlatformSessionManager@Qt_5 5.2.0~alpha1
 _ZTV23QPlatformSystemTrayIcon@Qt_5 5.0.2
 _ZTV23QWindowStateChangeEvent@Qt_5 5.0.2
 _ZTV24QAbstractOpenGLFunctions@Qt_5 5.5.0
 _ZTV24QAccessibleTextInterface@Qt_5 5.0.2
 _ZTV24QBlittablePlatformPixmap@Qt_5 5.0.2
 _ZTV24QOffscreenSurfacePrivate@Qt_5 5.1.0
 _ZTV24QOpenGLCustomShaderStage@Qt_5_PRIVATE_API 5.0.2 1
 _ZTV24QOpenGLFramebufferObject@Qt_5 5.0.2
 _ZTV24QOpenGLTextureGlyphCache@Qt_5_PRIVATE_API 5.0.2 1
 _ZTV24QOpenGLVertexArrayObject@Qt_5 5.1.0
 _ZTV24QPagedPaintDevicePrivate@Qt_5_PRIVATE_API 5.3.0 1
 _ZTV24QPlatformNativeInterface@Qt_5 5.0.2
 _ZTV25QAccessibleImageInterface@Qt_5 5.6.0~beta
 _ZTV25QAccessibleTableInterface@Qt_5 5.6.0~beta
 _ZTV25QAccessibleValueInterface@Qt_5 5.6.0~beta
 (arch=!armel !armhf)_ZTV25QOpenGLFunctions_3_2_Core@Qt_5 5.1.0
 (arch=!armel !armhf)_ZTV25QOpenGLFunctions_3_3_Core@Qt_5 5.1.0
 (arch=!armel !armhf)_ZTV25QOpenGLFunctions_4_0_Core@Qt_5 5.1.0
 (arch=!armel !armhf)_ZTV25QOpenGLFunctions_4_1_Core@Qt_5 5.1.0
 (arch=!armel !armhf)_ZTV25QOpenGLFunctions_4_2_Core@Qt_5 5.1.0
 (arch=!armel !armhf)_ZTV25QOpenGLFunctions_4_3_Core@Qt_5 5.1.0
 (arch=!armel !armhf)_ZTV25QOpenGLFunctions_4_4_Core@Qt_5 5.5.0
 (arch=!armel !armhf)_ZTV25QOpenGLFunctions_4_5_Core@Qt_5 5.5.0
 _ZTV25QOpenGLPaintDevicePrivate@Qt_5_PRIVATE_API 5.4.0 1
 _ZTV25QPaintDeviceWindowPrivate@Qt_5_PRIVATE_API 5.4.0 1
 _ZTV25QPlatformFileDialogHelper@Qt_5 5.0.2
 _ZTV25QPlatformFontDialogHelper@Qt_5 5.0.2
 _ZTV25QPlatformOffscreenSurface@Qt_5 5.1.0
 _ZTV25QWindowSystemEventHandler@Qt_5 5.6.0~beta
 _ZTV26QAccessibleActionInterface@Qt_5 5.0.2
 _ZTV26QAccessibleTextCursorEvent@Qt_5 5.6.0~beta
 _ZTV26QAccessibleTextInsertEvent@Qt_5 5.6.0~beta
 _ZTV26QAccessibleTextRemoveEvent@Qt_5 5.6.0~beta
 _ZTV26QAccessibleTextUpdateEvent@Qt_5 5.6.0~beta
 _ZTV26QInputDeviceManagerPrivate@Qt_5_PRIVATE_API 5.5.0 1
 _ZTV26QOpenGLContextGroupPrivate@Qt_5_PRIVATE_API 5.0.2 1
 _ZTV26QOpenGLEngineShaderManager@Qt_5_PRIVATE_API 5.0.2 1
 _ZTV26QOpenGLSharedResourceGuard@Qt_5_PRIVATE_API 5.0.2 1
 _ZTV26QPlatformColorDialogHelper@Qt_5 5.0.2
 _ZTV26QPlatformIntegrationPlugin@Qt_5 5.0.2
 _ZTV27QAbstractTextDocumentLayout@Qt_5 5.0.2
 _ZTV27QAccessibleStateChangeEvent@Qt_5 5.0.2
 _ZTV27QAccessibleValueChangeEvent@Qt_5 5.6.0~beta
 _ZTV27QPlatformInputContextPlugin@Qt_5 5.0.2
 _ZTV27QRegularExpressionValidator@Qt_5 5.1.0
 _ZTV28QApplicationStateChangeEvent@Qt_5 5.1.0
 _ZTV28QPlatformMessageDialogHelper@Qt_5 5.2.0~alpha1
 _ZTV28QPlatformSharedGraphicsCache@Qt_5 5.0.2
 _ZTV29QAccessibleTableCellInterface@Qt_5 5.6.0~beta
 _ZTV29QAccessibleTextSelectionEvent@Qt_5 5.6.0~beta
 _ZTV29QScreenOrientationChangeEvent@Qt_5 5.0.2
 _ZTV32QAccessibleEditableTextInterface@Qt_5 5.6.0~beta
 _ZTV32QAccessibleTableModelChangeEvent@Qt_5 5.6.0~beta
 _ZTV34QAbstractTextDocumentLayoutPrivate@Qt_5_PRIVATE_API 5.6.0~beta 1
 (arch=!armel !armhf)_ZTV34QOpenGLFunctions_3_2_Compatibility@Qt_5 5.1.0
 (arch=!armel !armhf)_ZTV34QOpenGLFunctions_3_3_Compatibility@Qt_5 5.1.0
 (arch=!armel !armhf)_ZTV34QOpenGLFunctions_4_0_Compatibility@Qt_5 5.1.0
 (arch=!armel !armhf)_ZTV34QOpenGLFunctions_4_1_Compatibility@Qt_5 5.1.0
 (arch=!armel !armhf)_ZTV34QOpenGLFunctions_4_2_Compatibility@Qt_5 5.1.0
 (arch=!armel !armhf)_ZTV34QOpenGLFunctions_4_3_Compatibility@Qt_5 5.1.0
 (arch=!armel !armhf)_ZTV34QOpenGLFunctions_4_4_Compatibility@Qt_5 5.5.0
 (arch=!armel !armhf)_ZTV34QOpenGLFunctions_4_5_Compatibility@Qt_5 5.5.0
 _ZTV5QDrag@Qt_5 5.0.2
 _ZTV6QImage@Qt_5 5.0.2
 _ZTV6QMovie@Qt_5 5.0.2
 _ZTV7QBitmap@Qt_5 5.0.2
 _ZTV7QPixmap@Qt_5 5.0.2
 _ZTV7QScreen@Qt_5 5.0.2
 _ZTV7QWindow@Qt_5 5.0.2
 _ZTV8QPicture@Qt_5 5.0.2
 _ZTV8QStroker@Qt_5_PRIVATE_API 5.0.2 1
 _ZTV8QSurface@Qt_5 5.0.2
 _ZTV9QKeyEvent@Qt_5 5.0.2
 _ZTV9QTextList@Qt_5 5.0.2
 _ZTVN11QAccessible18ActivationObserverE@Qt_5 5.6.0~beta
 _ZTVN29QWindowSystemInterfacePrivate10CloseEventE@Qt_5 5.0.2
 _ZTVN29QWindowSystemInterfacePrivate10EnterEventE@Qt_5 5.0.2
 _ZTVN29QWindowSystemInterfacePrivate10LeaveEventE@Qt_5 5.0.2
 _ZTVN29QWindowSystemInterfacePrivate10MouseEventE@Qt_5 5.0.2
 _ZTVN29QWindowSystemInterfacePrivate10TouchEventE@Qt_5 5.0.2
 _ZTVN29QWindowSystemInterfacePrivate10WheelEventE@Qt_5 5.0.2
 _ZTVN29QWindowSystemInterfacePrivate11ExposeEventE@Qt_5 5.0.2
 _ZTVN29QWindowSystemInterfacePrivate11TabletEventE@Qt_5 5.0.2
 _ZTVN29QWindowSystemInterfacePrivate12GestureEventE@Qt_5 5.2.0~beta1
 _ZTVN29QWindowSystemInterfacePrivate13FileOpenEventE@Qt_5 5.0.2
 _ZTVN29QWindowSystemInterfacePrivate16ContextMenuEventE@Qt_5 5.0.2
 _ZTVN29QWindowSystemInterfacePrivate16FlushEventsEventE@Qt_5 5.1.0
 _ZTVN29QWindowSystemInterfacePrivate16ThemeChangeEventE@Qt_5 5.0.2
 _ZTVN29QWindowSystemInterfacePrivate17WindowSystemEventE@Qt_5 5.0.2
 _ZTVN29QWindowSystemInterfacePrivate18PlatformPanelEventE@Qt_5 5.0.2
 _ZTVN29QWindowSystemInterfacePrivate19GeometryChangeEventE@Qt_5 5.0.2
 _ZTVN29QWindowSystemInterfacePrivate19ScreenGeometryEventE@Qt_5 5.0.2
 _ZTVN29QWindowSystemInterfacePrivate20ActivatedWindowEventE@Qt_5 5.0.2
 _ZTVN29QWindowSystemInterfacePrivate22ScreenOrientationEventE@Qt_5 5.0.2
 _ZTVN29QWindowSystemInterfacePrivate22ScreenRefreshRateEventE@Qt_5 5.0.2
 _ZTVN29QWindowSystemInterfacePrivate23WindowStateChangedEventE@Qt_5 5.0.2
 _ZTVN29QWindowSystemInterfacePrivate24WindowScreenChangedEventE@Qt_5 5.1.0
 _ZTVN29QWindowSystemInterfacePrivate25TabletEnterProximityEventE@Qt_5 5.0.2
 _ZTVN29QWindowSystemInterfacePrivate25TabletLeaveProximityEventE@Qt_5 5.0.2
 _ZTVN29QWindowSystemInterfacePrivate28ApplicationStateChangedEventE@Qt_5 5.1.0
 _ZTVN29QWindowSystemInterfacePrivate29ScreenLogicalDotsPerInchEventE@Qt_5 5.0.2
 _ZTVN29QWindowSystemInterfacePrivate8KeyEventE@Qt_5 5.0.2
 _ZTVN29QWindowSystemInterfacePrivate9UserEventE@Qt_5 5.0.2
 _ZTVN4QCss13StyleSelectorE@Qt_5_PRIVATE_API 5.0.2 1
 _ZdvRK10QMatrix4x4f@Qt_5 5.0.2
 _ZeqRK11QPageLayoutS1_@Qt_5 5.3.0
 _ZeqRK14QSurfaceFormatS1_@Qt_5 5.0.2
 _ZeqRK9QPageSizeS1_@Qt_5 5.3.0
 _ZeqRKN11QAccessible5StateES2_@Qt_5 5.0.2
 _ZeqRKN22QGuiApplicationPrivate20ActiveTouchPointsKeyES2_@Qt_5_PRIVATE_API 5.0.2 1
 _Zls6QDebugN19QOpenGLDebugMessage4TypeE@Qt_5 5.1.0
 _Zls6QDebugN19QOpenGLDebugMessage6SourceE@Qt_5 5.1.0
 _Zls6QDebugN19QOpenGLDebugMessage8SeverityE@Qt_5 5.1.0
 _Zls6QDebugPK12QTouchDevice@Qt_5 5.5.0
 _Zls6QDebugPK20QAccessibleInterface@Qt_5 5.0.2
 _Zls6QDebugPK6QEvent@Qt_5 5.0.2
 _Zls6QDebugPK7QScreen@Qt_5 5.6.0~beta
 _Zls6QDebugPK7QWindow@Qt_5 5.6.0~beta
 _Zls6QDebugRK10QMatrix4x4@Qt_5 5.0.2
 _Zls6QDebugRK10QTransform@Qt_5 5.0.2
 _Zls6QDebugRK11QPageLayout@Qt_5 5.3.0
 _Zls6QDebugRK11QQuaternion@Qt_5 5.0.2
 _Zls6QDebugRK11QTextFormat@Qt_5 5.0.2
 _Zls6QDebugRK11QTextLength@Qt_5 5.0.2
 _Zls6QDebugRK12QKeySequence@Qt_5 5.0.2
 _Zls6QDebugRK12QPainterPath@Qt_5 5.0.2
 _Zls6QDebugRK14QSurfaceFormat@Qt_5 5.0.2
 _Zls6QDebugRK16QAccessibleEvent@Qt_5 5.0.2
 _Zls6QDebugRK19QOpenGLDebugMessage@Qt_5 5.1.0
 _Zls6QDebugRK4QPen@Qt_5 5.0.2
 _Zls6QDebugRK5QFont@Qt_5 5.0.2
 _Zls6QDebugRK5QIcon@Qt_5 5.0.2
 _Zls6QDebugRK6QBrush@Qt_5 5.0.2
 _Zls6QDebugRK6QColor@Qt_5 5.0.2
 _Zls6QDebugRK6QImage@Qt_5 5.0.2
 _Zls6QDebugRK7QCursor@Qt_5 5.0.2
 _Zls6QDebugRK7QMatrix@Qt_5 5.0.2
 _Zls6QDebugRK7QPixmap@Qt_5 5.0.2
 _Zls6QDebugRK7QRegion@Qt_5 5.0.2
 _Zls6QDebugRK8QPalette@Qt_5 5.0.2
 _Zls6QDebugRK8QPolygon@Qt_5 5.0.2
 _Zls6QDebugRK9QPageSize@Qt_5 5.3.0
 _Zls6QDebugRK9QPolygonF@Qt_5 5.0.2
 _Zls6QDebugRK9QVector2D@Qt_5 5.0.2
 _Zls6QDebugRK9QVector3D@Qt_5 5.0.2
 _Zls6QDebugRK9QVector4D@Qt_5 5.0.2
 _Zls6QDebugRKN11QTouchEvent10TouchPointE@Qt_5 5.4.0
 _Zls6QDebugRKN22QWindowSystemInterface10TouchPointE@Qt_5 5.1.0
 _ZlsR11QDataStreamRK10QMatrix4x4@Qt_5 5.0.2
 _ZlsR11QDataStreamRK10QTransform@Qt_5 5.0.2
 _ZlsR11QDataStreamRK11QQuaternion@Qt_5 5.0.2
 _ZlsR11QDataStreamRK11QTextFormat@Qt_5 5.0.2
 _ZlsR11QDataStreamRK11QTextLength@Qt_5 5.0.2
 _ZlsR11QDataStreamRK12QKeySequence@Qt_5 5.0.2
 _ZlsR11QDataStreamRK12QPainterPath@Qt_5 5.0.2
 _ZlsR11QDataStreamRK13QStandardItem@Qt_5 5.0.2
 _ZlsR11QDataStreamRK4QPen@Qt_5 5.0.2
 _ZlsR11QDataStreamRK5QFont@Qt_5 5.0.2
 _ZlsR11QDataStreamRK5QIcon@Qt_5 5.0.2
 _ZlsR11QDataStreamRK6QBrush@Qt_5 5.0.2
 _ZlsR11QDataStreamRK6QColor@Qt_5 5.0.2
 _ZlsR11QDataStreamRK6QImage@Qt_5 5.0.2
 _ZlsR11QDataStreamRK7QCursor@Qt_5 5.0.2
 _ZlsR11QDataStreamRK7QMatrix@Qt_5 5.0.2
 _ZlsR11QDataStreamRK7QPixmap@Qt_5 5.0.2
 _ZlsR11QDataStreamRK7QRegion@Qt_5 5.0.2
 _ZlsR11QDataStreamRK8QPalette@Qt_5 5.0.2
 _ZlsR11QDataStreamRK8QPicture@Qt_5 5.0.2
 _ZlsR11QDataStreamRK8QPolygon@Qt_5 5.0.2
 _ZlsR11QDataStreamRK9QPolygonF@Qt_5 5.0.2
 _ZlsR11QDataStreamRK9QVector2D@Qt_5 5.0.2
 _ZlsR11QDataStreamRK9QVector3D@Qt_5 5.0.2
 _ZlsR11QDataStreamRK9QVector4D@Qt_5 5.0.2
 _ZlsR6QDebugRK11QVectorPath@Qt_5_PRIVATE_API 5.0.2 1
 _ZmlRK12QPainterPathRK7QMatrix@Qt_5 5.0.2
 _ZneRK14QSurfaceFormatS1_@Qt_5 5.0.2
 _ZrsR11QDataStreamR10QMatrix4x4@Qt_5 5.0.2
 _ZrsR11QDataStreamR10QTransform@Qt_5 5.0.2
 _ZrsR11QDataStreamR11QQuaternion@Qt_5 5.0.2
 _ZrsR11QDataStreamR11QTextFormat@Qt_5 5.0.2
 _ZrsR11QDataStreamR11QTextLength@Qt_5 5.0.2
 _ZrsR11QDataStreamR12QKeySequence@Qt_5 5.0.2
 _ZrsR11QDataStreamR12QPainterPath@Qt_5 5.0.2
 _ZrsR11QDataStreamR13QStandardItem@Qt_5 5.0.2
 _ZrsR11QDataStreamR4QPen@Qt_5 5.0.2
 _ZrsR11QDataStreamR5QFont@Qt_5 5.0.2
 _ZrsR11QDataStreamR5QIcon@Qt_5 5.0.2
 _ZrsR11QDataStreamR6QBrush@Qt_5 5.0.2
 _ZrsR11QDataStreamR6QColor@Qt_5 5.0.2
 _ZrsR11QDataStreamR6QImage@Qt_5 5.0.2
 _ZrsR11QDataStreamR7QCursor@Qt_5 5.0.2
 _ZrsR11QDataStreamR7QMatrix@Qt_5 5.0.2
 _ZrsR11QDataStreamR7QPixmap@Qt_5 5.0.2
 _ZrsR11QDataStreamR7QRegion@Qt_5 5.0.2
 _ZrsR11QDataStreamR8QPalette@Qt_5 5.0.2
 _ZrsR11QDataStreamR8QPicture@Qt_5 5.0.2
 _ZrsR11QDataStreamR8QPolygon@Qt_5 5.0.2
 _ZrsR11QDataStreamR9QPolygonF@Qt_5 5.0.2
 _ZrsR11QDataStreamR9QVector2D@Qt_5 5.0.2
 _ZrsR11QDataStreamR9QVector3D@Qt_5 5.0.2
 _ZrsR11QDataStreamR9QVector4D@Qt_5 5.0.2
 (c++)"non-virtual thunk to QBasicDrag::eventFilter(QObject*, QEvent*)@Qt_5_PRIVATE_API" 5.1.0 1
 (c++)"non-virtual thunk to QBasicDrag::~QBasicDrag()@Qt_5_PRIVATE_API" 5.1.0 1
 (c++)"non-virtual thunk to QOffscreenSurface::format() const@Qt_5" 5.1.0
 (c++)"non-virtual thunk to QOffscreenSurface::size() const@Qt_5" 5.1.0
 (c++)"non-virtual thunk to QOffscreenSurface::surfaceHandle() const@Qt_5" 5.1.0
 (c++)"non-virtual thunk to QOffscreenSurface::surfaceType() const@Qt_5" 5.1.0
 (c++)"non-virtual thunk to QOffscreenSurface::~QOffscreenSurface()@Qt_5" 5.1.0
 (c++)"non-virtual thunk to QOpenGLWindow::metric(QPaintDevice::PaintDeviceMetric) const@Qt_5" 5.4.0
 (c++)"non-virtual thunk to QOpenGLWindow::redirected(QPoint*) const@Qt_5" 5.4.0
 (c++)"non-virtual thunk to QOpenGLWindow::~QOpenGLWindow()@Qt_5" 5.5.0
 (c++)"non-virtual thunk to QPaintDeviceWindow::metric(QPaintDevice::PaintDeviceMetric) const@Qt_5" 5.4.0
 (c++)"non-virtual thunk to QPaintDeviceWindow::paintEngine() const@Qt_5" 5.4.0
 (c++)"non-virtual thunk to QPdfWriter::metric(QPaintDevice::PaintDeviceMetric) const@Qt_5" 5.0.2
 (c++)"non-virtual thunk to QPdfWriter::newPage()@Qt_5" 5.0.2
 (c++)"non-virtual thunk to QPdfWriter::paintEngine() const@Qt_5" 5.0.2
 (c++)"non-virtual thunk to QPdfWriter::setMargins(QPagedPaintDevice::Margins const&)@Qt_5" 5.0.2
 (c++)"non-virtual thunk to QPdfWriter::setPageSize(QPagedPaintDevice::PageSize)@Qt_5" 5.0.2
 (c++)"non-virtual thunk to QPdfWriter::setPageSizeMM(QSizeF const&)@Qt_5" 5.0.2
 (c++)"non-virtual thunk to QPdfWriter::~QPdfWriter()@Qt_5" 5.0.2
 (c++)"non-virtual thunk to QRasterWindow::metric(QPaintDevice::PaintDeviceMetric) const@Qt_5" 5.4.0
 (c++)"non-virtual thunk to QRasterWindow::redirected(QPoint*) const@Qt_5" 5.4.0
 (c++)"non-virtual thunk to QTextImageHandler::drawObject(QPainter*, QRectF const&, QTextDocument*, int, QTextFormat const&)@Qt_5_PRIVATE_API" 5.0.2 1
 (c++)"non-virtual thunk to QTextImageHandler::intrinsicSize(QTextDocument*, int, QTextFormat const&)@Qt_5_PRIVATE_API" 5.0.2 1
 (c++)"non-virtual thunk to QWindow::format() const@Qt_5" 5.0.2
 (c++)"non-virtual thunk to QWindow::surfaceHandle() const@Qt_5" 5.0.2
 (c++)"non-virtual thunk to QWindow::surfaceType() const@Qt_5" 5.0.2
 (c++)"non-virtual thunk to QWindow::~QWindow()@Qt_5" 5.0.2
 qt_inv_premul_factor@Qt_5 5.3.0
 qt_is_gui_used@Qt_5 5.0.2
