# SymbolsHelper-Confirmed: 5.7.1~20161021 amd64
libQt5Test.so.5 libqt5test5 #MINVER#
| libqt5test5 #MINVER#, qtbase-abi-5-7-1
* Build-Depends-Package: qtbase5-dev
 Qt_5.0@Qt_5.0 5.6.0~beta
 Qt_5.1@Qt_5.1 5.6.0~beta
 Qt_5.2@Qt_5.2 5.6.0~beta
 Qt_5.3@Qt_5.3 5.6.0~beta
 Qt_5.4@Qt_5.4 5.6.0~beta
 Qt_5.5@Qt_5.5 5.6.0~beta
 Qt_5.6@Qt_5.6 5.6.0~beta
 Qt_5.7@Qt_5.7 5.7.0
 Qt_5@Qt_5 5.6.0~beta
 Qt_5_PRIVATE_API@Qt_5_PRIVATE_API 5.6.0~beta 1
 _ZN10QTestTable15globalTestTableEv@Qt_5_PRIVATE_API 5.0.2 1
 _ZN10QTestTable16currentTestTableEv@Qt_5_PRIVATE_API 5.0.2 1
 _ZN10QTestTable20clearGlobalTestTableEv@Qt_5_PRIVATE_API 5.0.2 1
 _ZN10QTestTable7newDataEPKc@Qt_5_PRIVATE_API 5.0.2 1
 _ZN10QTestTable9addColumnEiPKc@Qt_5_PRIVATE_API 5.0.2 1
 _ZN10QTestTableC1Ev@Qt_5_PRIVATE_API 5.0.2 1
 _ZN10QTestTableC2Ev@Qt_5_PRIVATE_API 5.0.2 1
 _ZN10QTestTableD1Ev@Qt_5_PRIVATE_API 5.0.2 1
 _ZN10QTestTableD2Ev@Qt_5_PRIVATE_API 5.0.2 1
 _ZN11QTestResult10addFailureEPKcS1_i@Qt_5_PRIVATE_API 5.0.2 1
 _ZN11QTestResult10expectFailEPKcS1_N5QTest12TestFailModeES1_i@Qt_5_PRIVATE_API 5.0.2 1
 _ZN11QTestResult14currentAppNameEv@Qt_5_PRIVATE_API 5.2.0~beta1 1
 _ZN11QTestResult14currentDataTagEv@Qt_5_PRIVATE_API 5.0.2 1
 _ZN11QTestResult15currentTestDataEv@Qt_5_PRIVATE_API 5.0.2 1
 _ZN11QTestResult15skipCurrentTestEv@Qt_5_PRIVATE_API 5.0.2 1
 _ZN11QTestResult17currentTestFailedEv@Qt_5_PRIVATE_API 5.0.2 1
 _ZN11QTestResult17setCurrentAppNameEPKc@Qt_5_PRIVATE_API 5.2.0~beta1 1
 _ZN11QTestResult18setCurrentTestDataEP9QTestData@Qt_5_PRIVATE_API 5.0.2 1
 _ZN11QTestResult18setSkipCurrentTestEb@Qt_5_PRIVATE_API 5.0.2 1
 _ZN11QTestResult19currentTestFunctionEv@Qt_5_PRIVATE_API 5.0.2 1
 _ZN11QTestResult20currentGlobalDataTagEv@Qt_5_PRIVATE_API 5.0.2 1
 _ZN11QTestResult20setCurrentTestObjectEPKc@Qt_5_PRIVATE_API 5.0.2 1
 _ZN11QTestResult21currentGlobalTestDataEv@Qt_5_PRIVATE_API 5.0.2 1
 _ZN11QTestResult21currentTestObjectNameEv@Qt_5_PRIVATE_API 5.0.2 1
 _ZN11QTestResult22setCurrentTestFunctionEPKc@Qt_5_PRIVATE_API 5.0.2 1
 _ZN11QTestResult23finishedCurrentTestDataEv@Qt_5_PRIVATE_API 5.0.2 1
 _ZN11QTestResult23setBlacklistCurrentTestEb@Qt_5_PRIVATE_API 5.4.0 1
 _ZN11QTestResult24setCurrentGlobalTestDataEP9QTestData@Qt_5_PRIVATE_API 5.0.2 1
 _ZN11QTestResult27finishedCurrentTestFunctionEv@Qt_5_PRIVATE_API 5.0.2 1
 _ZN11QTestResult30finishedCurrentTestDataCleanupEv@Qt_5_PRIVATE_API 5.0.2 1
 _ZN11QTestResult5resetEv@Qt_5_PRIVATE_API 5.0.2 1
 _ZN11QTestResult6verifyEbPKcS1_S1_i@Qt_5_PRIVATE_API 5.0.2 1
 _ZN11QTestResult7addSkipEPKcS1_i@Qt_5_PRIVATE_API 5.0.2 1
 _ZN11QTestResult7compareEbPKcPcS2_S1_S1_S1_i@Qt_5_PRIVATE_API 5.0.2 1
 _ZN12QTestPrivate14parseBlackListEv@Qt_5 5.6.0~beta
 _ZN12QTestPrivate15checkBlackListsEPKcS1_@Qt_5 5.6.0~beta
 _ZN12QTestPrivate17parseGpuBlackListEv@Qt_5 5.6.0~beta
 _ZN14QTestEventLoop11qt_metacallEN11QMetaObject4CallEiPPv@Qt_5 5.0.2
 _ZN14QTestEventLoop11qt_metacastEPKc@Qt_5 5.0.2
 _ZN14QTestEventLoop16staticMetaObjectE@Qt_5 5.0.2
 _ZN20QBenchmarkGlobalData14createMeasurerEv@Qt_5_PRIVATE_API 5.0.2 1
 _ZN20QBenchmarkGlobalData26adjustMedianIterationCountEv@Qt_5_PRIVATE_API 5.0.2 1
 _ZN20QBenchmarkGlobalData7currentE@Qt_5_PRIVATE_API 5.0.2 1
 _ZN20QBenchmarkGlobalData7setModeENS_4ModeE@Qt_5_PRIVATE_API 5.0.2 1
 _ZN20QBenchmarkGlobalDataC1Ev@Qt_5_PRIVATE_API 5.0.2 1
 _ZN20QBenchmarkGlobalDataC2Ev@Qt_5_PRIVATE_API 5.0.2 1
 _ZN20QBenchmarkGlobalDataD1Ev@Qt_5_PRIVATE_API 5.0.2 1
 _ZN20QBenchmarkGlobalDataD2Ev@Qt_5_PRIVATE_API 5.0.2 1
 _ZN24QBenchmarkTestMethodData10endDataRunEv@Qt_5_PRIVATE_API 5.0.2 1
 _ZN24QBenchmarkTestMethodData12beginDataRunEv@Qt_5_PRIVATE_API 5.0.2 1
 _ZN24QBenchmarkTestMethodData20adjustIterationCountEi@Qt_5_PRIVATE_API 5.0.2 1
 _ZN24QBenchmarkTestMethodData7currentE@Qt_5_PRIVATE_API 5.0.2 1
 _ZN24QBenchmarkTestMethodData9setResultEdN5QTest16QBenchmarkMetricEb@Qt_5_PRIVATE_API 5.2.0 1
 _ZN24QBenchmarkTestMethodDataC1Ev@Qt_5_PRIVATE_API 5.0.2 1
 _ZN24QBenchmarkTestMethodDataC2Ev@Qt_5_PRIVATE_API 5.0.2 1
 _ZN24QBenchmarkTestMethodDataD1Ev@Qt_5_PRIVATE_API 5.0.2 1
 _ZN24QBenchmarkTestMethodDataD2Ev@Qt_5_PRIVATE_API 5.0.2 1
 _ZN5QTest10asciiToKeyEc@Qt_5 5.0.2
 _ZN5QTest10keyToAsciiEN2Qt3KeyE@Qt_5 5.0.2
 _ZN5QTest10testObjectEv@Qt_5 5.0.2
 _ZN5QTest11qExpectFailEPKcS1_NS_12TestFailModeES1_i@Qt_5 5.0.2
 _ZN5QTest11qGlobalDataEPKci@Qt_5 5.0.2
 _ZN5QTest12qElementDataEPKci@Qt_5 5.0.2
 _ZN5QTest13ignoreMessageE9QtMsgTypePKc@Qt_5 5.0.2
 _ZN5QTest13ignoreMessageE9QtMsgTypeRK18QRegularExpression@Qt_5 5.3.0
 _ZN5QTest13qFindTestDataEPKcS1_iS1_@Qt_5 5.0.2
 _ZN5QTest13qFindTestDataERK7QStringPKciS4_@Qt_5 5.0.2
 _ZN5QTest13testFunctionsE@Qt_5 5.0.2
 _ZN5QTest14compare_helperEbPKcPcS2_S1_S1_S1_i@Qt_5 5.0.2
 _ZN5QTest14currentAppNameEv@Qt_5 5.2.0~beta1
 _ZN5QTest14currentDataTagEv@Qt_5 5.0.2
 _ZN5QTest15defaultKeyDelayEv@Qt_5 5.0.2
 _ZN5QTest15lastMouseButtonE@Qt_5 5.6.0~beta
 _ZN5QTest15toPrettyCStringEPKci@Qt_5 5.5.0
 _ZN5QTest15toPrettyUnicodeEPKti@Qt_5 5.3.0
 _ZN5QTest16qExtractTestDataERK7QString@Qt_5 5.5.0
 _ZN5QTest16qtest_qParseArgsEiPPcb@Qt_5 5.0.2
 _ZN5QTest17addColumnInternalEiPKc@Qt_5 5.0.2
 _ZN5QTest17currentTestFailedEv@Qt_5 5.0.2
 _ZN5QTest17defaultMouseDelayEv@Qt_5 5.0.2
 _ZN5QTest17setMainSourcePathEPKcS1_@Qt_5 5.5.0
 _ZN5QTest18lastMouseTimestampE@Qt_5 5.6.0~beta
 _ZN5QTest18setBenchmarkResultEdNS_16QBenchmarkMetricE@Qt_5 5.2.0
 _ZN5QTest19currentTestFunctionEv@Qt_5 5.0.2
 _ZN5QTest19toHexRepresentationEPKci@Qt_5 5.0.2
 _ZN5QTest21compare_string_helperEPKcS1_S1_S1_S1_i@Qt_5 5.0.2
 _ZN5QTest23endBenchmarkMeasurementEv@Qt_5 5.0.2
 _ZN5QTest23printAvailableFunctionsE@Qt_5 5.0.2
 _ZN5QTest25beginBenchmarkMeasurementEv@Qt_5 5.0.2
 _ZN5QTest29QBenchmarkIterationController4nextEv@Qt_5 5.0.2
 _ZN5QTest29QBenchmarkIterationController6isDoneEv@Qt_5 5.0.2
 _ZN5QTest29QBenchmarkIterationControllerC1ENS0_7RunModeE@Qt_5 5.0.2
 _ZN5QTest29QBenchmarkIterationControllerC1Ev@Qt_5 5.0.2
 _ZN5QTest29QBenchmarkIterationControllerC2ENS0_7RunModeE@Qt_5 5.0.2
 _ZN5QTest29QBenchmarkIterationControllerC2Ev@Qt_5 5.0.2
 _ZN5QTest29QBenchmarkIterationControllerD1Ev@Qt_5 5.0.2
 _ZN5QTest29QBenchmarkIterationControllerD2Ev@Qt_5 5.0.2
 _ZN5QTest5qDataEPKci@Qt_5 5.0.2
 _ZN5QTest5qExecEP7QObjectRK11QStringList@Qt_5 5.0.2
 _ZN5QTest5qExecEP7QObjectiPPc@Qt_5 5.0.2
 _ZN5QTest5qFailEPKcS1_i@Qt_5 5.0.2
 _ZN5QTest5qSkipEPKcS1_i@Qt_5 5.0.2
 _ZN5QTest5qWarnEPKcS1_i@Qt_5 5.0.2
 _ZN5QTest6newRowEPKc@Qt_5 5.0.2
 _ZN5QTest6qSleepEi@Qt_5 5.0.2
 _ZN5QTest7qVerifyEbPKcS1_S1_i@Qt_5 5.0.2
 _ZN5QTest8qCompareERKdS1_PKcS3_S3_i@Qt_5 5.0.2
 _ZN5QTest8qCompareERKfS1_PKcS3_S3_i@Qt_5 5.0.2
 _ZN5QTest8testTagsE@Qt_5 5.0.2
 _ZN5QTest8toStringEPKc@Qt_5 5.0.2
 _ZN5QTest8toStringEPKv@Qt_5 5.0.2
 (optional=templinst)_ZN5QTest8toStringIaEEPcRKT_@Qt_5 5.6.0~beta
 (optional=templinst)_ZN5QTest8toStringIbEEPcRKT_@Qt_5 5.0.2
 (optional=templinst)_ZN5QTest8toStringIcEEPcRKT_@Qt_5 5.0.2
 (optional=templinst)_ZN5QTest8toStringIdEEPcRKT_@Qt_5 5.0.2
 (optional=templinst)_ZN5QTest8toStringIfEEPcRKT_@Qt_5 5.0.2
 (optional=templinst)_ZN5QTest8toStringIhEEPcRKT_@Qt_5 5.6.0~beta
 (optional=templinst)_ZN5QTest8toStringIiEEPcRKT_@Qt_5 5.0.2
 (optional=templinst)_ZN5QTest8toStringIjEEPcRKT_@Qt_5 5.0.2
 (optional=templinst)_ZN5QTest8toStringIlEEPcRKT_@Qt_5 5.0.2
 (optional=templinst)_ZN5QTest8toStringImEEPcRKT_@Qt_5 5.0.2
 (optional=templinst)_ZN5QTest8toStringIsEEPcRKT_@Qt_5 5.0.2
 (optional=templinst)_ZN5QTest8toStringItEEPcRKT_@Qt_5 5.0.2
 (optional=templinst)_ZN5QTest8toStringIxEEPcRKT_@Qt_5 5.0.2
 (optional=templinst)_ZN5QTest8toStringIyEEPcRKT_@Qt_5 5.0.2
 _ZN8QTestLog11loggerCountEv@Qt_5_PRIVATE_API 5.0.2 1
 _ZN8QTestLog11stopLoggingEv@Qt_5_PRIVATE_API 5.0.2 1
 _ZN8QTestLog12startLoggingEv@Qt_5_PRIVATE_API 5.0.2 1
 _ZN8QTestLog12verboseLevelEv@Qt_5_PRIVATE_API 5.0.2 1
 _ZN8QTestLog13ignoreMessageE9QtMsgTypePKc@Qt_5_PRIVATE_API 5.0.2 1
 _ZN8QTestLog13ignoreMessageE9QtMsgTypeRK18QRegularExpression@Qt_5_PRIVATE_API 5.3.0 1
 _ZN8QTestLog13resetCountersEv@Qt_5_PRIVATE_API 5.0.2 1
 _ZN8QTestLog14blacklistCountEv@Qt_5_PRIVATE_API 5.4.0 1
 _ZN8QTestLog14nsecsTotalTimeEv@Qt_5_PRIVATE_API 5.6.0~beta 1
 _ZN8QTestLog14setMaxWarningsEi@Qt_5_PRIVATE_API 5.0.2 1
 _ZN8QTestLog15setVerboseLevelEi@Qt_5_PRIVATE_API 5.0.2 1
 _ZN8QTestLog17enterTestFunctionEPKc@Qt_5_PRIVATE_API 5.0.2 1
 _ZN8QTestLog17leaveTestFunctionEv@Qt_5_PRIVATE_API 5.0.2 1
 _ZN8QTestLog17loggerUsingStdoutEv@Qt_5_PRIVATE_API 5.0.2 1
 _ZN8QTestLog17nsecsFunctionTimeEv@Qt_5_PRIVATE_API 5.6.0~beta 1
 _ZN8QTestLog18addBenchmarkResultERK16QBenchmarkResult@Qt_5_PRIVATE_API 5.0.2 1
 _ZN8QTestLog18printAvailableTagsE@Qt_5_PRIVATE_API 5.0.2 1
 _ZN8QTestLog19clearIgnoreMessagesEv@Qt_5_PRIVATE_API 5.0.2 1
 _ZN8QTestLog21installedTestCoverageEv@Qt_5_PRIVATE_API 5.0.2 1
 _ZN8QTestLog23unhandledIgnoreMessagesEv@Qt_5_PRIVATE_API 5.0.2 1
 _ZN8QTestLog24setInstalledTestCoverageEb@Qt_5_PRIVATE_API 5.0.2 1
 _ZN8QTestLog25setPrintAvailableTagsModeEv@Qt_5_PRIVATE_API 5.0.2 1
 _ZN8QTestLog28printUnhandledIgnoreMessagesEv@Qt_5_PRIVATE_API 5.0.2 1
 _ZN8QTestLog4infoEPKcS1_i@Qt_5_PRIVATE_API 5.0.2 1
 _ZN8QTestLog4warnEPKcS1_i@Qt_5_PRIVATE_API 5.0.2 1
 _ZN8QTestLog7addFailEPKcS1_i@Qt_5_PRIVATE_API 5.0.2 1
 _ZN8QTestLog7addPassEPKc@Qt_5_PRIVATE_API 5.0.2 1
 _ZN8QTestLog7addSkipEPKcS1_i@Qt_5_PRIVATE_API 5.0.2 1
 _ZN8QTestLog8addBFailEPKcS1_i@Qt_5_PRIVATE_API 5.4.0 1
 _ZN8QTestLog8addBPassEPKc@Qt_5_PRIVATE_API 5.4.0 1
 _ZN8QTestLog8addXFailEPKcS1_i@Qt_5_PRIVATE_API 5.0.2 1
 _ZN8QTestLog8addXPassEPKcS1_i@Qt_5_PRIVATE_API 5.0.2 1
 _ZN8QTestLog9addLoggerENS_7LogModeEPKc@Qt_5_PRIVATE_API 5.0.2 1
 _ZN8QTestLog9failCountEv@Qt_5_PRIVATE_API 5.0.2 1
 _ZN8QTestLog9passCountEv@Qt_5_PRIVATE_API 5.0.2 1
 _ZN8QTestLog9skipCountEv@Qt_5_PRIVATE_API 5.0.2 1
 _ZN9QTestData6appendEiPKv@Qt_5 5.0.2
 _ZN9QTestDataC1EPKcP10QTestTable@Qt_5_PRIVATE_API 5.0.2 1
 _ZN9QTestDataC2EPKcP10QTestTable@Qt_5_PRIVATE_API 5.0.2 1
 _ZN9QTestDataD1Ev@Qt_5 5.0.2
 _ZN9QTestDataD2Ev@Qt_5 5.0.2
 _ZNK10QTestTable12elementCountEv@Qt_5_PRIVATE_API 5.0.2 1
 _ZNK10QTestTable13elementTypeIdEi@Qt_5_PRIVATE_API 5.0.2 1
 _ZNK10QTestTable7dataTagEi@Qt_5_PRIVATE_API 5.0.2 1
 _ZNK10QTestTable7indexOfEPKc@Qt_5_PRIVATE_API 5.0.2 1
 _ZNK10QTestTable7isEmptyEv@Qt_5_PRIVATE_API 5.0.2 1
 _ZNK10QTestTable8testDataEi@Qt_5_PRIVATE_API 5.0.2 1
 _ZNK10QTestTable9dataCountEv@Qt_5_PRIVATE_API 5.0.2 1
 _ZNK14QTestEventLoop10metaObjectEv@Qt_5 5.0.2
 _ZNK9QTestData4dataEi@Qt_5 5.0.2
 _ZNK9QTestData6parentEv@Qt_5 5.0.2
 _ZNK9QTestData7dataTagEv@Qt_5 5.0.2
 _ZNK9QTestData9dataCountEv@Qt_5 5.0.2
 (optional=templinst)_ZNSt6vectorI11QMetaMethodSaIS0_EE19_M_emplace_back_auxIJRKS0_EEEvDpOT_@Qt_5 5.7.0
 (optional=templinst)_ZNSt6vectorIP9QTestDataSaIS1_EE19_M_emplace_back_auxIJRKS1_EEEvDpOT_@Qt_5 5.6.0~beta
 (optional=templinst)_ZNSt8_Rb_treeI10QByteArrayS0_St9_IdentityIS0_ESt4lessIS0_ESaIS0_EE16_M_insert_uniqueIRKS0_EESt4pairISt17_Rb_tree_iteratorIS0_EbEOT_@Qt_5 5.4.0
 _ZNSt8_Rb_treeI10QByteArrayS0_St9_IdentityIS0_ESt4lessIS0_ESaIS0_EE4findERKS0_@Qt_5 5.4.0
 _ZTI14QTestEventLoop@Qt_5 5.0.2
 _ZTS14QTestEventLoop@Qt_5 5.0.2
 _ZTV14QTestEventLoop@Qt_5 5.0.2
 qgpu_features_ptr@Qt_5 5.5.0
