# SymbolsHelper-Confirmed: 5.7.0 amd64
libQt5Xml.so.5 libqt5xml5 #MINVER#
| libqt5xml5 #MINVER#, qtbase-abi-5-7-1
* Build-Depends-Package: qtbase5-dev
 Qt_5.0@Qt_5.0 5.6.0~beta
 Qt_5.1@Qt_5.1 5.6.0~beta
 Qt_5.2@Qt_5.2 5.6.0~beta
 Qt_5.3@Qt_5.3 5.6.0~beta
 Qt_5.4@Qt_5.4 5.6.0~beta
 Qt_5.5@Qt_5.5 5.6.0~beta
 Qt_5.6@Qt_5.6 5.6.0~beta
 Qt_5.7@Qt_5.7 5.7.0
 Qt_5@Qt_5 5.6.0~beta
 Qt_5_PRIVATE_API@Qt_5_PRIVATE_API 5.6.0~beta 1
 _ZN10QDomEntityC1EP17QDomEntityPrivate@Qt_5 5.0.2
 _ZN10QDomEntityC1ERKS_@Qt_5 5.0.2
 _ZN10QDomEntityC1Ev@Qt_5 5.0.2
 _ZN10QDomEntityC2EP17QDomEntityPrivate@Qt_5 5.0.2
 _ZN10QDomEntityC2ERKS_@Qt_5 5.0.2
 _ZN10QDomEntityC2Ev@Qt_5 5.0.2
 _ZN10QDomEntityaSERKS_@Qt_5 5.0.2
 _ZN11QDomCommentC1EP18QDomCommentPrivate@Qt_5 5.0.2
 _ZN11QDomCommentC1ERKS_@Qt_5 5.0.2
 _ZN11QDomCommentC1Ev@Qt_5 5.0.2
 _ZN11QDomCommentC2EP18QDomCommentPrivate@Qt_5 5.0.2
 _ZN11QDomCommentC2ERKS_@Qt_5 5.0.2
 _ZN11QDomCommentC2Ev@Qt_5 5.0.2
 _ZN11QDomCommentaSERKS_@Qt_5 5.0.2
 _ZN11QDomElement10setTagNameERK7QString@Qt_5 5.0.2
 _ZN11QDomElement12setAttributeERK7QStringS2_@Qt_5 5.0.2
 _ZN11QDomElement12setAttributeERK7QStringd@Qt_5 5.0.2
 _ZN11QDomElement12setAttributeERK7QStringf@Qt_5 5.0.2
 _ZN11QDomElement12setAttributeERK7QStringx@Qt_5 5.0.2
 _ZN11QDomElement12setAttributeERK7QStringy@Qt_5 5.0.2
 _ZN11QDomElement13attributeNodeERK7QString@Qt_5 5.0.2
 _ZN11QDomElement14setAttributeNSE7QStringRKS0_S2_@Qt_5 5.0.2
 _ZN11QDomElement14setAttributeNSE7QStringRKS0_d@Qt_5 5.0.2
 _ZN11QDomElement14setAttributeNSE7QStringRKS0_x@Qt_5 5.0.2
 _ZN11QDomElement14setAttributeNSE7QStringRKS0_y@Qt_5 5.0.2
 _ZN11QDomElement15attributeNodeNSERK7QStringS2_@Qt_5 5.0.2
 _ZN11QDomElement15removeAttributeERK7QString@Qt_5 5.0.2
 _ZN11QDomElement16setAttributeNodeERK8QDomAttr@Qt_5 5.0.2
 _ZN11QDomElement17removeAttributeNSERK7QStringS2_@Qt_5 5.0.2
 _ZN11QDomElement18setAttributeNodeNSERK8QDomAttr@Qt_5 5.0.2
 _ZN11QDomElement19removeAttributeNodeERK8QDomAttr@Qt_5 5.0.2
 _ZN11QDomElementC1EP18QDomElementPrivate@Qt_5 5.0.2
 _ZN11QDomElementC1ERKS_@Qt_5 5.0.2
 _ZN11QDomElementC1Ev@Qt_5 5.0.2
 _ZN11QDomElementC2EP18QDomElementPrivate@Qt_5 5.0.2
 _ZN11QDomElementC2ERKS_@Qt_5 5.0.2
 _ZN11QDomElementC2Ev@Qt_5 5.0.2
 _ZN11QDomElementaSERKS_@Qt_5 5.0.2
 _ZN11QXmlLocatorC1Ev@Qt_5 5.0.2
 _ZN11QXmlLocatorC2Ev@Qt_5 5.0.2
 _ZN11QXmlLocatorD0Ev@Qt_5 5.0.2
 _ZN11QXmlLocatorD1Ev@Qt_5 5.0.2
 _ZN11QXmlLocatorD2Ev@Qt_5 5.0.2
 _ZN12QDomDocument10importNodeERK8QDomNodeb@Qt_5 5.0.2
 _ZN12QDomDocument10setContentEP15QXmlInputSourceP10QXmlReaderP7QStringPiS6_@Qt_5 5.0.2
 _ZN12QDomDocument10setContentEP15QXmlInputSourcebP7QStringPiS4_@Qt_5 5.0.2
 _ZN12QDomDocument10setContentEP9QIODeviceP7QStringPiS4_@Qt_5 5.0.2
 _ZN12QDomDocument10setContentEP9QIODevicebP7QStringPiS4_@Qt_5 5.0.2
 _ZN12QDomDocument10setContentERK10QByteArrayP7QStringPiS5_@Qt_5 5.0.2
 _ZN12QDomDocument10setContentERK10QByteArraybP7QStringPiS5_@Qt_5 5.0.2
 _ZN12QDomDocument10setContentERK7QStringPS0_PiS4_@Qt_5 5.0.2
 _ZN12QDomDocument10setContentERK7QStringbPS0_PiS4_@Qt_5 5.0.2
 _ZN12QDomDocument11elementByIdERK7QString@Qt_5 5.0.2
 _ZN12QDomDocument13createCommentERK7QString@Qt_5 5.0.2
 _ZN12QDomDocument13createElementERK7QString@Qt_5 5.0.2
 _ZN12QDomDocument14createTextNodeERK7QString@Qt_5 5.0.2
 _ZN12QDomDocument15createAttributeERK7QString@Qt_5 5.0.2
 _ZN12QDomDocument15createElementNSERK7QStringS2_@Qt_5 5.0.2
 _ZN12QDomDocument17createAttributeNSERK7QStringS2_@Qt_5 5.0.2
 _ZN12QDomDocument18createCDATASectionERK7QString@Qt_5 5.0.2
 _ZN12QDomDocument19elementsByTagNameNSERK7QStringS2_@Qt_5 5.0.2
 _ZN12QDomDocument21createEntityReferenceERK7QString@Qt_5 5.0.2
 _ZN12QDomDocument22createDocumentFragmentEv@Qt_5 5.0.2
 _ZN12QDomDocument27createProcessingInstructionERK7QStringS2_@Qt_5 5.0.2
 _ZN12QDomDocumentC1EP19QDomDocumentPrivate@Qt_5 5.0.2
 _ZN12QDomDocumentC1ERK16QDomDocumentType@Qt_5 5.0.2
 _ZN12QDomDocumentC1ERK7QString@Qt_5 5.0.2
 _ZN12QDomDocumentC1ERKS_@Qt_5 5.0.2
 _ZN12QDomDocumentC1Ev@Qt_5 5.0.2
 _ZN12QDomDocumentC2EP19QDomDocumentPrivate@Qt_5 5.0.2
 _ZN12QDomDocumentC2ERK16QDomDocumentType@Qt_5 5.0.2
 _ZN12QDomDocumentC2ERK7QString@Qt_5 5.0.2
 _ZN12QDomDocumentC2ERKS_@Qt_5 5.0.2
 _ZN12QDomDocumentC2Ev@Qt_5 5.0.2
 _ZN12QDomDocumentD1Ev@Qt_5 5.0.2
 _ZN12QDomDocumentD2Ev@Qt_5 5.0.2
 _ZN12QDomDocumentaSERKS_@Qt_5 5.0.2
 _ZN12QDomNodeListC1EP19QDomNodeListPrivate@Qt_5 5.0.2
 _ZN12QDomNodeListC1ERKS_@Qt_5 5.0.2
 _ZN12QDomNodeListC1Ev@Qt_5 5.0.2
 _ZN12QDomNodeListC2EP19QDomNodeListPrivate@Qt_5 5.0.2
 _ZN12QDomNodeListC2ERKS_@Qt_5 5.0.2
 _ZN12QDomNodeListC2Ev@Qt_5 5.0.2
 _ZN12QDomNodeListD1Ev@Qt_5 5.0.2
 _ZN12QDomNodeListD2Ev@Qt_5 5.0.2
 _ZN12QDomNodeListaSERKS_@Qt_5 5.0.2
 _ZN12QDomNotationC1EP19QDomNotationPrivate@Qt_5 5.0.2
 _ZN12QDomNotationC1ERKS_@Qt_5 5.0.2
 _ZN12QDomNotationC1Ev@Qt_5 5.0.2
 _ZN12QDomNotationC2EP19QDomNotationPrivate@Qt_5 5.0.2
 _ZN12QDomNotationC2ERKS_@Qt_5 5.0.2
 _ZN12QDomNotationC2Ev@Qt_5 5.0.2
 _ZN12QDomNotationaSERKS_@Qt_5 5.0.2
 _ZN14QXmlAttributes5clearEv@Qt_5 5.0.2
 _ZN14QXmlAttributes6appendERK7QStringS2_S2_S2_@Qt_5 5.0.2
 _ZN14QXmlAttributesC1Ev@Qt_5 5.1.0
 _ZN14QXmlAttributesC2Ev@Qt_5 5.1.0
 _ZN14QXmlAttributesD0Ev@Qt_5 5.1.0
 _ZN14QXmlAttributesD1Ev@Qt_5 5.1.0
 _ZN14QXmlAttributesD2Ev@Qt_5 5.1.0
 _ZN15QXmlInputSource11fromRawDataERK10QByteArrayb@Qt_5 5.0.2
 _ZN15QXmlInputSource13EndOfDocumentE@Qt_5 5.0.2
 _ZN15QXmlInputSource4initEv@Qt_5 5.0.2
 _ZN15QXmlInputSource4nextEv@Qt_5 5.0.2
 _ZN15QXmlInputSource5resetEv@Qt_5 5.0.2
 _ZN15QXmlInputSource7setDataERK10QByteArray@Qt_5 5.0.2
 _ZN15QXmlInputSource7setDataERK7QString@Qt_5 5.0.2
 _ZN15QXmlInputSource9EndOfDataE@Qt_5 5.0.2
 _ZN15QXmlInputSource9fetchDataEv@Qt_5 5.0.2
 _ZN15QXmlInputSourceC1EP9QIODevice@Qt_5 5.0.2
 _ZN15QXmlInputSourceC1Ev@Qt_5 5.0.2
 _ZN15QXmlInputSourceC2EP9QIODevice@Qt_5 5.0.2
 _ZN15QXmlInputSourceC2Ev@Qt_5 5.0.2
 _ZN15QXmlInputSourceD0Ev@Qt_5 5.0.2
 _ZN15QXmlInputSourceD1Ev@Qt_5 5.0.2
 _ZN15QXmlInputSourceD2Ev@Qt_5 5.0.2
 _ZN16QDomCDATASectionC1EP23QDomCDATASectionPrivate@Qt_5 5.0.2
 _ZN16QDomCDATASectionC1ERKS_@Qt_5 5.0.2
 _ZN16QDomCDATASectionC1Ev@Qt_5 5.0.2
 _ZN16QDomCDATASectionC2EP23QDomCDATASectionPrivate@Qt_5 5.0.2
 _ZN16QDomCDATASectionC2ERKS_@Qt_5 5.0.2
 _ZN16QDomCDATASectionC2Ev@Qt_5 5.0.2
 _ZN16QDomCDATASectionaSERKS_@Qt_5 5.0.2
 _ZN16QDomDocumentTypeC1EP23QDomDocumentTypePrivate@Qt_5 5.0.2
 _ZN16QDomDocumentTypeC1ERKS_@Qt_5 5.0.2
 _ZN16QDomDocumentTypeC1Ev@Qt_5 5.0.2
 _ZN16QDomDocumentTypeC2EP23QDomDocumentTypePrivate@Qt_5 5.0.2
 _ZN16QDomDocumentTypeC2ERKS_@Qt_5 5.0.2
 _ZN16QDomDocumentTypeC2Ev@Qt_5 5.0.2
 _ZN16QDomDocumentTypeaSERKS_@Qt_5 5.0.2
 _ZN16QDomNamedNodeMap12setNamedItemERK8QDomNode@Qt_5 5.0.2
 _ZN16QDomNamedNodeMap14setNamedItemNSERK8QDomNode@Qt_5 5.0.2
 _ZN16QDomNamedNodeMap15removeNamedItemERK7QString@Qt_5 5.0.2
 _ZN16QDomNamedNodeMap17removeNamedItemNSERK7QStringS2_@Qt_5 5.0.2
 _ZN16QDomNamedNodeMapC1EP23QDomNamedNodeMapPrivate@Qt_5 5.0.2
 _ZN16QDomNamedNodeMapC1ERKS_@Qt_5 5.0.2
 _ZN16QDomNamedNodeMapC1Ev@Qt_5 5.0.2
 _ZN16QDomNamedNodeMapC2EP23QDomNamedNodeMapPrivate@Qt_5 5.0.2
 _ZN16QDomNamedNodeMapC2ERKS_@Qt_5 5.0.2
 _ZN16QDomNamedNodeMapC2Ev@Qt_5 5.0.2
 _ZN16QDomNamedNodeMapD1Ev@Qt_5 5.0.2
 _ZN16QDomNamedNodeMapD2Ev@Qt_5 5.0.2
 _ZN16QDomNamedNodeMapaSERKS_@Qt_5 5.0.2
 _ZN16QXmlSimpleReader10setFeatureERK7QStringb@Qt_5 5.0.2
 _ZN16QXmlSimpleReader11setPropertyERK7QStringPv@Qt_5 5.0.2
 _ZN16QXmlSimpleReader13parseContinueEv@Qt_5 5.0.2
 _ZN16QXmlSimpleReader13setDTDHandlerEP14QXmlDTDHandler@Qt_5 5.0.2
 _ZN16QXmlSimpleReader14setDeclHandlerEP15QXmlDeclHandler@Qt_5 5.0.2
 _ZN16QXmlSimpleReader15setErrorHandlerEP16QXmlErrorHandler@Qt_5 5.0.2
 _ZN16QXmlSimpleReader17setContentHandlerEP18QXmlContentHandler@Qt_5 5.0.2
 _ZN16QXmlSimpleReader17setEntityResolverEP18QXmlEntityResolver@Qt_5 5.0.2
 _ZN16QXmlSimpleReader17setLexicalHandlerEP18QXmlLexicalHandler@Qt_5 5.0.2
 _ZN16QXmlSimpleReader5parseEPK15QXmlInputSource@Qt_5 5.0.2
 _ZN16QXmlSimpleReader5parseEPK15QXmlInputSourceb@Qt_5 5.0.2
 _ZN16QXmlSimpleReader5parseERK15QXmlInputSource@Qt_5 5.0.2
 _ZN16QXmlSimpleReaderC1Ev@Qt_5 5.0.2
 _ZN16QXmlSimpleReaderC2Ev@Qt_5 5.0.2
 _ZN16QXmlSimpleReaderD0Ev@Qt_5 5.0.2
 _ZN16QXmlSimpleReaderD1Ev@Qt_5 5.0.2
 _ZN16QXmlSimpleReaderD2Ev@Qt_5 5.0.2
 _ZN17QDomCharacterData10appendDataERK7QString@Qt_5 5.0.2
 _ZN17QDomCharacterData10deleteDataEmm@Qt_5 5.0.2
 _ZN17QDomCharacterData10insertDataEmRK7QString@Qt_5 5.0.2
 _ZN17QDomCharacterData11replaceDataEmmRK7QString@Qt_5 5.0.2
 _ZN17QDomCharacterData13substringDataEmm@Qt_5 5.0.2
 _ZN17QDomCharacterData7setDataERK7QString@Qt_5 5.0.2
 _ZN17QDomCharacterDataC1EP24QDomCharacterDataPrivate@Qt_5 5.0.2
 _ZN17QDomCharacterDataC1ERKS_@Qt_5 5.0.2
 _ZN17QDomCharacterDataC1Ev@Qt_5 5.0.2
 _ZN17QDomCharacterDataC2EP24QDomCharacterDataPrivate@Qt_5 5.0.2
 _ZN17QDomCharacterDataC2ERKS_@Qt_5 5.0.2
 _ZN17QDomCharacterDataC2Ev@Qt_5 5.0.2
 _ZN17QDomCharacterDataaSERKS_@Qt_5 5.0.2
 _ZN18QDomImplementation14createDocumentERK7QStringS2_RK16QDomDocumentType@Qt_5 5.0.2
 _ZN18QDomImplementation17invalidDataPolicyEv@Qt_5 5.0.2
 _ZN18QDomImplementation18createDocumentTypeERK7QStringS2_S2_@Qt_5 5.0.2
 _ZN18QDomImplementation20setInvalidDataPolicyENS_17InvalidDataPolicyE@Qt_5 5.0.2
 _ZN18QDomImplementation6isNullEv@Qt_5 5.0.2
 _ZN18QDomImplementationC1EP25QDomImplementationPrivate@Qt_5 5.0.2
 _ZN18QDomImplementationC1ERKS_@Qt_5 5.0.2
 _ZN18QDomImplementationC1Ev@Qt_5 5.0.2
 _ZN18QDomImplementationC2EP25QDomImplementationPrivate@Qt_5 5.0.2
 _ZN18QDomImplementationC2ERKS_@Qt_5 5.0.2
 _ZN18QDomImplementationC2Ev@Qt_5 5.0.2
 _ZN18QDomImplementationD1Ev@Qt_5 5.0.2
 _ZN18QDomImplementationD2Ev@Qt_5 5.0.2
 _ZN18QDomImplementationaSERKS_@Qt_5 5.0.2
 _ZN18QXmlDefaultHandler10charactersERK7QString@Qt_5 5.0.2
 _ZN18QXmlDefaultHandler10endElementERK7QStringS2_S2_@Qt_5 5.0.2
 _ZN18QXmlDefaultHandler10fatalErrorERK18QXmlParseException@Qt_5 5.0.2
 _ZN18QXmlDefaultHandler10startCDATAEv@Qt_5 5.0.2
 _ZN18QXmlDefaultHandler11endDocumentEv@Qt_5 5.0.2
 _ZN18QXmlDefaultHandler11startEntityERK7QString@Qt_5 5.0.2
 _ZN18QXmlDefaultHandler12notationDeclERK7QStringS2_S2_@Qt_5 5.0.2
 _ZN18QXmlDefaultHandler12startElementERK7QStringS2_S2_RK14QXmlAttributes@Qt_5 5.0.2
 _ZN18QXmlDefaultHandler13attributeDeclERK7QStringS2_S2_S2_S2_@Qt_5 5.0.2
 _ZN18QXmlDefaultHandler13resolveEntityERK7QStringS2_RP15QXmlInputSource@Qt_5 5.0.2
 _ZN18QXmlDefaultHandler13skippedEntityERK7QString@Qt_5 5.0.2
 _ZN18QXmlDefaultHandler13startDocumentEv@Qt_5 5.0.2
 _ZN18QXmlDefaultHandler16endPrefixMappingERK7QString@Qt_5 5.0.2
 _ZN18QXmlDefaultHandler18externalEntityDeclERK7QStringS2_S2_@Qt_5 5.0.2
 _ZN18QXmlDefaultHandler18internalEntityDeclERK7QStringS2_@Qt_5 5.0.2
 _ZN18QXmlDefaultHandler18setDocumentLocatorEP11QXmlLocator@Qt_5 5.0.2
 _ZN18QXmlDefaultHandler18startPrefixMappingERK7QStringS2_@Qt_5 5.0.2
 _ZN18QXmlDefaultHandler18unparsedEntityDeclERK7QStringS2_S2_S2_@Qt_5 5.0.2
 _ZN18QXmlDefaultHandler19ignorableWhitespaceERK7QString@Qt_5 5.0.2
 _ZN18QXmlDefaultHandler21processingInstructionERK7QStringS2_@Qt_5 5.0.2
 _ZN18QXmlDefaultHandler5errorERK18QXmlParseException@Qt_5 5.0.2
 _ZN18QXmlDefaultHandler6endDTDEv@Qt_5 5.0.2
 _ZN18QXmlDefaultHandler7commentERK7QString@Qt_5 5.0.2
 _ZN18QXmlDefaultHandler7warningERK18QXmlParseException@Qt_5 5.0.2
 _ZN18QXmlDefaultHandler8endCDATAEv@Qt_5 5.0.2
 _ZN18QXmlDefaultHandler8startDTDERK7QStringS2_S2_@Qt_5 5.0.2
 _ZN18QXmlDefaultHandler9endEntityERK7QString@Qt_5 5.0.2
 _ZN18QXmlDefaultHandlerC1Ev@Qt_5 5.1.0
 _ZN18QXmlDefaultHandlerC2Ev@Qt_5 5.1.0
 _ZN18QXmlDefaultHandlerD0Ev@Qt_5 5.1.0
 _ZN18QXmlDefaultHandlerD1Ev@Qt_5 5.1.0
 _ZN18QXmlDefaultHandlerD2Ev@Qt_5 5.1.0
 _ZN18QXmlParseExceptionC1ERK7QStringiiS2_S2_@Qt_5 5.0.2
 _ZN18QXmlParseExceptionC1ERKS_@Qt_5 5.0.2
 _ZN18QXmlParseExceptionC2ERK7QStringiiS2_S2_@Qt_5 5.0.2
 _ZN18QXmlParseExceptionC2ERKS_@Qt_5 5.0.2
 _ZN18QXmlParseExceptionD1Ev@Qt_5 5.0.2
 _ZN18QXmlParseExceptionD2Ev@Qt_5 5.0.2
 _ZN19QDomEntityReferenceC1EP26QDomEntityReferencePrivate@Qt_5 5.0.2
 _ZN19QDomEntityReferenceC1ERKS_@Qt_5 5.0.2
 _ZN19QDomEntityReferenceC1Ev@Qt_5 5.0.2
 _ZN19QDomEntityReferenceC2EP26QDomEntityReferencePrivate@Qt_5 5.0.2
 _ZN19QDomEntityReferenceC2ERKS_@Qt_5 5.0.2
 _ZN19QDomEntityReferenceC2Ev@Qt_5 5.0.2
 _ZN19QDomEntityReferenceaSERKS_@Qt_5 5.0.2
 _ZN20QDomDocumentFragmentC1EP27QDomDocumentFragmentPrivate@Qt_5 5.0.2
 _ZN20QDomDocumentFragmentC1ERKS_@Qt_5 5.0.2
 _ZN20QDomDocumentFragmentC1Ev@Qt_5 5.0.2
 _ZN20QDomDocumentFragmentC2EP27QDomDocumentFragmentPrivate@Qt_5 5.0.2
 _ZN20QDomDocumentFragmentC2ERKS_@Qt_5 5.0.2
 _ZN20QDomDocumentFragmentC2Ev@Qt_5 5.0.2
 _ZN20QDomDocumentFragmentaSERKS_@Qt_5 5.0.2
 _ZN20QXmlNamespaceSupport10popContextEv@Qt_5 5.0.2
 _ZN20QXmlNamespaceSupport11pushContextEv@Qt_5 5.0.2
 _ZN20QXmlNamespaceSupport5resetEv@Qt_5 5.0.2
 _ZN20QXmlNamespaceSupport9setPrefixERK7QStringS2_@Qt_5 5.0.2
 _ZN20QXmlNamespaceSupportC1Ev@Qt_5 5.0.2
 _ZN20QXmlNamespaceSupportC2Ev@Qt_5 5.0.2
 _ZN20QXmlNamespaceSupportD1Ev@Qt_5 5.0.2
 _ZN20QXmlNamespaceSupportD2Ev@Qt_5 5.0.2
 _ZN25QDomProcessingInstruction7setDataERK7QString@Qt_5 5.0.2
 _ZN25QDomProcessingInstructionC1EP32QDomProcessingInstructionPrivate@Qt_5 5.0.2
 _ZN25QDomProcessingInstructionC1ERKS_@Qt_5 5.0.2
 _ZN25QDomProcessingInstructionC1Ev@Qt_5 5.0.2
 _ZN25QDomProcessingInstructionC2EP32QDomProcessingInstructionPrivate@Qt_5 5.0.2
 _ZN25QDomProcessingInstructionC2ERKS_@Qt_5 5.0.2
 _ZN25QDomProcessingInstructionC2Ev@Qt_5 5.0.2
 _ZN25QDomProcessingInstructionaSERKS_@Qt_5 5.0.2
 _ZN8QDomAttr8setValueERK7QString@Qt_5 5.0.2
 _ZN8QDomAttrC1EP15QDomAttrPrivate@Qt_5 5.0.2
 _ZN8QDomAttrC1ERKS_@Qt_5 5.0.2
 _ZN8QDomAttrC1Ev@Qt_5 5.0.2
 _ZN8QDomAttrC2EP15QDomAttrPrivate@Qt_5 5.0.2
 _ZN8QDomAttrC2ERKS_@Qt_5 5.0.2
 _ZN8QDomAttrC2Ev@Qt_5 5.0.2
 _ZN8QDomAttraSERKS_@Qt_5 5.0.2
 _ZN8QDomNode11appendChildERKS_@Qt_5 5.0.2
 _ZN8QDomNode11insertAfterERKS_S1_@Qt_5 5.0.2
 _ZN8QDomNode11removeChildERKS_@Qt_5 5.0.2
 _ZN8QDomNode12insertBeforeERKS_S1_@Qt_5 5.0.2
 _ZN8QDomNode12replaceChildERKS_S1_@Qt_5 5.0.2
 _ZN8QDomNode12setNodeValueERK7QString@Qt_5 5.0.2
 _ZN8QDomNode5clearEv@Qt_5 5.0.2
 _ZN8QDomNode9normalizeEv@Qt_5 5.0.2
 _ZN8QDomNode9setPrefixERK7QString@Qt_5 5.0.2
 _ZN8QDomNodeC1EP15QDomNodePrivate@Qt_5 5.0.2
 _ZN8QDomNodeC1ERKS_@Qt_5 5.0.2
 _ZN8QDomNodeC1Ev@Qt_5 5.0.2
 _ZN8QDomNodeC2EP15QDomNodePrivate@Qt_5 5.0.2
 _ZN8QDomNodeC2ERKS_@Qt_5 5.0.2
 _ZN8QDomNodeC2Ev@Qt_5 5.0.2
 _ZN8QDomNodeD1Ev@Qt_5 5.0.2
 _ZN8QDomNodeD2Ev@Qt_5 5.0.2
 _ZN8QDomNodeaSERKS_@Qt_5 5.0.2
 _ZN8QDomText9splitTextEi@Qt_5 5.0.2
 _ZN8QDomTextC1EP15QDomTextPrivate@Qt_5 5.0.2
 _ZN8QDomTextC1ERKS_@Qt_5 5.0.2
 _ZN8QDomTextC1Ev@Qt_5 5.0.2
 _ZN8QDomTextC2EP15QDomTextPrivate@Qt_5 5.0.2
 _ZN8QDomTextC2ERKS_@Qt_5 5.0.2
 _ZN8QDomTextC2Ev@Qt_5 5.0.2
 _ZN8QDomTextaSERKS_@Qt_5 5.0.2
 _ZNK10QDomEntity12notationNameEv@Qt_5 5.0.2
 _ZNK10QDomEntity8publicIdEv@Qt_5 5.0.2
 _ZNK10QDomEntity8systemIdEv@Qt_5 5.0.2
 _ZNK11QDomElement10attributesEv@Qt_5 5.0.2
 _ZNK11QDomElement11attributeNSE7QStringRKS0_S2_@Qt_5 5.0.2
 _ZNK11QDomElement12hasAttributeERK7QString@Qt_5 5.0.2
 _ZNK11QDomElement14hasAttributeNSERK7QStringS2_@Qt_5 5.0.2
 _ZNK11QDomElement17elementsByTagNameERK7QString@Qt_5 5.0.2
 _ZNK11QDomElement19elementsByTagNameNSERK7QStringS2_@Qt_5 5.0.2
 _ZNK11QDomElement4textEv@Qt_5 5.0.2
 _ZNK11QDomElement7tagNameEv@Qt_5 5.0.2
 _ZNK11QDomElement9attributeERK7QStringS2_@Qt_5 5.0.2
 _ZNK12QDomDocument11toByteArrayEi@Qt_5 5.0.2
 _ZNK12QDomDocument14implementationEv@Qt_5 5.0.2
 _ZNK12QDomDocument15documentElementEv@Qt_5 5.0.2
 _ZNK12QDomDocument17elementsByTagNameERK7QString@Qt_5 5.0.2
 _ZNK12QDomDocument7doctypeEv@Qt_5 5.0.2
 _ZNK12QDomDocument8toStringEi@Qt_5 5.0.2
 _ZNK12QDomNodeList4itemEi@Qt_5 5.0.2
 _ZNK12QDomNodeList6lengthEv@Qt_5 5.0.2
 _ZNK12QDomNodeListeqERKS_@Qt_5 5.0.2
 _ZNK12QDomNodeListneERKS_@Qt_5 5.0.2
 _ZNK12QDomNotation8publicIdEv@Qt_5 5.0.2
 _ZNK12QDomNotation8systemIdEv@Qt_5 5.0.2
 _ZNK14QXmlAttributes3uriEi@Qt_5 5.0.2
 _ZNK14QXmlAttributes4typeERK7QString@Qt_5 5.0.2
 _ZNK14QXmlAttributes4typeERK7QStringS2_@Qt_5 5.0.2
 _ZNK14QXmlAttributes4typeEi@Qt_5 5.0.2
 _ZNK14QXmlAttributes5indexE13QLatin1String@Qt_5 5.0.2
 _ZNK14QXmlAttributes5indexERK7QString@Qt_5 5.0.2
 _ZNK14QXmlAttributes5indexERK7QStringS2_@Qt_5 5.0.2
 _ZNK14QXmlAttributes5qNameEi@Qt_5 5.0.2
 _ZNK14QXmlAttributes5valueE13QLatin1String@Qt_5 5.0.2
 _ZNK14QXmlAttributes5valueERK7QString@Qt_5 5.0.2
 _ZNK14QXmlAttributes5valueERK7QStringS2_@Qt_5 5.0.2
 _ZNK14QXmlAttributes5valueEi@Qt_5 5.0.2
 _ZNK14QXmlAttributes6lengthEv@Qt_5 5.0.2
 _ZNK14QXmlAttributes9localNameEi@Qt_5 5.0.2
 _ZNK15QXmlInputSource4dataEv@Qt_5 5.0.2
 _ZNK16QDomDocumentType14internalSubsetEv@Qt_5 5.0.2
 _ZNK16QDomDocumentType4nameEv@Qt_5 5.0.2
 _ZNK16QDomDocumentType8entitiesEv@Qt_5 5.0.2
 _ZNK16QDomDocumentType8publicIdEv@Qt_5 5.0.2
 _ZNK16QDomDocumentType8systemIdEv@Qt_5 5.0.2
 _ZNK16QDomDocumentType9notationsEv@Qt_5 5.0.2
 _ZNK16QDomNamedNodeMap11namedItemNSERK7QStringS2_@Qt_5 5.0.2
 _ZNK16QDomNamedNodeMap4itemEi@Qt_5 5.0.2
 _ZNK16QDomNamedNodeMap6lengthEv@Qt_5 5.0.2
 _ZNK16QDomNamedNodeMap8containsERK7QString@Qt_5 5.0.2
 _ZNK16QDomNamedNodeMap9namedItemERK7QString@Qt_5 5.0.2
 _ZNK16QDomNamedNodeMapeqERKS_@Qt_5 5.0.2
 _ZNK16QDomNamedNodeMapneERKS_@Qt_5 5.0.2
 _ZNK16QXmlSimpleReader10DTDHandlerEv@Qt_5 5.0.2
 _ZNK16QXmlSimpleReader10hasFeatureERK7QString@Qt_5 5.0.2
 _ZNK16QXmlSimpleReader11declHandlerEv@Qt_5 5.0.2
 _ZNK16QXmlSimpleReader11hasPropertyERK7QString@Qt_5 5.0.2
 _ZNK16QXmlSimpleReader12errorHandlerEv@Qt_5 5.0.2
 _ZNK16QXmlSimpleReader14contentHandlerEv@Qt_5 5.0.2
 _ZNK16QXmlSimpleReader14entityResolverEv@Qt_5 5.0.2
 _ZNK16QXmlSimpleReader14lexicalHandlerEv@Qt_5 5.0.2
 _ZNK16QXmlSimpleReader7featureERK7QStringPb@Qt_5 5.0.2
 _ZNK16QXmlSimpleReader8propertyERK7QStringPb@Qt_5 5.0.2
 _ZNK17QDomCharacterData4dataEv@Qt_5 5.0.2
 _ZNK17QDomCharacterData6lengthEv@Qt_5 5.0.2
 _ZNK17QDomCharacterData8nodeTypeEv@Qt_5 5.0.2
 _ZNK18QDomImplementation10hasFeatureERK7QStringS2_@Qt_5 5.0.2
 _ZNK18QDomImplementationeqERKS_@Qt_5 5.0.2
 _ZNK18QDomImplementationneERKS_@Qt_5 5.0.2
 _ZNK18QXmlDefaultHandler11errorStringEv@Qt_5 5.0.2
 _ZNK18QXmlParseException10lineNumberEv@Qt_5 5.0.2
 _ZNK18QXmlParseException12columnNumberEv@Qt_5 5.0.2
 _ZNK18QXmlParseException7messageEv@Qt_5 5.0.2
 _ZNK18QXmlParseException8publicIdEv@Qt_5 5.0.2
 _ZNK18QXmlParseException8systemIdEv@Qt_5 5.0.2
 _ZNK20QXmlNamespaceSupport11processNameERK7QStringbRS0_S3_@Qt_5 5.0.2
 _ZNK20QXmlNamespaceSupport3uriERK7QString@Qt_5 5.0.2
 _ZNK20QXmlNamespaceSupport6prefixERK7QString@Qt_5 5.0.2
 _ZNK20QXmlNamespaceSupport8prefixesERK7QString@Qt_5 5.0.2
 _ZNK20QXmlNamespaceSupport8prefixesEv@Qt_5 5.0.2
 _ZNK20QXmlNamespaceSupport9splitNameERK7QStringRS0_S3_@Qt_5 5.0.2
 _ZNK25QDomProcessingInstruction4dataEv@Qt_5 5.0.2
 _ZNK25QDomProcessingInstruction6targetEv@Qt_5 5.0.2
 _ZNK8QDomAttr12ownerElementEv@Qt_5 5.0.2
 _ZNK8QDomAttr4nameEv@Qt_5 5.0.2
 _ZNK8QDomAttr5valueEv@Qt_5 5.0.2
 _ZNK8QDomAttr9specifiedEv@Qt_5 5.0.2
 _ZNK8QDomNode10attributesEv@Qt_5 5.0.2
 _ZNK8QDomNode10childNodesEv@Qt_5 5.0.2
 _ZNK8QDomNode10firstChildEv@Qt_5 5.0.2
 _ZNK8QDomNode10isDocumentEv@Qt_5 5.0.2
 _ZNK8QDomNode10isNotationEv@Qt_5 5.0.2
 _ZNK8QDomNode10lineNumberEv@Qt_5 5.0.2
 _ZNK8QDomNode10parentNodeEv@Qt_5 5.0.2
 _ZNK8QDomNode10toDocumentEv@Qt_5 5.0.2
 _ZNK8QDomNode10toNotationEv@Qt_5 5.0.2
 _ZNK8QDomNode11isSupportedERK7QStringS2_@Qt_5 5.0.2
 _ZNK8QDomNode11nextSiblingEv@Qt_5 5.0.2
 _ZNK8QDomNode12columnNumberEv@Qt_5 5.0.2
 _ZNK8QDomNode12namespaceURIEv@Qt_5 5.0.2
 _ZNK8QDomNode13hasAttributesEv@Qt_5 5.0.2
 _ZNK8QDomNode13hasChildNodesEv@Qt_5 5.0.2
 _ZNK8QDomNode13ownerDocumentEv@Qt_5 5.0.2
 _ZNK8QDomNode14isCDATASectionEv@Qt_5 5.0.2
 _ZNK8QDomNode14isDocumentTypeEv@Qt_5 5.0.2
 _ZNK8QDomNode14toCDATASectionEv@Qt_5 5.0.2
 _ZNK8QDomNode14toDocumentTypeEv@Qt_5 5.0.2
 _ZNK8QDomNode15isCharacterDataEv@Qt_5 5.0.2
 _ZNK8QDomNode15previousSiblingEv@Qt_5 5.0.2
 _ZNK8QDomNode15toCharacterDataEv@Qt_5 5.0.2
 _ZNK8QDomNode16lastChildElementERK7QString@Qt_5 5.0.2
 _ZNK8QDomNode17firstChildElementERK7QString@Qt_5 5.0.2
 _ZNK8QDomNode17isEntityReferenceEv@Qt_5 5.0.2
 _ZNK8QDomNode17toEntityReferenceEv@Qt_5 5.0.2
 _ZNK8QDomNode18isDocumentFragmentEv@Qt_5 5.0.2
 _ZNK8QDomNode18nextSiblingElementERK7QString@Qt_5 5.0.2
 _ZNK8QDomNode18toDocumentFragmentEv@Qt_5 5.0.2
 _ZNK8QDomNode22previousSiblingElementERK7QString@Qt_5 5.0.2
 _ZNK8QDomNode23isProcessingInstructionEv@Qt_5 5.0.2
 _ZNK8QDomNode23toProcessingInstructionEv@Qt_5 5.0.2
 _ZNK8QDomNode4saveER11QTextStreamiNS_14EncodingPolicyE@Qt_5 5.0.2
 _ZNK8QDomNode6isAttrEv@Qt_5 5.0.2
 _ZNK8QDomNode6isNullEv@Qt_5 5.0.2
 _ZNK8QDomNode6isTextEv@Qt_5 5.0.2
 _ZNK8QDomNode6prefixEv@Qt_5 5.0.2
 _ZNK8QDomNode6toAttrEv@Qt_5 5.0.2
 _ZNK8QDomNode6toTextEv@Qt_5 5.0.2
 _ZNK8QDomNode8isEntityEv@Qt_5 5.0.2
 _ZNK8QDomNode8nodeNameEv@Qt_5 5.0.2
 _ZNK8QDomNode8nodeTypeEv@Qt_5 5.0.2
 _ZNK8QDomNode8toEntityEv@Qt_5 5.0.2
 _ZNK8QDomNode9cloneNodeEb@Qt_5 5.0.2
 _ZNK8QDomNode9isCommentEv@Qt_5 5.0.2
 _ZNK8QDomNode9isElementEv@Qt_5 5.0.2
 _ZNK8QDomNode9lastChildEv@Qt_5 5.0.2
 _ZNK8QDomNode9localNameEv@Qt_5 5.0.2
 _ZNK8QDomNode9namedItemERK7QString@Qt_5 5.0.2
 _ZNK8QDomNode9nodeValueEv@Qt_5 5.0.2
 _ZNK8QDomNode9toCommentEv@Qt_5 5.0.2
 _ZNK8QDomNode9toElementEv@Qt_5 5.0.2
 _ZNK8QDomNodeeqERKS_@Qt_5 5.0.2
 _ZNK8QDomNodeneERKS_@Qt_5 5.0.2
 _ZTI10QXmlReader@Qt_5 5.0.2
 _ZTI11QXmlLocator@Qt_5 5.0.2
 _ZTI14QXmlAttributes@Qt_5 5.0.2
 _ZTI14QXmlDTDHandler@Qt_5 5.0.2
 _ZTI15QXmlDeclHandler@Qt_5 5.0.2
 _ZTI15QXmlInputSource@Qt_5 5.0.2
 _ZTI16QXmlErrorHandler@Qt_5 5.0.2
 _ZTI16QXmlSimpleReader@Qt_5 5.0.2
 _ZTI18QXmlContentHandler@Qt_5 5.0.2
 _ZTI18QXmlDefaultHandler@Qt_5 5.0.2
 _ZTI18QXmlEntityResolver@Qt_5 5.0.2
 _ZTI18QXmlLexicalHandler@Qt_5 5.0.2
 _ZTS10QXmlReader@Qt_5 5.0.2
 _ZTS11QXmlLocator@Qt_5 5.0.2
 _ZTS14QXmlAttributes@Qt_5 5.0.2
 _ZTS14QXmlDTDHandler@Qt_5 5.0.2
 _ZTS15QXmlDeclHandler@Qt_5 5.0.2
 _ZTS15QXmlInputSource@Qt_5 5.0.2
 _ZTS16QXmlErrorHandler@Qt_5 5.0.2
 _ZTS16QXmlSimpleReader@Qt_5 5.0.2
 _ZTS18QXmlContentHandler@Qt_5 5.0.2
 _ZTS18QXmlDefaultHandler@Qt_5 5.0.2
 _ZTS18QXmlEntityResolver@Qt_5 5.0.2
 _ZTS18QXmlLexicalHandler@Qt_5 5.0.2
 _ZTV11QXmlLocator@Qt_5 5.0.2
 _ZTV14QXmlAttributes@Qt_5 5.0.2
 _ZTV15QXmlInputSource@Qt_5 5.0.2
 _ZTV16QXmlSimpleReader@Qt_5 5.0.2
 _ZTV18QXmlDefaultHandler@Qt_5 5.0.2
 _ZlsR11QTextStreamRK8QDomNode@Qt_5 5.0.2
 (c++)"non-virtual thunk to QXmlDefaultHandler::attributeDecl(QString const&, QString const&, QString const&, QString const&, QString const&)@Qt_5" 5.0.2
 (c++)"non-virtual thunk to QXmlDefaultHandler::comment(QString const&)@Qt_5" 5.0.2
 (c++)"non-virtual thunk to QXmlDefaultHandler::endCDATA()@Qt_5" 5.0.2
 (c++)"non-virtual thunk to QXmlDefaultHandler::endDTD()@Qt_5" 5.0.2
 (c++)"non-virtual thunk to QXmlDefaultHandler::endEntity(QString const&)@Qt_5" 5.0.2
 (c++)"non-virtual thunk to QXmlDefaultHandler::error(QXmlParseException const&)@Qt_5" 5.0.2
 (c++)"non-virtual thunk to QXmlDefaultHandler::errorString() const@Qt_5" 5.0.2
 (c++)"non-virtual thunk to QXmlDefaultHandler::externalEntityDecl(QString const&, QString const&, QString const&)@Qt_5" 5.0.2
 (c++)"non-virtual thunk to QXmlDefaultHandler::fatalError(QXmlParseException const&)@Qt_5" 5.0.2
 (c++)"non-virtual thunk to QXmlDefaultHandler::internalEntityDecl(QString const&, QString const&)@Qt_5" 5.0.2
 (c++)"non-virtual thunk to QXmlDefaultHandler::notationDecl(QString const&, QString const&, QString const&)@Qt_5" 5.0.2
 (c++)"non-virtual thunk to QXmlDefaultHandler::resolveEntity(QString const&, QString const&, QXmlInputSource*&)@Qt_5" 5.0.2
 (c++)"non-virtual thunk to QXmlDefaultHandler::startCDATA()@Qt_5" 5.0.2
 (c++)"non-virtual thunk to QXmlDefaultHandler::startDTD(QString const&, QString const&, QString const&)@Qt_5" 5.0.2
 (c++)"non-virtual thunk to QXmlDefaultHandler::startEntity(QString const&)@Qt_5" 5.0.2
 (c++)"non-virtual thunk to QXmlDefaultHandler::unparsedEntityDecl(QString const&, QString const&, QString const&, QString const&)@Qt_5" 5.0.2
 (c++)"non-virtual thunk to QXmlDefaultHandler::warning(QXmlParseException const&)@Qt_5" 5.0.2
 (c++)"non-virtual thunk to QXmlDefaultHandler::~QXmlDefaultHandler()@Qt_5" 5.1.0
