# SymbolsHelper-Confirmed: 5.7.1 m68k
libQt5Core.so.5 libqt5core5a #MINVER#
| libqt5core5a #MINVER#, qtbase-abi-5-7-1
* Build-Depends-Package: qtbase5-dev
 Qt_5.0@Qt_5.0 5.6.0~beta
 Qt_5.1@Qt_5.1 5.6.0~beta
 Qt_5.2@Qt_5.2 5.6.0~beta
 Qt_5.3@Qt_5.3 5.6.0~beta
 Qt_5.4@Qt_5.4 5.6.0~beta
 Qt_5.5@Qt_5.5 5.6.0~beta
 Qt_5.6@Qt_5.6 5.6.0~beta
 Qt_5.7@Qt_5.7 5.7.0
 Qt_5@Qt_5 5.6.0~beta
 Qt_5_PRIVATE_API@Qt_5_PRIVATE_API 5.6.0~beta 1
 _Z10forcepointR11QTextStream@Qt_5 5.0.2
 _Z10noshowbaseR11QTextStream@Qt_5 5.0.2
 _Z10qHBNewFacePvPF8HB_ErrorS_jPhPjE@Qt_5 5.0.2
 _Z10qShapeItemP14HB_ShaperItem_@Qt_5 5.0.2
 _Z10qTerminatev@Qt_5 5.0.2
 (arch=sh4)_Z10qvsnprintfPcjPKc13__va_list_tag@Qt_5 5.4.2
 (arch=hppa m68k mips mipsel)_Z10qvsnprintfPcjPKcPv@Qt_5 5.4.2
 (arch=hurd-i386 i386 kfreebsd-i386)_Z10qvsnprintfPcjPKcS_@Qt_5 5.2.0
 (arch=armel armhf)_Z10qvsnprintfPcjPKcSt9__va_list@Qt_5 5.2.0
 (arch=alpha)_Z10qvsnprintfPcmPKc13__va_list_tag@Qt_5 5.1.0
 (arch=mips64el sparc64)_Z10qvsnprintfPcmPKcPv@Qt_5 5.3.1
 (arch=ppc64 ppc64el)_Z10qvsnprintfPcmPKcS_@Qt_5 5.3.1
 (arch=arm64)_Z10qvsnprintfPcmPKcSt9__va_list@Qt_5 5.3.0
 (arch=amd64 kfreebsd-amd64 powerpc powerpcspe s390x x32|subst)_Z10qvsnprintfPc{size_t}PKcP13__va_list_tag@Qt_5 5.3.1
 _Z10scientificR11QTextStream@Qt_5 5.0.2
 _Z11noforcesignR11QTextStream@Qt_5 5.0.2
 _Z11qHBFreeFaceP11HB_FaceRec_@Qt_5 5.0.2
 _Z11qHBLoadFaceP11HB_FaceRec_@Qt_5 5.0.2
 _Z11qUncompressPKhi@Qt_5 5.0.2
 _Z11qt_assert_xPKcS0_S0_i@Qt_5 5.0.2
 _Z11qt_int_sqrtj@Qt_5 5.0.2
 _Z12noforcepointR11QTextStream@Qt_5 5.0.2
 _Z12qFreeAlignedPv@Qt_5 5.0.2
 _Z12qSharedBuildv@Qt_5 5.0.2
 _Z12qt_safe_pollP6pollfdmPK8timespec@Qt_5 5.7.0
 _Z13lowercasebaseR11QTextStream@Qt_5 5.0.2
 _Z13qErrnoWarningPKcz@Qt_5 5.0.2
 _Z13qErrnoWarningiPKcz@Qt_5 5.0.2
 _Z13qFlagLocationPKc@Qt_5 5.0.2
 _Z13uppercasebaseR11QTextStream@Qt_5 5.0.2
 _Z14qAddPreRoutinePFvvE@Qt_5 5.1.0
 _Z14qDecodeDataUrlRK4QUrlR7QStringR10QByteArray@Qt_5 5.0.2
 _Z14qFloatDistancedd@Qt_5 5.3.0
 _Z14qFloatDistanceff@Qt_5 5.3.0
 (subst)_Z14qMallocAligned{size_t}{size_t}@Qt_5 5.0.2
 _Z15lowercasedigitsR11QTextStream@Qt_5 5.0.2
 _Z15qAddPostRoutinePFvvE@Qt_5 5.0.2
 _Z15qIsEffectiveTLDRK10QStringRef@Qt_5 5.7.0
 (subst)_Z15qReallocAlignedPv{size_t}{size_t}{size_t}@Qt_5 5.0.2
 _Z15qTopLevelDomainRK7QString@Qt_5 5.0.2
 _Z15qt_error_stringi@Qt_5 5.0.2
 _Z15uppercasedigitsR11QTextStream@Qt_5 5.0.2
 _Z16qGlobalQHashSeedv@Qt_5 5.6.0~beta
 _Z16qt_check_pointerPKci@Qt_5 5.0.2
 _Z17qFormatLogMessage9QtMsgTypeRK18QMessageLogContextRK7QString@Qt_5 5.4.0
 _Z17qt_message_output9QtMsgTypeRK18QMessageLogContextRK7QString@Qt_5 5.0.2
 _Z18qDetectCpuFeaturesv@Qt_5 5.0.2
 _Z18qInstallMsgHandlerPFv9QtMsgTypePKcE@Qt_5 5.0.2
 _Z18qRemovePostRoutinePFvvE@Qt_5 5.0.2
 _Z18qSetMessagePatternRK7QString@Qt_5 5.0.2
 (subst)_Z19qCalculateBlockSize{size_t}{size_t}{size_t}@Qt_5 5.7.1
 _Z19qSetGlobalQHashSeedi@Qt_5 5.6.0~beta
 _Z19qcoreVariantHandlerv@Qt_5 5.0.2
 _Z20qt_qFindChild_helperPK7QObjectRK7QStringRK11QMetaObject6QFlagsIN2Qt15FindChildOptionEE@Qt_5 5.0.2
 _Z21qDeleteInEventHandlerP7QObject@Qt_5 5.0.2
 _Z21qRegisterResourceDataiPKhS0_S0_@Qt_5 5.0.2
 _Z21qt_call_post_routinesv@Qt_5 5.0.2
 _Z21qt_logging_to_consolev@Qt_5 5.4.0
 _Z21qt_regexp_toCanonicalRK7QStringN7QRegExp13PatternSyntaxE@Qt_5 5.0.2
 _Z22qInstallMessageHandlerPFv9QtMsgTypeRK18QMessageLogContextRK7QStringE@Qt_5 5.0.2
 _Z23qUnregisterResourceDataiPKhS0_S0_@Qt_5 5.0.2
 _Z23qt_qFindChildren_helperPK7QObjectRK18QRegularExpressionRK11QMetaObjectP5QListIPvE6QFlagsIN2Qt15FindChildOptionEE@Qt_5 5.0.2
 _Z23qt_qFindChildren_helperPK7QObjectRK7QRegExpRK11QMetaObjectP5QListIPvE6QFlagsIN2Qt15FindChildOptionEE@Qt_5 5.0.2
 _Z23qt_qFindChildren_helperPK7QObjectRK7QStringRK11QMetaObjectP5QListIPvE6QFlagsIN2Qt15FindChildOptionEE@Qt_5 5.0.2
 _Z24qGlobalPostedEventsCountv@Qt_5 5.0.2
 _Z24qcoreStateMachineHandlerv@Qt_5 5.0.2
 (arch=!hurd-i386 !kfreebsd-amd64 !kfreebsd-i386)_Z24qt_linux_find_symbol_sysPKc@Qt_5 5.0.2
 _Z24qt_subtract_from_timeoutii@Qt_5 5.4.2
 _Z25qEnvironmentVariableIsSetPKc@Qt_5 5.0.2
 (subst)_Z26qCalculateGrowingBlockSize{size_t}{size_t}{size_t}@Qt_5 5.7.1
 _Z26qt_QMetaEnum_debugOperatorR6QDebugiPK11QMetaObjectPKc@Qt_5 5.5.0
 _Z27qEnvironmentVariableIsEmptyPKc@Qt_5 5.0.2
 _Z28qEnvironmentVariableIntValuePKcPb@Qt_5 5.5.0
 _Z29qRegisterStaticPluginFunction13QStaticPlugin@Qt_5 5.0.2
 _Z29qt_applicationName_noFallbackv@Qt_5 5.0.2
 _Z2wsR11QTextStream@Qt_5 5.0.2
 _Z30qt_QMetaEnum_flagDebugOperatorR6QDebugyPK11QMetaObjectPKc@Qt_5 5.5.0
 (subst)_Z30qt_QMetaEnum_flagDebugOperatorR6QDebug{size_t}i@Qt_5 5.7.0
 _Z32qt_register_signal_spy_callbacksRK21QSignalSpyCallbackSet@Qt_5 5.0.2
 _Z3binR11QTextStream@Qt_5 5.0.2
 _Z3bomR11QTextStream@Qt_5 5.0.2
 _Z3decR11QTextStream@Qt_5 5.0.2
 _Z3hexR11QTextStream@Qt_5 5.0.2
 _Z3octR11QTextStream@Qt_5 5.0.2
 _Z4endlR11QTextStream@Qt_5 5.0.2
 _Z4leftR11QTextStream@Qt_5 5.0.2
 _Z4qInfv@Qt_5 5.0.2
 _Z5fixedR11QTextStream@Qt_5 5.0.2
 _Z5flushR11QTextStream@Qt_5 5.0.2
 _Z5qFreePv@Qt_5 5.0.2
 _Z5qHash13QLatin1Stringj@Qt_5 5.0.2
 _Z5qHashRK10QByteArrayj@Qt_5 5.0.2
 _Z5qHashRK10QStringRefj@Qt_5 5.0.2
 _Z5qHashRK14QVersionNumberj@Qt_5 5.4.0
 _Z5qHashRK18QRegularExpressionj@Qt_5 5.6.0~beta
 _Z5qHashRK4QUrlj@Qt_5 5.0.2
 _Z5qHashRK5QDatej@Qt_5 5.0.2
 _Z5qHashRK5QTimej@Qt_5 5.0.2
 _Z5qHashRK5QUuidj@Qt_5 5.0.2
 _Z5qHashRK7QLocalej@Qt_5 5.6.0~beta
 _Z5qHashRK7QRegExpj@Qt_5 5.6.0~beta
 _Z5qHashRK7QStringj@Qt_5 5.0.2
 _Z5qHashRK9QBitArrayj@Qt_5 5.0.2
 _Z5qHashRK9QDateTimej@Qt_5 5.0.2
 _Z5qHashRK9QMimeTypej@Qt_5 5.6.0~beta
 _Z5qHashRK9QUrlQueryj@Qt_5 5.6.0~beta
 _Z5qHashdj@Qt_5 5.3.0
 (arch=!alpha !powerpc !powerpcspe !ppc64 !ppc64el !s390x)_Z5qHashej@Qt_5 5.3.0
 _Z5qHashfj@Qt_5 5.3.0
 (arch=alpha powerpc powerpcspe ppc64 ppc64el s390x)_Z5qHashgj@Qt_5 5.6.1
 _Z5qQNaNv@Qt_5 5.0.2
 _Z5qSNaNv@Qt_5 5.0.2
 _Z5qdtoadPiS_@Qt_5 5.7.0
 _Z5qrandv@Qt_5 5.0.2
 _Z5resetR11QTextStream@Qt_5 5.0.2
 _Z5rightR11QTextStream@Qt_5 5.0.2
 _Z6centerR11QTextStream@Qt_5 5.0.2
 _Z6qIsInfd@Qt_5 5.0.2
 _Z6qIsInff@Qt_5 5.0.2
 _Z6qIsNaNd@Qt_5 5.0.2
 _Z6qIsNaNf@Qt_5 5.0.2
 _Z6qsrandj@Qt_5 5.0.2
 _Z6qtTrIdPKci@Qt_5 5.0.2
 (subst)_Z7qMalloc{size_t}@Qt_5 5.0.2
 (subst)_Z7qMemSetPvi{size_t}@Qt_5 5.0.2
 _Z7qgetenvPKc@Qt_5 5.0.2
 _Z7qputenvPKcRK10QByteArray@Qt_5 5.0.2
 _Z7qstrcmpPKcS0_@Qt_5 5.0.2
 _Z7qstrcmpRK10QByteArrayPKc@Qt_5 5.0.2
 _Z7qstrcmpRK10QByteArrayS1_@Qt_5 5.0.2
 _Z7qstrcpyPcPKc@Qt_5 5.0.2
 _Z7qstrdupPKc@Qt_5 5.0.2
 _Z7qstrtodPKcPS0_Pb@Qt_5 5.0.2
 _Z7qt_hashRK10QStringRef@Qt_5 5.1.0
 _Z7qt_hashRK7QString@Qt_5 5.0.2
 _Z8qAppNamev@Qt_5 5.0.2
 (subst)_Z8qMemCopyPvPKv{size_t}@Qt_5 5.0.2
 (subst)_Z8qReallocPv{size_t}@Qt_5 5.0.2
 _Z8qstricmpPKcS0_@Qt_5 5.0.2
 _Z8qstrncpyPcPKcj@Qt_5 5.0.2
 _Z8qstrntodPKciPS0_Pb@Qt_5 5.7.0
 _Z8showbaseR11QTextStream@Qt_5 5.0.2
 _Z9forcesignR11QTextStream@Qt_5 5.0.2
 _Z9qBadAllocv@Qt_5 5.0.2
 _Z9qChecksumPKcj@Qt_5 5.0.2
 _Z9qCompressPKhii@Qt_5 5.0.2
 (subst)_Z9qHashBitsPKv{size_t}j@Qt_5 5.4.0
 _Z9qIsFinited@Qt_5 5.0.2
 _Z9qIsFinitef@Qt_5 5.0.2
 (subst)_Z9qsnprintfPc{size_t}PKcz@Qt_5 5.0.2
 _Z9qstrnicmpPKcS0_j@Qt_5 5.0.2
 _Z9qt_assertPKcS0_i@Qt_5 5.0.2
 _Z9qunsetenvPKc@Qt_5 5.1.0
 (subst)_ZN10QArrayData10deallocateEPS_{size_t}{size_t}@Qt_5 5.0.2
 _ZN10QArrayData11shared_nullE@Qt_5 5.0.2
 (subst)_ZN10QArrayData8allocateE{size_t}{size_t}{size_t}6QFlagsINS_16AllocationOptionEE@Qt_5 5.0.2
 _ZN10QByteArray10fromBase64ERKS_6QFlagsINS_12Base64OptionEE@Qt_5 5.2.0~alpha1
 _ZN10QByteArray10fromBase64ERKS_@Qt_5 5.0.2
 _ZN10QByteArray10setRawDataEPKcj@Qt_5 5.0.2
 _ZN10QByteArray11fromRawDataEPKci@Qt_5 5.0.2
 _ZN10QByteArray11reallocDataEj6QFlagsIN10QArrayData16AllocationOptionEE@Qt_5 5.0.2
 _ZN10QByteArray14toLower_helperERKS_@Qt_5 5.5.0
 _ZN10QByteArray14toLower_helperERS_@Qt_5 5.5.0
 _ZN10QByteArray14toUpper_helperERKS_@Qt_5 5.5.0
 _ZN10QByteArray14toUpper_helperERS_@Qt_5 5.5.0
 _ZN10QByteArray14trimmed_helperERKS_@Qt_5 5.5.0
 _ZN10QByteArray14trimmed_helperERS_@Qt_5 5.5.0
 _ZN10QByteArray17simplified_helperERKS_@Qt_5 5.5.0
 _ZN10QByteArray17simplified_helperERS_@Qt_5 5.5.0
 _ZN10QByteArray19fromPercentEncodingERKS_c@Qt_5 5.0.2
 _ZN10QByteArray4chopEi@Qt_5 5.0.2
 _ZN10QByteArray4fillEci@Qt_5 5.0.2
 _ZN10QByteArray5clearEv@Qt_5 5.0.2
 _ZN10QByteArray6appendEPKc@Qt_5 5.0.2
 _ZN10QByteArray6appendEPKci@Qt_5 5.0.2
 _ZN10QByteArray6appendERKS_@Qt_5 5.0.2
 _ZN10QByteArray6appendEc@Qt_5 5.0.2
 _ZN10QByteArray6expandEi@Qt_5 5.0.2
 _ZN10QByteArray6insertEiPKc@Qt_5 5.0.2
 _ZN10QByteArray6insertEiPKci@Qt_5 5.0.2
 _ZN10QByteArray6insertEiRKS_@Qt_5 5.0.2
 _ZN10QByteArray6insertEic@Qt_5 5.0.2
 _ZN10QByteArray6insertEiic@Qt_5 5.7.0
 _ZN10QByteArray6numberEdci@Qt_5 5.0.2
 _ZN10QByteArray6numberEii@Qt_5 5.0.2
 _ZN10QByteArray6numberEji@Qt_5 5.0.2
 _ZN10QByteArray6numberExi@Qt_5 5.0.2
 _ZN10QByteArray6numberEyi@Qt_5 5.0.2
 _ZN10QByteArray6removeEii@Qt_5 5.0.2
 _ZN10QByteArray6resizeEi@Qt_5 5.0.2
 _ZN10QByteArray6setNumEdci@Qt_5 5.0.2
 _ZN10QByteArray6setNumExi@Qt_5 5.0.2
 _ZN10QByteArray6setNumEyi@Qt_5 5.0.2
 _ZN10QByteArray7fromHexERKS_@Qt_5 5.0.2
 _ZN10QByteArray7prependEPKc@Qt_5 5.0.2
 _ZN10QByteArray7prependEPKci@Qt_5 5.0.2
 _ZN10QByteArray7prependERKS_@Qt_5 5.0.2
 _ZN10QByteArray7prependEc@Qt_5 5.0.2
 _ZN10QByteArray7replaceEPKcRKS_@Qt_5 5.0.2
 _ZN10QByteArray7replaceEPKciS1_i@Qt_5 5.0.2
 _ZN10QByteArray7replaceERKS_S1_@Qt_5 5.0.2
 _ZN10QByteArray7replaceEcRKS_@Qt_5 5.0.2
 _ZN10QByteArray7replaceEcc@Qt_5 5.0.2
 _ZN10QByteArray7replaceEiiPKc@Qt_5 5.0.2
 _ZN10QByteArray7replaceEiiPKci@Qt_5 5.0.2
 _ZN10QByteArray7replaceEiiRKS_@Qt_5 5.0.2
 _ZN10QByteArray7reserveEi@Qt_5 5.5.0
 _ZN10QByteArray8truncateEi@Qt_5 5.0.2
 _ZN10QByteArrayC1EPKci@Qt_5 5.0.2
 _ZN10QByteArrayC1EiN2Qt14InitializationE@Qt_5 5.0.2
 _ZN10QByteArrayC1Eic@Qt_5 5.0.2
 _ZN10QByteArrayC2EPKci@Qt_5 5.0.2
 _ZN10QByteArrayC2EiN2Qt14InitializationE@Qt_5 5.0.2
 _ZN10QByteArrayC2Eic@Qt_5 5.0.2
 _ZN10QByteArrayaSEPKc@Qt_5 5.0.2
 _ZN10QByteArrayaSERKS_@Qt_5 5.0.2
 _ZN10QEventLoop11qt_metacallEN11QMetaObject4CallEiPPv@Qt_5 5.0.2
 _ZN10QEventLoop11qt_metacastEPKc@Qt_5 5.0.2
 _ZN10QEventLoop13processEventsE6QFlagsINS_17ProcessEventsFlagEE@Qt_5 5.0.2
 _ZN10QEventLoop13processEventsE6QFlagsINS_17ProcessEventsFlagEEi@Qt_5 5.0.2
 _ZN10QEventLoop16staticMetaObjectE@Qt_5 5.0.2
 _ZN10QEventLoop4execE6QFlagsINS_17ProcessEventsFlagEE@Qt_5 5.0.2
 _ZN10QEventLoop4exitEi@Qt_5 5.0.2
 _ZN10QEventLoop4quitEv@Qt_5 5.0.2
 _ZN10QEventLoop5eventEP6QEvent@Qt_5 5.0.2
 _ZN10QEventLoop6wakeUpEv@Qt_5 5.0.2
 _ZN10QEventLoopC1EP7QObject@Qt_5 5.0.2
 _ZN10QEventLoopC2EP7QObject@Qt_5 5.0.2
 _ZN10QEventLoopD0Ev@Qt_5 5.0.2
 _ZN10QEventLoopD1Ev@Qt_5 5.0.2
 _ZN10QEventLoopD2Ev@Qt_5 5.0.2
 _ZN10QExceptionD0Ev@Qt_5 5.6.0~beta
 _ZN10QExceptionD1Ev@Qt_5 5.6.0~beta
 _ZN10QExceptionD2Ev@Qt_5 5.6.0~beta
 _ZN10QJsonArray10initializeEv@Qt_5 5.4.0
 _ZN10QJsonArray14fromStringListERK11QStringList@Qt_5 5.0.2
 _ZN10QJsonArray15fromVariantListERK5QListI8QVariantE@Qt_5 5.0.2
 _ZN10QJsonArray6appendERK10QJsonValue@Qt_5 5.0.2
 _ZN10QJsonArray6detachEj@Qt_5 5.0.2
 _ZN10QJsonArray6insertEiRK10QJsonValue@Qt_5 5.0.2
 _ZN10QJsonArray6takeAtEi@Qt_5 5.0.2
 _ZN10QJsonArray7compactEv@Qt_5 5.0.2
 _ZN10QJsonArray7detach2Ej@Qt_5 5.6.1
 _ZN10QJsonArray7prependERK10QJsonValue@Qt_5 5.0.2
 _ZN10QJsonArray7replaceEiRK10QJsonValue@Qt_5 5.0.2
 _ZN10QJsonArray8removeAtEi@Qt_5 5.0.2
 _ZN10QJsonArrayC1EPN12QJsonPrivate4DataEPNS0_5ArrayE@Qt_5 5.0.2
 _ZN10QJsonArrayC1ERKS_@Qt_5 5.0.2
 _ZN10QJsonArrayC1Ev@Qt_5 5.0.2
 _ZN10QJsonArrayC2EPN12QJsonPrivate4DataEPNS0_5ArrayE@Qt_5 5.0.2
 _ZN10QJsonArrayC2ERKS_@Qt_5 5.0.2
 _ZN10QJsonArrayC2Ev@Qt_5 5.0.2
 _ZN10QJsonArrayD1Ev@Qt_5 5.0.2
 _ZN10QJsonArrayD2Ev@Qt_5 5.0.2
 _ZN10QJsonArrayaSERKS_@Qt_5 5.0.2
 _ZN10QJsonArrayixEi@Qt_5 5.0.2
 _ZN10QJsonValue11fromVariantERK8QVariant@Qt_5 5.0.2
 _ZN10QJsonValue27stringDataFromQStringHelperERK7QString@Qt_5 5.3.0
 _ZN10QJsonValue6detachEv@Qt_5 5.0.2
 _ZN10QJsonValueC1E13QLatin1String@Qt_5 5.0.2
 _ZN10QJsonValueC1ENS_4TypeE@Qt_5 5.0.2
 _ZN10QJsonValueC1EPN12QJsonPrivate4DataEPNS0_4BaseERKNS0_5ValueE@Qt_5 5.0.2
 _ZN10QJsonValueC1ERK10QJsonArray@Qt_5 5.0.2
 _ZN10QJsonValueC1ERK11QJsonObject@Qt_5 5.0.2
 _ZN10QJsonValueC1ERK7QString@Qt_5 5.0.2
 _ZN10QJsonValueC1ERKS_@Qt_5 5.0.2
 _ZN10QJsonValueC1Eb@Qt_5 5.0.2
 _ZN10QJsonValueC1Ed@Qt_5 5.0.2
 _ZN10QJsonValueC1Ei@Qt_5 5.0.2
 _ZN10QJsonValueC1Ex@Qt_5 5.2.0~alpha1
 _ZN10QJsonValueC2E13QLatin1String@Qt_5 5.0.2
 _ZN10QJsonValueC2ENS_4TypeE@Qt_5 5.0.2
 _ZN10QJsonValueC2EPN12QJsonPrivate4DataEPNS0_4BaseERKNS0_5ValueE@Qt_5 5.0.2
 _ZN10QJsonValueC2ERK10QJsonArray@Qt_5 5.0.2
 _ZN10QJsonValueC2ERK11QJsonObject@Qt_5 5.0.2
 _ZN10QJsonValueC2ERK7QString@Qt_5 5.0.2
 _ZN10QJsonValueC2ERKS_@Qt_5 5.0.2
 _ZN10QJsonValueC2Eb@Qt_5 5.0.2
 _ZN10QJsonValueC2Ed@Qt_5 5.0.2
 _ZN10QJsonValueC2Ei@Qt_5 5.0.2
 _ZN10QJsonValueC2Ex@Qt_5 5.2.0~alpha1
 _ZN10QJsonValueD1Ev@Qt_5 5.0.2
 _ZN10QJsonValueD2Ev@Qt_5 5.0.2
 _ZN10QJsonValueaSERKS_@Qt_5 5.0.2
 _ZN10QMutexPool11createMutexEi@Qt_5_PRIVATE_API 5.0.2 1
 _ZN10QMutexPool17globalInstanceGetEPKv@Qt_5_PRIVATE_API 5.0.2 1
 _ZN10QMutexPool8instanceEv@Qt_5_PRIVATE_API 5.0.2 1
 _ZN10QMutexPoolC1EN6QMutex13RecursionModeEi@Qt_5_PRIVATE_API 5.0.2 1
 _ZN10QMutexPoolC2EN6QMutex13RecursionModeEi@Qt_5_PRIVATE_API 5.0.2 1
 _ZN10QMutexPoolD1Ev@Qt_5_PRIVATE_API 5.0.2 1
 _ZN10QMutexPoolD2Ev@Qt_5_PRIVATE_API 5.0.2 1
 _ZN10QSemaphore10tryAcquireEi@Qt_5 5.0.2
 _ZN10QSemaphore10tryAcquireEii@Qt_5 5.0.2
 _ZN10QSemaphore7acquireEi@Qt_5 5.0.2
 _ZN10QSemaphore7releaseEi@Qt_5 5.0.2
 _ZN10QSemaphoreC1Ei@Qt_5 5.0.2
 _ZN10QSemaphoreC2Ei@Qt_5 5.0.2
 _ZN10QSemaphoreD1Ev@Qt_5 5.0.2
 _ZN10QSemaphoreD2Ev@Qt_5 5.0.2
 _ZN10QTextCodec11codecForMibEi@Qt_5 5.0.2
 _ZN10QTextCodec12codecForHtmlERK10QByteArray@Qt_5 5.0.2
 _ZN10QTextCodec12codecForHtmlERK10QByteArrayPS_@Qt_5 5.0.2
 _ZN10QTextCodec12codecForNameERK10QByteArray@Qt_5 5.0.2
 _ZN10QTextCodec13availableMibsEv@Qt_5 5.0.2
 _ZN10QTextCodec14ConverterStateD1Ev@Qt_5 5.0.2
 _ZN10QTextCodec14ConverterStateD2Ev@Qt_5 5.0.2
 _ZN10QTextCodec14codecForLocaleEv@Qt_5 5.0.2
 _ZN10QTextCodec15availableCodecsEv@Qt_5 5.0.2
 _ZN10QTextCodec15codecForUtfTextERK10QByteArray@Qt_5 5.0.2
 _ZN10QTextCodec15codecForUtfTextERK10QByteArrayPS_@Qt_5 5.0.2
 _ZN10QTextCodec17setCodecForLocaleEPS_@Qt_5 5.0.2
 _ZN10QTextCodecC1Ev@Qt_5 5.0.2
 _ZN10QTextCodecC2Ev@Qt_5 5.0.2
 _ZN10QTextCodecD0Ev@Qt_5 5.0.2
 _ZN10QTextCodecD1Ev@Qt_5 5.0.2
 _ZN10QTextCodecD2Ev@Qt_5 5.0.2
 _ZN11QBasicMutex11isRecursiveEv@Qt_5 5.0.2
 _ZN11QBasicMutex12lockInternalEi@Qt_5 5.0.2
 _ZN11QBasicMutex12lockInternalEv@Qt_5 5.0.2
 _ZN11QBasicMutex14unlockInternalEv@Qt_5 5.0.2
 _ZN11QBasicTimer4stopEv@Qt_5 5.0.2
 _ZN11QBasicTimer5startEiN2Qt9TimerTypeEP7QObject@Qt_5 5.0.2
 _ZN11QBasicTimer5startEiP7QObject@Qt_5 5.0.2
 _ZN11QChildEventC1EN6QEvent4TypeEP7QObject@Qt_5 5.0.2
 _ZN11QChildEventC2EN6QEvent4TypeEP7QObject@Qt_5 5.0.2
 _ZN11QChildEventD0Ev@Qt_5 5.0.2
 _ZN11QChildEventD1Ev@Qt_5 5.0.2
 _ZN11QChildEventD2Ev@Qt_5 5.0.2
 _ZN11QDataStream10writeBytesEPKcj@Qt_5 5.0.2
 _ZN11QDataStream11readRawDataEPci@Qt_5 5.0.2
 _ZN11QDataStream11resetStatusEv@Qt_5 5.0.2
 _ZN11QDataStream11skipRawDataEi@Qt_5 5.0.2
 _ZN11QDataStream11unsetDeviceEv@Qt_5 5.0.2
 _ZN11QDataStream12setByteOrderENS_9ByteOrderE@Qt_5 5.0.2
 _ZN11QDataStream12writeRawDataEPKci@Qt_5 5.0.2
 _ZN11QDataStream16abortTransactionEv@Qt_5 5.7.0
 _ZN11QDataStream16startTransactionEv@Qt_5 5.7.0
 _ZN11QDataStream17commitTransactionEv@Qt_5 5.7.0
 _ZN11QDataStream19rollbackTransactionEv@Qt_5 5.7.0
 _ZN11QDataStream25setFloatingPointPrecisionENS_22FloatingPointPrecisionE@Qt_5 5.0.2
 _ZN11QDataStream9readBlockEPci@Qt_5 5.7.0
 _ZN11QDataStream9readBytesERPcRj@Qt_5 5.0.2
 _ZN11QDataStream9setDeviceEP9QIODevice@Qt_5 5.0.2
 _ZN11QDataStream9setStatusENS_6StatusE@Qt_5 5.0.2
 _ZN11QDataStreamC1EP10QByteArray6QFlagsIN9QIODevice12OpenModeFlagEE@Qt_5 5.0.2
 _ZN11QDataStreamC1EP9QIODevice@Qt_5 5.0.2
 _ZN11QDataStreamC1ERK10QByteArray@Qt_5 5.0.2
 _ZN11QDataStreamC1Ev@Qt_5 5.0.2
 _ZN11QDataStreamC2EP10QByteArray6QFlagsIN9QIODevice12OpenModeFlagEE@Qt_5 5.0.2
 _ZN11QDataStreamC2EP9QIODevice@Qt_5 5.0.2
 _ZN11QDataStreamC2ERK10QByteArray@Qt_5 5.0.2
 _ZN11QDataStreamC2Ev@Qt_5 5.0.2
 _ZN11QDataStreamD1Ev@Qt_5 5.0.2
 _ZN11QDataStreamD2Ev@Qt_5 5.0.2
 _ZN11QDataStreamlsEPKc@Qt_5 5.0.2
 _ZN11QDataStreamlsEa@Qt_5 5.0.2
 _ZN11QDataStreamlsEb@Qt_5 5.0.2
 _ZN11QDataStreamlsEd@Qt_5 5.0.2
 _ZN11QDataStreamlsEf@Qt_5 5.0.2
 _ZN11QDataStreamlsEi@Qt_5 5.0.2
 _ZN11QDataStreamlsEs@Qt_5 5.0.2
 _ZN11QDataStreamlsEx@Qt_5 5.0.2
 _ZN11QDataStreamrsERPc@Qt_5 5.0.2
 _ZN11QDataStreamrsERa@Qt_5 5.0.2
 _ZN11QDataStreamrsERb@Qt_5 5.0.2
 _ZN11QDataStreamrsERd@Qt_5 5.0.2
 _ZN11QDataStreamrsERf@Qt_5 5.0.2
 _ZN11QDataStreamrsERi@Qt_5 5.0.2
 _ZN11QDataStreamrsERs@Qt_5 5.0.2
 _ZN11QDataStreamrsERx@Qt_5 5.0.2
 _ZN11QFileDevice10unsetErrorEv@Qt_5 5.0.2
 _ZN11QFileDevice11qt_metacallEN11QMetaObject4CallEiPPv@Qt_5 5.0.2
 _ZN11QFileDevice11qt_metacastEPKc@Qt_5 5.0.2
 _ZN11QFileDevice12readLineDataEPcx@Qt_5 5.0.2
 _ZN11QFileDevice14setPermissionsE6QFlagsINS_10PermissionEE@Qt_5 5.0.2
 _ZN11QFileDevice16staticMetaObjectE@Qt_5 5.0.2
 _ZN11QFileDevice3mapExxNS_14MemoryMapFlagsE@Qt_5 5.0.2
 _ZN11QFileDevice4seekEx@Qt_5 5.0.2
 _ZN11QFileDevice5closeEv@Qt_5 5.0.2
 _ZN11QFileDevice5flushEv@Qt_5 5.0.2
 _ZN11QFileDevice5unmapEPh@Qt_5 5.0.2
 _ZN11QFileDevice6resizeEx@Qt_5 5.0.2
 _ZN11QFileDevice8readDataEPcx@Qt_5 5.0.2
 _ZN11QFileDevice9writeDataEPKcx@Qt_5 5.0.2
 _ZN11QFileDeviceC1EP7QObject@Qt_5 5.0.2
 _ZN11QFileDeviceC1ER18QFileDevicePrivateP7QObject@Qt_5 5.0.2
 _ZN11QFileDeviceC1Ev@Qt_5 5.0.2
 _ZN11QFileDeviceC2EP7QObject@Qt_5 5.0.2
 _ZN11QFileDeviceC2ER18QFileDevicePrivateP7QObject@Qt_5 5.0.2
 _ZN11QFileDeviceC2Ev@Qt_5 5.0.2
 _ZN11QFileDeviceD0Ev@Qt_5 5.0.2
 _ZN11QFileDeviceD1Ev@Qt_5 5.0.2
 _ZN11QFileDeviceD2Ev@Qt_5 5.0.2
 _ZN11QFinalState11qt_metacallEN11QMetaObject4CallEiPPv@Qt_5 5.0.2
 _ZN11QFinalState11qt_metacastEPKc@Qt_5 5.0.2
 _ZN11QFinalState16staticMetaObjectE@Qt_5 5.0.2
 _ZN11QFinalState5eventEP6QEvent@Qt_5 5.0.2
 _ZN11QFinalState6onExitEP6QEvent@Qt_5 5.0.2
 _ZN11QFinalState7onEntryEP6QEvent@Qt_5 5.0.2
 _ZN11QFinalStateC1EP6QState@Qt_5 5.0.2
 _ZN11QFinalStateC1ER18QFinalStatePrivateP6QState@Qt_5_PRIVATE_API 5.6.0~rc 1
 _ZN11QFinalStateC2EP6QState@Qt_5 5.0.2
 _ZN11QFinalStateC2ER18QFinalStatePrivateP6QState@Qt_5_PRIVATE_API 5.6.0~rc 1
 _ZN11QFinalStateD0Ev@Qt_5 5.0.2
 _ZN11QFinalStateD1Ev@Qt_5 5.0.2
 _ZN11QFinalStateD2Ev@Qt_5 5.0.2
 _ZN11QJsonObject10initializeEv@Qt_5 5.4.0
 _ZN11QJsonObject10setValueAtEiRK10QJsonValue@Qt_5 5.0.2
 _ZN11QJsonObject14fromVariantMapERK4QMapI7QString8QVariantE@Qt_5 5.0.2
 _ZN11QJsonObject15fromVariantHashERK5QHashI7QString8QVariantE@Qt_5 5.5.0
 _ZN11QJsonObject4findE13QLatin1String@Qt_5 5.7.0
 _ZN11QJsonObject4findERK7QString@Qt_5 5.0.2
 _ZN11QJsonObject4takeERK7QString@Qt_5 5.0.2
 _ZN11QJsonObject5eraseENS_8iteratorE@Qt_5 5.0.2
 _ZN11QJsonObject6detachEj@Qt_5 5.0.2
 _ZN11QJsonObject6insertERK7QStringRK10QJsonValue@Qt_5 5.0.2
 _ZN11QJsonObject6removeERK7QString@Qt_5 5.0.2
 _ZN11QJsonObject7compactEv@Qt_5 5.0.2
 _ZN11QJsonObject7detach2Ej@Qt_5 5.6.1
 _ZN11QJsonObjectC1EPN12QJsonPrivate4DataEPNS0_6ObjectE@Qt_5 5.0.2
 _ZN11QJsonObjectC1ERKS_@Qt_5 5.0.2
 _ZN11QJsonObjectC1Ev@Qt_5 5.0.2
 _ZN11QJsonObjectC2EPN12QJsonPrivate4DataEPNS0_6ObjectE@Qt_5 5.0.2
 _ZN11QJsonObjectC2ERKS_@Qt_5 5.0.2
 _ZN11QJsonObjectC2Ev@Qt_5 5.0.2
 _ZN11QJsonObjectD1Ev@Qt_5 5.0.2
 _ZN11QJsonObjectD2Ev@Qt_5 5.0.2
 _ZN11QJsonObjectaSERKS_@Qt_5 5.0.2
 _ZN11QJsonObjectixE13QLatin1String@Qt_5 5.7.0
 _ZN11QJsonObjectixERK7QString@Qt_5 5.0.2
 _ZN11QLocaleData17bytearrayToDoubleEPKcPbS2_@Qt_5 5.3.0
 _ZN11QLocaleData19bytearrayToLongLongEPKciPbS2_@Qt_5 5.3.0
 _ZN11QLocaleData22bytearrayToUnsLongLongEPKciPb@Qt_5 5.3.0
 _ZN11QMetaMethod14fromSignalImplEPK11QMetaObjectPPv@Qt_5 5.0.2
 _ZN11QMetaObject10ConnectionC1ERKS0_@Qt_5 5.0.2
 _ZN11QMetaObject10ConnectionC1Ev@Qt_5 5.0.2
 _ZN11QMetaObject10ConnectionC2ERKS0_@Qt_5 5.0.2
 _ZN11QMetaObject10ConnectionC2Ev@Qt_5 5.0.2
 _ZN11QMetaObject10ConnectionD1Ev@Qt_5 5.0.2
 _ZN11QMetaObject10ConnectionD2Ev@Qt_5 5.0.2
 _ZN11QMetaObject10ConnectionaSERKS0_@Qt_5 5.0.2
 _ZN11QMetaObject10disconnectEPK7QObjectiS2_i@Qt_5 5.0.2
 _ZN11QMetaObject12invokeMethodEP7QObjectPKcN2Qt14ConnectionTypeE22QGenericReturnArgument16QGenericArgumentS7_S7_S7_S7_S7_S7_S7_S7_S7_@Qt_5 5.0.2
 _ZN11QMetaObject13disconnectOneEPK7QObjectiS2_i@Qt_5 5.0.2
 _ZN11QMetaObject14normalizedTypeEPKc@Qt_5 5.0.2
 _ZN11QMetaObject16checkConnectArgsEPKcS1_@Qt_5 5.0.2
 _ZN11QMetaObject16checkConnectArgsERK11QMetaMethodS2_@Qt_5 5.0.2
 _ZN11QMetaObject18connectSlotsByNameEP7QObject@Qt_5 5.0.2
 _ZN11QMetaObject19normalizedSignatureEPKc@Qt_5 5.0.2
 _ZN11QMetaObject7connectEPK7QObjectiS2_iiPi@Qt_5 5.0.2
 _ZN11QMetaObject8activateEP7QObjectPKS_iPPv@Qt_5 5.0.2
 _ZN11QMetaObject8activateEP7QObjectiPPv@Qt_5 5.0.2
 _ZN11QMetaObject8activateEP7QObjectiiPPv@Qt_5 5.0.2
 _ZN11QMetaObject8metacallEP7QObjectNS_4CallEiPPv@Qt_5 5.0.2
 _ZN11QObjectDataD0Ev@Qt_5 5.0.2
 _ZN11QObjectDataD1Ev@Qt_5 5.0.2
 _ZN11QObjectDataD2Ev@Qt_5 5.0.2
 _ZN11QRingBuffer12reserveFrontEx@Qt_5 5.6.0~beta
 _ZN11QRingBuffer4chopEx@Qt_5 5.6.0~beta
 _ZN11QRingBuffer4freeEx@Qt_5 5.6.0~beta
 _ZN11QRingBuffer4readEPcx@Qt_5 5.6.0~beta
 _ZN11QRingBuffer4readEv@Qt_5 5.6.0~beta
 _ZN11QRingBuffer5clearEv@Qt_5 5.6.0~beta
 _ZN11QRingBuffer6appendEPKcx@Qt_5 5.7.0
 _ZN11QRingBuffer6appendERK10QByteArray@Qt_5 5.6.0~beta
 _ZN11QRingBuffer7reserveEx@Qt_5 5.6.0~beta
 _ZN11QRingBuffer8readLineEPcx@Qt_5 5.6.0~beta
 _ZN11QTextStream10setPadCharE5QChar@Qt_5 5.0.2
 _ZN11QTextStream11resetStatusEv@Qt_5 5.0.2
 _ZN11QTextStream12readLineIntoEP7QStringx@Qt_5 5.5.0
 _ZN11QTextStream13setFieldWidthEi@Qt_5 5.0.2
 _ZN11QTextStream14setIntegerBaseEi@Qt_5 5.0.2
 _ZN11QTextStream14setNumberFlagsE6QFlagsINS_10NumberFlagEE@Qt_5 5.0.2
 _ZN11QTextStream14skipWhiteSpaceEv@Qt_5 5.0.2
 _ZN11QTextStream17setFieldAlignmentENS_14FieldAlignmentE@Qt_5 5.0.2
 _ZN11QTextStream20setAutoDetectUnicodeEb@Qt_5 5.0.2
 _ZN11QTextStream21setRealNumberNotationENS_18RealNumberNotationE@Qt_5 5.0.2
 _ZN11QTextStream22setRealNumberPrecisionEi@Qt_5 5.0.2
 _ZN11QTextStream24setGenerateByteOrderMarkEb@Qt_5 5.0.2
 _ZN11QTextStream4readEx@Qt_5 5.0.2
 _ZN11QTextStream4seekEx@Qt_5 5.0.2
 _ZN11QTextStream5flushEv@Qt_5 5.0.2
 _ZN11QTextStream5resetEv@Qt_5 5.0.2
 _ZN11QTextStream7readAllEv@Qt_5 5.0.2
 _ZN11QTextStream8readLineEx@Qt_5 5.0.2
 _ZN11QTextStream8setCodecEP10QTextCodec@Qt_5 5.0.2
 _ZN11QTextStream8setCodecEPKc@Qt_5 5.0.2
 _ZN11QTextStream9setDeviceEP9QIODevice@Qt_5 5.0.2
 _ZN11QTextStream9setLocaleERK7QLocale@Qt_5 5.0.2
 _ZN11QTextStream9setStatusENS_6StatusE@Qt_5 5.0.2
 _ZN11QTextStream9setStringEP7QString6QFlagsIN9QIODevice12OpenModeFlagEE@Qt_5 5.0.2
 _ZN11QTextStreamC1EP10QByteArray6QFlagsIN9QIODevice12OpenModeFlagEE@Qt_5 5.0.2
 _ZN11QTextStreamC1EP7QString6QFlagsIN9QIODevice12OpenModeFlagEE@Qt_5 5.0.2
 _ZN11QTextStreamC1EP8_IO_FILE6QFlagsIN9QIODevice12OpenModeFlagEE@Qt_5 5.0.2
 _ZN11QTextStreamC1EP9QIODevice@Qt_5 5.0.2
 _ZN11QTextStreamC1ERK10QByteArray6QFlagsIN9QIODevice12OpenModeFlagEE@Qt_5 5.0.2
 _ZN11QTextStreamC1Ev@Qt_5 5.0.2
 _ZN11QTextStreamC2EP10QByteArray6QFlagsIN9QIODevice12OpenModeFlagEE@Qt_5 5.0.2
 _ZN11QTextStreamC2EP7QString6QFlagsIN9QIODevice12OpenModeFlagEE@Qt_5 5.0.2
 _ZN11QTextStreamC2EP8_IO_FILE6QFlagsIN9QIODevice12OpenModeFlagEE@Qt_5 5.0.2
 _ZN11QTextStreamC2EP9QIODevice@Qt_5 5.0.2
 _ZN11QTextStreamC2ERK10QByteArray6QFlagsIN9QIODevice12OpenModeFlagEE@Qt_5 5.0.2
 _ZN11QTextStreamC2Ev@Qt_5 5.0.2
 _ZN11QTextStreamD0Ev@Qt_5 5.0.2
 _ZN11QTextStreamD1Ev@Qt_5 5.0.2
 _ZN11QTextStreamD2Ev@Qt_5 5.0.2
 _ZN11QTextStreamlsE13QLatin1String@Qt_5 5.0.2
 _ZN11QTextStreamlsE5QChar@Qt_5 5.0.2
 _ZN11QTextStreamlsEPKc@Qt_5 5.0.2
 _ZN11QTextStreamlsEPKv@Qt_5 5.0.2
 _ZN11QTextStreamlsERK10QByteArray@Qt_5 5.0.2
 _ZN11QTextStreamlsERK10QStringRef@Qt_5 5.6.0~beta
 _ZN11QTextStreamlsERK7QString@Qt_5 5.0.2
 _ZN11QTextStreamlsEc@Qt_5 5.0.2
 _ZN11QTextStreamlsEd@Qt_5 5.0.2
 _ZN11QTextStreamlsEf@Qt_5 5.0.2
 _ZN11QTextStreamlsEi@Qt_5 5.0.2
 _ZN11QTextStreamlsEj@Qt_5 5.0.2
 _ZN11QTextStreamlsEl@Qt_5 5.0.2
 _ZN11QTextStreamlsEm@Qt_5 5.0.2
 _ZN11QTextStreamlsEs@Qt_5 5.0.2
 _ZN11QTextStreamlsEt@Qt_5 5.0.2
 _ZN11QTextStreamlsEx@Qt_5 5.0.2
 _ZN11QTextStreamlsEy@Qt_5 5.0.2
 _ZN11QTextStreamrsEPc@Qt_5 5.0.2
 _ZN11QTextStreamrsER10QByteArray@Qt_5 5.0.2
 _ZN11QTextStreamrsER5QChar@Qt_5 5.0.2
 _ZN11QTextStreamrsER7QString@Qt_5 5.0.2
 _ZN11QTextStreamrsERc@Qt_5 5.0.2
 _ZN11QTextStreamrsERd@Qt_5 5.0.2
 _ZN11QTextStreamrsERf@Qt_5 5.0.2
 _ZN11QTextStreamrsERi@Qt_5 5.0.2
 _ZN11QTextStreamrsERj@Qt_5 5.0.2
 _ZN11QTextStreamrsERl@Qt_5 5.0.2
 _ZN11QTextStreamrsERm@Qt_5 5.0.2
 _ZN11QTextStreamrsERs@Qt_5 5.0.2
 _ZN11QTextStreamrsERt@Qt_5 5.0.2
 _ZN11QTextStreamrsERx@Qt_5 5.0.2
 _ZN11QTextStreamrsERy@Qt_5 5.0.2
 _ZN11QThreadPool11qt_metacallEN11QMetaObject4CallEiPPv@Qt_5 5.0.2
 _ZN11QThreadPool11qt_metacastEPKc@Qt_5 5.0.2
 _ZN11QThreadPool11waitForDoneEi@Qt_5 5.0.2
 _ZN11QThreadPool13releaseThreadEv@Qt_5 5.0.2
 _ZN11QThreadPool13reserveThreadEv@Qt_5 5.0.2
 _ZN11QThreadPool14globalInstanceEv@Qt_5 5.0.2
 _ZN11QThreadPool16setExpiryTimeoutEi@Qt_5 5.0.2
 _ZN11QThreadPool16staticMetaObjectE@Qt_5 5.0.2
 _ZN11QThreadPool17setMaxThreadCountEi@Qt_5 5.0.2
 _ZN11QThreadPool5clearEv@Qt_5 5.2.0~alpha1
 _ZN11QThreadPool5startEP9QRunnablei@Qt_5 5.0.2
 _ZN11QThreadPool6cancelEP9QRunnable@Qt_5 5.5.0
 _ZN11QThreadPool8tryStartEP9QRunnable@Qt_5 5.0.2
 _ZN11QThreadPoolC1EP7QObject@Qt_5 5.0.2
 _ZN11QThreadPoolC2EP7QObject@Qt_5 5.0.2
 _ZN11QThreadPoolD0Ev@Qt_5 5.0.2
 _ZN11QThreadPoolD1Ev@Qt_5 5.0.2
 _ZN11QThreadPoolD2Ev@Qt_5 5.0.2
 _ZN11QTimerEventC1Ei@Qt_5 5.0.2
 _ZN11QTimerEventC2Ei@Qt_5 5.0.2
 _ZN11QTimerEventD0Ev@Qt_5 5.0.2
 _ZN11QTimerEventD1Ev@Qt_5 5.0.2
 _ZN11QTimerEventD2Ev@Qt_5 5.0.2
 _ZN11QTranslator11qt_metacallEN11QMetaObject4CallEiPPv@Qt_5 5.0.2
 _ZN11QTranslator11qt_metacastEPKc@Qt_5 5.0.2
 _ZN11QTranslator16staticMetaObjectE@Qt_5 5.0.2
 _ZN11QTranslator4loadEPKhiRK7QString@Qt_5 5.0.2
 _ZN11QTranslator4loadERK7QLocaleRK7QStringS5_S5_S5_@Qt_5 5.0.2
 _ZN11QTranslator4loadERK7QStringS2_S2_S2_@Qt_5 5.0.2
 _ZN11QTranslatorC1EP7QObject@Qt_5 5.0.2
 _ZN11QTranslatorC2EP7QObject@Qt_5 5.0.2
 _ZN11QTranslatorD0Ev@Qt_5 5.0.2
 _ZN11QTranslatorD1Ev@Qt_5 5.0.2
 _ZN11QTranslatorD2Ev@Qt_5 5.0.2
 _ZN12QDirIterator4nextEv@Qt_5 5.0.2
 _ZN12QDirIteratorC1ERK4QDir6QFlagsINS_12IteratorFlagEE@Qt_5 5.0.2
 _ZN12QDirIteratorC1ERK7QString6QFlagsIN4QDir6FilterEES3_INS_12IteratorFlagEE@Qt_5 5.0.2
 _ZN12QDirIteratorC1ERK7QString6QFlagsINS_12IteratorFlagEE@Qt_5 5.0.2
 _ZN12QDirIteratorC1ERK7QStringRK11QStringList6QFlagsIN4QDir6FilterEES6_INS_12IteratorFlagEE@Qt_5 5.0.2
 _ZN12QDirIteratorC2ERK4QDir6QFlagsINS_12IteratorFlagEE@Qt_5 5.0.2
 _ZN12QDirIteratorC2ERK7QString6QFlagsIN4QDir6FilterEES3_INS_12IteratorFlagEE@Qt_5 5.0.2
 _ZN12QDirIteratorC2ERK7QString6QFlagsINS_12IteratorFlagEE@Qt_5 5.0.2
 _ZN12QDirIteratorC2ERK7QStringRK11QStringList6QFlagsIN4QDir6FilterEES6_INS_12IteratorFlagEE@Qt_5 5.0.2
 _ZN12QDirIteratorD1Ev@Qt_5 5.0.2
 _ZN12QDirIteratorD2Ev@Qt_5 5.0.2
 _ZN12QEasingCurve12setAmplitudeEd@Qt_5 5.2.0
 _ZN12QEasingCurve12setOvershootEd@Qt_5 5.2.0
 _ZN12QEasingCurve13addTCBSegmentERK7QPointFddd@Qt_5 5.2.0
 _ZN12QEasingCurve13setCustomTypeEPFddE@Qt_5 5.2.0
 _ZN12QEasingCurve16staticMetaObjectE@Qt_5 5.0.2
 _ZN12QEasingCurve21addCubicBezierSegmentERK7QPointFS2_S2_@Qt_5 5.0.2
 _ZN12QEasingCurve7setTypeENS_4TypeE@Qt_5 5.0.2
 _ZN12QEasingCurve9setPeriodEd@Qt_5 5.2.0
 _ZN12QEasingCurveC1ENS_4TypeE@Qt_5 5.0.2
 _ZN12QEasingCurveC1ERKS_@Qt_5 5.0.2
 _ZN12QEasingCurveC2ENS_4TypeE@Qt_5 5.0.2
 _ZN12QEasingCurveC2ERKS_@Qt_5 5.0.2
 _ZN12QEasingCurveD1Ev@Qt_5 5.0.2
 _ZN12QEasingCurveD2Ev@Qt_5 5.0.2
 _ZN12QLibraryInfo12isDebugBuildEv@Qt_5 5.0.2
 _ZN12QLibraryInfo16licensedProductsEv@Qt_5 5.0.2
 _ZN12QLibraryInfo23platformPluginArgumentsERK7QString@Qt_5 5.3.0
 _ZN12QLibraryInfo5buildEv@Qt_5 5.3.0
 _ZN12QLibraryInfo8licenseeEv@Qt_5 5.0.2
 _ZN12QLibraryInfo8locationENS_15LibraryLocationE@Qt_5 5.0.2
 _ZN12QLibraryInfo9buildDateEv@Qt_5 5.0.2
 _ZN12QLibraryInfoC1Ev@Qt_5 5.0.2
 _ZN12QLibraryInfoC2Ev@Qt_5 5.0.2
 _ZN12QMapDataBase10createDataEv@Qt_5 5.0.2
 _ZN12QMapDataBase10createNodeEiiP12QMapNodeBaseb@Qt_5 5.0.2
 _ZN12QMapDataBase10rotateLeftEP12QMapNodeBase@Qt_5 5.0.2
 _ZN12QMapDataBase11rotateRightEP12QMapNodeBase@Qt_5 5.0.2
 _ZN12QMapDataBase11shared_nullE@Qt_5 5.0.2
 _ZN12QMapDataBase18recalcMostLeftNodeEv@Qt_5 5.0.2
 _ZN12QMapDataBase20freeNodeAndRebalanceEP12QMapNodeBase@Qt_5 5.0.2
 _ZN12QMapDataBase8freeDataEPS_@Qt_5 5.0.2
 _ZN12QMapDataBase8freeTreeEP12QMapNodeBasei@Qt_5 5.0.2
 _ZN12QMapDataBase9rebalanceEP12QMapNodeBase@Qt_5 5.0.2
 _ZN12QStorageInfo14mountedVolumesEv@Qt_5 5.4.0
 _ZN12QStorageInfo4rootEv@Qt_5 5.4.0
 _ZN12QStorageInfo7refreshEv@Qt_5 5.4.0
 _ZN12QStorageInfo7setPathERK7QString@Qt_5 5.4.0
 _ZN12QStorageInfoC1ERK4QDir@Qt_5 5.4.0
 _ZN12QStorageInfoC1ERK7QString@Qt_5 5.4.0
 _ZN12QStorageInfoC1ERKS_@Qt_5 5.4.0
 _ZN12QStorageInfoC1Ev@Qt_5 5.4.0
 _ZN12QStorageInfoC2ERK4QDir@Qt_5 5.4.0
 _ZN12QStorageInfoC2ERK7QString@Qt_5 5.4.0
 _ZN12QStorageInfoC2ERKS_@Qt_5 5.4.0
 _ZN12QStorageInfoC2Ev@Qt_5 5.4.0
 _ZN12QStorageInfoD1Ev@Qt_5 5.4.0
 _ZN12QStorageInfoD2Ev@Qt_5 5.4.0
 _ZN12QStorageInfoaSERKS_@Qt_5 5.4.0
 _ZN12QTextDecoder9toUnicodeEP7QStringPKci@Qt_5 5.0.2
 _ZN12QTextDecoder9toUnicodeEPKci@Qt_5 5.0.2
 _ZN12QTextDecoder9toUnicodeERK10QByteArray@Qt_5 5.0.2
 _ZN12QTextDecoderC1EPK10QTextCodec6QFlagsINS0_14ConversionFlagEE@Qt_5 5.0.2
 _ZN12QTextDecoderC2EPK10QTextCodec6QFlagsINS0_14ConversionFlagEE@Qt_5 5.0.2
 _ZN12QTextDecoderD1Ev@Qt_5 5.0.2
 _ZN12QTextDecoderD2Ev@Qt_5 5.0.2
 _ZN12QTextEncoder11fromUnicodeEPK5QChari@Qt_5 5.0.2
 _ZN12QTextEncoder11fromUnicodeERK7QString@Qt_5 5.0.2
 _ZN12QTextEncoderC1EPK10QTextCodec6QFlagsINS0_14ConversionFlagEE@Qt_5 5.0.2
 _ZN12QTextEncoderC2EPK10QTextCodec6QFlagsINS0_14ConversionFlagEE@Qt_5 5.0.2
 _ZN12QTextEncoderD1Ev@Qt_5 5.0.2
 _ZN12QTextEncoderD2Ev@Qt_5 5.0.2
 _ZN13QDaemonThreadC1EP7QObject@Qt_5_PRIVATE_API 5.6.0~beta 1
 _ZN13QDaemonThreadC2EP7QObject@Qt_5_PRIVATE_API 5.6.0~beta 1
 _ZN13QDaemonThreadD0Ev@Qt_5_PRIVATE_API 5.6.0~beta 1
 _ZN13QDaemonThreadD1Ev@Qt_5_PRIVATE_API 5.6.0~beta 1
 _ZN13QDaemonThreadD2Ev@Qt_5_PRIVATE_API 5.6.0~beta 1
 _ZN13QElapsedTimer10invalidateEv@Qt_5 5.0.2
 _ZN13QElapsedTimer11isMonotonicEv@Qt_5 5.0.2
 _ZN13QElapsedTimer5startEv@Qt_5 5.0.2
 _ZN13QElapsedTimer7restartEv@Qt_5 5.0.2
 _ZN13QElapsedTimer9clockTypeEv@Qt_5 5.0.2
 _ZN13QFSFileEngine10syncToDiskEv@Qt_5_PRIVATE_API 5.4.0 1
 _ZN13QFSFileEngine11currentPathERK7QString@Qt_5_PRIVATE_API 5.4.0 1
 _ZN13QFSFileEngine11setFileNameERK7QString@Qt_5_PRIVATE_API 5.4.0 1
 _ZN13QFSFileEngine12endEntryListEv@Qt_5_PRIVATE_API 5.4.0 1
 _ZN13QFSFileEngine14beginEntryListE6QFlagsIN4QDir6FilterEERK11QStringList@Qt_5_PRIVATE_API 5.4.0 1
 _ZN13QFSFileEngine14setCurrentPathERK7QString@Qt_5_PRIVATE_API 5.4.0 1
 _ZN13QFSFileEngine14setPermissionsEj@Qt_5_PRIVATE_API 5.4.0 1
 _ZN13QFSFileEngine15renameOverwriteERK7QString@Qt_5_PRIVATE_API 5.4.0 1
 _ZN13QFSFileEngine4copyERK7QString@Qt_5_PRIVATE_API 5.4.0 1
 _ZN13QFSFileEngine4linkERK7QString@Qt_5_PRIVATE_API 5.4.0 1
 _ZN13QFSFileEngine4openE6QFlagsIN9QIODevice12OpenModeFlagEE@Qt_5_PRIVATE_API 5.4.0 1
 _ZN13QFSFileEngine4openE6QFlagsIN9QIODevice12OpenModeFlagEEP8_IO_FILE@Qt_5_PRIVATE_API 5.4.0 1
 _ZN13QFSFileEngine4openE6QFlagsIN9QIODevice12OpenModeFlagEEP8_IO_FILES0_IN11QFileDevice14FileHandleFlagEE@Qt_5_PRIVATE_API 5.4.0 1
 _ZN13QFSFileEngine4openE6QFlagsIN9QIODevice12OpenModeFlagEEi@Qt_5_PRIVATE_API 5.4.0 1
 _ZN13QFSFileEngine4openE6QFlagsIN9QIODevice12OpenModeFlagEEiS0_IN11QFileDevice14FileHandleFlagEE@Qt_5_PRIVATE_API 5.4.0 1
 _ZN13QFSFileEngine4readEPcx@Qt_5_PRIVATE_API 5.4.0 1
 _ZN13QFSFileEngine4seekEx@Qt_5_PRIVATE_API 5.4.0 1
 _ZN13QFSFileEngine5closeEv@Qt_5_PRIVATE_API 5.4.0 1
 _ZN13QFSFileEngine5flushEv@Qt_5_PRIVATE_API 5.4.0 1
 _ZN13QFSFileEngine5writeEPKcx@Qt_5_PRIVATE_API 5.4.0 1
 _ZN13QFSFileEngine6drivesEv@Qt_5_PRIVATE_API 5.4.0 1
 _ZN13QFSFileEngine6removeEv@Qt_5_PRIVATE_API 5.4.0 1
 _ZN13QFSFileEngine6renameERK7QString@Qt_5_PRIVATE_API 5.4.0 1
 _ZN13QFSFileEngine7setSizeEx@Qt_5_PRIVATE_API 5.4.0 1
 _ZN13QFSFileEngine8homePathEv@Qt_5_PRIVATE_API 5.4.0 1
 _ZN13QFSFileEngine8readLineEPcx@Qt_5_PRIVATE_API 5.4.0 1
 _ZN13QFSFileEngine8rootPathEv@Qt_5_PRIVATE_API 5.4.0 1
 _ZN13QFSFileEngine8tempPathEv@Qt_5_PRIVATE_API 5.4.0 1
 _ZN13QFSFileEngine9extensionEN19QAbstractFileEngine9ExtensionEPKNS0_15ExtensionOptionEPNS0_15ExtensionReturnE@Qt_5_PRIVATE_API 5.4.0 1
 _ZN13QFSFileEngineC1ER20QFSFileEnginePrivate@Qt_5_PRIVATE_API 5.4.0 1
 _ZN13QFSFileEngineC1ERK7QString@Qt_5_PRIVATE_API 5.4.0 1
 _ZN13QFSFileEngineC1Ev@Qt_5_PRIVATE_API 5.4.0 1
 _ZN13QFSFileEngineC2ER20QFSFileEnginePrivate@Qt_5_PRIVATE_API 5.4.0 1
 _ZN13QFSFileEngineC2ERK7QString@Qt_5_PRIVATE_API 5.4.0 1
 _ZN13QFSFileEngineC2Ev@Qt_5_PRIVATE_API 5.4.0 1
 _ZN13QFSFileEngineD0Ev@Qt_5_PRIVATE_API 5.4.0 1
 _ZN13QFSFileEngineD1Ev@Qt_5_PRIVATE_API 5.4.0 1
 _ZN13QFSFileEngineD2Ev@Qt_5_PRIVATE_API 5.4.0 1
 _ZN13QFileSelector11qt_metacallEN11QMetaObject4CallEiPPv@Qt_5 5.2.0~alpha1
 _ZN13QFileSelector11qt_metacastEPKc@Qt_5 5.2.0~alpha1
 _ZN13QFileSelector16staticMetaObjectE@Qt_5 5.2.0~alpha1
 _ZN13QFileSelector17setExtraSelectorsERK11QStringList@Qt_5 5.2.0~alpha1
 _ZN13QFileSelectorC1EP7QObject@Qt_5 5.2.0~alpha1
 _ZN13QFileSelectorC2EP7QObject@Qt_5 5.2.0~alpha1
 _ZN13QFileSelectorD0Ev@Qt_5 5.2.0~alpha1
 _ZN13QFileSelectorD1Ev@Qt_5 5.2.0~alpha1
 _ZN13QFileSelectorD2Ev@Qt_5 5.2.0~alpha1
 _ZN13QHistoryState11qt_metacallEN11QMetaObject4CallEiPPv@Qt_5 5.0.2
 _ZN13QHistoryState11qt_metacastEPKc@Qt_5 5.0.2
 _ZN13QHistoryState14setHistoryTypeENS_11HistoryTypeE@Qt_5 5.0.2
 _ZN13QHistoryState15setDefaultStateEP14QAbstractState@Qt_5 5.0.2
 _ZN13QHistoryState16staticMetaObjectE@Qt_5 5.0.2
 _ZN13QHistoryState18historyTypeChangedENS_14QPrivateSignalE@Qt_5 5.4.0
 _ZN13QHistoryState19defaultStateChangedENS_14QPrivateSignalE@Qt_5 5.4.0
 _ZN13QHistoryState20setDefaultTransitionEP19QAbstractTransition@Qt_5 5.6.0~beta
 _ZN13QHistoryState24defaultTransitionChangedENS_14QPrivateSignalE@Qt_5 5.6.0~beta
 _ZN13QHistoryState5eventEP6QEvent@Qt_5 5.0.2
 _ZN13QHistoryState6onExitEP6QEvent@Qt_5 5.0.2
 _ZN13QHistoryState7onEntryEP6QEvent@Qt_5 5.0.2
 _ZN13QHistoryStateC1ENS_11HistoryTypeEP6QState@Qt_5 5.0.2
 _ZN13QHistoryStateC1EP6QState@Qt_5 5.0.2
 _ZN13QHistoryStateC2ENS_11HistoryTypeEP6QState@Qt_5 5.0.2
 _ZN13QHistoryStateC2EP6QState@Qt_5 5.0.2
 _ZN13QHistoryStateD0Ev@Qt_5 5.0.2
 _ZN13QHistoryStateD1Ev@Qt_5 5.0.2
 _ZN13QHistoryStateD2Ev@Qt_5 5.0.2
 _ZN13QJsonDocument11fromRawDataEPKciNS_14DataValidationE@Qt_5 5.0.2
 _ZN13QJsonDocument11fromVariantERK8QVariant@Qt_5 5.0.2
 _ZN13QJsonDocument14fromBinaryDataERK10QByteArrayNS_14DataValidationE@Qt_5 5.0.2
 _ZN13QJsonDocument8fromJsonERK10QByteArrayP15QJsonParseError@Qt_5 5.0.2
 _ZN13QJsonDocument8setArrayERK10QJsonArray@Qt_5 5.0.2
 _ZN13QJsonDocument9setObjectERK11QJsonObject@Qt_5 5.0.2
 _ZN13QJsonDocumentC1EPN12QJsonPrivate4DataE@Qt_5 5.0.2
 _ZN13QJsonDocumentC1ERK10QJsonArray@Qt_5 5.0.2
 _ZN13QJsonDocumentC1ERK11QJsonObject@Qt_5 5.0.2
 _ZN13QJsonDocumentC1ERKS_@Qt_5 5.0.2
 _ZN13QJsonDocumentC1Ev@Qt_5 5.0.2
 _ZN13QJsonDocumentC2EPN12QJsonPrivate4DataE@Qt_5 5.0.2
 _ZN13QJsonDocumentC2ERK10QJsonArray@Qt_5 5.0.2
 _ZN13QJsonDocumentC2ERK11QJsonObject@Qt_5 5.0.2
 _ZN13QJsonDocumentC2ERKS_@Qt_5 5.0.2
 _ZN13QJsonDocumentC2Ev@Qt_5 5.0.2
 _ZN13QJsonDocumentD1Ev@Qt_5 5.0.2
 _ZN13QJsonDocumentD2Ev@Qt_5 5.0.2
 _ZN13QJsonDocumentaSERKS_@Qt_5 5.0.2
 _ZN13QJsonValueRefaSERK10QJsonValue@Qt_5 5.0.2
 _ZN13QJsonValueRefaSERKS_@Qt_5 5.0.2
 _ZN13QMetaPropertyC1Ev@Qt_5 5.0.2
 _ZN13QMetaPropertyC2Ev@Qt_5 5.0.2
 _ZN13QMimeDatabaseC1Ev@Qt_5 5.0.2
 _ZN13QMimeDatabaseC2Ev@Qt_5 5.0.2
 _ZN13QMimeDatabaseD1Ev@Qt_5 5.0.2
 _ZN13QMimeDatabaseD2Ev@Qt_5 5.0.2
 _ZN13QPluginLoader11qt_metacallEN11QMetaObject4CallEiPPv@Qt_5 5.0.2
 _ZN13QPluginLoader11qt_metacastEPKc@Qt_5 5.0.2
 _ZN13QPluginLoader11setFileNameERK7QString@Qt_5 5.0.2
 _ZN13QPluginLoader12setLoadHintsE6QFlagsIN8QLibrary8LoadHintEE@Qt_5 5.0.2
 _ZN13QPluginLoader13staticPluginsEv@Qt_5 5.2.0~alpha1
 _ZN13QPluginLoader15staticInstancesEv@Qt_5 5.0.2
 _ZN13QPluginLoader16staticMetaObjectE@Qt_5 5.0.2
 _ZN13QPluginLoader4loadEv@Qt_5 5.0.2
 _ZN13QPluginLoader6unloadEv@Qt_5 5.0.2
 _ZN13QPluginLoader8instanceEv@Qt_5 5.0.2
 _ZN13QPluginLoaderC1EP7QObject@Qt_5 5.0.2
 _ZN13QPluginLoaderC1ERK7QStringP7QObject@Qt_5 5.0.2
 _ZN13QPluginLoaderC2EP7QObject@Qt_5 5.0.2
 _ZN13QPluginLoaderC2ERK7QStringP7QObject@Qt_5 5.0.2
 _ZN13QPluginLoaderD0Ev@Qt_5 5.0.2
 _ZN13QPluginLoaderD1Ev@Qt_5 5.0.2
 _ZN13QPluginLoaderD2Ev@Qt_5 5.0.2
 _ZN13QSharedMemory11qt_metacallEN11QMetaObject4CallEiPPv@Qt_5 5.0.2
 _ZN13QSharedMemory11qt_metacastEPKc@Qt_5 5.0.2
 _ZN13QSharedMemory12setNativeKeyERK7QString@Qt_5 5.0.2
 _ZN13QSharedMemory16staticMetaObjectE@Qt_5 5.0.2
 _ZN13QSharedMemory4dataEv@Qt_5 5.0.2
 _ZN13QSharedMemory4lockEv@Qt_5 5.0.2
 _ZN13QSharedMemory6attachENS_10AccessModeE@Qt_5 5.0.2
 _ZN13QSharedMemory6createEiNS_10AccessModeE@Qt_5 5.0.2
 _ZN13QSharedMemory6detachEv@Qt_5 5.0.2
 _ZN13QSharedMemory6setKeyERK7QString@Qt_5 5.0.2
 _ZN13QSharedMemory6unlockEv@Qt_5 5.0.2
 _ZN13QSharedMemoryC1EP7QObject@Qt_5 5.0.2
 _ZN13QSharedMemoryC1ERK7QStringP7QObject@Qt_5 5.0.2
 _ZN13QSharedMemoryC2EP7QObject@Qt_5 5.0.2
 _ZN13QSharedMemoryC2ERK7QStringP7QObject@Qt_5 5.0.2
 _ZN13QSharedMemoryD0Ev@Qt_5 5.0.2
 _ZN13QSharedMemoryD1Ev@Qt_5 5.0.2
 _ZN13QSharedMemoryD2Ev@Qt_5 5.0.2
 _ZN13QSignalMapper10setMappingEP7QObjectP7QWidget@Qt_5 5.0.2
 _ZN13QSignalMapper10setMappingEP7QObjectRK7QString@Qt_5 5.0.2
 _ZN13QSignalMapper10setMappingEP7QObjectS1_@Qt_5 5.0.2
 _ZN13QSignalMapper10setMappingEP7QObjecti@Qt_5 5.0.2
 _ZN13QSignalMapper11qt_metacallEN11QMetaObject4CallEiPPv@Qt_5 5.0.2
 _ZN13QSignalMapper11qt_metacastEPKc@Qt_5 5.0.2
 _ZN13QSignalMapper14removeMappingsEP7QObject@Qt_5 5.0.2
 _ZN13QSignalMapper16staticMetaObjectE@Qt_5 5.0.2
 _ZN13QSignalMapper3mapEP7QObject@Qt_5 5.0.2
 _ZN13QSignalMapper3mapEv@Qt_5 5.0.2
 _ZN13QSignalMapper6mappedEP7QObject@Qt_5 5.0.2
 _ZN13QSignalMapper6mappedEP7QWidget@Qt_5 5.0.2
 _ZN13QSignalMapper6mappedERK7QString@Qt_5 5.0.2
 _ZN13QSignalMapper6mappedEi@Qt_5 5.0.2
 _ZN13QSignalMapperC1EP7QObject@Qt_5 5.0.2
 _ZN13QSignalMapperC2EP7QObject@Qt_5 5.0.2
 _ZN13QSignalMapperD0Ev@Qt_5 5.0.2
 _ZN13QSignalMapperD1Ev@Qt_5 5.0.2
 _ZN13QSignalMapperD2Ev@Qt_5 5.0.2
 _ZN13QStateMachine10clearErrorEv@Qt_5 5.0.2
 _ZN13QStateMachine10setRunningEb@Qt_5 5.4.0
 _ZN13QStateMachine11SignalEventC1EP7QObjectiRK5QListI8QVariantE@Qt_5 5.0.2
 _ZN13QStateMachine11SignalEventC2EP7QObjectiRK5QListI8QVariantE@Qt_5 5.0.2
 _ZN13QStateMachine11SignalEventD0Ev@Qt_5 5.0.2
 _ZN13QStateMachine11SignalEventD1Ev@Qt_5 5.0.2
 _ZN13QStateMachine11SignalEventD2Ev@Qt_5 5.0.2
 _ZN13QStateMachine11eventFilterEP7QObjectP6QEvent@Qt_5 5.0.2
 _ZN13QStateMachine11qt_metacallEN11QMetaObject4CallEiPPv@Qt_5 5.0.2
 _ZN13QStateMachine11qt_metacastEPKc@Qt_5 5.0.2
 _ZN13QStateMachine11removeStateEP14QAbstractState@Qt_5 5.0.2
 _ZN13QStateMachine11setAnimatedEb@Qt_5 5.0.2
 _ZN13QStateMachine12WrappedEventC1EP7QObjectP6QEvent@Qt_5 5.0.2
 _ZN13QStateMachine12WrappedEventC2EP7QObjectP6QEvent@Qt_5 5.0.2
 _ZN13QStateMachine12WrappedEventD0Ev@Qt_5 5.0.2
 _ZN13QStateMachine12WrappedEventD1Ev@Qt_5 5.0.2
 _ZN13QStateMachine12WrappedEventD2Ev@Qt_5 5.0.2
 _ZN13QStateMachine12endMicrostepEP6QEvent@Qt_5 5.0.2
 _ZN13QStateMachine14beginMicrostepEP6QEvent@Qt_5 5.0.2
 _ZN13QStateMachine14runningChangedEb@Qt_5 5.4.0
 _ZN13QStateMachine16postDelayedEventEP6QEventi@Qt_5 5.0.2
 _ZN13QStateMachine16staticMetaObjectE@Qt_5 5.0.2
 _ZN13QStateMachine18cancelDelayedEventEi@Qt_5 5.0.2
 _ZN13QStateMachine19addDefaultAnimationEP18QAbstractAnimation@Qt_5 5.0.2
 _ZN13QStateMachine20endSelectTransitionsEP6QEvent@Qt_5 5.0.2
 _ZN13QStateMachine22beginSelectTransitionsEP6QEvent@Qt_5 5.0.2
 _ZN13QStateMachine22removeDefaultAnimationEP18QAbstractAnimation@Qt_5 5.0.2
 _ZN13QStateMachine22setGlobalRestorePolicyEN6QState13RestorePolicyE@Qt_5 5.0.2
 _ZN13QStateMachine4stopEv@Qt_5 5.0.2
 _ZN13QStateMachine5eventEP6QEvent@Qt_5 5.0.2
 _ZN13QStateMachine5startEv@Qt_5 5.0.2
 _ZN13QStateMachine6onExitEP6QEvent@Qt_5 5.0.2
 _ZN13QStateMachine7onEntryEP6QEvent@Qt_5 5.0.2
 _ZN13QStateMachine7startedENS_14QPrivateSignalE@Qt_5 5.0.2
 _ZN13QStateMachine7stoppedENS_14QPrivateSignalE@Qt_5 5.0.2
 _ZN13QStateMachine8addStateEP14QAbstractState@Qt_5 5.0.2
 _ZN13QStateMachine9postEventEP6QEventNS_13EventPriorityE@Qt_5 5.0.2
 _ZN13QStateMachineC1EN6QState9ChildModeEP7QObject@Qt_5 5.0.2
 _ZN13QStateMachineC1EP7QObject@Qt_5 5.0.2
 _ZN13QStateMachineC1ER20QStateMachinePrivateP7QObject@Qt_5_PRIVATE_API 5.0.2 1
 _ZN13QStateMachineC2EN6QState9ChildModeEP7QObject@Qt_5 5.0.2
 _ZN13QStateMachineC2EP7QObject@Qt_5 5.0.2
 _ZN13QStateMachineC2ER20QStateMachinePrivateP7QObject@Qt_5_PRIVATE_API 5.0.2 1
 _ZN13QStateMachineD0Ev@Qt_5 5.0.2
 _ZN13QStateMachineD1Ev@Qt_5 5.0.2
 _ZN13QStateMachineD2Ev@Qt_5 5.0.2
 _ZN13QStatePrivate12emitFinishedEv@Qt_5_PRIVATE_API 5.6.0~rc 1
 _ZN13QStatePrivate22emitPropertiesAssignedEv@Qt_5_PRIVATE_API 5.6.0~rc 1
 _ZN13QStatePrivateC1Ev@Qt_5_PRIVATE_API 5.6.0~rc 1
 _ZN13QStatePrivateC2Ev@Qt_5_PRIVATE_API 5.6.0~rc 1
 _ZN13QStatePrivateD0Ev@Qt_5_PRIVATE_API 5.6.0~rc 1
 _ZN13QStatePrivateD1Ev@Qt_5_PRIVATE_API 5.6.0~rc 1
 _ZN13QStatePrivateD2Ev@Qt_5_PRIVATE_API 5.6.0~rc 1
 _ZN13QSystemLocaleC1Eb@Qt_5_PRIVATE_API 5.2.0~alpha1 1
 _ZN13QSystemLocaleC1Ev@Qt_5_PRIVATE_API 5.2.0~alpha1 1
 _ZN13QSystemLocaleC2Eb@Qt_5_PRIVATE_API 5.2.0~alpha1 1
 _ZN13QSystemLocaleC2Ev@Qt_5_PRIVATE_API 5.2.0~alpha1 1
 _ZN13QSystemLocaleD0Ev@Qt_5_PRIVATE_API 5.2.0~alpha1 1
 _ZN13QSystemLocaleD1Ev@Qt_5_PRIVATE_API 5.2.0~alpha1 1
 _ZN13QSystemLocaleD2Ev@Qt_5_PRIVATE_API 5.2.0~alpha1 1
 _ZN13QTemporaryDir13setAutoRemoveEb@Qt_5 5.0.2
 _ZN13QTemporaryDir6removeEv@Qt_5 5.0.2
 _ZN13QTemporaryDirC1ERK7QString@Qt_5 5.0.2
 _ZN13QTemporaryDirC1Ev@Qt_5 5.0.2
 _ZN13QTemporaryDirC2ERK7QString@Qt_5 5.0.2
 _ZN13QTemporaryDirC2Ev@Qt_5 5.0.2
 _ZN13QTemporaryDirD1Ev@Qt_5 5.0.2
 _ZN13QTemporaryDirD2Ev@Qt_5 5.0.2
 _ZN13QUnicodeTools11initScriptsEPKtiPh@Qt_5 5.1.0
 _ZN13QUnicodeTools18initCharAttributesEPKtiPKNS_10ScriptItemEiP15QCharAttributes6QFlagsINS_19CharAttributeOptionEE@Qt_5 5.0.2
 _ZN13QUnifiedTimer10timerEventEP11QTimerEvent@Qt_5_PRIVATE_API 5.0.2 1
 _ZN13QUnifiedTimer11qt_metacallEN11QMetaObject4CallEiPPv@Qt_5_PRIVATE_API 5.0.2 1
 _ZN13QUnifiedTimer11qt_metacastEPKc@Qt_5_PRIVATE_API 5.0.2 1
 _ZN13QUnifiedTimer11startTimersEv@Qt_5_PRIVATE_API 5.0.2 1
 _ZN13QUnifiedTimer12localRestartEv@Qt_5_PRIVATE_API 5.0.2 1
 _ZN13QUnifiedTimer16staticMetaObjectE@Qt_5_PRIVATE_API 5.0.2 1
 _ZN13QUnifiedTimer17setTimingIntervalEi@Qt_5_PRIVATE_API 5.0.2 1
 _ZN13QUnifiedTimer18stopAnimationTimerEP23QAbstractAnimationTimer@Qt_5_PRIVATE_API 5.0.2 1
 _ZN13QUnifiedTimer19pauseAnimationTimerEP23QAbstractAnimationTimeri@Qt_5_PRIVATE_API 5.0.2 1
 _ZN13QUnifiedTimer19startAnimationTimerEP23QAbstractAnimationTimer@Qt_5_PRIVATE_API 5.0.2 1
 _ZN13QUnifiedTimer19stopAnimationDriverEv@Qt_5_PRIVATE_API 5.4.0 1
 _ZN13QUnifiedTimer20resumeAnimationTimerEP23QAbstractAnimationTimer@Qt_5_PRIVATE_API 5.0.2 1
 _ZN13QUnifiedTimer20startAnimationDriverEv@Qt_5_PRIVATE_API 5.4.0 1
 _ZN13QUnifiedTimer21runningAnimationCountEv@Qt_5_PRIVATE_API 5.0.2 1
 _ZN13QUnifiedTimer21updateAnimationTimersEx@Qt_5_PRIVATE_API 5.0.2 1
 _ZN13QUnifiedTimer22installAnimationDriverEP16QAnimationDriver@Qt_5_PRIVATE_API 5.0.2 1
 _ZN13QUnifiedTimer24registerProfilerCallbackEPFvxE@Qt_5_PRIVATE_API 5.0.2 1
 _ZN13QUnifiedTimer24uninstallAnimationDriverEP16QAnimationDriver@Qt_5_PRIVATE_API 5.0.2 1
 _ZN13QUnifiedTimer27canUninstallAnimationDriverEP16QAnimationDriver@Qt_5_PRIVATE_API 5.0.2 1
 _ZN13QUnifiedTimer34maybeUpdateAnimationsToCurrentTimeEv@Qt_5_PRIVATE_API 5.0.2 1
 _ZN13QUnifiedTimer39closestPausedAnimationTimerTimeToFinishEv@Qt_5_PRIVATE_API 5.0.2 1
 _ZN13QUnifiedTimer7restartEv@Qt_5_PRIVATE_API 5.0.2 1
 _ZN13QUnifiedTimer8instanceEb@Qt_5_PRIVATE_API 5.0.2 1
 _ZN13QUnifiedTimer8instanceEv@Qt_5_PRIVATE_API 5.0.2 1
 _ZN13QUnifiedTimer9stopTimerEv@Qt_5_PRIVATE_API 5.0.2 1
 _ZN13QUnifiedTimerC1Ev@Qt_5_PRIVATE_API 5.0.2 1
 _ZN13QUnifiedTimerC2Ev@Qt_5_PRIVATE_API 5.0.2 1
 _ZN14QAbstractState11qt_metacallEN11QMetaObject4CallEiPPv@Qt_5 5.0.2
 _ZN14QAbstractState11qt_metacastEPKc@Qt_5 5.0.2
 _ZN14QAbstractState13activeChangedEb@Qt_5 5.4.0
 _ZN14QAbstractState16staticMetaObjectE@Qt_5 5.0.2
 _ZN14QAbstractState5eventEP6QEvent@Qt_5 5.0.2
 _ZN14QAbstractState6exitedENS_14QPrivateSignalE@Qt_5 5.0.2
 _ZN14QAbstractState7enteredENS_14QPrivateSignalE@Qt_5 5.0.2
 _ZN14QAbstractStateC1EP6QState@Qt_5 5.0.2
 _ZN14QAbstractStateC1ER21QAbstractStatePrivateP6QState@Qt_5 5.0.2
 _ZN14QAbstractStateC2EP6QState@Qt_5 5.0.2
 _ZN14QAbstractStateC2ER21QAbstractStatePrivateP6QState@Qt_5 5.0.2
 _ZN14QAbstractStateD0Ev@Qt_5 5.0.2
 _ZN14QAbstractStateD1Ev@Qt_5 5.0.2
 _ZN14QAbstractStateD2Ev@Qt_5 5.0.2
 _ZN14QFactoryLoader10refreshAllEv@Qt_5_PRIVATE_API 5.0.2 1
 _ZN14QFactoryLoader11qt_metacallEN11QMetaObject4CallEiPPv@Qt_5_PRIVATE_API 5.0.2 1
 _ZN14QFactoryLoader11qt_metacastEPKc@Qt_5_PRIVATE_API 5.0.2 1
 _ZN14QFactoryLoader16staticMetaObjectE@Qt_5_PRIVATE_API 5.0.2 1
 _ZN14QFactoryLoader6updateEv@Qt_5_PRIVATE_API 5.0.2 1
 _ZN14QFactoryLoaderC1EPKcRK7QStringN2Qt15CaseSensitivityE@Qt_5_PRIVATE_API 5.0.2 1
 _ZN14QFactoryLoaderC2EPKcRK7QStringN2Qt15CaseSensitivityE@Qt_5_PRIVATE_API 5.0.2 1
 _ZN14QFactoryLoaderD0Ev@Qt_5_PRIVATE_API 5.0.2 1
 _ZN14QFactoryLoaderD1Ev@Qt_5_PRIVATE_API 5.0.2 1
 _ZN14QFactoryLoaderD2Ev@Qt_5_PRIVATE_API 5.0.2 1
 _ZN14QItemSelection5mergeERKS_6QFlagsIN19QItemSelectionModel13SelectionFlagEE@Qt_5 5.0.2
 _ZN14QItemSelection5splitERK19QItemSelectionRangeS2_PS_@Qt_5 5.0.2
 _ZN14QItemSelection6selectERK11QModelIndexS2_@Qt_5 5.0.2
 _ZN14QItemSelectionC1ERK11QModelIndexS2_@Qt_5 5.0.2
 _ZN14QItemSelectionC2ERK11QModelIndexS2_@Qt_5 5.0.2
 _ZN14QLocalePrivate12codeToScriptEPK5QChari@Qt_5_PRIVATE_API 5.7.0 1
 _ZN14QLocalePrivate12scriptToCodeEN7QLocale6ScriptE@Qt_5_PRIVATE_API 5.1.0 1
 _ZN14QLocalePrivate13codeToCountryEPK5QChari@Qt_5_PRIVATE_API 5.7.0 1
 _ZN14QLocalePrivate13countryToCodeEN7QLocale7CountryE@Qt_5_PRIVATE_API 5.1.0 1
 _ZN14QLocalePrivate14codeToLanguageEPK5QChari@Qt_5_PRIVATE_API 5.7.0 1
 _ZN14QLocalePrivate14languageToCodeEN7QLocale8LanguageE@Qt_5_PRIVATE_API 5.1.0 1
 _ZN14QLocalePrivate17getLangAndCountryERK7QStringRN7QLocale8LanguageERNS3_6ScriptERNS3_7CountryE@Qt_5_PRIVATE_API 5.0.2 1
 _ZN14QLocalePrivate19updateSystemPrivateEv@Qt_5_PRIVATE_API 5.0.2 1
 _ZN14QMetaCallEvent13placeMetaCallEP7QObject@Qt_5_PRIVATE_API 5.0.2 1
 _ZN14QMetaCallEventC1EPN9QtPrivate15QSlotObjectBaseEPK7QObjectiiPiPPvP10QSemaphore@Qt_5_PRIVATE_API 5.0.2 1
 _ZN14QMetaCallEventC1EttPFvP7QObjectN11QMetaObject4CallEiPPvEPKS0_iiPiS5_P10QSemaphore@Qt_5_PRIVATE_API 5.0.2 1
 _ZN14QMetaCallEventC2EPN9QtPrivate15QSlotObjectBaseEPK7QObjectiiPiPPvP10QSemaphore@Qt_5_PRIVATE_API 5.0.2 1
 _ZN14QMetaCallEventC2EttPFvP7QObjectN11QMetaObject4CallEiPPvEPKS0_iiPiS5_P10QSemaphore@Qt_5_PRIVATE_API 5.0.2 1
 _ZN14QMetaCallEventD0Ev@Qt_5_PRIVATE_API 5.0.2 1
 _ZN14QMetaCallEventD1Ev@Qt_5_PRIVATE_API 5.0.2 1
 _ZN14QMetaCallEventD2Ev@Qt_5_PRIVATE_API 5.0.2 1
 _ZN14QObjectPrivate10ConnectionD1Ev@Qt_5_PRIVATE_API 5.0.2 1
 _ZN14QObjectPrivate10ConnectionD2Ev@Qt_5_PRIVATE_API 5.0.2 1
 _ZN14QObjectPrivate10disconnectEPK7QObjectiPPv@Qt_5_PRIVATE_API 5.2.0~alpha1 1
 _ZN14QObjectPrivate11connectImplEPK7QObjectiS2_PPvPN9QtPrivate15QSlotObjectBaseEN2Qt14ConnectionTypeEPKiPK11QMetaObject@Qt_5_PRIVATE_API 5.2.0~alpha1 1
 _ZN14QObjectPrivate13addConnectionEiPNS_10ConnectionE@Qt_5_PRIVATE_API 5.0.2 1
 _ZN14QObjectPrivate14deleteChildrenEv@Qt_5_PRIVATE_API 5.0.2 1
 _ZN14QObjectPrivate16setParent_helperEP7QObject@Qt_5_PRIVATE_API 5.0.2 1
 _ZN14QObjectPrivate19_q_reregisterTimersEPv@Qt_5_PRIVATE_API 5.0.2 1
 _ZN14QObjectPrivate19moveToThread_helperEv@Qt_5_PRIVATE_API 5.0.2 1
 _ZN14QObjectPrivate20cleanConnectionListsEv@Qt_5_PRIVATE_API 5.0.2 1
 _ZN14QObjectPrivate20setThreadData_helperEP11QThreadDataS1_@Qt_5_PRIVATE_API 5.0.2 1
 _ZN14QObjectPrivate7connectEPK7QObjectiPN9QtPrivate15QSlotObjectBaseEN2Qt14ConnectionTypeE@Qt_5_PRIVATE_API 5.2.0~alpha1 1
 _ZN14QObjectPrivateC1Ei@Qt_5_PRIVATE_API 5.0.2 1
 _ZN14QObjectPrivateC2Ei@Qt_5_PRIVATE_API 5.0.2 1
 _ZN14QObjectPrivateD0Ev@Qt_5_PRIVATE_API 5.0.2 1
 _ZN14QObjectPrivateD1Ev@Qt_5_PRIVATE_API 5.0.2 1
 _ZN14QObjectPrivateD2Ev@Qt_5_PRIVATE_API 5.0.2 1
 _ZN14QReadWriteLock11lockForReadEv@Qt_5 5.0.2
 _ZN14QReadWriteLock12lockForWriteEv@Qt_5 5.0.2
 _ZN14QReadWriteLock14tryLockForReadEi@Qt_5 5.0.2
 _ZN14QReadWriteLock14tryLockForReadEv@Qt_5 5.0.2
 _ZN14QReadWriteLock15tryLockForWriteEi@Qt_5 5.0.2
 _ZN14QReadWriteLock15tryLockForWriteEv@Qt_5 5.0.2
 _ZN14QReadWriteLock6unlockEv@Qt_5 5.0.2
 _ZN14QReadWriteLockC1ENS_13RecursionModeE@Qt_5 5.0.2
 _ZN14QReadWriteLockC2ENS_13RecursionModeE@Qt_5 5.0.2
 _ZN14QReadWriteLockD1Ev@Qt_5 5.0.2
 _ZN14QReadWriteLockD2Ev@Qt_5 5.0.2
 _ZN14QStandardPaths11displayNameENS_16StandardLocationE@Qt_5 5.0.2
 _ZN14QStandardPaths14enableTestModeEb@Qt_5 5.0.2
 _ZN14QStandardPaths14findExecutableERK7QStringRK11QStringList@Qt_5 5.0.2
 _ZN14QStandardPaths16writableLocationENS_16StandardLocationE@Qt_5 5.0.2
 _ZN14QStandardPaths17isTestModeEnabledEv@Qt_5 5.0.2
 _ZN14QStandardPaths17standardLocationsENS_16StandardLocationE@Qt_5 5.0.2
 _ZN14QStandardPaths18setTestModeEnabledEb@Qt_5 5.2.0~alpha1
 _ZN14QStandardPaths6locateENS_16StandardLocationERK7QString6QFlagsINS_12LocateOptionEE@Qt_5 5.0.2
 _ZN14QStandardPaths9locateAllENS_16StandardLocationERK7QString6QFlagsINS_12LocateOptionEE@Qt_5 5.0.2
 _ZN14QStringMatcher10setPatternERK7QString@Qt_5 5.0.2
 _ZN14QStringMatcher18setCaseSensitivityEN2Qt15CaseSensitivityE@Qt_5 5.0.2
 _ZN14QStringMatcherC1EPK5QChariN2Qt15CaseSensitivityE@Qt_5 5.0.2
 _ZN14QStringMatcherC1ERK7QStringN2Qt15CaseSensitivityE@Qt_5 5.0.2
 _ZN14QStringMatcherC1ERKS_@Qt_5 5.0.2
 _ZN14QStringMatcherC1Ev@Qt_5 5.0.2
 _ZN14QStringMatcherC2EPK5QChariN2Qt15CaseSensitivityE@Qt_5 5.0.2
 _ZN14QStringMatcherC2ERK7QStringN2Qt15CaseSensitivityE@Qt_5 5.0.2
 _ZN14QStringMatcherC2ERKS_@Qt_5 5.0.2
 _ZN14QStringMatcherC2Ev@Qt_5 5.0.2
 _ZN14QStringMatcherD1Ev@Qt_5 5.0.2
 _ZN14QStringMatcherD2Ev@Qt_5 5.0.2
 _ZN14QStringMatcheraSERKS_@Qt_5 5.0.2
 _ZN14QTemporaryFile11qt_metacallEN11QMetaObject4CallEiPPv@Qt_5 5.0.2
 _ZN14QTemporaryFile11qt_metacastEPKc@Qt_5 5.0.2
 _ZN14QTemporaryFile13setAutoRemoveEb@Qt_5 5.0.2
 _ZN14QTemporaryFile15setFileTemplateERK7QString@Qt_5 5.0.2
 _ZN14QTemporaryFile16createNativeFileER5QFile@Qt_5 5.0.2
 _ZN14QTemporaryFile16staticMetaObjectE@Qt_5 5.0.2
 _ZN14QTemporaryFile4openE6QFlagsIN9QIODevice12OpenModeFlagEE@Qt_5 5.0.2
 _ZN14QTemporaryFileC1EP7QObject@Qt_5 5.0.2
 _ZN14QTemporaryFileC1ERK7QString@Qt_5 5.0.2
 _ZN14QTemporaryFileC1ERK7QStringP7QObject@Qt_5 5.0.2
 _ZN14QTemporaryFileC1Ev@Qt_5 5.0.2
 _ZN14QTemporaryFileC2EP7QObject@Qt_5 5.0.2
 _ZN14QTemporaryFileC2ERK7QString@Qt_5 5.0.2
 _ZN14QTemporaryFileC2ERK7QStringP7QObject@Qt_5 5.0.2
 _ZN14QTemporaryFileC2Ev@Qt_5 5.0.2
 _ZN14QTemporaryFileD0Ev@Qt_5 5.0.2
 _ZN14QTemporaryFileD1Ev@Qt_5 5.0.2
 _ZN14QTemporaryFileD2Ev@Qt_5 5.0.2
 (arch=!hurd-i386 !kfreebsd-amd64 !kfreebsd-i386)_ZN14QTimerInfoList11timeChangedEP8timespec@Qt_5_PRIVATE_API 5.2.0 1
 _ZN14QTimerInfoList11timerInsertEP10QTimerInfo@Qt_5_PRIVATE_API 5.0.2 1
 (arch=!hurd-i386 !kfreebsd-amd64 !kfreebsd-i386)_ZN14QTimerInfoList11timerRepairERK8timespec@Qt_5_PRIVATE_API 5.2.0 1
 _ZN14QTimerInfoList13registerTimerEiiN2Qt9TimerTypeEP7QObject@Qt_5_PRIVATE_API 5.0.2 1
 _ZN14QTimerInfoList14activateTimersEv@Qt_5_PRIVATE_API 5.0.2 1
 _ZN14QTimerInfoList15unregisterTimerEi@Qt_5_PRIVATE_API 5.0.2 1
 _ZN14QTimerInfoList16unregisterTimersEP7QObject@Qt_5_PRIVATE_API 5.0.2 1
 _ZN14QTimerInfoList17updateCurrentTimeEv@Qt_5_PRIVATE_API 5.0.2 1
 _ZN14QTimerInfoList18timerRemainingTimeEi@Qt_5_PRIVATE_API 5.0.2 1
 _ZN14QTimerInfoList20repairTimersIfNeededEv@Qt_5_PRIVATE_API 5.0.2 1
 _ZN14QTimerInfoList9timerWaitER8timespec@Qt_5_PRIVATE_API 5.1.0 1
 _ZN14QTimerInfoListC1Ev@Qt_5_PRIVATE_API 5.0.2 1
 _ZN14QTimerInfoListC2Ev@Qt_5_PRIVATE_API 5.0.2 1
 _ZN14QUnicodeTables10propertiesEj@Qt_5 5.0.2
 _ZN14QUnicodeTables10propertiesEt@Qt_5 5.0.2
 _ZN14QUnicodeTables14lineBreakClassEj@Qt_5 5.0.2
 _ZN14QUnicodeTables14wordBreakClassEj@Qt_5 5.0.2
 _ZN14QUnicodeTables18graphemeBreakClassEj@Qt_5 5.0.2
 _ZN14QUnicodeTables18sentenceBreakClassEj@Qt_5 5.0.2
 _ZN14QVersionNumber10fromStringERK7QStringPi@Qt_5 5.4.0
 _ZN14QVersionNumber12commonPrefixERKS_S1_@Qt_5 5.4.0
 _ZN14QVersionNumber14SegmentStorage9setVectorEiiii@Qt_5 5.6.0~beta
 _ZN14QVersionNumber7compareERKS_S1_@Qt_5 5.4.0
 _ZN14QWaitCondition4waitEP14QReadWriteLockm@Qt_5 5.0.2
 _ZN14QWaitCondition4waitEP6QMutexm@Qt_5 5.0.2
 _ZN14QWaitCondition7wakeAllEv@Qt_5 5.0.2
 _ZN14QWaitCondition7wakeOneEv@Qt_5 5.0.2
 _ZN14QWaitConditionC1Ev@Qt_5 5.0.2
 _ZN14QWaitConditionC2Ev@Qt_5 5.0.2
 _ZN14QWaitConditionD1Ev@Qt_5 5.0.2
 _ZN14QWaitConditionD2Ev@Qt_5 5.0.2
 _ZN15QAnimationGroup11qt_metacallEN11QMetaObject4CallEiPPv@Qt_5 5.0.2
 _ZN15QAnimationGroup11qt_metacastEPKc@Qt_5 5.0.2
 _ZN15QAnimationGroup12addAnimationEP18QAbstractAnimation@Qt_5 5.0.2
 _ZN15QAnimationGroup13takeAnimationEi@Qt_5 5.0.2
 _ZN15QAnimationGroup15insertAnimationEiP18QAbstractAnimation@Qt_5 5.0.2
 _ZN15QAnimationGroup15removeAnimationEP18QAbstractAnimation@Qt_5 5.0.2
 _ZN15QAnimationGroup16staticMetaObjectE@Qt_5 5.0.2
 _ZN15QAnimationGroup5clearEv@Qt_5 5.0.2
 _ZN15QAnimationGroup5eventEP6QEvent@Qt_5 5.0.2
 _ZN15QAnimationGroupC1EP7QObject@Qt_5 5.0.2
 _ZN15QAnimationGroupC1ER22QAnimationGroupPrivateP7QObject@Qt_5 5.0.2
 _ZN15QAnimationGroupC2EP7QObject@Qt_5 5.0.2
 _ZN15QAnimationGroupC2ER22QAnimationGroupPrivateP7QObject@Qt_5 5.0.2
 _ZN15QAnimationGroupD0Ev@Qt_5 5.0.2
 _ZN15QAnimationGroupD1Ev@Qt_5 5.0.2
 _ZN15QAnimationGroupD2Ev@Qt_5 5.0.2
 _ZN15QDateTimeParser11SectionNode4nameENS_7SectionE@Qt_5_PRIVATE_API 5.6.1 1
 _ZN15QDateTimeParser11parseFormatERK7QString@Qt_5_PRIVATE_API 5.0.2 1
 _ZN15QIPAddressUtils8parseIp4ERjPK5QCharS3_@Qt_5 5.0.2
 _ZN15QIPAddressUtils8parseIp6ERA16_hPK5QCharS4_@Qt_5 5.0.2
 _ZN15QIPAddressUtils8toStringER7QStringPh@Qt_5 5.0.2
 _ZN15QIPAddressUtils8toStringER7QStringj@Qt_5 5.0.2
 _ZN15QLinkedListData11shared_nullE@Qt_5 5.0.2
 _ZN15QObjectUserDataD0Ev@Qt_5 5.0.2
 _ZN15QObjectUserDataD1Ev@Qt_5 5.0.2
 _ZN15QObjectUserDataD2Ev@Qt_5 5.0.2
 _ZN15QPauseAnimation11qt_metacallEN11QMetaObject4CallEiPPv@Qt_5 5.0.2
 _ZN15QPauseAnimation11qt_metacastEPKc@Qt_5 5.0.2
 _ZN15QPauseAnimation11setDurationEi@Qt_5 5.0.2
 _ZN15QPauseAnimation16staticMetaObjectE@Qt_5 5.0.2
 _ZN15QPauseAnimation17updateCurrentTimeEi@Qt_5 5.0.2
 _ZN15QPauseAnimation5eventEP6QEvent@Qt_5 5.0.2
 _ZN15QPauseAnimationC1EP7QObject@Qt_5 5.0.2
 _ZN15QPauseAnimationC1EiP7QObject@Qt_5 5.0.2
 _ZN15QPauseAnimationC2EP7QObject@Qt_5 5.0.2
 _ZN15QPauseAnimationC2EiP7QObject@Qt_5 5.0.2
 _ZN15QPauseAnimationD0Ev@Qt_5 5.0.2
 _ZN15QPauseAnimationD1Ev@Qt_5 5.0.2
 _ZN15QPauseAnimationD2Ev@Qt_5 5.0.2
 _ZN15QSocketNotifier10setEnabledEb@Qt_5 5.0.2
 _ZN15QSocketNotifier11qt_metacallEN11QMetaObject4CallEiPPv@Qt_5 5.0.2
 _ZN15QSocketNotifier11qt_metacastEPKc@Qt_5 5.0.2
 _ZN15QSocketNotifier16staticMetaObjectE@Qt_5 5.0.2
 _ZN15QSocketNotifier5eventEP6QEvent@Qt_5 5.0.2
 _ZN15QSocketNotifier9activatedEiNS_14QPrivateSignalE@Qt_5 5.0.2
 (subst)_ZN15QSocketNotifierC1E{qptrdiff}NS_4TypeEP7QObject@Qt_5 5.0.2
 (subst)_ZN15QSocketNotifierC2E{qptrdiff}NS_4TypeEP7QObject@Qt_5 5.2.0
 _ZN15QSocketNotifierD0Ev@Qt_5 5.0.2
 _ZN15QSocketNotifierD1Ev@Qt_5 5.0.2
 _ZN15QSocketNotifierD2Ev@Qt_5 5.0.2
 _ZN15QVariantPrivate15registerHandlerEiPKN8QVariant7HandlerE@Qt_5 5.0.2
 _ZN15QtSharedPointer20ExternalRefCountData16setQObjectSharedEPK7QObjectb@Qt_5 5.0.2
 _ZN15QtSharedPointer20ExternalRefCountData18checkQObjectSharedEPK7QObject@Qt_5 5.0.2
 _ZN15QtSharedPointer20ExternalRefCountData9getAndRefEPK7QObject@Qt_5 5.0.2
 _ZN15QtSharedPointer22internalSafetyCheckAddEPKvPVKv@Qt_5 5.0.2
 _ZN15QtSharedPointer25internalSafetyCheckRemoveEPKv@Qt_5 5.0.2
 _ZN15QtSharedPointer31weakPointerFromVariant_internalERK8QVariant@Qt_5 5.0.2
 _ZN15QtSharedPointer33sharedPointerFromVariant_internalERK8QVariant@Qt_5 5.0.2
 _ZN16QAnimationDriver11qt_metacallEN11QMetaObject4CallEiPPv@Qt_5 5.0.2
 _ZN16QAnimationDriver11qt_metacastEPKc@Qt_5 5.0.2
 _ZN16QAnimationDriver12setStartTimeEx@Qt_5 5.0.2
 _ZN16QAnimationDriver16advanceAnimationEx@Qt_5 5.0.2
 _ZN16QAnimationDriver16staticMetaObjectE@Qt_5 5.0.2
 _ZN16QAnimationDriver4stopEv@Qt_5 5.0.2
 _ZN16QAnimationDriver5startEv@Qt_5 5.0.2
 _ZN16QAnimationDriver7advanceEv@Qt_5 5.0.2
 _ZN16QAnimationDriver7installEv@Qt_5 5.0.2
 _ZN16QAnimationDriver7startedEv@Qt_5 5.0.2
 _ZN16QAnimationDriver7stoppedEv@Qt_5 5.0.2
 _ZN16QAnimationDriver9uninstallEv@Qt_5 5.0.2
 _ZN16QAnimationDriverC1EP7QObject@Qt_5 5.0.2
 _ZN16QAnimationDriverC1ER23QAnimationDriverPrivateP7QObject@Qt_5_PRIVATE_API 5.0.2 1
 _ZN16QAnimationDriverC2EP7QObject@Qt_5 5.0.2
 _ZN16QAnimationDriverC2ER23QAnimationDriverPrivateP7QObject@Qt_5_PRIVATE_API 5.0.2 1
 _ZN16QAnimationDriverD0Ev@Qt_5 5.0.2
 _ZN16QAnimationDriverD1Ev@Qt_5 5.0.2
 _ZN16QAnimationDriverD2Ev@Qt_5 5.0.2
 _ZN16QCollatorPrivate4initEv@Qt_5_PRIVATE_API 5.2.0~alpha1 1
 _ZN16QCollatorPrivate7cleanupEv@Qt_5_PRIVATE_API 5.2.0~alpha1 1
 _ZN16QCollatorSortKeyC1EP23QCollatorSortKeyPrivate@Qt_5_PRIVATE_API 5.2.0~alpha1 1
 _ZN16QCollatorSortKeyC1ERKS_@Qt_5 5.2.0~alpha1
 _ZN16QCollatorSortKeyC2EP23QCollatorSortKeyPrivate@Qt_5_PRIVATE_API 5.2.0~alpha1 1
 _ZN16QCollatorSortKeyC2ERKS_@Qt_5 5.2.0~alpha1
 _ZN16QCollatorSortKeyD1Ev@Qt_5 5.2.0~alpha1
 _ZN16QCollatorSortKeyD2Ev@Qt_5 5.2.0~alpha1
 _ZN16QCollatorSortKeyaSERKS_@Qt_5 5.2.0~alpha1
 _ZN16QCoreApplication10startingUpEv@Qt_5 5.0.2
 _ZN16QCoreApplication11aboutToQuitENS_14QPrivateSignalE@Qt_5 5.0.2
 _ZN16QCoreApplication11closingDownEv@Qt_5 5.0.2
 _ZN16QCoreApplication11qt_metacallEN11QMetaObject4CallEiPPv@Qt_5 5.0.2
 _ZN16QCoreApplication11qt_metacastEPKc@Qt_5 5.0.2
 _ZN16QCoreApplication12libraryPathsEv@Qt_5 5.0.2
 _ZN16QCoreApplication12setAttributeEN2Qt20ApplicationAttributeEb@Qt_5 5.0.2
 _ZN16QCoreApplication13compressEventEP6QEventP7QObjectP14QPostEventList@Qt_5 5.0.2
 _ZN16QCoreApplication13processEventsE6QFlagsIN10QEventLoop17ProcessEventsFlagEE@Qt_5 5.0.2
 _ZN16QCoreApplication13processEventsE6QFlagsIN10QEventLoop17ProcessEventsFlagEEi@Qt_5 5.0.2
 _ZN16QCoreApplication13testAttributeEN2Qt20ApplicationAttributeE@Qt_5 5.0.2
 _ZN16QCoreApplication14addLibraryPathERK7QString@Qt_5 5.0.2
 _ZN16QCoreApplication14applicationPidEv@Qt_5 5.0.2
 _ZN16QCoreApplication14notifyInternalEP7QObjectP6QEvent@Qt_5 5.0.2
 _ZN16QCoreApplication15applicationNameEv@Qt_5 5.0.2
 _ZN16QCoreApplication15eventDispatcherEv@Qt_5 5.0.2
 _ZN16QCoreApplication15isSetuidAllowedEv@Qt_5 5.3.0
 _ZN16QCoreApplication15notifyInternal2EP7QObjectP6QEvent@Qt_5 5.6.0~beta
 _ZN16QCoreApplication15setLibraryPathsERK11QStringList@Qt_5 5.0.2
 _ZN16QCoreApplication16hasPendingEventsEv@Qt_5 5.0.2
 _ZN16QCoreApplication16organizationNameEv@Qt_5 5.0.2
 _ZN16QCoreApplication16removeTranslatorEP11QTranslator@Qt_5 5.0.2
 _ZN16QCoreApplication16sendPostedEventsEP7QObjecti@Qt_5 5.0.2
 _ZN16QCoreApplication16setSetuidAllowedEb@Qt_5 5.3.0
 _ZN16QCoreApplication16staticMetaObjectE@Qt_5 5.0.2
 _ZN16QCoreApplication17installTranslatorEP11QTranslator@Qt_5 5.0.2
 _ZN16QCoreApplication17isQuitLockEnabledEv@Qt_5 5.0.2
 _ZN16QCoreApplication17removeLibraryPathERK7QString@Qt_5 5.0.2
 _ZN16QCoreApplication18applicationDirPathEv@Qt_5 5.0.2
 _ZN16QCoreApplication18applicationVersionEv@Qt_5 5.0.2
 _ZN16QCoreApplication18organizationDomainEv@Qt_5 5.0.2
 _ZN16QCoreApplication18removePostedEventsEP7QObjecti@Qt_5 5.0.2
 _ZN16QCoreApplication18setApplicationNameERK7QString@Qt_5 5.0.2
 _ZN16QCoreApplication18setEventDispatcherEP24QAbstractEventDispatcher@Qt_5 5.0.2
 _ZN16QCoreApplication18setQuitLockEnabledEb@Qt_5 5.0.2
 _ZN16QCoreApplication19applicationFilePathEv@Qt_5 5.0.2
 _ZN16QCoreApplication19setOrganizationNameERK7QString@Qt_5 5.0.2
 _ZN16QCoreApplication21setApplicationVersionERK7QString@Qt_5 5.0.2
 _ZN16QCoreApplication21setOrganizationDomainERK7QString@Qt_5 5.0.2
 _ZN16QCoreApplication22applicationNameChangedEv@Qt_5 5.1.0
 _ZN16QCoreApplication23organizationNameChangedEv@Qt_5 5.1.0
 _ZN16QCoreApplication23removeNativeEventFilterEP26QAbstractNativeEventFilter@Qt_5 5.0.2
 _ZN16QCoreApplication24installNativeEventFilterEP26QAbstractNativeEventFilter@Qt_5 5.0.2
 _ZN16QCoreApplication25applicationVersionChangedEv@Qt_5 5.1.0
 _ZN16QCoreApplication25organizationDomainChangedEv@Qt_5 5.1.0
 _ZN16QCoreApplication4execEv@Qt_5 5.0.2
 _ZN16QCoreApplication4exitEi@Qt_5 5.0.2
 _ZN16QCoreApplication4quitEv@Qt_5 5.0.2
 _ZN16QCoreApplication4selfE@Qt_5 5.0.2
 _ZN16QCoreApplication5eventEP6QEvent@Qt_5 5.0.2
 _ZN16QCoreApplication5flushEv@Qt_5 5.0.2
 _ZN16QCoreApplication6notifyEP7QObjectP6QEvent@Qt_5 5.0.2
 _ZN16QCoreApplication9argumentsEv@Qt_5 5.0.2
 _ZN16QCoreApplication9postEventEP7QObjectP6QEventi@Qt_5 5.0.2
 _ZN16QCoreApplication9translateEPKcS1_S1_i@Qt_5 5.0.2
 _ZN16QCoreApplicationC1ER23QCoreApplicationPrivate@Qt_5_PRIVATE_API 5.0.2 1
 _ZN16QCoreApplicationC1ERiPPci@Qt_5 5.0.2
 _ZN16QCoreApplicationC2ER23QCoreApplicationPrivate@Qt_5_PRIVATE_API 5.0.2 1
 _ZN16QCoreApplicationC2ERiPPci@Qt_5 5.0.2
 _ZN16QCoreApplicationD0Ev@Qt_5 5.0.2
 _ZN16QCoreApplicationD1Ev@Qt_5 5.0.2
 _ZN16QCoreApplicationD2Ev@Qt_5 5.0.2
 _ZN16QDebugStateSaverC1ER6QDebug@Qt_5 5.1.0
 _ZN16QDebugStateSaverC2ER6QDebug@Qt_5 5.1.0
 _ZN16QDebugStateSaverD1Ev@Qt_5 5.1.0
 _ZN16QDebugStateSaverD2Ev@Qt_5 5.1.0
 _ZN16QEventLoopLockerC1EP10QEventLoop@Qt_5 5.0.2
 _ZN16QEventLoopLockerC1EP7QThread@Qt_5 5.0.2
 _ZN16QEventLoopLockerC1Ev@Qt_5 5.0.2
 _ZN16QEventLoopLockerC2EP10QEventLoop@Qt_5 5.0.2
 _ZN16QEventLoopLockerC2EP7QThread@Qt_5 5.0.2
 _ZN16QEventLoopLockerC2Ev@Qt_5 5.0.2
 _ZN16QEventLoopLockerD1Ev@Qt_5 5.0.2
 _ZN16QEventLoopLockerD2Ev@Qt_5 5.0.2
 _ZN16QEventTransition11qt_metacallEN11QMetaObject4CallEiPPv@Qt_5 5.0.2
 _ZN16QEventTransition11qt_metacastEPKc@Qt_5 5.0.2
 _ZN16QEventTransition12onTransitionEP6QEvent@Qt_5 5.0.2
 _ZN16QEventTransition12setEventTypeEN6QEvent4TypeE@Qt_5 5.0.2
 _ZN16QEventTransition14setEventSourceEP7QObject@Qt_5 5.0.2
 _ZN16QEventTransition16staticMetaObjectE@Qt_5 5.0.2
 _ZN16QEventTransition5eventEP6QEvent@Qt_5 5.0.2
 _ZN16QEventTransition9eventTestEP6QEvent@Qt_5 5.0.2
 _ZN16QEventTransitionC1EP6QState@Qt_5 5.0.2
 _ZN16QEventTransitionC1EP7QObjectN6QEvent4TypeEP6QState@Qt_5 5.0.2
 _ZN16QEventTransitionC1ER23QEventTransitionPrivateP6QState@Qt_5_PRIVATE_API 5.0.2 1
 _ZN16QEventTransitionC1ER23QEventTransitionPrivateP7QObjectN6QEvent4TypeEP6QState@Qt_5_PRIVATE_API 5.0.2 1
 _ZN16QEventTransitionC2EP6QState@Qt_5 5.0.2
 _ZN16QEventTransitionC2EP7QObjectN6QEvent4TypeEP6QState@Qt_5 5.0.2
 _ZN16QEventTransitionC2ER23QEventTransitionPrivateP6QState@Qt_5_PRIVATE_API 5.0.2 1
 _ZN16QEventTransitionC2ER23QEventTransitionPrivateP7QObjectN6QEvent4TypeEP6QState@Qt_5_PRIVATE_API 5.0.2 1
 _ZN16QEventTransitionD0Ev@Qt_5 5.0.2
 _ZN16QEventTransitionD1Ev@Qt_5 5.0.2
 _ZN16QEventTransitionD2Ev@Qt_5 5.0.2
 _ZN16QIODevicePrivate10seekBufferEx@Qt_5_PRIVATE_API 5.7.0 1
 _ZN16QIODevicePrivate13putCharHelperEc@Qt_5_PRIVATE_API 5.0.2 1
 _ZN16QIODevicePrivate19setReadChannelCountEi@Qt_5_PRIVATE_API 5.7.0 1
 _ZN16QIODevicePrivate20setWriteChannelCountEi@Qt_5_PRIVATE_API 5.7.0 1
 _ZN16QIODevicePrivate4peekEPcx@Qt_5_PRIVATE_API 5.0.2 1
 _ZN16QIODevicePrivate4peekEx@Qt_5_PRIVATE_API 5.0.2 1
 _ZN16QIODevicePrivateC1Ev@Qt_5_PRIVATE_API 5.0.2 1
 _ZN16QIODevicePrivateC2Ev@Qt_5_PRIVATE_API 5.0.2 1
 _ZN16QIODevicePrivateD0Ev@Qt_5_PRIVATE_API 5.0.2 1
 _ZN16QIODevicePrivateD1Ev@Qt_5_PRIVATE_API 5.0.2 1
 _ZN16QIODevicePrivateD2Ev@Qt_5_PRIVATE_API 5.0.2 1
 _ZN16QLockFilePrivate16processNameByPidEx@Qt_5 5.6.1
 _ZN16QLoggingCategory10setEnabledE9QtMsgTypeb@Qt_5 5.2.0~alpha1
 _ZN16QLoggingCategory13installFilterEPFvPS_E@Qt_5 5.2.0~alpha1
 _ZN16QLoggingCategory14setFilterRulesERK7QString@Qt_5 5.2.0~alpha1
 _ZN16QLoggingCategory15defaultCategoryEv@Qt_5 5.2.0~alpha1
 _ZN16QLoggingCategory4initEPKc9QtMsgType@Qt_5 5.4.0
 _ZN16QLoggingCategoryC1EPKc9QtMsgType@Qt_5 5.4.0
 _ZN16QLoggingCategoryC1EPKc@Qt_5 5.2.0~alpha1
 _ZN16QLoggingCategoryC2EPKc9QtMsgType@Qt_5 5.4.0
 _ZN16QLoggingCategoryC2EPKc@Qt_5 5.2.0~alpha1
 _ZN16QLoggingCategoryD1Ev@Qt_5 5.2.0~alpha1
 _ZN16QLoggingCategoryD2Ev@Qt_5 5.2.0~alpha1
 _ZN16QMetaEnumBuilder6addKeyERK10QByteArrayi@Qt_5_PRIVATE_API 5.0.2 1
 _ZN16QMetaEnumBuilder9removeKeyEi@Qt_5_PRIVATE_API 5.0.2 1
 _ZN16QMetaEnumBuilder9setIsFlagEb@Qt_5_PRIVATE_API 5.0.2 1
 _ZN16QMetaStringTable18preferredAlignmentEv@Qt_5_PRIVATE_API 5.0.2 1
 _ZN16QMetaStringTable5enterERK10QByteArray@Qt_5_PRIVATE_API 5.0.2 1
 _ZN16QMetaStringTableC1ERK10QByteArray@Qt_5_PRIVATE_API 5.2.1 1
 _ZN16QMetaStringTableC2ERK10QByteArray@Qt_5_PRIVATE_API 5.2.1 1
 _ZN16QSegfaultHandler10initializeEPPci@Qt_5_PRIVATE_API 5.0.2 1
 _ZN16QSegfaultHandler8callbackE@Qt_5_PRIVATE_API 5.0.2 1
 _ZN16QStringListModel10insertRowsEiiRK11QModelIndex@Qt_5 5.0.2
 _ZN16QStringListModel10removeRowsEiiRK11QModelIndex@Qt_5 5.0.2
 _ZN16QStringListModel11qt_metacallEN11QMetaObject4CallEiPPv@Qt_5 5.0.2
 _ZN16QStringListModel11qt_metacastEPKc@Qt_5 5.0.2
 _ZN16QStringListModel13setStringListERK11QStringList@Qt_5 5.0.2
 _ZN16QStringListModel16staticMetaObjectE@Qt_5 5.0.2
 _ZN16QStringListModel4sortEiN2Qt9SortOrderE@Qt_5 5.0.2
 _ZN16QStringListModel7setDataERK11QModelIndexRK8QVarianti@Qt_5 5.0.2
 _ZN16QStringListModelC1EP7QObject@Qt_5 5.0.2
 _ZN16QStringListModelC1ERK11QStringListP7QObject@Qt_5 5.0.2
 _ZN16QStringListModelC2EP7QObject@Qt_5 5.0.2
 _ZN16QStringListModelC2ERK11QStringListP7QObject@Qt_5 5.0.2
 _ZN16QSystemSemaphore6setKeyERK7QStringiNS_10AccessModeE@Qt_5 5.0.2
 _ZN16QSystemSemaphore7acquireEv@Qt_5 5.0.2
 _ZN16QSystemSemaphore7releaseEi@Qt_5 5.0.2
 _ZN16QSystemSemaphoreC1ERK7QStringiNS_10AccessModeE@Qt_5 5.0.2
 _ZN16QSystemSemaphoreC2ERK7QStringiNS_10AccessModeE@Qt_5 5.0.2
 _ZN16QSystemSemaphoreD1Ev@Qt_5 5.0.2
 _ZN16QSystemSemaphoreD2Ev@Qt_5 5.0.2
 _ZN16QTimeZonePrivate11invalidDataEv@Qt_5_PRIVATE_API 5.2.0~alpha1 1
 _ZN16QTimeZonePrivate12toOffsetDataERKNS_4DataE@Qt_5_PRIVATE_API 5.2.0~alpha1 1
 _ZN16QTimeZonePrivate15isoOffsetFormatEi@Qt_5_PRIVATE_API 5.2.0~alpha1 1
 _ZN16QTimeZonePrivate17ianaIdToWindowsIdERK10QByteArray@Qt_5_PRIVATE_API 5.2.0~rc1 1
 _ZN16QTimeZonePrivate17invalidOffsetDataEv@Qt_5_PRIVATE_API 5.2.0~alpha1 1
 _ZN16QTimeZonePrivate18windowsIdToIanaIdsERK10QByteArray@Qt_5_PRIVATE_API 5.2.0~rc1 1
 _ZN16QTimeZonePrivate18windowsIdToIanaIdsERK10QByteArrayN7QLocale7CountryE@Qt_5_PRIVATE_API 5.2.0~rc1 1
 _ZN16QTimeZonePrivate24windowsIdToDefaultIanaIdERK10QByteArray@Qt_5_PRIVATE_API 5.2.0~rc1 1
 _ZN16QTimeZonePrivate24windowsIdToDefaultIanaIdERK10QByteArrayN7QLocale7CountryE@Qt_5_PRIVATE_API 5.2.0~rc1 1
 _ZN16QTimeZonePrivate5cloneEv@Qt_5_PRIVATE_API 5.2.0~alpha1 1
 _ZN16QTimeZonePrivate9isValidIdERK10QByteArray@Qt_5_PRIVATE_API 5.2.0~alpha1 1
 _ZN16QTimeZonePrivateC1ERKS_@Qt_5_PRIVATE_API 5.2.0~alpha1 1
 _ZN16QTimeZonePrivateC1Ev@Qt_5_PRIVATE_API 5.2.0~alpha1 1
 _ZN16QTimeZonePrivateC2ERKS_@Qt_5_PRIVATE_API 5.2.0~alpha1 1
 _ZN16QTimeZonePrivateC2Ev@Qt_5_PRIVATE_API 5.2.0~alpha1 1
 _ZN16QTimeZonePrivateD0Ev@Qt_5_PRIVATE_API 5.2.0~alpha1 1
 _ZN16QTimeZonePrivateD1Ev@Qt_5_PRIVATE_API 5.2.0~alpha1 1
 _ZN16QTimeZonePrivateD2Ev@Qt_5_PRIVATE_API 5.2.0~alpha1 1
 _ZN16QXmlStreamReader10raiseErrorERK7QString@Qt_5 5.0.2
 _ZN16QXmlStreamReader15readElementTextENS_24ReadElementTextBehaviourE@Qt_5 5.0.2
 _ZN16QXmlStreamReader17setEntityResolverEP24QXmlStreamEntityResolver@Qt_5 5.0.2
 _ZN16QXmlStreamReader18skipCurrentElementEv@Qt_5 5.0.2
 _ZN16QXmlStreamReader20readNextStartElementEv@Qt_5 5.0.2
 _ZN16QXmlStreamReader22setNamespaceProcessingEb@Qt_5 5.0.2
 _ZN16QXmlStreamReader28addExtraNamespaceDeclarationERK30QXmlStreamNamespaceDeclaration@Qt_5 5.0.2
 _ZN16QXmlStreamReader29addExtraNamespaceDeclarationsERK7QVectorI30QXmlStreamNamespaceDeclarationE@Qt_5 5.0.2
 _ZN16QXmlStreamReader5clearEv@Qt_5 5.0.2
 _ZN16QXmlStreamReader7addDataEPKc@Qt_5 5.0.2
 _ZN16QXmlStreamReader7addDataERK10QByteArray@Qt_5 5.0.2
 _ZN16QXmlStreamReader7addDataERK7QString@Qt_5 5.0.2
 _ZN16QXmlStreamReader8readNextEv@Qt_5 5.0.2
 _ZN16QXmlStreamReader9setDeviceEP9QIODevice@Qt_5 5.0.2
 _ZN16QXmlStreamReaderC1EP9QIODevice@Qt_5 5.0.2
 _ZN16QXmlStreamReaderC1EPKc@Qt_5 5.0.2
 _ZN16QXmlStreamReaderC1ERK10QByteArray@Qt_5 5.0.2
 _ZN16QXmlStreamReaderC1ERK7QString@Qt_5 5.0.2
 _ZN16QXmlStreamReaderC1Ev@Qt_5 5.0.2
 _ZN16QXmlStreamReaderC2EP9QIODevice@Qt_5 5.0.2
 _ZN16QXmlStreamReaderC2EPKc@Qt_5 5.0.2
 _ZN16QXmlStreamReaderC2ERK10QByteArray@Qt_5 5.0.2
 _ZN16QXmlStreamReaderC2ERK7QString@Qt_5 5.0.2
 _ZN16QXmlStreamReaderC2Ev@Qt_5 5.0.2
 _ZN16QXmlStreamReaderD1Ev@Qt_5 5.0.2
 _ZN16QXmlStreamReaderD2Ev@Qt_5 5.0.2
 _ZN16QXmlStreamWriter10writeCDATAERK7QString@Qt_5 5.0.2
 _ZN16QXmlStreamWriter12writeCommentERK7QString@Qt_5 5.0.2
 _ZN16QXmlStreamWriter14writeAttributeERK19QXmlStreamAttribute@Qt_5 5.0.2
 _ZN16QXmlStreamWriter14writeAttributeERK7QStringS2_@Qt_5 5.0.2
 _ZN16QXmlStreamWriter14writeAttributeERK7QStringS2_S2_@Qt_5 5.0.2
 _ZN16QXmlStreamWriter14writeNamespaceERK7QStringS2_@Qt_5 5.0.2
 _ZN16QXmlStreamWriter15writeAttributesERK20QXmlStreamAttributes@Qt_5 5.0.2
 _ZN16QXmlStreamWriter15writeCharactersERK7QString@Qt_5 5.0.2
 _ZN16QXmlStreamWriter15writeEndElementEv@Qt_5 5.0.2
 _ZN16QXmlStreamWriter16writeEndDocumentEv@Qt_5 5.0.2
 _ZN16QXmlStreamWriter16writeTextElementERK7QStringS2_@Qt_5 5.0.2
 _ZN16QXmlStreamWriter16writeTextElementERK7QStringS2_S2_@Qt_5 5.0.2
 _ZN16QXmlStreamWriter17setAutoFormattingEb@Qt_5 5.0.2
 _ZN16QXmlStreamWriter17writeCurrentTokenERK16QXmlStreamReader@Qt_5 5.0.2
 _ZN16QXmlStreamWriter17writeEmptyElementERK7QString@Qt_5 5.0.2
 _ZN16QXmlStreamWriter17writeEmptyElementERK7QStringS2_@Qt_5 5.0.2
 _ZN16QXmlStreamWriter17writeStartElementERK7QString@Qt_5 5.0.2
 _ZN16QXmlStreamWriter17writeStartElementERK7QStringS2_@Qt_5 5.0.2
 _ZN16QXmlStreamWriter18writeStartDocumentERK7QString@Qt_5 5.0.2
 _ZN16QXmlStreamWriter18writeStartDocumentERK7QStringb@Qt_5 5.0.2
 _ZN16QXmlStreamWriter18writeStartDocumentEv@Qt_5 5.0.2
 _ZN16QXmlStreamWriter20writeEntityReferenceERK7QString@Qt_5 5.0.2
 _ZN16QXmlStreamWriter21writeDefaultNamespaceERK7QString@Qt_5 5.0.2
 _ZN16QXmlStreamWriter23setAutoFormattingIndentEi@Qt_5 5.0.2
 _ZN16QXmlStreamWriter26writeProcessingInstructionERK7QStringS2_@Qt_5 5.0.2
 _ZN16QXmlStreamWriter8setCodecEP10QTextCodec@Qt_5 5.0.2
 _ZN16QXmlStreamWriter8setCodecEPKc@Qt_5 5.0.2
 _ZN16QXmlStreamWriter8writeDTDERK7QString@Qt_5 5.0.2
 _ZN16QXmlStreamWriter9setDeviceEP9QIODevice@Qt_5 5.0.2
 _ZN16QXmlStreamWriterC1EP10QByteArray@Qt_5 5.0.2
 _ZN16QXmlStreamWriterC1EP7QString@Qt_5 5.0.2
 _ZN16QXmlStreamWriterC1EP9QIODevice@Qt_5 5.0.2
 _ZN16QXmlStreamWriterC1Ev@Qt_5 5.0.2
 _ZN16QXmlStreamWriterC2EP10QByteArray@Qt_5 5.0.2
 _ZN16QXmlStreamWriterC2EP7QString@Qt_5 5.0.2
 _ZN16QXmlStreamWriterC2EP9QIODevice@Qt_5 5.0.2
 _ZN16QXmlStreamWriterC2Ev@Qt_5 5.0.2
 _ZN16QXmlStreamWriterD1Ev@Qt_5 5.0.2
 _ZN16QXmlStreamWriterD2Ev@Qt_5 5.0.2
 _ZN17QByteArrayMatcher10setPatternERK10QByteArray@Qt_5 5.0.2
 _ZN17QByteArrayMatcherC1EPKci@Qt_5 5.0.2
 _ZN17QByteArrayMatcherC1ERK10QByteArray@Qt_5 5.0.2
 _ZN17QByteArrayMatcherC1ERKS_@Qt_5 5.0.2
 _ZN17QByteArrayMatcherC1Ev@Qt_5 5.0.2
 _ZN17QByteArrayMatcherC2EPKci@Qt_5 5.0.2
 _ZN17QByteArrayMatcherC2ERK10QByteArray@Qt_5 5.0.2
 _ZN17QByteArrayMatcherC2ERKS_@Qt_5 5.0.2
 _ZN17QByteArrayMatcherC2Ev@Qt_5 5.0.2
 _ZN17QByteArrayMatcherD1Ev@Qt_5 5.0.2
 _ZN17QByteArrayMatcherD2Ev@Qt_5 5.0.2
 _ZN17QByteArrayMatcheraSERKS_@Qt_5 5.0.2
 _ZN17QFactoryInterfaceD0Ev@Qt_5 5.6.0~beta
 _ZN17QFactoryInterfaceD1Ev@Qt_5 5.6.0~beta
 _ZN17QFactoryInterfaceD2Ev@Qt_5 5.6.0~beta
 _ZN17QSignalTransition11qt_metacallEN11QMetaObject4CallEiPPv@Qt_5 5.0.2
 _ZN17QSignalTransition11qt_metacastEPKc@Qt_5 5.0.2
 _ZN17QSignalTransition12onTransitionEP6QEvent@Qt_5 5.0.2
 _ZN17QSignalTransition13signalChangedENS_14QPrivateSignalE@Qt_5 5.4.0
 _ZN17QSignalTransition15setSenderObjectEPK7QObject@Qt_5 5.0.2
 _ZN17QSignalTransition16staticMetaObjectE@Qt_5 5.0.2
 _ZN17QSignalTransition19senderObjectChangedENS_14QPrivateSignalE@Qt_5 5.4.0
 _ZN17QSignalTransition5eventEP6QEvent@Qt_5 5.0.2
 _ZN17QSignalTransition9eventTestEP6QEvent@Qt_5 5.0.2
 _ZN17QSignalTransition9setSignalERK10QByteArray@Qt_5 5.0.2
 _ZN17QSignalTransitionC1EP6QState@Qt_5 5.0.2
 _ZN17QSignalTransitionC1EPK7QObjectPKcP6QState@Qt_5 5.0.2
 _ZN17QSignalTransitionC2EP6QState@Qt_5 5.0.2
 _ZN17QSignalTransitionC2EPK7QObjectPKcP6QState@Qt_5 5.0.2
 _ZN17QSignalTransitionD0Ev@Qt_5 5.0.2
 _ZN17QSignalTransitionD1Ev@Qt_5 5.0.2
 _ZN17QSignalTransitionD2Ev@Qt_5 5.0.2
 _ZN17QVariantAnimation11qt_metacallEN11QMetaObject4CallEiPPv@Qt_5 5.0.2
 _ZN17QVariantAnimation11qt_metacastEPKc@Qt_5 5.0.2
 _ZN17QVariantAnimation11setDurationEi@Qt_5 5.0.2
 _ZN17QVariantAnimation11setEndValueERK8QVariant@Qt_5 5.0.2
 _ZN17QVariantAnimation11updateStateEN18QAbstractAnimation5StateES1_@Qt_5 5.0.2
 _ZN17QVariantAnimation12setKeyValuesERK7QVectorI5QPairId8QVariantEE@Qt_5 5.2.0
 _ZN17QVariantAnimation12valueChangedERK8QVariant@Qt_5 5.0.2
 _ZN17QVariantAnimation13setKeyValueAtEdRK8QVariant@Qt_5 5.2.0
 _ZN17QVariantAnimation13setStartValueERK8QVariant@Qt_5 5.0.2
 _ZN17QVariantAnimation14setEasingCurveERK12QEasingCurve@Qt_5 5.0.2
 _ZN17QVariantAnimation16staticMetaObjectE@Qt_5 5.0.2
 _ZN17QVariantAnimation17updateCurrentTimeEi@Qt_5 5.0.2
 _ZN17QVariantAnimation18updateCurrentValueERK8QVariant@Qt_5 5.0.2
 _ZN17QVariantAnimation20registerInterpolatorEPF8QVariantPKvS2_dEi@Qt_5 5.2.0
 _ZN17QVariantAnimation5eventEP6QEvent@Qt_5 5.0.2
 _ZN17QVariantAnimationC1EP7QObject@Qt_5 5.0.2
 _ZN17QVariantAnimationC1ER24QVariantAnimationPrivateP7QObject@Qt_5 5.0.2
 _ZN17QVariantAnimationC2EP7QObject@Qt_5 5.0.2
 _ZN17QVariantAnimationC2ER24QVariantAnimationPrivateP7QObject@Qt_5 5.0.2
 _ZN17QVariantAnimationD0Ev@Qt_5 5.0.2
 _ZN17QVariantAnimationD1Ev@Qt_5 5.0.2
 _ZN17QVariantAnimationD2Ev@Qt_5 5.0.2
 _ZN17QtMetaTypePrivate18VectorBoolElements12true_elementE@Qt_5 5.4.0
 _ZN17QtMetaTypePrivate18VectorBoolElements13false_elementE@Qt_5 5.4.0
 _ZN18QAbstractAnimation11qt_metacallEN11QMetaObject4CallEiPPv@Qt_5 5.0.2
 _ZN18QAbstractAnimation11qt_metacastEPKc@Qt_5 5.0.2
 _ZN18QAbstractAnimation11updateStateENS_5StateES0_@Qt_5 5.0.2
 _ZN18QAbstractAnimation12setDirectionENS_9DirectionE@Qt_5 5.0.2
 _ZN18QAbstractAnimation12setLoopCountEi@Qt_5 5.0.2
 _ZN18QAbstractAnimation12stateChangedENS_5StateES0_@Qt_5 5.0.2
 _ZN18QAbstractAnimation14setCurrentTimeEi@Qt_5 5.0.2
 _ZN18QAbstractAnimation15updateDirectionENS_9DirectionE@Qt_5 5.0.2
 _ZN18QAbstractAnimation16directionChangedENS_9DirectionE@Qt_5 5.0.2
 _ZN18QAbstractAnimation16staticMetaObjectE@Qt_5 5.0.2
 _ZN18QAbstractAnimation18currentLoopChangedEi@Qt_5 5.0.2
 _ZN18QAbstractAnimation4stopEv@Qt_5 5.0.2
 _ZN18QAbstractAnimation5eventEP6QEvent@Qt_5 5.0.2
 _ZN18QAbstractAnimation5pauseEv@Qt_5 5.0.2
 _ZN18QAbstractAnimation5startENS_14DeletionPolicyE@Qt_5 5.0.2
 _ZN18QAbstractAnimation6resumeEv@Qt_5 5.0.2
 _ZN18QAbstractAnimation8finishedEv@Qt_5 5.0.2
 _ZN18QAbstractAnimation9setPausedEb@Qt_5 5.0.2
 _ZN18QAbstractAnimationC1EP7QObject@Qt_5 5.0.2
 _ZN18QAbstractAnimationC1ER25QAbstractAnimationPrivateP7QObject@Qt_5 5.0.2
 _ZN18QAbstractAnimationC2EP7QObject@Qt_5 5.0.2
 _ZN18QAbstractAnimationC2ER25QAbstractAnimationPrivateP7QObject@Qt_5 5.0.2
 _ZN18QAbstractAnimationD0Ev@Qt_5 5.0.2
 _ZN18QAbstractAnimationD1Ev@Qt_5 5.0.2
 _ZN18QAbstractAnimationD2Ev@Qt_5 5.0.2
 _ZN18QAbstractItemModel10decodeDataEiiRK11QModelIndexR11QDataStream@Qt_5 5.0.2
 _ZN18QAbstractItemModel10insertRowsEiiRK11QModelIndex@Qt_5 5.0.2
 _ZN18QAbstractItemModel10modelResetENS_14QPrivateSignalE@Qt_5 5.0.2
 _ZN18QAbstractItemModel10removeRowsEiiRK11QModelIndex@Qt_5 5.0.2
 _ZN18QAbstractItemModel11dataChangedERK11QModelIndexS2_RK7QVectorIiE@Qt_5 5.0.2
 _ZN18QAbstractItemModel11endMoveRowsEv@Qt_5 5.0.2
 _ZN18QAbstractItemModel11moveColumnsERK11QModelIndexiiS2_i@Qt_5 5.0.2
 _ZN18QAbstractItemModel11qt_metacallEN11QMetaObject4CallEiPPv@Qt_5 5.0.2
 _ZN18QAbstractItemModel11qt_metacastEPKc@Qt_5 5.0.2
 _ZN18QAbstractItemModel11rowsRemovedERK11QModelIndexiiNS_14QPrivateSignalE@Qt_5 5.0.2
 _ZN18QAbstractItemModel11setItemDataERK11QModelIndexRK4QMapIi8QVariantE@Qt_5 5.0.2
 _ZN18QAbstractItemModel12columnsMovedERK11QModelIndexiiS2_iNS_14QPrivateSignalE@Qt_5 5.0.2
 _ZN18QAbstractItemModel12dropMimeDataEPK9QMimeDataN2Qt10DropActionEiiRK11QModelIndex@Qt_5 5.0.2
 _ZN18QAbstractItemModel12rowsInsertedERK11QModelIndexiiNS_14QPrivateSignalE@Qt_5 5.0.2
 _ZN18QAbstractItemModel13beginMoveRowsERK11QModelIndexiiS2_i@Qt_5 5.0.2
 _ZN18QAbstractItemModel13endInsertRowsEv@Qt_5 5.0.2
 _ZN18QAbstractItemModel13endRemoveRowsEv@Qt_5 5.0.2
 _ZN18QAbstractItemModel13endResetModelEv@Qt_5 5.0.2
 _ZN18QAbstractItemModel13insertColumnsEiiRK11QModelIndex@Qt_5 5.0.2
 _ZN18QAbstractItemModel13layoutChangedERK5QListI21QPersistentModelIndexENS_16LayoutChangeHintE@Qt_5 5.0.2
 _ZN18QAbstractItemModel13removeColumnsEiiRK11QModelIndex@Qt_5 5.0.2
 _ZN18QAbstractItemModel13setHeaderDataEiN2Qt11OrientationERK8QVarianti@Qt_5 5.0.2
 _ZN18QAbstractItemModel14columnsRemovedERK11QModelIndexiiNS_14QPrivateSignalE@Qt_5 5.0.2
 _ZN18QAbstractItemModel14doSetRoleNamesERK5QHashIi10QByteArrayE@Qt_5 5.0.2
 _ZN18QAbstractItemModel14endMoveColumnsEv@Qt_5 5.0.2
 _ZN18QAbstractItemModel15beginInsertRowsERK11QModelIndexii@Qt_5 5.0.2
 _ZN18QAbstractItemModel15beginRemoveRowsERK11QModelIndexii@Qt_5 5.0.2
 _ZN18QAbstractItemModel15beginResetModelEv@Qt_5 5.0.2
 _ZN18QAbstractItemModel15columnsInsertedERK11QModelIndexiiNS_14QPrivateSignalE@Qt_5 5.0.2
 _ZN18QAbstractItemModel16beginMoveColumnsERK11QModelIndexiiS2_i@Qt_5 5.0.2
 _ZN18QAbstractItemModel16endInsertColumnsEv@Qt_5 5.0.2
 _ZN18QAbstractItemModel16endRemoveColumnsEv@Qt_5 5.0.2
 _ZN18QAbstractItemModel16staticMetaObjectE@Qt_5 5.0.2
 _ZN18QAbstractItemModel17headerDataChangedEN2Qt11OrientationEii@Qt_5 5.0.2
 _ZN18QAbstractItemModel17resetInternalDataEv@Qt_5 5.1.0
 _ZN18QAbstractItemModel18beginInsertColumnsERK11QModelIndexii@Qt_5 5.0.2
 _ZN18QAbstractItemModel18beginRemoveColumnsERK11QModelIndexii@Qt_5 5.0.2
 _ZN18QAbstractItemModel18rowsAboutToBeMovedERK11QModelIndexiiS2_iNS_14QPrivateSignalE@Qt_5 5.0.2
 _ZN18QAbstractItemModel19modelAboutToBeResetENS_14QPrivateSignalE@Qt_5 5.0.2
 _ZN18QAbstractItemModel20rowsAboutToBeRemovedERK11QModelIndexiiNS_14QPrivateSignalE@Qt_5 5.0.2
 _ZN18QAbstractItemModel21changePersistentIndexERK11QModelIndexS2_@Qt_5 5.0.2
 _ZN18QAbstractItemModel21columnsAboutToBeMovedERK11QModelIndexiiS2_iNS_14QPrivateSignalE@Qt_5 5.0.2
 _ZN18QAbstractItemModel21rowsAboutToBeInsertedERK11QModelIndexiiNS_14QPrivateSignalE@Qt_5 5.0.2
 _ZN18QAbstractItemModel22layoutAboutToBeChangedERK5QListI21QPersistentModelIndexENS_16LayoutChangeHintE@Qt_5 5.0.2
 _ZN18QAbstractItemModel23columnsAboutToBeRemovedERK11QModelIndexiiNS_14QPrivateSignalE@Qt_5 5.0.2
 _ZN18QAbstractItemModel24columnsAboutToBeInsertedERK11QModelIndexiiNS_14QPrivateSignalE@Qt_5 5.0.2
 _ZN18QAbstractItemModel25changePersistentIndexListERK5QListI11QModelIndexES4_@Qt_5 5.0.2
 _ZN18QAbstractItemModel25doSetSupportedDragActionsE6QFlagsIN2Qt10DropActionEE@Qt_5 5.0.2
 _ZN18QAbstractItemModel4sortEiN2Qt9SortOrderE@Qt_5 5.0.2
 _ZN18QAbstractItemModel6revertEv@Qt_5 5.0.2
 _ZN18QAbstractItemModel6submitEv@Qt_5 5.0.2
 _ZN18QAbstractItemModel7setDataERK11QModelIndexRK8QVarianti@Qt_5 5.0.2
 _ZN18QAbstractItemModel8moveRowsERK11QModelIndexiiS2_i@Qt_5 5.0.2
 _ZN18QAbstractItemModel9fetchMoreERK11QModelIndex@Qt_5 5.0.2
 _ZN18QAbstractItemModel9rowsMovedERK11QModelIndexiiS2_iNS_14QPrivateSignalE@Qt_5 5.0.2
 _ZN18QAbstractItemModelC1EP7QObject@Qt_5 5.0.2
 _ZN18QAbstractItemModelC1ER25QAbstractItemModelPrivateP7QObject@Qt_5_PRIVATE_API 5.0.2 1
 _ZN18QAbstractItemModelC2EP7QObject@Qt_5 5.0.2
 _ZN18QAbstractItemModelC2ER25QAbstractItemModelPrivateP7QObject@Qt_5_PRIVATE_API 5.0.2 1
 _ZN18QAbstractItemModelD0Ev@Qt_5 5.0.2
 _ZN18QAbstractItemModelD1Ev@Qt_5 5.0.2
 _ZN18QAbstractItemModelD2Ev@Qt_5 5.0.2
 _ZN18QAbstractListModel11qt_metacallEN11QMetaObject4CallEiPPv@Qt_5 5.0.2
 _ZN18QAbstractListModel11qt_metacastEPKc@Qt_5 5.0.2
 _ZN18QAbstractListModel12dropMimeDataEPK9QMimeDataN2Qt10DropActionEiiRK11QModelIndex@Qt_5 5.0.2
 _ZN18QAbstractListModel16staticMetaObjectE@Qt_5 5.0.2
 _ZN18QAbstractListModelC1EP7QObject@Qt_5 5.0.2
 _ZN18QAbstractListModelC1ER25QAbstractItemModelPrivateP7QObject@Qt_5_PRIVATE_API 5.0.2 1
 _ZN18QAbstractListModelC2EP7QObject@Qt_5 5.0.2
 _ZN18QAbstractListModelC2ER25QAbstractItemModelPrivateP7QObject@Qt_5_PRIVATE_API 5.0.2 1
 _ZN18QAbstractListModelD0Ev@Qt_5 5.0.2
 _ZN18QAbstractListModelD1Ev@Qt_5 5.0.2
 _ZN18QAbstractListModelD2Ev@Qt_5 5.0.2
 _ZN18QCommandLineOption12setValueNameERK7QString@Qt_5 5.2.0~alpha1
 _ZN18QCommandLineOption14setDescriptionERK7QString@Qt_5 5.2.0~alpha1
 _ZN18QCommandLineOption15setDefaultValueERK7QString@Qt_5 5.2.0~alpha1
 _ZN18QCommandLineOption16setDefaultValuesERK11QStringList@Qt_5 5.2.0~alpha1
 _ZN18QCommandLineOption9setHiddenEb@Qt_5 5.6.0~beta
 _ZN18QCommandLineOptionC1ERK11QStringList@Qt_5 5.4.0
 _ZN18QCommandLineOptionC1ERK11QStringListRK7QStringS5_S5_@Qt_5 5.2.0~alpha1
 _ZN18QCommandLineOptionC1ERK7QString@Qt_5 5.4.0
 _ZN18QCommandLineOptionC1ERK7QStringS2_S2_S2_@Qt_5 5.2.0~alpha1
 _ZN18QCommandLineOptionC1ERKS_@Qt_5 5.2.0~alpha1
 _ZN18QCommandLineOptionC2ERK11QStringList@Qt_5 5.4.0
 _ZN18QCommandLineOptionC2ERK11QStringListRK7QStringS5_S5_@Qt_5 5.2.0~alpha1
 _ZN18QCommandLineOptionC2ERK7QString@Qt_5 5.4.0
 _ZN18QCommandLineOptionC2ERK7QStringS2_S2_S2_@Qt_5 5.2.0~alpha1
 _ZN18QCommandLineOptionC2ERKS_@Qt_5 5.2.0~alpha1
 _ZN18QCommandLineOptionD1Ev@Qt_5 5.2.0~alpha1
 _ZN18QCommandLineOptionD2Ev@Qt_5 5.2.0~alpha1
 _ZN18QCommandLineOptionaSERKS_@Qt_5 5.2.0~alpha1
 _ZN18QCommandLineParser10addOptionsERK5QListI18QCommandLineOptionE@Qt_5 5.4.0
 _ZN18QCommandLineParser11showVersionEv@Qt_5 5.4.0
 _ZN18QCommandLineParser13addHelpOptionEv@Qt_5 5.2.0~alpha1
 _ZN18QCommandLineParser16addVersionOptionEv@Qt_5 5.2.0~alpha1
 _ZN18QCommandLineParser21addPositionalArgumentERK7QStringS2_S2_@Qt_5 5.2.0~alpha1
 _ZN18QCommandLineParser24clearPositionalArgumentsEv@Qt_5 5.2.0~alpha1
 _ZN18QCommandLineParser25setApplicationDescriptionERK7QString@Qt_5 5.2.0~alpha1
 _ZN18QCommandLineParser27setSingleDashWordOptionModeENS_24SingleDashWordOptionModeE@Qt_5 5.2.0~alpha1
 _ZN18QCommandLineParser38setOptionsAfterPositionalArgumentsModeENS_35OptionsAfterPositionalArgumentsModeE@Qt_5 5.6.0~beta
 _ZN18QCommandLineParser5parseERK11QStringList@Qt_5 5.2.0~alpha1
 _ZN18QCommandLineParser7processERK11QStringList@Qt_5 5.2.0~alpha1
 _ZN18QCommandLineParser7processERK16QCoreApplication@Qt_5 5.2.0~alpha1
 _ZN18QCommandLineParser8showHelpEi@Qt_5 5.2.0~alpha1
 _ZN18QCommandLineParser9addOptionERK18QCommandLineOption@Qt_5 5.2.0~alpha1
 _ZN18QCommandLineParserC1Ev@Qt_5 5.2.0~alpha1
 _ZN18QCommandLineParserC2Ev@Qt_5 5.2.0~alpha1
 _ZN18QCommandLineParserD1Ev@Qt_5 5.2.0~alpha1
 _ZN18QCommandLineParserD2Ev@Qt_5 5.2.0~alpha1
 _ZN18QCryptographicHash4hashERK10QByteArrayNS_9AlgorithmE@Qt_5 5.0.2
 _ZN18QCryptographicHash5resetEv@Qt_5 5.0.2
 _ZN18QCryptographicHash7addDataEP9QIODevice@Qt_5 5.0.2
 _ZN18QCryptographicHash7addDataEPKci@Qt_5 5.0.2
 _ZN18QCryptographicHash7addDataERK10QByteArray@Qt_5 5.0.2
 _ZN18QCryptographicHashC1ENS_9AlgorithmE@Qt_5 5.0.2
 _ZN18QCryptographicHashC2ENS_9AlgorithmE@Qt_5 5.0.2
 _ZN18QCryptographicHashD1Ev@Qt_5 5.0.2
 _ZN18QCryptographicHashD2Ev@Qt_5 5.0.2
 _ZN18QFileSystemWatcher10removePathERK7QString@Qt_5 5.0.2
 _ZN18QFileSystemWatcher11fileChangedERK7QStringNS_14QPrivateSignalE@Qt_5 5.0.2
 _ZN18QFileSystemWatcher11qt_metacallEN11QMetaObject4CallEiPPv@Qt_5 5.0.2
 _ZN18QFileSystemWatcher11qt_metacastEPKc@Qt_5 5.0.2
 _ZN18QFileSystemWatcher11removePathsERK11QStringList@Qt_5 5.0.2
 _ZN18QFileSystemWatcher16directoryChangedERK7QStringNS_14QPrivateSignalE@Qt_5 5.0.2
 _ZN18QFileSystemWatcher16staticMetaObjectE@Qt_5 5.0.2
 _ZN18QFileSystemWatcher7addPathERK7QString@Qt_5 5.0.2
 _ZN18QFileSystemWatcher8addPathsERK11QStringList@Qt_5 5.0.2
 _ZN18QFileSystemWatcherC1EP7QObject@Qt_5 5.0.2
 _ZN18QFileSystemWatcherC1ERK11QStringListP7QObject@Qt_5 5.0.2
 _ZN18QFileSystemWatcherC2EP7QObject@Qt_5 5.0.2
 _ZN18QFileSystemWatcherC2ERK11QStringListP7QObject@Qt_5 5.0.2
 _ZN18QFileSystemWatcherD0Ev@Qt_5 5.0.2
 _ZN18QFileSystemWatcherD1Ev@Qt_5 5.0.2
 _ZN18QFileSystemWatcherD2Ev@Qt_5 5.0.2
 _ZN18QFinalStatePrivateC1Ev@Qt_5_PRIVATE_API 5.6.0~rc 1
 _ZN18QFinalStatePrivateC2Ev@Qt_5_PRIVATE_API 5.6.0~rc 1
 _ZN18QFinalStatePrivateD0Ev@Qt_5_PRIVATE_API 5.6.0~rc 1
 _ZN18QFinalStatePrivateD1Ev@Qt_5_PRIVATE_API 5.6.0~rc 1
 _ZN18QFinalStatePrivateD2Ev@Qt_5_PRIVATE_API 5.6.0~rc 1
 _ZN18QFutureWatcherBase11qt_metacallEN11QMetaObject4CallEiPPv@Qt_5 5.0.2
 _ZN18QFutureWatcherBase11qt_metacastEPKc@Qt_5 5.0.2
 _ZN18QFutureWatcherBase12togglePausedEv@Qt_5 5.0.2
 _ZN18QFutureWatcherBase13connectNotifyERK11QMetaMethod@Qt_5 5.0.2
 _ZN18QFutureWatcherBase13resultReadyAtEi@Qt_5 5.0.2
 _ZN18QFutureWatcherBase14resultsReadyAtEii@Qt_5 5.0.2
 _ZN18QFutureWatcherBase15waitForFinishedEv@Qt_5 5.0.2
 _ZN18QFutureWatcherBase16disconnectNotifyERK11QMetaMethod@Qt_5 5.0.2
 _ZN18QFutureWatcherBase16staticMetaObjectE@Qt_5 5.0.2
 _ZN18QFutureWatcherBase19progressTextChangedERK7QString@Qt_5 5.0.2
 _ZN18QFutureWatcherBase20progressRangeChangedEii@Qt_5 5.0.2
 _ZN18QFutureWatcherBase20progressValueChangedEi@Qt_5 5.0.2
 _ZN18QFutureWatcherBase22connectOutputInterfaceEv@Qt_5 5.0.2
 _ZN18QFutureWatcherBase22setPendingResultsLimitEi@Qt_5 5.0.2
 _ZN18QFutureWatcherBase25disconnectOutputInterfaceEb@Qt_5 5.0.2
 _ZN18QFutureWatcherBase5eventEP6QEvent@Qt_5 5.0.2
 _ZN18QFutureWatcherBase5pauseEv@Qt_5 5.0.2
 _ZN18QFutureWatcherBase6cancelEv@Qt_5 5.0.2
 _ZN18QFutureWatcherBase6pausedEv@Qt_5 5.0.2
 _ZN18QFutureWatcherBase6resumeEv@Qt_5 5.0.2
 _ZN18QFutureWatcherBase7resumedEv@Qt_5 5.0.2
 _ZN18QFutureWatcherBase7startedEv@Qt_5 5.0.2
 _ZN18QFutureWatcherBase8canceledEv@Qt_5 5.0.2
 _ZN18QFutureWatcherBase8finishedEv@Qt_5 5.0.2
 _ZN18QFutureWatcherBase9setPausedEb@Qt_5 5.0.2
 _ZN18QFutureWatcherBaseC1EP7QObject@Qt_5 5.0.2
 _ZN18QFutureWatcherBaseC2EP7QObject@Qt_5 5.0.2
 _ZN18QMetaMethodBuilder11setRevisionEi@Qt_5_PRIVATE_API 5.0.2 1
 _ZN18QMetaMethodBuilder13setAttributesEi@Qt_5_PRIVATE_API 5.0.2 1
 _ZN18QMetaMethodBuilder13setReturnTypeERK10QByteArray@Qt_5_PRIVATE_API 5.0.2 1
 _ZN18QMetaMethodBuilder17setParameterNamesERK5QListI10QByteArrayE@Qt_5_PRIVATE_API 5.0.2 1
 _ZN18QMetaMethodBuilder6setTagERK10QByteArray@Qt_5_PRIVATE_API 5.0.2 1
 _ZN18QMetaMethodBuilder9setAccessEN11QMetaMethod6AccessE@Qt_5_PRIVATE_API 5.0.2 1
 _ZN18QMetaObjectBuilder11addPropertyERK10QByteArrayS2_i@Qt_5_PRIVATE_API 5.0.2 1
 _ZN18QMetaObjectBuilder11addPropertyERK13QMetaProperty@Qt_5_PRIVATE_API 5.0.2 1
 _ZN18QMetaObjectBuilder11deserializeER11QDataStreamRK4QMapI10QByteArrayPK11QMetaObjectE@Qt_5_PRIVATE_API 5.0.2 1
 _ZN18QMetaObjectBuilder11indexOfSlotERK10QByteArray@Qt_5_PRIVATE_API 5.0.2 1
 _ZN18QMetaObjectBuilder12addClassInfoERK10QByteArrayS2_@Qt_5_PRIVATE_API 5.0.2 1
 _ZN18QMetaObjectBuilder12removeMethodEi@Qt_5_PRIVATE_API 5.0.2 1
 _ZN18QMetaObjectBuilder12setClassNameERK10QByteArray@Qt_5_PRIVATE_API 5.0.2 1
 _ZN18QMetaObjectBuilder13addEnumeratorERK10QByteArray@Qt_5_PRIVATE_API 5.0.2 1
 _ZN18QMetaObjectBuilder13addEnumeratorERK9QMetaEnum@Qt_5_PRIVATE_API 5.0.2 1
 _ZN18QMetaObjectBuilder13addMetaObjectEPK11QMetaObject6QFlagsINS_9AddMemberEE@Qt_5_PRIVATE_API 5.0.2 1
 _ZN18QMetaObjectBuilder13indexOfMethodERK10QByteArray@Qt_5_PRIVATE_API 5.0.2 1
 _ZN18QMetaObjectBuilder13indexOfSignalERK10QByteArray@Qt_5_PRIVATE_API 5.0.2 1
 _ZN18QMetaObjectBuilder13setSuperClassEPK11QMetaObject@Qt_5_PRIVATE_API 5.0.2 1
 _ZN18QMetaObjectBuilder14addConstructorERK10QByteArray@Qt_5_PRIVATE_API 5.0.2 1
 _ZN18QMetaObjectBuilder14addConstructorERK11QMetaMethod@Qt_5_PRIVATE_API 5.0.2 1
 _ZN18QMetaObjectBuilder14removePropertyEi@Qt_5_PRIVATE_API 5.0.2 1
 _ZN18QMetaObjectBuilder15indexOfPropertyERK10QByteArray@Qt_5_PRIVATE_API 5.0.2 1
 _ZN18QMetaObjectBuilder15removeClassInfoEi@Qt_5_PRIVATE_API 5.0.2 1
 _ZN18QMetaObjectBuilder16indexOfClassInfoERK10QByteArray@Qt_5_PRIVATE_API 5.0.2 1
 _ZN18QMetaObjectBuilder16removeEnumeratorEi@Qt_5_PRIVATE_API 5.0.2 1
 _ZN18QMetaObjectBuilder17indexOfEnumeratorERK10QByteArray@Qt_5_PRIVATE_API 5.0.2 1
 _ZN18QMetaObjectBuilder17removeConstructorEi@Qt_5_PRIVATE_API 5.0.2 1
 _ZN18QMetaObjectBuilder18indexOfConstructorERK10QByteArray@Qt_5_PRIVATE_API 5.0.2 1
 _ZN18QMetaObjectBuilder19fromRelocatableDataEP11QMetaObjectPKS0_RK10QByteArray@Qt_5_PRIVATE_API 5.0.2 1
 _ZN18QMetaObjectBuilder20addRelatedMetaObjectEPK11QMetaObject@Qt_5_PRIVATE_API 5.0.2 1
 _ZN18QMetaObjectBuilder23removeRelatedMetaObjectEi@Qt_5_PRIVATE_API 5.0.2 1
 _ZN18QMetaObjectBuilder25setStaticMetacallFunctionEPFvP7QObjectN11QMetaObject4CallEiPPvE@Qt_5_PRIVATE_API 5.0.2 1
 _ZN18QMetaObjectBuilder7addSlotERK10QByteArray@Qt_5_PRIVATE_API 5.0.2 1
 _ZN18QMetaObjectBuilder8setFlagsE6QFlagsINS_14MetaObjectFlagEE@Qt_5_PRIVATE_API 5.0.2 1
 _ZN18QMetaObjectBuilder9addMethodERK10QByteArray@Qt_5_PRIVATE_API 5.0.2 1
 _ZN18QMetaObjectBuilder9addMethodERK10QByteArrayS2_@Qt_5_PRIVATE_API 5.0.2 1
 _ZN18QMetaObjectBuilder9addMethodERK11QMetaMethod@Qt_5_PRIVATE_API 5.0.2 1
 _ZN18QMetaObjectBuilder9addSignalERK10QByteArray@Qt_5_PRIVATE_API 5.0.2 1
 _ZN18QMetaObjectBuilderC1EPK11QMetaObject6QFlagsINS_9AddMemberEE@Qt_5_PRIVATE_API 5.0.2 1
 _ZN18QMetaObjectBuilderC1Ev@Qt_5_PRIVATE_API 5.0.2 1
 _ZN18QMetaObjectBuilderC2EPK11QMetaObject6QFlagsINS_9AddMemberEE@Qt_5_PRIVATE_API 5.0.2 1
 _ZN18QMetaObjectBuilderC2Ev@Qt_5_PRIVATE_API 5.0.2 1
 _ZN18QMetaObjectBuilderD0Ev@Qt_5_PRIVATE_API 5.0.2 1
 _ZN18QMetaObjectBuilderD1Ev@Qt_5_PRIVATE_API 5.0.2 1
 _ZN18QMetaObjectBuilderD2Ev@Qt_5_PRIVATE_API 5.0.2 1
 _ZN18QMetaObjectPrivate11signalIndexERK11QMetaMethod@Qt_5 5.0.2
 _ZN18QMetaObjectPrivate12signalOffsetEPK11QMetaObject@Qt_5 5.0.2
 _ZN18QMetaObjectPrivate19absoluteSignalCountEPK11QMetaObject@Qt_5 5.0.2
 _ZN18QMetaObjectPrivate6signalEPK11QMetaObjecti@Qt_5 5.0.2
 _ZN18QPropertyAnimation11qt_metacallEN11QMetaObject4CallEiPPv@Qt_5 5.0.2
 _ZN18QPropertyAnimation11qt_metacastEPKc@Qt_5 5.0.2
 _ZN18QPropertyAnimation11updateStateEN18QAbstractAnimation5StateES1_@Qt_5 5.0.2
 _ZN18QPropertyAnimation15setPropertyNameERK10QByteArray@Qt_5 5.0.2
 _ZN18QPropertyAnimation15setTargetObjectEP7QObject@Qt_5 5.0.2
 _ZN18QPropertyAnimation16staticMetaObjectE@Qt_5 5.0.2
 _ZN18QPropertyAnimation18updateCurrentValueERK8QVariant@Qt_5 5.0.2
 _ZN18QPropertyAnimation5eventEP6QEvent@Qt_5 5.0.2
 _ZN18QPropertyAnimationC1EP7QObject@Qt_5 5.0.2
 _ZN18QPropertyAnimationC1EP7QObjectRK10QByteArrayS1_@Qt_5 5.0.2
 _ZN18QPropertyAnimationC2EP7QObject@Qt_5 5.0.2
 _ZN18QPropertyAnimationC2EP7QObjectRK10QByteArrayS1_@Qt_5 5.0.2
 _ZN18QPropertyAnimationD0Ev@Qt_5 5.0.2
 _ZN18QPropertyAnimationD1Ev@Qt_5 5.0.2
 _ZN18QPropertyAnimationD2Ev@Qt_5 5.0.2
 _ZN18QRegularExpression10setPatternERK7QString@Qt_5 5.0.2
 _ZN18QRegularExpression17setPatternOptionsE6QFlagsINS_13PatternOptionEE@Qt_5 5.0.2
 _ZN18QRegularExpression6escapeERK7QString@Qt_5 5.0.2
 _ZN18QRegularExpressionC1ER25QRegularExpressionPrivate@Qt_5 5.0.2
 _ZN18QRegularExpressionC1ERK7QString6QFlagsINS_13PatternOptionEE@Qt_5 5.0.2
 _ZN18QRegularExpressionC1ERKS_@Qt_5 5.0.2
 _ZN18QRegularExpressionC1Ev@Qt_5 5.0.2
 _ZN18QRegularExpressionC2ER25QRegularExpressionPrivate@Qt_5 5.0.2
 _ZN18QRegularExpressionC2ERK7QString6QFlagsINS_13PatternOptionEE@Qt_5 5.0.2
 _ZN18QRegularExpressionC2ERKS_@Qt_5 5.0.2
 _ZN18QRegularExpressionC2Ev@Qt_5 5.0.2
 _ZN18QRegularExpressionD1Ev@Qt_5 5.0.2
 _ZN18QRegularExpressionD2Ev@Qt_5 5.0.2
 _ZN18QRegularExpressionaSERKS_@Qt_5 5.0.2
 _ZN18QThreadPoolPrivate11enqueueTaskEP9QRunnablei@Qt_5_PRIVATE_API 5.0.2 1
 _ZN18QThreadPoolPrivate11startThreadEP9QRunnable@Qt_5_PRIVATE_API 5.0.2 1
 _ZN18QThreadPoolPrivate11waitForDoneEi@Qt_5_PRIVATE_API 5.0.2 1
 _ZN18QThreadPoolPrivate13stealRunnableEP9QRunnable@Qt_5_PRIVATE_API 5.0.2 1
 _ZN18QThreadPoolPrivate19stealAndRunRunnableEP9QRunnable@Qt_5_PRIVATE_API 5.5.0 1
 _ZN18QThreadPoolPrivate21tryToStartMoreThreadsEv@Qt_5_PRIVATE_API 5.0.2 1
 _ZN18QThreadPoolPrivate5clearEv@Qt_5_PRIVATE_API 5.2.0~alpha1 1
 _ZN18QThreadPoolPrivate5resetEv@Qt_5_PRIVATE_API 5.0.2 1
 _ZN18QThreadPoolPrivate8tryStartEP9QRunnable@Qt_5_PRIVATE_API 5.0.2 1
 _ZN18QThreadPoolPrivateC1Ev@Qt_5_PRIVATE_API 5.0.2 1
 _ZN18QThreadPoolPrivateC2Ev@Qt_5_PRIVATE_API 5.0.2 1
 _ZN18QThreadStorageData3setEPv@Qt_5 5.0.2
 _ZN18QThreadStorageData6finishEPPv@Qt_5 5.0.2
 _ZN18QThreadStorageDataC1EPFvPvE@Qt_5 5.0.2
 _ZN18QThreadStorageDataC2EPFvPvE@Qt_5 5.0.2
 _ZN18QThreadStorageDataD1Ev@Qt_5 5.0.2
 _ZN18QThreadStorageDataD2Ev@Qt_5 5.0.2
 _ZN19QAbstractFileEngine10syncToDiskEv@Qt_5_PRIVATE_API 5.1.0 1
 _ZN19QAbstractFileEngine11setFileNameERK7QString@Qt_5_PRIVATE_API 5.1.0 1
 _ZN19QAbstractFileEngine12endEntryListEv@Qt_5_PRIVATE_API 5.1.0 1
 _ZN19QAbstractFileEngine14beginEntryListE6QFlagsIN4QDir6FilterEERK11QStringList@Qt_5_PRIVATE_API 5.1.0 1
 _ZN19QAbstractFileEngine14setPermissionsEj@Qt_5_PRIVATE_API 5.1.0 1
 _ZN19QAbstractFileEngine15renameOverwriteERK7QString@Qt_5_PRIVATE_API 5.1.0 1
 _ZN19QAbstractFileEngine3mapExxN11QFileDevice14MemoryMapFlagsE@Qt_5_PRIVATE_API 5.1.0 1
 _ZN19QAbstractFileEngine4copyERK7QString@Qt_5_PRIVATE_API 5.1.0 1
 _ZN19QAbstractFileEngine4linkERK7QString@Qt_5_PRIVATE_API 5.1.0 1
 _ZN19QAbstractFileEngine4openE6QFlagsIN9QIODevice12OpenModeFlagEE@Qt_5_PRIVATE_API 5.1.0 1
 _ZN19QAbstractFileEngine4readEPcx@Qt_5_PRIVATE_API 5.1.0 1
 _ZN19QAbstractFileEngine4seekEx@Qt_5_PRIVATE_API 5.1.0 1
 _ZN19QAbstractFileEngine5closeEv@Qt_5_PRIVATE_API 5.1.0 1
 _ZN19QAbstractFileEngine5flushEv@Qt_5_PRIVATE_API 5.1.0 1
 _ZN19QAbstractFileEngine5unmapEPh@Qt_5_PRIVATE_API 5.1.0 1
 _ZN19QAbstractFileEngine5writeEPKcx@Qt_5_PRIVATE_API 5.1.0 1
 _ZN19QAbstractFileEngine6createERK7QString@Qt_5_PRIVATE_API 5.1.0 1
 _ZN19QAbstractFileEngine6removeEv@Qt_5_PRIVATE_API 5.1.0 1
 _ZN19QAbstractFileEngine6renameERK7QString@Qt_5_PRIVATE_API 5.1.0 1
 _ZN19QAbstractFileEngine7setSizeEx@Qt_5_PRIVATE_API 5.1.0 1
 _ZN19QAbstractFileEngine8readLineEPcx@Qt_5_PRIVATE_API 5.1.0 1
 _ZN19QAbstractFileEngine8setErrorEN11QFileDevice9FileErrorERK7QString@Qt_5_PRIVATE_API 5.1.0 1
 _ZN19QAbstractFileEngine9extensionENS_9ExtensionEPKNS_15ExtensionOptionEPNS_15ExtensionReturnE@Qt_5_PRIVATE_API 5.1.0 1
 _ZN19QAbstractFileEngineC1ER26QAbstractFileEnginePrivate@Qt_5_PRIVATE_API 5.1.0 1
 _ZN19QAbstractFileEngineC1Ev@Qt_5_PRIVATE_API 5.1.0 1
 _ZN19QAbstractFileEngineC2ER26QAbstractFileEnginePrivate@Qt_5_PRIVATE_API 5.1.0 1
 _ZN19QAbstractFileEngineC2Ev@Qt_5_PRIVATE_API 5.1.0 1
 _ZN19QAbstractFileEngineD0Ev@Qt_5_PRIVATE_API 5.1.0 1
 _ZN19QAbstractFileEngineD1Ev@Qt_5_PRIVATE_API 5.1.0 1
 _ZN19QAbstractFileEngineD2Ev@Qt_5_PRIVATE_API 5.1.0 1
 _ZN19QAbstractProxyModel11qt_metacallEN11QMetaObject4CallEiPPv@Qt_5 5.0.2
 _ZN19QAbstractProxyModel11qt_metacastEPKc@Qt_5 5.0.2
 _ZN19QAbstractProxyModel11setItemDataERK11QModelIndexRK4QMapIi8QVariantE@Qt_5 5.0.2
 _ZN19QAbstractProxyModel12dropMimeDataEPK9QMimeDataN2Qt10DropActionEiiRK11QModelIndex@Qt_5 5.4.0
 _ZN19QAbstractProxyModel13setHeaderDataEiN2Qt11OrientationERK8QVarianti@Qt_5 5.0.2
 _ZN19QAbstractProxyModel14setSourceModelEP18QAbstractItemModel@Qt_5 5.0.2
 _ZN19QAbstractProxyModel16staticMetaObjectE@Qt_5 5.0.2
 _ZN19QAbstractProxyModel17resetInternalDataEv@Qt_5 5.1.0
 _ZN19QAbstractProxyModel18sourceModelChangedENS_14QPrivateSignalE@Qt_5 5.0.2
 _ZN19QAbstractProxyModel4sortEiN2Qt9SortOrderE@Qt_5 5.0.2
 _ZN19QAbstractProxyModel6revertEv@Qt_5 5.0.2
 _ZN19QAbstractProxyModel6submitEv@Qt_5 5.0.2
 _ZN19QAbstractProxyModel7setDataERK11QModelIndexRK8QVarianti@Qt_5 5.0.2
 _ZN19QAbstractProxyModel9fetchMoreERK11QModelIndex@Qt_5 5.0.2
 _ZN19QAbstractProxyModelC1EP7QObject@Qt_5 5.0.2
 _ZN19QAbstractProxyModelC1ER26QAbstractProxyModelPrivateP7QObject@Qt_5_PRIVATE_API 5.0.2 1
 _ZN19QAbstractProxyModelC2EP7QObject@Qt_5 5.0.2
 _ZN19QAbstractProxyModelC2ER26QAbstractProxyModelPrivateP7QObject@Qt_5_PRIVATE_API 5.0.2 1
 _ZN19QAbstractProxyModelD0Ev@Qt_5 5.0.2
 _ZN19QAbstractProxyModelD1Ev@Qt_5 5.0.2
 _ZN19QAbstractProxyModelD2Ev@Qt_5 5.0.2
 _ZN19QAbstractTableModel11qt_metacallEN11QMetaObject4CallEiPPv@Qt_5 5.0.2
 _ZN19QAbstractTableModel11qt_metacastEPKc@Qt_5 5.0.2
 _ZN19QAbstractTableModel12dropMimeDataEPK9QMimeDataN2Qt10DropActionEiiRK11QModelIndex@Qt_5 5.0.2
 _ZN19QAbstractTableModel16staticMetaObjectE@Qt_5 5.0.2
 _ZN19QAbstractTableModelC1EP7QObject@Qt_5 5.0.2
 _ZN19QAbstractTableModelC1ER25QAbstractItemModelPrivateP7QObject@Qt_5_PRIVATE_API 5.0.2 1
 _ZN19QAbstractTableModelC2EP7QObject@Qt_5 5.0.2
 _ZN19QAbstractTableModelC2ER25QAbstractItemModelPrivateP7QObject@Qt_5_PRIVATE_API 5.0.2 1
 _ZN19QAbstractTableModelD0Ev@Qt_5 5.0.2
 _ZN19QAbstractTableModelD1Ev@Qt_5 5.0.2
 _ZN19QAbstractTableModelD2Ev@Qt_5 5.0.2
 _ZN19QAbstractTransition11qt_metacallEN11QMetaObject4CallEiPPv@Qt_5 5.0.2
 _ZN19QAbstractTransition11qt_metacastEPKc@Qt_5 5.0.2
 _ZN19QAbstractTransition12addAnimationEP18QAbstractAnimation@Qt_5 5.0.2
 _ZN19QAbstractTransition14setTargetStateEP14QAbstractState@Qt_5 5.0.2
 _ZN19QAbstractTransition15removeAnimationEP18QAbstractAnimation@Qt_5 5.0.2
 _ZN19QAbstractTransition15setTargetStatesERK5QListIP14QAbstractStateE@Qt_5 5.0.2
 _ZN19QAbstractTransition16staticMetaObjectE@Qt_5 5.0.2
 _ZN19QAbstractTransition17setTransitionTypeENS_14TransitionTypeE@Qt_5 5.5.0
 _ZN19QAbstractTransition18targetStateChangedENS_14QPrivateSignalE@Qt_5 5.4.0
 _ZN19QAbstractTransition19targetStatesChangedENS_14QPrivateSignalE@Qt_5 5.4.0
 _ZN19QAbstractTransition5eventEP6QEvent@Qt_5 5.0.2
 _ZN19QAbstractTransition9triggeredENS_14QPrivateSignalE@Qt_5 5.0.2
 _ZN19QAbstractTransitionC1EP6QState@Qt_5 5.0.2
 _ZN19QAbstractTransitionC1ER26QAbstractTransitionPrivateP6QState@Qt_5_PRIVATE_API 5.0.2 1
 _ZN19QAbstractTransitionC2EP6QState@Qt_5 5.0.2
 _ZN19QAbstractTransitionC2ER26QAbstractTransitionPrivateP6QState@Qt_5_PRIVATE_API 5.0.2 1
 _ZN19QAbstractTransitionD0Ev@Qt_5 5.0.2
 _ZN19QAbstractTransitionD1Ev@Qt_5 5.0.2
 _ZN19QAbstractTransitionD2Ev@Qt_5 5.0.2
 _ZN19QIdentityProxyModel10insertRowsEiiRK11QModelIndex@Qt_5 5.0.2
 _ZN19QIdentityProxyModel10removeRowsEiiRK11QModelIndex@Qt_5 5.0.2
 _ZN19QIdentityProxyModel11qt_metacallEN11QMetaObject4CallEiPPv@Qt_5 5.0.2
 _ZN19QIdentityProxyModel11qt_metacastEPKc@Qt_5 5.0.2
 _ZN19QIdentityProxyModel12dropMimeDataEPK9QMimeDataN2Qt10DropActionEiiRK11QModelIndex@Qt_5 5.0.2
 _ZN19QIdentityProxyModel13insertColumnsEiiRK11QModelIndex@Qt_5 5.0.2
 _ZN19QIdentityProxyModel13removeColumnsEiiRK11QModelIndex@Qt_5 5.0.2
 _ZN19QIdentityProxyModel14setSourceModelEP18QAbstractItemModel@Qt_5 5.0.2
 _ZN19QIdentityProxyModel16staticMetaObjectE@Qt_5 5.0.2
 _ZN19QIdentityProxyModelC1EP7QObject@Qt_5 5.0.2
 _ZN19QIdentityProxyModelC1ER26QIdentityProxyModelPrivateP7QObject@Qt_5 5.0.2
 _ZN19QIdentityProxyModelC2EP7QObject@Qt_5 5.0.2
 _ZN19QIdentityProxyModelC2ER26QIdentityProxyModelPrivateP7QObject@Qt_5 5.0.2
 _ZN19QIdentityProxyModelD0Ev@Qt_5 5.0.2
 _ZN19QIdentityProxyModelD1Ev@Qt_5 5.0.2
 _ZN19QIdentityProxyModelD2Ev@Qt_5 5.0.2
 _ZN19QItemSelectionModel11qt_metacallEN11QMetaObject4CallEiPPv@Qt_5 5.0.2
 _ZN19QItemSelectionModel11qt_metacastEPKc@Qt_5 5.0.2
 _ZN19QItemSelectionModel12modelChangedEP18QAbstractItemModel@Qt_5 5.5.0
 _ZN19QItemSelectionModel14clearSelectionEv@Qt_5 5.0.2
 _ZN19QItemSelectionModel14currentChangedERK11QModelIndexS2_@Qt_5 5.0.2
 _ZN19QItemSelectionModel15setCurrentIndexERK11QModelIndex6QFlagsINS_13SelectionFlagEE@Qt_5 5.0.2
 _ZN19QItemSelectionModel16selectionChangedERK14QItemSelectionS2_@Qt_5 5.0.2
 _ZN19QItemSelectionModel16staticMetaObjectE@Qt_5 5.0.2
 _ZN19QItemSelectionModel17clearCurrentIndexEv@Qt_5 5.0.2
 _ZN19QItemSelectionModel17currentRowChangedERK11QModelIndexS2_@Qt_5 5.0.2
 _ZN19QItemSelectionModel20currentColumnChangedERK11QModelIndexS2_@Qt_5 5.0.2
 _ZN19QItemSelectionModel20emitSelectionChangedERK14QItemSelectionS2_@Qt_5 5.0.2
 _ZN19QItemSelectionModel5clearEv@Qt_5 5.0.2
 _ZN19QItemSelectionModel5modelEv@Qt_5 5.5.0
 _ZN19QItemSelectionModel5resetEv@Qt_5 5.0.2
 _ZN19QItemSelectionModel6selectERK11QModelIndex6QFlagsINS_13SelectionFlagEE@Qt_5 5.0.2
 _ZN19QItemSelectionModel6selectERK14QItemSelection6QFlagsINS_13SelectionFlagEE@Qt_5 5.0.2
 _ZN19QItemSelectionModel8setModelEP18QAbstractItemModel@Qt_5 5.5.0
 _ZN19QItemSelectionModelC1EP18QAbstractItemModel@Qt_5 5.0.2
 _ZN19QItemSelectionModelC1EP18QAbstractItemModelP7QObject@Qt_5 5.0.2
 _ZN19QItemSelectionModelC1ER26QItemSelectionModelPrivateP18QAbstractItemModel@Qt_5 5.0.2
 _ZN19QItemSelectionModelC2EP18QAbstractItemModel@Qt_5 5.0.2
 _ZN19QItemSelectionModelC2EP18QAbstractItemModelP7QObject@Qt_5 5.0.2
 _ZN19QItemSelectionModelC2ER26QItemSelectionModelPrivateP18QAbstractItemModel@Qt_5 5.0.2
 _ZN19QItemSelectionModelD0Ev@Qt_5 5.0.2
 _ZN19QItemSelectionModelD1Ev@Qt_5 5.0.2
 _ZN19QItemSelectionModelD2Ev@Qt_5 5.0.2
 _ZN19QProcessEnvironment17systemEnvironmentEv@Qt_5 5.0.2
 _ZN19QProcessEnvironment5clearEv@Qt_5 5.0.2
 _ZN19QProcessEnvironment6insertERK7QStringS2_@Qt_5 5.0.2
 _ZN19QProcessEnvironment6insertERKS_@Qt_5 5.0.2
 _ZN19QProcessEnvironment6removeERK7QString@Qt_5 5.0.2
 _ZN19QProcessEnvironmentC1ERKS_@Qt_5 5.0.2
 _ZN19QProcessEnvironmentC1Ev@Qt_5 5.0.2
 _ZN19QProcessEnvironmentC2ERKS_@Qt_5 5.0.2
 _ZN19QProcessEnvironmentC2Ev@Qt_5 5.0.2
 _ZN19QProcessEnvironmentD1Ev@Qt_5 5.0.2
 _ZN19QProcessEnvironmentD2Ev@Qt_5 5.0.2
 _ZN19QProcessEnvironmentaSERKS_@Qt_5 5.0.2
 _ZN19QSequentialIterable14const_iterator3endEv@Qt_5 5.2.0~alpha1
 _ZN19QSequentialIterable14const_iterator5beginEv@Qt_5 5.2.0~alpha1
 _ZN19QSequentialIterable14const_iteratorC1ERKN17QtMetaTypePrivate23QSequentialIterableImplEP10QAtomicInt@Qt_5 5.2.0~alpha1
 _ZN19QSequentialIterable14const_iteratorC1ERKS0_@Qt_5 5.2.0~alpha1
 _ZN19QSequentialIterable14const_iteratorC1ERKS_P10QAtomicInt@Qt_5 5.2.0~alpha1
 _ZN19QSequentialIterable14const_iteratorC2ERKN17QtMetaTypePrivate23QSequentialIterableImplEP10QAtomicInt@Qt_5 5.2.0~alpha1
 _ZN19QSequentialIterable14const_iteratorC2ERKS0_@Qt_5 5.2.0~alpha1
 _ZN19QSequentialIterable14const_iteratorC2ERKS_P10QAtomicInt@Qt_5 5.2.0~alpha1
 _ZN19QSequentialIterable14const_iteratorD1Ev@Qt_5 5.2.0~alpha1
 _ZN19QSequentialIterable14const_iteratorD2Ev@Qt_5 5.2.0~alpha1
 _ZN19QSequentialIterable14const_iteratoraSERKS0_@Qt_5 5.2.0~alpha1
 _ZN19QSequentialIterable14const_iteratormIEi@Qt_5 5.2.0~alpha1
 _ZN19QSequentialIterable14const_iteratormmEi@Qt_5 5.2.0~alpha1
 _ZN19QSequentialIterable14const_iteratormmEv@Qt_5 5.2.0~alpha1
 _ZN19QSequentialIterable14const_iteratorpLEi@Qt_5 5.2.0~alpha1
 _ZN19QSequentialIterable14const_iteratorppEi@Qt_5 5.2.0~alpha1
 _ZN19QSequentialIterable14const_iteratorppEv@Qt_5 5.2.0~alpha1
 _ZN19QSequentialIterableC1EN17QtMetaTypePrivate23QSequentialIterableImplE@Qt_5 5.2.0~alpha1
 _ZN19QSequentialIterableC2EN17QtMetaTypePrivate23QSequentialIterableImplE@Qt_5 5.2.0~alpha1
 _ZN19QTextBoundaryFinder11setPositionEi@Qt_5 5.0.2
 _ZN19QTextBoundaryFinder14toNextBoundaryEv@Qt_5 5.0.2
 _ZN19QTextBoundaryFinder18toPreviousBoundaryEv@Qt_5 5.0.2
 _ZN19QTextBoundaryFinder5toEndEv@Qt_5 5.0.2
 _ZN19QTextBoundaryFinder7toStartEv@Qt_5 5.0.2
 _ZN19QTextBoundaryFinderC1ENS_12BoundaryTypeEPK5QChariPhi@Qt_5 5.0.2
 _ZN19QTextBoundaryFinderC1ENS_12BoundaryTypeERK7QString@Qt_5 5.0.2
 _ZN19QTextBoundaryFinderC1ERKS_@Qt_5 5.0.2
 _ZN19QTextBoundaryFinderC1Ev@Qt_5 5.0.2
 _ZN19QTextBoundaryFinderC2ENS_12BoundaryTypeEPK5QChariPhi@Qt_5 5.0.2
 _ZN19QTextBoundaryFinderC2ENS_12BoundaryTypeERK7QString@Qt_5 5.0.2
 _ZN19QTextBoundaryFinderC2ERKS_@Qt_5 5.0.2
 _ZN19QTextBoundaryFinderC2Ev@Qt_5 5.0.2
 _ZN19QTextBoundaryFinderD1Ev@Qt_5 5.0.2
 _ZN19QTextBoundaryFinderD2Ev@Qt_5 5.0.2
 _ZN19QTextBoundaryFinderaSERKS_@Qt_5 5.0.2
 _ZN19QUnhandledExceptionD0Ev@Qt_5 5.6.0~beta
 _ZN19QUnhandledExceptionD1Ev@Qt_5 5.6.0~beta
 _ZN19QUnhandledExceptionD2Ev@Qt_5 5.6.0~beta
 _ZN19QXmlStreamAttributeC1ERK7QStringS2_@Qt_5 5.0.2
 _ZN19QXmlStreamAttributeC1ERK7QStringS2_S2_@Qt_5 5.0.2
 _ZN19QXmlStreamAttributeC1ERKS_@Qt_5 5.0.2
 _ZN19QXmlStreamAttributeC1Ev@Qt_5 5.0.2
 _ZN19QXmlStreamAttributeC2ERK7QStringS2_@Qt_5 5.0.2
 _ZN19QXmlStreamAttributeC2ERK7QStringS2_S2_@Qt_5 5.0.2
 _ZN19QXmlStreamAttributeC2ERKS_@Qt_5 5.0.2
 _ZN19QXmlStreamAttributeC2Ev@Qt_5 5.0.2
 _ZN19QXmlStreamAttributeD1Ev@Qt_5 5.0.2
 _ZN19QXmlStreamAttributeD2Ev@Qt_5 5.0.2
 _ZN19QXmlStreamAttributeaSERKS_@Qt_5 5.0.2
 _ZN20QAssociativeIterable14const_iterator3endEv@Qt_5 5.2.0~alpha1
 _ZN20QAssociativeIterable14const_iterator4findERK8QVariant@Qt_5 5.5.0
 _ZN20QAssociativeIterable14const_iterator5beginEv@Qt_5 5.2.0~alpha1
 _ZN20QAssociativeIterable14const_iteratorC1ERKN17QtMetaTypePrivate24QAssociativeIterableImplEP10QAtomicInt@Qt_5 5.2.0~alpha1
 _ZN20QAssociativeIterable14const_iteratorC1ERKS0_@Qt_5 5.2.0~alpha1
 _ZN20QAssociativeIterable14const_iteratorC1ERKS_P10QAtomicInt@Qt_5 5.2.0~alpha1
 _ZN20QAssociativeIterable14const_iteratorC2ERKN17QtMetaTypePrivate24QAssociativeIterableImplEP10QAtomicInt@Qt_5 5.2.0~alpha1
 _ZN20QAssociativeIterable14const_iteratorC2ERKS0_@Qt_5 5.2.0~alpha1
 _ZN20QAssociativeIterable14const_iteratorC2ERKS_P10QAtomicInt@Qt_5 5.2.0~alpha1
 _ZN20QAssociativeIterable14const_iteratorD1Ev@Qt_5 5.2.0~alpha1
 _ZN20QAssociativeIterable14const_iteratorD2Ev@Qt_5 5.2.0~alpha1
 _ZN20QAssociativeIterable14const_iteratoraSERKS0_@Qt_5 5.2.0~alpha1
 _ZN20QAssociativeIterable14const_iteratormIEi@Qt_5 5.2.0~alpha1
 _ZN20QAssociativeIterable14const_iteratormmEi@Qt_5 5.2.0~alpha1
 _ZN20QAssociativeIterable14const_iteratormmEv@Qt_5 5.2.0~alpha1
 _ZN20QAssociativeIterable14const_iteratorpLEi@Qt_5 5.2.0~alpha1
 _ZN20QAssociativeIterable14const_iteratorppEi@Qt_5 5.2.0~alpha1
 _ZN20QAssociativeIterable14const_iteratorppEv@Qt_5 5.2.0~alpha1
 _ZN20QAssociativeIterableC1EN17QtMetaTypePrivate24QAssociativeIterableImplE@Qt_5 5.2.0~alpha1
 _ZN20QAssociativeIterableC2EN17QtMetaTypePrivate24QAssociativeIterableImplE@Qt_5 5.2.0~alpha1
 _ZN20QContiguousCacheData12allocateDataEii@Qt_5 5.0.2
 _ZN20QContiguousCacheData8freeDataEPS_@Qt_5 5.0.2
 _ZN20QDeferredDeleteEventC1Ev@Qt_5 5.0.2
 _ZN20QDeferredDeleteEventC2Ev@Qt_5 5.0.2
 _ZN20QDeferredDeleteEventD0Ev@Qt_5 5.0.2
 _ZN20QDeferredDeleteEventD1Ev@Qt_5 5.0.2
 _ZN20QDeferredDeleteEventD2Ev@Qt_5 5.0.2
 _ZN20QEventDispatcherGlib11qt_metacallEN11QMetaObject4CallEiPPv@Qt_5_PRIVATE_API 5.0.2 1
 _ZN20QEventDispatcherGlib11qt_metacastEPKc@Qt_5_PRIVATE_API 5.0.2 1
 _ZN20QEventDispatcherGlib13processEventsE6QFlagsIN10QEventLoop17ProcessEventsFlagEE@Qt_5_PRIVATE_API 5.0.2 1
 _ZN20QEventDispatcherGlib13registerTimerEiiN2Qt9TimerTypeEP7QObject@Qt_5_PRIVATE_API 5.0.2 1
 _ZN20QEventDispatcherGlib13remainingTimeEi@Qt_5_PRIVATE_API 5.0.2 1
 _ZN20QEventDispatcherGlib15unregisterTimerEi@Qt_5_PRIVATE_API 5.0.2 1
 _ZN20QEventDispatcherGlib16hasPendingEventsEv@Qt_5_PRIVATE_API 5.0.2 1
 _ZN20QEventDispatcherGlib16staticMetaObjectE@Qt_5_PRIVATE_API 5.0.2 1
 _ZN20QEventDispatcherGlib16unregisterTimersEP7QObject@Qt_5_PRIVATE_API 5.0.2 1
 _ZN20QEventDispatcherGlib16versionSupportedEv@Qt_5_PRIVATE_API 5.0.2 1
 _ZN20QEventDispatcherGlib22registerSocketNotifierEP15QSocketNotifier@Qt_5_PRIVATE_API 5.0.2 1
 _ZN20QEventDispatcherGlib24unregisterSocketNotifierEP15QSocketNotifier@Qt_5_PRIVATE_API 5.0.2 1
 _ZN20QEventDispatcherGlib5flushEv@Qt_5_PRIVATE_API 5.0.2 1
 _ZN20QEventDispatcherGlib6wakeUpEv@Qt_5_PRIVATE_API 5.0.2 1
 _ZN20QEventDispatcherGlib9interruptEv@Qt_5_PRIVATE_API 5.0.2 1
 _ZN20QEventDispatcherGlibC1EP13_GMainContextP7QObject@Qt_5_PRIVATE_API 5.0.2 1
 _ZN20QEventDispatcherGlibC1EP7QObject@Qt_5_PRIVATE_API 5.0.2 1
 _ZN20QEventDispatcherGlibC1ER27QEventDispatcherGlibPrivateP7QObject@Qt_5_PRIVATE_API 5.0.2 1
 _ZN20QEventDispatcherGlibC2EP13_GMainContextP7QObject@Qt_5_PRIVATE_API 5.0.2 1
 _ZN20QEventDispatcherGlibC2EP7QObject@Qt_5_PRIVATE_API 5.0.2 1
 _ZN20QEventDispatcherGlibC2ER27QEventDispatcherGlibPrivateP7QObject@Qt_5_PRIVATE_API 5.0.2 1
 _ZN20QEventDispatcherGlibD0Ev@Qt_5_PRIVATE_API 5.0.2 1
 _ZN20QEventDispatcherGlibD1Ev@Qt_5_PRIVATE_API 5.0.2 1
 _ZN20QEventDispatcherGlibD2Ev@Qt_5_PRIVATE_API 5.0.2 1
 _ZN20QEventDispatcherUNIX11qt_metacallEN11QMetaObject4CallEiPPv@Qt_5_PRIVATE_API 5.0.2 1
 _ZN20QEventDispatcherUNIX11qt_metacastEPKc@Qt_5_PRIVATE_API 5.0.2 1
 _ZN20QEventDispatcherUNIX13processEventsE6QFlagsIN10QEventLoop17ProcessEventsFlagEE@Qt_5_PRIVATE_API 5.0.2 1
 _ZN20QEventDispatcherUNIX13registerTimerEiiN2Qt9TimerTypeEP7QObject@Qt_5_PRIVATE_API 5.0.2 1
 _ZN20QEventDispatcherUNIX13remainingTimeEi@Qt_5_PRIVATE_API 5.0.2 1
 _ZN20QEventDispatcherUNIX15unregisterTimerEi@Qt_5_PRIVATE_API 5.0.2 1
 _ZN20QEventDispatcherUNIX16hasPendingEventsEv@Qt_5_PRIVATE_API 5.0.2 1
 _ZN20QEventDispatcherUNIX16staticMetaObjectE@Qt_5_PRIVATE_API 5.0.2 1
 _ZN20QEventDispatcherUNIX16unregisterTimersEP7QObject@Qt_5_PRIVATE_API 5.0.2 1
 _ZN20QEventDispatcherUNIX22registerSocketNotifierEP15QSocketNotifier@Qt_5_PRIVATE_API 5.0.2 1
 _ZN20QEventDispatcherUNIX24unregisterSocketNotifierEP15QSocketNotifier@Qt_5_PRIVATE_API 5.0.2 1
 _ZN20QEventDispatcherUNIX5flushEv@Qt_5_PRIVATE_API 5.0.2 1
 _ZN20QEventDispatcherUNIX6wakeUpEv@Qt_5_PRIVATE_API 5.0.2 1
 _ZN20QEventDispatcherUNIX9interruptEv@Qt_5_PRIVATE_API 5.0.2 1
 _ZN20QEventDispatcherUNIXC1EP7QObject@Qt_5_PRIVATE_API 5.0.2 1
 _ZN20QEventDispatcherUNIXC1ER27QEventDispatcherUNIXPrivateP7QObject@Qt_5_PRIVATE_API 5.0.2 1
 _ZN20QEventDispatcherUNIXC2EP7QObject@Qt_5_PRIVATE_API 5.0.2 1
 _ZN20QEventDispatcherUNIXC2ER27QEventDispatcherUNIXPrivateP7QObject@Qt_5_PRIVATE_API 5.0.2 1
 _ZN20QEventDispatcherUNIXD0Ev@Qt_5_PRIVATE_API 5.0.2 1
 _ZN20QEventDispatcherUNIXD1Ev@Qt_5_PRIVATE_API 5.0.2 1
 _ZN20QEventDispatcherUNIXD2Ev@Qt_5_PRIVATE_API 5.0.2 1
 _ZN20QFileSelectorPrivate10addStaticsERK11QStringList@Qt_5_PRIVATE_API 5.2.0~alpha1 1
 _ZN20QFileSelectorPrivate15updateSelectorsEv@Qt_5_PRIVATE_API 5.2.0~alpha1 1
 _ZN20QFileSelectorPrivate17platformSelectorsEv@Qt_5_PRIVATE_API 5.2.0~alpha1 1
 _ZN20QFileSelectorPrivateC1Ev@Qt_5_PRIVATE_API 5.2.0~alpha1 1
 _ZN20QFileSelectorPrivateC2Ev@Qt_5_PRIVATE_API 5.2.0~alpha1 1
 _ZN20QFutureInterfaceBase11setRunnableEP9QRunnable@Qt_5 5.0.2
 _ZN20QFutureInterfaceBase12setThrottledEb@Qt_5 5.0.2
 _ZN20QFutureInterfaceBase12togglePausedEv@Qt_5 5.0.2
 _ZN20QFutureInterfaceBase13reportStartedEv@Qt_5 5.0.2
 _ZN20QFutureInterfaceBase13setFilterModeEb@Qt_5 5.0.2
 _ZN20QFutureInterfaceBase13setThreadPoolEP11QThreadPool@Qt_5 5.4.0
 _ZN20QFutureInterfaceBase13waitForResultEi@Qt_5 5.0.2
 _ZN20QFutureInterfaceBase13waitForResumeEv@Qt_5 5.0.2
 _ZN20QFutureInterfaceBase14exceptionStoreEv@Qt_5 5.0.2
 _ZN20QFutureInterfaceBase14reportCanceledEv@Qt_5 5.0.2
 _ZN20QFutureInterfaceBase14reportFinishedEv@Qt_5 5.0.2
 _ZN20QFutureInterfaceBase15reportExceptionERK10QException@Qt_5 5.0.2
 _ZN20QFutureInterfaceBase15resultStoreBaseEv@Qt_5 5.0.2
 _ZN20QFutureInterfaceBase15waitForFinishedEv@Qt_5 5.0.2
 _ZN20QFutureInterfaceBase16setProgressRangeEii@Qt_5 5.0.2
 _ZN20QFutureInterfaceBase16setProgressValueEi@Qt_5 5.0.2
 _ZN20QFutureInterfaceBase17waitForNextResultEv@Qt_5 5.0.2
 _ZN20QFutureInterfaceBase18reportResultsReadyEii@Qt_5 5.0.2
 _ZN20QFutureInterfaceBase19expectedResultCountEv@Qt_5 5.0.2
 _ZN20QFutureInterfaceBase22setExpectedResultCountEi@Qt_5 5.0.2
 _ZN20QFutureInterfaceBase23setProgressValueAndTextEiRK7QString@Qt_5 5.0.2
 _ZN20QFutureInterfaceBase6cancelEv@Qt_5 5.0.2
 _ZN20QFutureInterfaceBase9setPausedEb@Qt_5 5.0.2
 _ZN20QFutureInterfaceBaseC1ENS_5StateE@Qt_5 5.0.2
 _ZN20QFutureInterfaceBaseC1ERKS_@Qt_5 5.0.2
 _ZN20QFutureInterfaceBaseC2ENS_5StateE@Qt_5 5.0.2
 _ZN20QFutureInterfaceBaseC2ERKS_@Qt_5 5.0.2
 _ZN20QFutureInterfaceBaseD0Ev@Qt_5 5.0.2
 _ZN20QFutureInterfaceBaseD1Ev@Qt_5 5.0.2
 _ZN20QFutureInterfaceBaseD2Ev@Qt_5 5.0.2
 _ZN20QFutureInterfaceBaseaSERKS_@Qt_5 5.0.2
 _ZN20QMetaPropertyBuilder11setConstantEb@Qt_5_PRIVATE_API 5.0.2 1
 _ZN20QMetaPropertyBuilder11setEditableEb@Qt_5_PRIVATE_API 5.0.2 1
 _ZN20QMetaPropertyBuilder11setReadableEb@Qt_5_PRIVATE_API 5.0.2 1
 _ZN20QMetaPropertyBuilder11setRevisionEi@Qt_5_PRIVATE_API 5.0.2 1
 _ZN20QMetaPropertyBuilder11setWritableEb@Qt_5_PRIVATE_API 5.0.2 1
 _ZN20QMetaPropertyBuilder12setStdCppSetEb@Qt_5_PRIVATE_API 5.0.2 1
 _ZN20QMetaPropertyBuilder13setDesignableEb@Qt_5_PRIVATE_API 5.0.2 1
 _ZN20QMetaPropertyBuilder13setEnumOrFlagEb@Qt_5_PRIVATE_API 5.0.2 1
 _ZN20QMetaPropertyBuilder13setResettableEb@Qt_5_PRIVATE_API 5.0.2 1
 _ZN20QMetaPropertyBuilder13setScriptableEb@Qt_5_PRIVATE_API 5.0.2 1
 _ZN20QMetaPropertyBuilder15setNotifySignalERK18QMetaMethodBuilder@Qt_5_PRIVATE_API 5.0.2 1
 _ZN20QMetaPropertyBuilder18removeNotifySignalEv@Qt_5_PRIVATE_API 5.0.2 1
 _ZN20QMetaPropertyBuilder7setUserEb@Qt_5_PRIVATE_API 5.0.2 1
 _ZN20QMetaPropertyBuilder8setFinalEb@Qt_5_PRIVATE_API 5.0.2 1
 _ZN20QMetaPropertyBuilder9setStoredEb@Qt_5_PRIVATE_API 5.0.2 1
 _ZN20QStateMachinePrivate10_q_processEv@Qt_5_PRIVATE_API 5.0.2 1
 _ZN20QStateMachinePrivate10exitStatesEP6QEventRK5QListIP14QAbstractStateERK5QHashIS4_7QVectorI19QPropertyAssignmentEE@Qt_5_PRIVATE_API 5.6.0~beta 1
 _ZN20QStateMachinePrivate10isParallelEPK14QAbstractState@Qt_5_PRIVATE_API 5.0.2 1
 _ZN20QStateMachinePrivate11enterStatesEP6QEventRK5QListIP14QAbstractStateES7_RK4QSetIS4_ER5QHashIS4_7QVectorI19QPropertyAssignmentEERKS2_IP18QAbstractAnimationE@Qt_5_PRIVATE_API 5.6.0~beta 1
 _ZN20QStateMachinePrivate11noMicrostepEv@Qt_5_PRIVATE_API 5.5.0 1
 _ZN20QStateMachinePrivate11startupHookEv@Qt_5_PRIVATE_API 5.5.0 1
 _ZN20QStateMachinePrivate12clearHistoryEv@Qt_5_PRIVATE_API 5.0.2 1
 _ZN20QStateMachinePrivate12endMacrostepEb@Qt_5_PRIVATE_API 5.5.0 1
 _ZN20QStateMachinePrivate12toFinalStateEP14QAbstractState@Qt_5_PRIVATE_API 5.0.2 1
 _ZN20QStateMachinePrivate13processEventsENS_19EventProcessingModeE@Qt_5_PRIVATE_API 5.0.2 1
 _ZN20QStateMachinePrivate14beginMacrostepEv@Qt_5_PRIVATE_API 5.5.0 1
 _ZN20QStateMachinePrivate14computeExitSetERK5QListIP19QAbstractTransitionEP16CalculationCache@Qt_5_PRIVATE_API 5.5.0 1
 _ZN20QStateMachinePrivate14findErrorStateEP14QAbstractState@Qt_5_PRIVATE_API 5.0.2 1
 _ZN20QStateMachinePrivate14toHistoryStateEP14QAbstractState@Qt_5_PRIVATE_API 5.0.2 1
 _ZN20QStateMachinePrivate15computeEntrySetERK5QListIP19QAbstractTransitionER4QSetIP14QAbstractStateEP16CalculationCache@Qt_5_PRIVATE_API 5.5.0 1
 _ZN20QStateMachinePrivate15exitInterpreterEv@Qt_5_PRIVATE_API 5.6.0~beta 1
 _ZN20QStateMachinePrivate15toStandardStateEP14QAbstractState@Qt_5_PRIVATE_API 5.0.2 1
 _ZN20QStateMachinePrivate15toStandardStateEPK14QAbstractState@Qt_5_PRIVATE_API 5.0.2 1
 _ZN20QStateMachinePrivate17emitStateFinishedEP6QStateP11QFinalState@Qt_5_PRIVATE_API 5.5.0 1
 _ZN20QStateMachinePrivate17postExternalEventEP6QEvent@Qt_5_PRIVATE_API 5.0.2 1
 _ZN20QStateMachinePrivate17postInternalEventEP6QEvent@Qt_5_PRIVATE_API 5.0.2 1
 _ZN20QStateMachinePrivate17selectTransitionsEP6QEventP16CalculationCache@Qt_5_PRIVATE_API 5.5.0 1
 _ZN20QStateMachinePrivate17stateExitLessThanEP14QAbstractStateS1_@Qt_5_PRIVATE_API 5.0.2 1
 _ZN20QStateMachinePrivate18registerRestorableEP14QAbstractStateP7QObjectRK10QByteArrayRK8QVariant@Qt_5_PRIVATE_API 5.0.2 1
 _ZN20QStateMachinePrivate18registerTransitionEP19QAbstractTransition@Qt_5_PRIVATE_API 5.0.2 1
 _ZN20QStateMachinePrivate18stateEntryLessThanEP14QAbstractStateS1_@Qt_5_PRIVATE_API 5.0.2 1
 _ZN20QStateMachinePrivate19handleFilteredEventEP7QObjectP6QEvent@Qt_5_PRIVATE_API 5.0.2 1
 _ZN20QStateMachinePrivate19initializeAnimationEP18QAbstractAnimationRK19QPropertyAssignment@Qt_5_PRIVATE_API 5.0.2 1
 _ZN20QStateMachinePrivate19registerTransitionsEP14QAbstractState@Qt_5_PRIVATE_API 5.0.2 1
 _ZN20QStateMachinePrivate20_q_animationFinishedEv@Qt_5_PRIVATE_API 5.0.2 1
 _ZN20QStateMachinePrivate20dequeueExternalEventEv@Qt_5_PRIVATE_API 5.0.2 1
 _ZN20QStateMachinePrivate20dequeueInternalEventEv@Qt_5_PRIVATE_API 5.0.2 1
 _ZN20QStateMachinePrivate20initializeAnimationsEP14QAbstractStateRK5QListIP18QAbstractAnimationERKS2_IS1_ER5QHashIS1_7QVectorI19QPropertyAssignmentEE@Qt_5_PRIVATE_API 5.6.0~beta 1
 _ZN20QStateMachinePrivate20unregisterTransitionEP19QAbstractTransition@Qt_5_PRIVATE_API 5.0.2 1
 _ZN20QStateMachinePrivate21unregisterRestorablesERK5QListIP14QAbstractStateEP7QObjectRK10QByteArray@Qt_5_PRIVATE_API 5.0.2 1
 _ZN20QStateMachinePrivate22cancelAllDelayedEventsEv@Qt_5_PRIVATE_API 5.0.2 1
 _ZN20QStateMachinePrivate22handleTransitionSignalEP7QObjectiPPv@Qt_5_PRIVATE_API 5.0.2 1
 _ZN20QStateMachinePrivate22processedPendingEventsEb@Qt_5_PRIVATE_API 5.5.0 1
 _ZN20QStateMachinePrivate23maybeRegisterTransitionEP19QAbstractTransition@Qt_5_PRIVATE_API 5.0.2 1
 _ZN20QStateMachinePrivate23registerEventTransitionEP16QEventTransition@Qt_5_PRIVATE_API 5.0.2 1
 _ZN20QStateMachinePrivate24_q_killDelayedEventTimerEii@Qt_5_PRIVATE_API 5.0.2 1
 _ZN20QStateMachinePrivate24addAncestorStatesToEnterEP14QAbstractStateS1_R4QSetIS1_ES4_@Qt_5_PRIVATE_API 5.5.0 1
 _ZN20QStateMachinePrivate24computeExitSet_UnorderedEP19QAbstractTransitionP16CalculationCache@Qt_5_PRIVATE_API 5.5.0 1
 _ZN20QStateMachinePrivate24computeExitSet_UnorderedERK5QListIP19QAbstractTransitionEP16CalculationCache@Qt_5_PRIVATE_API 5.5.0 1
 _ZN20QStateMachinePrivate24executeTransitionContentEP6QEventRK5QListIP19QAbstractTransitionE@Qt_5_PRIVATE_API 5.0.2 1
 _ZN20QStateMachinePrivate24registerSignalTransitionEP17QSignalTransition@Qt_5_PRIVATE_API 5.0.2 1
 _ZN20QStateMachinePrivate24unregisterAllTransitionsEv@Qt_5_PRIVATE_API 5.0.2 1
 _ZN20QStateMachinePrivate25_q_startDelayedEventTimerEii@Qt_5_PRIVATE_API 5.0.2 1
 _ZN20QStateMachinePrivate25isExternalEventQueueEmptyEv@Qt_5_PRIVATE_API 5.0.2 1
 _ZN20QStateMachinePrivate25isInternalEventQueueEmptyEv@Qt_5_PRIVATE_API 5.0.2 1
 _ZN20QStateMachinePrivate25terminateActiveAnimationsEP14QAbstractStateRK5QHashIS1_7QVectorI19QPropertyAssignmentEE@Qt_5_PRIVATE_API 5.6.0~beta 1
 _ZN20QStateMachinePrivate25unregisterEventTransitionEP16QEventTransition@Qt_5_PRIVATE_API 5.0.2 1
 _ZN20QStateMachinePrivate26addDescendantStatesToEnterEP14QAbstractStateR4QSetIS1_ES4_@Qt_5_PRIVATE_API 5.5.0 1
 _ZN20QStateMachinePrivate26unregisterSignalTransitionEP17QSignalTransition@Qt_5_PRIVATE_API 5.0.2 1
 _ZN20QStateMachinePrivate28maybeRegisterEventTransitionEP16QEventTransition@Qt_5_PRIVATE_API 5.0.2 1
 _ZN20QStateMachinePrivate28removeConflictingTransitionsER5QListIP19QAbstractTransitionEP16CalculationCache@Qt_5_PRIVATE_API 5.5.0 1
 _ZN20QStateMachinePrivate28transitionStateEntryLessThanEP19QAbstractTransitionS1_@Qt_5_PRIVATE_API 5.5.0 1
 _ZN20QStateMachinePrivate29maybeRegisterSignalTransitionEP17QSignalTransition@Qt_5_PRIVATE_API 5.0.2 1
 _ZN20QStateMachinePrivate38registerMultiThreadedSignalTransitionsEv@Qt_5_PRIVATE_API 5.0.2 1
 _ZN20QStateMachinePrivate7handlerE@Qt_5_PRIVATE_API 5.0.2 1
 _ZN20QStateMachinePrivate7isFinalEPK14QAbstractState@Qt_5_PRIVATE_API 5.0.2 1
 _ZN20QStateMachinePrivate8_q_startEv@Qt_5_PRIVATE_API 5.0.2 1
 _ZN20QStateMachinePrivate8setErrorEN13QStateMachine5ErrorEP14QAbstractState@Qt_5_PRIVATE_API 5.0.2 1
 _ZN20QStateMachinePrivate9goToStateEP14QAbstractState@Qt_5_PRIVATE_API 5.0.2 1
 _ZN20QStateMachinePrivate9microstepEP6QEventRK5QListIP19QAbstractTransitionEP16CalculationCache@Qt_5_PRIVATE_API 5.5.0 1
 _ZN20QStateMachinePrivateC1Ev@Qt_5_PRIVATE_API 5.0.2 1
 _ZN20QStateMachinePrivateC2Ev@Qt_5_PRIVATE_API 5.0.2 1
 _ZN20QStateMachinePrivateD0Ev@Qt_5_PRIVATE_API 5.0.2 1
 _ZN20QStateMachinePrivateD1Ev@Qt_5_PRIVATE_API 5.0.2 1
 _ZN20QStateMachinePrivateD2Ev@Qt_5_PRIVATE_API 5.0.2 1
 _ZN20QXmlStreamAttributes6appendERK7QStringS2_@Qt_5 5.0.2
 _ZN20QXmlStreamAttributes6appendERK7QStringS2_S2_@Qt_5 5.0.2
 _ZN21QAbstractConcatenable14appendLatin1ToEPKciP5QChar@Qt_5 5.3.0
 _ZN21QAbstractConcatenable16convertFromAsciiEPKciRP5QChar@Qt_5 5.0.2
 _ZN21QObjectCleanupHandler11qt_metacallEN11QMetaObject4CallEiPPv@Qt_5 5.0.2
 _ZN21QObjectCleanupHandler11qt_metacastEPKc@Qt_5 5.0.2
 _ZN21QObjectCleanupHandler15objectDestroyedEP7QObject@Qt_5 5.0.2
 _ZN21QObjectCleanupHandler16staticMetaObjectE@Qt_5 5.0.2
 _ZN21QObjectCleanupHandler3addEP7QObject@Qt_5 5.0.2
 _ZN21QObjectCleanupHandler5clearEv@Qt_5 5.0.2
 _ZN21QObjectCleanupHandler6removeEP7QObject@Qt_5 5.0.2
 _ZN21QObjectCleanupHandlerC1Ev@Qt_5 5.0.2
 _ZN21QObjectCleanupHandlerC2Ev@Qt_5 5.0.2
 _ZN21QObjectCleanupHandlerD0Ev@Qt_5 5.0.2
 _ZN21QObjectCleanupHandlerD1Ev@Qt_5 5.0.2
 _ZN21QObjectCleanupHandlerD2Ev@Qt_5 5.0.2
 _ZN21QPersistentModelIndexC1ERK11QModelIndex@Qt_5 5.0.2
 _ZN21QPersistentModelIndexC1ERKS_@Qt_5 5.0.2
 _ZN21QPersistentModelIndexC1Ev@Qt_5 5.0.2
 _ZN21QPersistentModelIndexC2ERK11QModelIndex@Qt_5 5.0.2
 _ZN21QPersistentModelIndexC2ERKS_@Qt_5 5.0.2
 _ZN21QPersistentModelIndexC2Ev@Qt_5 5.0.2
 _ZN21QPersistentModelIndexD1Ev@Qt_5 5.0.2
 _ZN21QPersistentModelIndexD2Ev@Qt_5 5.0.2
 _ZN21QPersistentModelIndexaSERK11QModelIndex@Qt_5 5.0.2
 _ZN21QPersistentModelIndexaSERKS_@Qt_5 5.0.2
 _ZN21QSortFilterProxyModel10insertRowsEiiRK11QModelIndex@Qt_5 5.0.2
 _ZN21QSortFilterProxyModel10invalidateEv@Qt_5 5.0.2
 _ZN21QSortFilterProxyModel10removeRowsEiiRK11QModelIndex@Qt_5 5.0.2
 _ZN21QSortFilterProxyModel11qt_metacallEN11QMetaObject4CallEiPPv@Qt_5 5.0.2
 _ZN21QSortFilterProxyModel11qt_metacastEPKc@Qt_5 5.0.2
 _ZN21QSortFilterProxyModel11setSortRoleEi@Qt_5 5.0.2
 _ZN21QSortFilterProxyModel12dropMimeDataEPK9QMimeDataN2Qt10DropActionEiiRK11QModelIndex@Qt_5 5.0.2
 _ZN21QSortFilterProxyModel13filterChangedEv@Qt_5 5.0.2
 _ZN21QSortFilterProxyModel13insertColumnsEiiRK11QModelIndex@Qt_5 5.0.2
 _ZN21QSortFilterProxyModel13removeColumnsEiiRK11QModelIndex@Qt_5 5.0.2
 _ZN21QSortFilterProxyModel13setFilterRoleEi@Qt_5 5.0.2
 _ZN21QSortFilterProxyModel13setHeaderDataEiN2Qt11OrientationERK8QVarianti@Qt_5 5.0.2
 _ZN21QSortFilterProxyModel14setSourceModelEP18QAbstractItemModel@Qt_5 5.0.2
 _ZN21QSortFilterProxyModel15setFilterRegExpERK7QRegExp@Qt_5 5.0.2
 _ZN21QSortFilterProxyModel15setFilterRegExpERK7QString@Qt_5 5.0.2
 _ZN21QSortFilterProxyModel16invalidateFilterEv@Qt_5 5.0.2
 _ZN21QSortFilterProxyModel16staticMetaObjectE@Qt_5 5.0.2
 _ZN21QSortFilterProxyModel17setFilterWildcardERK7QString@Qt_5 5.0.2
 _ZN21QSortFilterProxyModel18setFilterKeyColumnEi@Qt_5 5.0.2
 _ZN21QSortFilterProxyModel18setSortLocaleAwareEb@Qt_5 5.0.2
 _ZN21QSortFilterProxyModel20setDynamicSortFilterEb@Qt_5 5.0.2
 _ZN21QSortFilterProxyModel20setFilterFixedStringERK7QString@Qt_5 5.0.2
 _ZN21QSortFilterProxyModel22setSortCaseSensitivityEN2Qt15CaseSensitivityE@Qt_5 5.0.2
 _ZN21QSortFilterProxyModel24setFilterCaseSensitivityEN2Qt15CaseSensitivityE@Qt_5 5.0.2
 _ZN21QSortFilterProxyModel4sortEiN2Qt9SortOrderE@Qt_5 5.0.2
 _ZN21QSortFilterProxyModel5clearEv@Qt_5 5.0.2
 _ZN21QSortFilterProxyModel7setDataERK11QModelIndexRK8QVarianti@Qt_5 5.0.2
 _ZN21QSortFilterProxyModel9fetchMoreERK11QModelIndex@Qt_5 5.0.2
 _ZN21QSortFilterProxyModelC1EP7QObject@Qt_5 5.0.2
 _ZN21QSortFilterProxyModelC2EP7QObject@Qt_5 5.0.2
 _ZN21QSortFilterProxyModelD0Ev@Qt_5 5.0.2
 _ZN21QSortFilterProxyModelD1Ev@Qt_5 5.0.2
 _ZN21QSortFilterProxyModelD2Ev@Qt_5 5.0.2
 _ZN22QDynamicMetaObjectDataD0Ev@Qt_5_PRIVATE_API 5.6.0~beta 1
 _ZN22QDynamicMetaObjectDataD1Ev@Qt_5_PRIVATE_API 5.6.0~beta 1
 _ZN22QDynamicMetaObjectDataD2Ev@Qt_5_PRIVATE_API 5.6.0~beta 1
 _ZN23QAbstractAnimationTimer11qt_metacallEN11QMetaObject4CallEiPPv@Qt_5_PRIVATE_API 5.0.2 1
 _ZN23QAbstractAnimationTimer11qt_metacastEPKc@Qt_5_PRIVATE_API 5.0.2 1
 _ZN23QAbstractAnimationTimer16staticMetaObjectE@Qt_5_PRIVATE_API 5.0.2 1
 _ZN23QCoreApplicationPrivate10initLocaleEv@Qt_5_PRIVATE_API 5.0.2 1
 _ZN23QCoreApplicationPrivate10mainThreadEv@Qt_5_PRIVATE_API 5.0.2 1
 _ZN23QCoreApplicationPrivate13checkInstanceEPKc@Qt_5_PRIVATE_API 5.0.2 1
 _ZN23QCoreApplicationPrivate13notify_helperEP7QObjectP6QEvent@Qt_5_PRIVATE_API 5.0.2 1
 _ZN23QCoreApplicationPrivate13setuidAllowedE@Qt_5_PRIVATE_API 5.3.0 1
 _ZN23QCoreApplicationPrivate13theMainThreadE@Qt_5_PRIVATE_API 5.0.2 1
 _ZN23QCoreApplicationPrivate14is_app_closingE@Qt_5_PRIVATE_API 5.0.2 1
 _ZN23QCoreApplicationPrivate14is_app_runningE@Qt_5_PRIVATE_API 5.0.2 1
 _ZN23QCoreApplicationPrivate15eventDispatcherE@Qt_5_PRIVATE_API 5.0.2 1
 _ZN23QCoreApplicationPrivate16sendPostedEventsEP7QObjectiP11QThreadData@Qt_5_PRIVATE_API 5.0.2 1
 _ZN23QCoreApplicationPrivate17cleanupThreadDataEv@Qt_5_PRIVATE_API 5.0.2 1
 _ZN23QCoreApplicationPrivate17removePostedEventEP6QEvent@Qt_5_PRIVATE_API 5.0.2 1
 _ZN23QCoreApplicationPrivate19app_compile_versionE@Qt_5_PRIVATE_API 5.0.2 1
 _ZN23QCoreApplicationPrivate19checkReceiverThreadEP7QObject@Qt_5_PRIVATE_API 5.3.0 1
 _ZN23QCoreApplicationPrivate20eventDispatcherReadyEv@Qt_5_PRIVATE_API 5.2.0~beta1 1
 _ZN23QCoreApplicationPrivate21createEventDispatcherEv@Qt_5_PRIVATE_API 5.0.2 1
 _ZN23QCoreApplicationPrivate21isTranslatorInstalledEP11QTranslator@Qt_5_PRIVATE_API 5.0.2 1
 _ZN23QCoreApplicationPrivate22setApplicationFilePathERK7QString@Qt_5_PRIVATE_API 5.2.1 1
 _ZN23QCoreApplicationPrivate25cachedApplicationFilePathE@Qt_5_PRIVATE_API 5.2.1 1
 _ZN23QCoreApplicationPrivate27processCommandLineArgumentsEv@Qt_5_PRIVATE_API 5.0.2 1
 _ZN23QCoreApplicationPrivate29sendThroughObjectEventFiltersEP7QObjectP6QEvent@Qt_5_PRIVATE_API 5.0.2 1
 _ZN23QCoreApplicationPrivate29threadRequiresCoreApplicationEv@Qt_5_PRIVATE_API 5.6.0~beta 1
 _ZN23QCoreApplicationPrivate34sendThroughApplicationEventFiltersEP7QObjectP6QEvent@Qt_5_PRIVATE_API 5.0.2 1
 _ZN23QCoreApplicationPrivate35appendApplicationPathToLibraryPathsEv@Qt_5_PRIVATE_API 5.0.2 1
 _ZN23QCoreApplicationPrivate3refEv@Qt_5_PRIVATE_API 5.0.2 1
 _ZN23QCoreApplicationPrivate4initEv@Qt_5_PRIVATE_API 5.6.1 1
 _ZN23QCoreApplicationPrivate5derefEv@Qt_5_PRIVATE_API 5.0.2 1
 _ZN23QCoreApplicationPrivate7attribsE@Qt_5_PRIVATE_API 5.0.2 1
 _ZN23QCoreApplicationPrivate9maybeQuitEv@Qt_5_PRIVATE_API 5.0.2 1
 _ZN23QCoreApplicationPrivateC1ERiPPcj@Qt_5_PRIVATE_API 5.0.2 1
 _ZN23QCoreApplicationPrivateC2ERiPPcj@Qt_5_PRIVATE_API 5.0.2 1
 _ZN23QCoreApplicationPrivateD0Ev@Qt_5_PRIVATE_API 5.0.2 1
 _ZN23QCoreApplicationPrivateD1Ev@Qt_5_PRIVATE_API 5.0.2 1
 _ZN23QCoreApplicationPrivateD2Ev@Qt_5_PRIVATE_API 5.0.2 1
 _ZN23QEventTransitionPrivate10unregisterEv@Qt_5_PRIVATE_API 5.0.2 1
 _ZN23QEventTransitionPrivate13maybeRegisterEv@Qt_5_PRIVATE_API 5.0.2 1
 _ZN23QEventTransitionPrivateC1Ev@Qt_5_PRIVATE_API 5.0.2 1
 _ZN23QEventTransitionPrivateC2Ev@Qt_5_PRIVATE_API 5.0.2 1
 _ZN23QEventTransitionPrivateD0Ev@Qt_5_PRIVATE_API 5.6.0~beta 1
 _ZN23QEventTransitionPrivateD1Ev@Qt_5_PRIVATE_API 5.6.0~beta 1
 _ZN23QEventTransitionPrivateD2Ev@Qt_5_PRIVATE_API 5.6.0~beta 1
 _ZN23QParallelAnimationGroup11qt_metacallEN11QMetaObject4CallEiPPv@Qt_5 5.0.2
 _ZN23QParallelAnimationGroup11qt_metacastEPKc@Qt_5 5.0.2
 _ZN23QParallelAnimationGroup11updateStateEN18QAbstractAnimation5StateES1_@Qt_5 5.0.2
 _ZN23QParallelAnimationGroup15updateDirectionEN18QAbstractAnimation9DirectionE@Qt_5 5.0.2
 _ZN23QParallelAnimationGroup16staticMetaObjectE@Qt_5 5.0.2
 _ZN23QParallelAnimationGroup17updateCurrentTimeEi@Qt_5 5.0.2
 _ZN23QParallelAnimationGroup5eventEP6QEvent@Qt_5 5.0.2
 _ZN23QParallelAnimationGroupC1EP7QObject@Qt_5 5.0.2
 _ZN23QParallelAnimationGroupC1ER30QParallelAnimationGroupPrivateP7QObject@Qt_5 5.0.2
 _ZN23QParallelAnimationGroupC2EP7QObject@Qt_5 5.0.2
 _ZN23QParallelAnimationGroupC2ER30QParallelAnimationGroupPrivateP7QObject@Qt_5 5.0.2
 _ZN23QParallelAnimationGroupD0Ev@Qt_5 5.0.2
 _ZN23QParallelAnimationGroupD1Ev@Qt_5 5.0.2
 _ZN23QParallelAnimationGroupD2Ev@Qt_5 5.0.2
 _ZN23QRegularExpressionMatchC1ER30QRegularExpressionMatchPrivate@Qt_5 5.0.2
 _ZN23QRegularExpressionMatchC1ERKS_@Qt_5 5.0.2
 _ZN23QRegularExpressionMatchC1Ev@Qt_5 5.1.0
 _ZN23QRegularExpressionMatchC2ER30QRegularExpressionMatchPrivate@Qt_5 5.0.2
 _ZN23QRegularExpressionMatchC2ERKS_@Qt_5 5.0.2
 _ZN23QRegularExpressionMatchC2Ev@Qt_5 5.1.0
 _ZN23QRegularExpressionMatchD1Ev@Qt_5 5.0.2
 _ZN23QRegularExpressionMatchD2Ev@Qt_5 5.0.2
 _ZN23QRegularExpressionMatchaSERKS_@Qt_5 5.0.2
 _ZN24QAbstractDeclarativeData13parentChangedE@Qt_5_PRIVATE_API 5.0.2 1
 _ZN24QAbstractDeclarativeData13signalEmittedE@Qt_5_PRIVATE_API 5.0.2 1
 _ZN24QAbstractDeclarativeData14destroyed_qml1E@Qt_5_PRIVATE_API 5.2.0~rc1 1
 _ZN24QAbstractDeclarativeData15setWidgetParentE@Qt_5_PRIVATE_API 5.5.0 1
 _ZN24QAbstractDeclarativeData17isSignalConnectedE@Qt_5_PRIVATE_API 5.0.2 1
 _ZN24QAbstractDeclarativeData9destroyedE@Qt_5_PRIVATE_API 5.0.2 1
 _ZN24QAbstractDeclarativeData9receiversE@Qt_5_PRIVATE_API 5.0.2 1
 _ZN24QAbstractEventDispatcher10startingUpEv@Qt_5 5.0.2
 _ZN24QAbstractEventDispatcher11closingDownEv@Qt_5 5.0.2
 _ZN24QAbstractEventDispatcher11qt_metacallEN11QMetaObject4CallEiPPv@Qt_5 5.0.2
 _ZN24QAbstractEventDispatcher11qt_metacastEPKc@Qt_5 5.0.2
 _ZN24QAbstractEventDispatcher12aboutToBlockEv@Qt_5 5.0.2
 _ZN24QAbstractEventDispatcher13registerTimerEiN2Qt9TimerTypeEP7QObject@Qt_5 5.0.2
 _ZN24QAbstractEventDispatcher16staticMetaObjectE@Qt_5 5.0.2
 _ZN24QAbstractEventDispatcher17filterNativeEventERK10QByteArrayPvPl@Qt_5 5.0.2
 _ZN24QAbstractEventDispatcher23removeNativeEventFilterEP26QAbstractNativeEventFilter@Qt_5 5.0.2
 _ZN24QAbstractEventDispatcher24installNativeEventFilterEP26QAbstractNativeEventFilter@Qt_5 5.0.2
 _ZN24QAbstractEventDispatcher5awakeEv@Qt_5 5.0.2
 _ZN24QAbstractEventDispatcher8instanceEP7QThread@Qt_5 5.0.2
 _ZN24QAbstractEventDispatcherC1EP7QObject@Qt_5 5.0.2
 _ZN24QAbstractEventDispatcherC1ER31QAbstractEventDispatcherPrivateP7QObject@Qt_5_PRIVATE_API 5.0.2 1
 _ZN24QAbstractEventDispatcherC2EP7QObject@Qt_5 5.0.2
 _ZN24QAbstractEventDispatcherC2ER31QAbstractEventDispatcherPrivateP7QObject@Qt_5_PRIVATE_API 5.0.2 1
 _ZN24QAbstractEventDispatcherD0Ev@Qt_5 5.0.2
 _ZN24QAbstractEventDispatcherD1Ev@Qt_5 5.0.2
 _ZN24QAbstractEventDispatcherD2Ev@Qt_5 5.0.2
 _ZN24QNonContiguousByteDevice11qt_metacallEN11QMetaObject4CallEiPPv@Qt_5_PRIVATE_API 5.0.2 1
 _ZN24QNonContiguousByteDevice11qt_metacastEPKc@Qt_5_PRIVATE_API 5.0.2 1
 _ZN24QNonContiguousByteDevice12readProgressExx@Qt_5_PRIVATE_API 5.0.2 1
 _ZN24QNonContiguousByteDevice16staticMetaObjectE@Qt_5_PRIVATE_API 5.0.2 1
 _ZN24QNonContiguousByteDevice9readyReadEv@Qt_5_PRIVATE_API 5.0.2 1
 _ZN24QNonContiguousByteDeviceC1Ev@Qt_5_PRIVATE_API 5.0.2 1
 _ZN24QNonContiguousByteDeviceC2Ev@Qt_5_PRIVATE_API 5.0.2 1
 _ZN24QNonContiguousByteDeviceD0Ev@Qt_5_PRIVATE_API 5.0.2 1
 _ZN24QNonContiguousByteDeviceD1Ev@Qt_5_PRIVATE_API 5.0.2 1
 _ZN24QNonContiguousByteDeviceD2Ev@Qt_5_PRIVATE_API 5.0.2 1
 _ZN24QVariantAnimationPrivate15getInterpolatorEi@Qt_5 5.0.2
 _ZN24QXmlStreamEntityResolver13resolveEntityERK7QStringS2_@Qt_5 5.0.2
 _ZN24QXmlStreamEntityResolver23resolveUndeclaredEntityERK7QString@Qt_5 5.0.2
 _ZN24QXmlStreamEntityResolverD0Ev@Qt_5 5.0.2
 _ZN24QXmlStreamEntityResolverD1Ev@Qt_5 5.0.2
 _ZN24QXmlStreamEntityResolverD2Ev@Qt_5 5.0.2
 _ZN25QAbstractItemModelPrivate10Persistent16insertMultiAtEndERK11QModelIndexP25QPersistentModelIndexData@Qt_5_PRIVATE_API 5.0.2 1
 _ZN25QAbstractItemModelPrivate10itemsMovedERK11QModelIndexiiS2_iN2Qt11OrientationE@Qt_5_PRIVATE_API 5.0.2 1
 _ZN25QAbstractItemModelPrivate11rowsRemovedERK11QModelIndexii@Qt_5_PRIVATE_API 5.0.2 1
 _ZN25QAbstractItemModelPrivate12rowsInsertedERK11QModelIndexii@Qt_5_PRIVATE_API 5.0.2 1
 _ZN25QAbstractItemModelPrivate14columnsRemovedERK11QModelIndexii@Qt_5_PRIVATE_API 5.0.2 1
 _ZN25QAbstractItemModelPrivate15columnsInsertedERK11QModelIndexii@Qt_5_PRIVATE_API 5.0.2 1
 _ZN25QAbstractItemModelPrivate15variantLessThanERK8QVariantS2_@Qt_5_PRIVATE_API 5.0.2 1
 _ZN25QAbstractItemModelPrivate16defaultRoleNamesEv@Qt_5_PRIVATE_API 5.0.2 1
 _ZN25QAbstractItemModelPrivate16staticEmptyModelEv@Qt_5_PRIVATE_API 5.0.2 1
 _ZN25QAbstractItemModelPrivate19itemsAboutToBeMovedERK11QModelIndexiiS2_iN2Qt11OrientationE@Qt_5_PRIVATE_API 5.0.2 1
 _ZN25QAbstractItemModelPrivate20rowsAboutToBeRemovedERK11QModelIndexii@Qt_5_PRIVATE_API 5.0.2 1
 _ZN25QAbstractItemModelPrivate21movePersistentIndexesERK7QVectorIP25QPersistentModelIndexDataEiRK11QModelIndexN2Qt11OrientationE@Qt_5_PRIVATE_API 5.5.0 1
 _ZN25QAbstractItemModelPrivate21rowsAboutToBeInsertedERK11QModelIndexii@Qt_5_PRIVATE_API 5.0.2 1
 _ZN25QAbstractItemModelPrivate23columnsAboutToBeRemovedERK11QModelIndexii@Qt_5_PRIVATE_API 5.0.2 1
 _ZN25QAbstractItemModelPrivate24columnsAboutToBeInsertedERK11QModelIndexii@Qt_5_PRIVATE_API 5.0.2 1
 _ZN25QAbstractItemModelPrivate25invalidatePersistentIndexERK11QModelIndex@Qt_5_PRIVATE_API 5.7.0 1
 _ZN25QAbstractItemModelPrivate25removePersistentIndexDataEP25QPersistentModelIndexData@Qt_5_PRIVATE_API 5.0.2 1
 _ZN25QAbstractItemModelPrivate27invalidatePersistentIndexesEv@Qt_5_PRIVATE_API 5.7.0 1
 _ZN25QAbstractItemModelPrivate9allowMoveERK11QModelIndexiiS2_iN2Qt11OrientationE@Qt_5_PRIVATE_API 5.0.2 1
 _ZN25QAbstractItemModelPrivateC1Ev@Qt_5_PRIVATE_API 5.7.0 1
 _ZN25QAbstractItemModelPrivateC2Ev@Qt_5_PRIVATE_API 5.7.0 1
 _ZN25QAbstractItemModelPrivateD0Ev@Qt_5_PRIVATE_API 5.6.0~beta 1
 _ZN25QAbstractItemModelPrivateD1Ev@Qt_5_PRIVATE_API 5.6.0~beta 1
 _ZN25QAbstractItemModelPrivateD2Ev@Qt_5_PRIVATE_API 5.6.0~beta 1
 _ZN25QSequentialAnimationGroup11insertPauseEii@Qt_5 5.0.2
 _ZN25QSequentialAnimationGroup11qt_metacallEN11QMetaObject4CallEiPPv@Qt_5 5.0.2
 _ZN25QSequentialAnimationGroup11qt_metacastEPKc@Qt_5 5.0.2
 _ZN25QSequentialAnimationGroup11updateStateEN18QAbstractAnimation5StateES1_@Qt_5 5.0.2
 _ZN25QSequentialAnimationGroup15updateDirectionEN18QAbstractAnimation9DirectionE@Qt_5 5.0.2
 _ZN25QSequentialAnimationGroup16staticMetaObjectE@Qt_5 5.0.2
 _ZN25QSequentialAnimationGroup17updateCurrentTimeEi@Qt_5 5.0.2
 _ZN25QSequentialAnimationGroup23currentAnimationChangedEP18QAbstractAnimation@Qt_5 5.0.2
 _ZN25QSequentialAnimationGroup5eventEP6QEvent@Qt_5 5.0.2
 _ZN25QSequentialAnimationGroup8addPauseEi@Qt_5 5.0.2
 _ZN25QSequentialAnimationGroupC1EP7QObject@Qt_5 5.0.2
 _ZN25QSequentialAnimationGroupC1ER32QSequentialAnimationGroupPrivateP7QObject@Qt_5 5.0.2
 _ZN25QSequentialAnimationGroupC2EP7QObject@Qt_5 5.0.2
 _ZN25QSequentialAnimationGroupC2ER32QSequentialAnimationGroupPrivateP7QObject@Qt_5 5.0.2
 _ZN25QSequentialAnimationGroupD0Ev@Qt_5 5.0.2
 _ZN25QSequentialAnimationGroupD1Ev@Qt_5 5.0.2
 _ZN25QSequentialAnimationGroupD2Ev@Qt_5 5.0.2
 _ZN26QAbstractDynamicMetaObjectD0Ev@Qt_5_PRIVATE_API 5.6.0~beta 1
 _ZN26QAbstractDynamicMetaObjectD1Ev@Qt_5_PRIVATE_API 5.6.0~beta 1
 _ZN26QAbstractDynamicMetaObjectD2Ev@Qt_5_PRIVATE_API 5.6.0~beta 1
 _ZN26QAbstractFileEngineHandlerC1Ev@Qt_5_PRIVATE_API 5.1.0 1
 _ZN26QAbstractFileEngineHandlerC2Ev@Qt_5_PRIVATE_API 5.1.0 1
 _ZN26QAbstractFileEngineHandlerD0Ev@Qt_5_PRIVATE_API 5.1.0 1
 _ZN26QAbstractFileEngineHandlerD1Ev@Qt_5_PRIVATE_API 5.1.0 1
 _ZN26QAbstractFileEngineHandlerD2Ev@Qt_5_PRIVATE_API 5.1.0 1
 _ZN26QAbstractNativeEventFilterC1Ev@Qt_5 5.0.2
 _ZN26QAbstractNativeEventFilterC2Ev@Qt_5 5.0.2
 _ZN26QAbstractNativeEventFilterD0Ev@Qt_5 5.0.2
 _ZN26QAbstractNativeEventFilterD1Ev@Qt_5 5.0.2
 _ZN26QAbstractNativeEventFilterD2Ev@Qt_5 5.0.2
 _ZN26QAbstractProxyModelPrivate23_q_sourceModelDestroyedEv@Qt_5_PRIVATE_API 5.0.2 1
 _ZN26QAbstractTransitionPrivate13callEventTestEP6QEvent@Qt_5_PRIVATE_API 5.0.2 1
 _ZN26QAbstractTransitionPrivate13emitTriggeredEv@Qt_5_PRIVATE_API 5.0.2 1
 _ZN26QAbstractTransitionPrivate16callOnTransitionEP6QEvent@Qt_5_PRIVATE_API 5.0.2 1
 _ZN26QAbstractTransitionPrivateC1Ev@Qt_5_PRIVATE_API 5.0.2 1
 _ZN26QAbstractTransitionPrivateC2Ev@Qt_5_PRIVATE_API 5.0.2 1
 _ZN26QMessageAuthenticationCode4hashERK10QByteArrayS2_N18QCryptographicHash9AlgorithmE@Qt_5 5.1.0
 _ZN26QMessageAuthenticationCode5resetEv@Qt_5 5.1.0
 _ZN26QMessageAuthenticationCode6setKeyERK10QByteArray@Qt_5 5.1.0
 _ZN26QMessageAuthenticationCode7addDataEP9QIODevice@Qt_5 5.1.0
 _ZN26QMessageAuthenticationCode7addDataEPKci@Qt_5 5.1.0
 _ZN26QMessageAuthenticationCode7addDataERK10QByteArray@Qt_5 5.1.0
 _ZN26QMessageAuthenticationCodeC1EN18QCryptographicHash9AlgorithmERK10QByteArray@Qt_5 5.1.0
 _ZN26QMessageAuthenticationCodeC2EN18QCryptographicHash9AlgorithmERK10QByteArray@Qt_5 5.1.0
 _ZN26QMessageAuthenticationCodeD1Ev@Qt_5 5.1.0
 _ZN26QMessageAuthenticationCodeD2Ev@Qt_5 5.1.0
 _ZN27QAbstractFileEngineIterator7setPathERK7QString@Qt_5_PRIVATE_API 5.1.0 1
 _ZN27QAbstractFileEngineIteratorC1E6QFlagsIN4QDir6FilterEERK11QStringList@Qt_5_PRIVATE_API 5.1.0 1
 _ZN27QAbstractFileEngineIteratorC2E6QFlagsIN4QDir6FilterEERK11QStringList@Qt_5_PRIVATE_API 5.1.0 1
 _ZN27QAbstractFileEngineIteratorD0Ev@Qt_5_PRIVATE_API 5.1.0 1
 _ZN27QAbstractFileEngineIteratorD1Ev@Qt_5_PRIVATE_API 5.1.0 1
 _ZN27QAbstractFileEngineIteratorD2Ev@Qt_5_PRIVATE_API 5.1.0 1
 _ZN27QDynamicPropertyChangeEventC1ERK10QByteArray@Qt_5 5.0.2
 _ZN27QDynamicPropertyChangeEventC2ERK10QByteArray@Qt_5 5.0.2
 _ZN27QDynamicPropertyChangeEventD0Ev@Qt_5 5.0.2
 _ZN27QDynamicPropertyChangeEventD1Ev@Qt_5 5.0.2
 _ZN27QDynamicPropertyChangeEventD2Ev@Qt_5 5.0.2
 _ZN27QEventDispatcherGlibPrivate31runTimersOnceWithNormalPriorityEv@Qt_5_PRIVATE_API 5.0.2 1
 _ZN27QEventDispatcherGlibPrivateC1EP13_GMainContext@Qt_5_PRIVATE_API 5.0.2 1
 _ZN27QEventDispatcherGlibPrivateC2EP13_GMainContext@Qt_5_PRIVATE_API 5.0.2 1
 _ZN27QEventDispatcherUNIXPrivate14activateTimersEv@Qt_5_PRIVATE_API 5.7.0 1
 _ZN27QEventDispatcherUNIXPrivate23activateSocketNotifiersEv@Qt_5_PRIVATE_API 5.7.0 1
 _ZN27QEventDispatcherUNIXPrivate24setSocketNotifierPendingEP15QSocketNotifier@Qt_5_PRIVATE_API 5.7.0 1
 _ZN27QEventDispatcherUNIXPrivate26markPendingSocketNotifiersEv@Qt_5_PRIVATE_API 5.7.0 1
 _ZN27QEventDispatcherUNIXPrivateC1Ev@Qt_5_PRIVATE_API 5.0.2 1
 _ZN27QEventDispatcherUNIXPrivateC2Ev@Qt_5_PRIVATE_API 5.0.2 1
 _ZN27QEventDispatcherUNIXPrivateD0Ev@Qt_5_PRIVATE_API 5.0.2 1
 _ZN27QEventDispatcherUNIXPrivateD1Ev@Qt_5_PRIVATE_API 5.0.2 1
 _ZN27QEventDispatcherUNIXPrivateD2Ev@Qt_5_PRIVATE_API 5.0.2 1
 _ZN27QXmlStreamEntityDeclarationC1ERKS_@Qt_5 5.0.2
 _ZN27QXmlStreamEntityDeclarationC1Ev@Qt_5 5.0.2
 _ZN27QXmlStreamEntityDeclarationC2ERKS_@Qt_5 5.0.2
 _ZN27QXmlStreamEntityDeclarationC2Ev@Qt_5 5.0.2
 _ZN27QXmlStreamEntityDeclarationD1Ev@Qt_5 5.0.2
 _ZN27QXmlStreamEntityDeclarationD2Ev@Qt_5 5.0.2
 _ZN27QXmlStreamEntityDeclarationaSERKS_@Qt_5 5.0.2
 _ZN29QXmlStreamNotationDeclarationC1ERKS_@Qt_5 5.0.2
 _ZN29QXmlStreamNotationDeclarationC1Ev@Qt_5 5.0.2
 _ZN29QXmlStreamNotationDeclarationC2ERKS_@Qt_5 5.0.2
 _ZN29QXmlStreamNotationDeclarationC2Ev@Qt_5 5.0.2
 _ZN29QXmlStreamNotationDeclarationD1Ev@Qt_5 5.0.2
 _ZN29QXmlStreamNotationDeclarationD2Ev@Qt_5 5.0.2
 _ZN29QXmlStreamNotationDeclarationaSERKS_@Qt_5 5.0.2
 _ZN30QXmlStreamNamespaceDeclarationC1ERK7QStringS2_@Qt_5 5.0.2
 _ZN30QXmlStreamNamespaceDeclarationC1ERKS_@Qt_5 5.0.2
 _ZN30QXmlStreamNamespaceDeclarationC1Ev@Qt_5 5.0.2
 _ZN30QXmlStreamNamespaceDeclarationC2ERK7QStringS2_@Qt_5 5.0.2
 _ZN30QXmlStreamNamespaceDeclarationC2ERKS_@Qt_5 5.0.2
 _ZN30QXmlStreamNamespaceDeclarationC2Ev@Qt_5 5.0.2
 _ZN30QXmlStreamNamespaceDeclarationD1Ev@Qt_5 5.0.2
 _ZN30QXmlStreamNamespaceDeclarationD2Ev@Qt_5 5.0.2
 _ZN30QXmlStreamNamespaceDeclarationaSERKS_@Qt_5 5.0.2
 _ZN31QAbstractEventDispatcherPrivate14releaseTimerIdEi@Qt_5_PRIVATE_API 5.0.2 1
 _ZN31QAbstractEventDispatcherPrivate15allocateTimerIdEv@Qt_5_PRIVATE_API 5.0.2 1
 _ZN31QNonContiguousByteDeviceFactory12createSharedE14QSharedPointerI11QRingBufferE@Qt_5_PRIVATE_API 5.4.0 1
 _ZN31QNonContiguousByteDeviceFactory12createSharedEP10QByteArray@Qt_5_PRIVATE_API 5.4.0 1
 _ZN31QNonContiguousByteDeviceFactory12createSharedEP9QIODevice@Qt_5_PRIVATE_API 5.4.0 1
 _ZN31QNonContiguousByteDeviceFactory4wrapEP24QNonContiguousByteDevice@Qt_5_PRIVATE_API 5.0.2 1
 _ZN31QNonContiguousByteDeviceFactory6createE14QSharedPointerI11QRingBufferE@Qt_5_PRIVATE_API 5.0.2 1
 _ZN31QNonContiguousByteDeviceFactory6createEP10QByteArray@Qt_5_PRIVATE_API 5.0.2 1
 _ZN31QNonContiguousByteDeviceFactory6createEP9QIODevice@Qt_5_PRIVATE_API 5.0.2 1
 _ZN31QRegularExpressionMatchIterator4nextEv@Qt_5 5.0.2
 _ZN31QRegularExpressionMatchIteratorC1ER38QRegularExpressionMatchIteratorPrivate@Qt_5 5.0.2
 _ZN31QRegularExpressionMatchIteratorC1ERKS_@Qt_5 5.0.2
 _ZN31QRegularExpressionMatchIteratorC1Ev@Qt_5 5.1.0
 _ZN31QRegularExpressionMatchIteratorC2ER38QRegularExpressionMatchIteratorPrivate@Qt_5 5.0.2
 _ZN31QRegularExpressionMatchIteratorC2ERKS_@Qt_5 5.0.2
 _ZN31QRegularExpressionMatchIteratorC2Ev@Qt_5 5.1.0
 _ZN31QRegularExpressionMatchIteratorD1Ev@Qt_5 5.0.2
 _ZN31QRegularExpressionMatchIteratorD2Ev@Qt_5 5.0.2
 _ZN31QRegularExpressionMatchIteratoraSERKS_@Qt_5 5.0.2
 _ZN4QDir10setCurrentERK7QString@Qt_5 5.0.2
 _ZN4QDir10setSortingE6QFlagsINS_8SortFlagEE@Qt_5 5.0.2
 _ZN4QDir11currentPathEv@Qt_5 5.0.2
 _ZN4QDir11searchPathsERK7QString@Qt_5 5.0.2
 _ZN4QDir12makeAbsoluteEv@Qt_5 5.0.2
 _ZN4QDir13addSearchPathERK7QStringS2_@Qt_5 5.0.2
 _ZN4QDir14isRelativePathERK7QString@Qt_5 5.0.2
 _ZN4QDir14setNameFiltersERK11QStringList@Qt_5 5.0.2
 _ZN4QDir14setSearchPathsERK7QStringRK11QStringList@Qt_5 5.0.2
 _ZN4QDir17removeRecursivelyEv@Qt_5 5.0.2
 _ZN4QDir18toNativeSeparatorsERK7QString@Qt_5 5.0.2
 _ZN4QDir20fromNativeSeparatorsERK7QString@Qt_5 5.0.2
 _ZN4QDir21addResourceSearchPathERK7QString@Qt_5 5.0.2
 _ZN4QDir21nameFiltersFromStringERK7QString@Qt_5 5.0.2
 _ZN4QDir2cdERK7QString@Qt_5 5.0.2
 _ZN4QDir4cdUpEv@Qt_5 5.0.2
 _ZN4QDir5matchERK11QStringListRK7QString@Qt_5 5.0.2
 _ZN4QDir5matchERK7QStringS2_@Qt_5 5.0.2
 _ZN4QDir6d_funcEv@Qt_5 5.0.2
 _ZN4QDir6drivesEv@Qt_5 5.0.2
 _ZN4QDir6removeERK7QString@Qt_5 5.0.2
 _ZN4QDir6renameERK7QStringS2_@Qt_5 5.0.2
 _ZN4QDir7setPathERK7QString@Qt_5 5.0.2
 _ZN4QDir8homePathEv@Qt_5 5.0.2
 _ZN4QDir8rootPathEv@Qt_5 5.0.2
 _ZN4QDir8tempPathEv@Qt_5 5.0.2
 _ZN4QDir9cleanPathERK7QString@Qt_5 5.0.2
 _ZN4QDir9separatorEv@Qt_5 5.0.2
 _ZN4QDir9setFilterE6QFlagsINS_6FilterEE@Qt_5 5.0.2
 _ZN4QDirC1ER11QDirPrivate@Qt_5 5.0.2
 _ZN4QDirC1ERK7QString@Qt_5 5.0.2
 _ZN4QDirC1ERK7QStringS2_6QFlagsINS_8SortFlagEES3_INS_6FilterEE@Qt_5 5.0.2
 _ZN4QDirC1ERKS_@Qt_5 5.0.2
 _ZN4QDirC2ER11QDirPrivate@Qt_5 5.0.2
 _ZN4QDirC2ERK7QString@Qt_5 5.0.2
 _ZN4QDirC2ERK7QStringS2_6QFlagsINS_8SortFlagEES3_INS_6FilterEE@Qt_5 5.0.2
 _ZN4QDirC2ERKS_@Qt_5 5.0.2
 _ZN4QDirD1Ev@Qt_5 5.0.2
 _ZN4QDirD2Ev@Qt_5 5.0.2
 _ZN4QDiraSERK7QString@Qt_5 5.0.2
 _ZN4QDiraSERKS_@Qt_5 5.0.2
 _ZN4QUrl11fromEncodedERK10QByteArrayNS_11ParsingModeE@Qt_5 5.0.2
 _ZN4QUrl11setFragmentERK7QStringNS_11ParsingModeE@Qt_5 5.0.2
 _ZN4QUrl11setPasswordERK7QStringNS_11ParsingModeE@Qt_5 5.0.2
 _ZN4QUrl11setUserInfoERK7QStringNS_11ParsingModeE@Qt_5 5.0.2
 _ZN4QUrl11setUserNameERK7QStringNS_11ParsingModeE@Qt_5 5.0.2
 _ZN4QUrl12idnWhitelistEv@Qt_5 5.0.2
 _ZN4QUrl12setAuthorityERK7QStringNS_11ParsingModeE@Qt_5 5.0.2
 _ZN4QUrl12toStringListERK5QListIS_E12QUrlTwoFlagsINS_19UrlFormattingOptionENS_25ComponentFormattingOptionEE@Qt_5 5.1.0
 _ZN4QUrl13fromLocalFileERK7QString@Qt_5 5.0.2
 _ZN4QUrl13fromUserInputERK7QString@Qt_5 5.0.2
 _ZN4QUrl13fromUserInputERK7QStringS2_6QFlagsINS_25UserInputResolutionOptionEE@Qt_5 5.4.0
 _ZN4QUrl14fromStringListERK11QStringListNS_11ParsingModeE@Qt_5 5.1.0
 _ZN4QUrl15setIdnWhitelistERK11QStringList@Qt_5 5.0.2
 _ZN4QUrl17toPercentEncodingERK7QStringRK10QByteArrayS5_@Qt_5 5.0.2
 _ZN4QUrl19fromPercentEncodingERK10QByteArray@Qt_5 5.0.2
 _ZN4QUrl27fromEncodedComponent_helperERK10QByteArray@Qt_5 5.0.2
 _ZN4QUrl5clearEv@Qt_5 5.0.2
 _ZN4QUrl5toAceERK7QString@Qt_5 5.0.2
 _ZN4QUrl6detachEv@Qt_5 5.0.2
 _ZN4QUrl6setUrlERK7QStringNS_11ParsingModeE@Qt_5 5.0.2
 _ZN4QUrl7fromAceERK10QByteArray@Qt_5 5.0.2
 _ZN4QUrl7setHostERK7QStringNS_11ParsingModeE@Qt_5 5.0.2
 _ZN4QUrl7setPathERK7QStringNS_11ParsingModeE@Qt_5 5.0.2
 _ZN4QUrl7setPortEi@Qt_5 5.0.2
 _ZN4QUrl8setQueryERK7QStringNS_11ParsingModeE@Qt_5 5.0.2
 _ZN4QUrl8setQueryERK9QUrlQuery@Qt_5 5.0.2
 _ZN4QUrl9setSchemeERK7QString@Qt_5 5.0.2
 _ZN4QUrlC1ERK7QStringNS_11ParsingModeE@Qt_5 5.0.2
 _ZN4QUrlC1ERKS_@Qt_5 5.0.2
 _ZN4QUrlC1Ev@Qt_5 5.0.2
 _ZN4QUrlC2ERK7QStringNS_11ParsingModeE@Qt_5 5.0.2
 _ZN4QUrlC2ERKS_@Qt_5 5.0.2
 _ZN4QUrlC2Ev@Qt_5 5.0.2
 _ZN4QUrlD1Ev@Qt_5 5.0.2
 _ZN4QUrlD2Ev@Qt_5 5.0.2
 _ZN4QUrlaSERK7QString@Qt_5 5.0.2
 _ZN4QUrlaSERKS_@Qt_5 5.0.2
 _ZN5QChar10digitValueEj@Qt_5 5.0.2
 _ZN5QChar11hasMirroredEj@Qt_5 5.0.2
 _ZN5QChar11joiningTypeEj@Qt_5 5.3.0
 _ZN5QChar11toTitleCaseEj@Qt_5 5.0.2
 _ZN5QChar12mirroredCharEj@Qt_5 5.0.2
 _ZN5QChar12toCaseFoldedEj@Qt_5 5.0.2
 _ZN5QChar13decompositionEj@Qt_5 5.0.2
 _ZN5QChar14combiningClassEj@Qt_5 5.0.2
 _ZN5QChar14isSpace_helperEj@Qt_5 5.0.2
 _ZN5QChar14unicodeVersionEj@Qt_5 5.0.2
 _ZN5QChar15isLetter_helperEj@Qt_5 5.0.2
 _ZN5QChar15isNumber_helperEj@Qt_5 5.0.2
 _ZN5QChar16decompositionTagEj@Qt_5 5.0.2
 _ZN5QChar21currentUnicodeVersionEv@Qt_5 5.0.2
 _ZN5QChar23isLetterOrNumber_helperEj@Qt_5 5.0.2
 _ZN5QChar6isMarkEj@Qt_5 5.0.2
 _ZN5QChar6scriptEj@Qt_5 5.1.0
 _ZN5QChar7isPrintEj@Qt_5 5.0.2
 _ZN5QChar7isPunctEj@Qt_5 5.0.2
 _ZN5QChar7joiningEj@Qt_5 5.0.2
 _ZN5QChar7toLowerEj@Qt_5 5.0.2
 _ZN5QChar7toUpperEj@Qt_5 5.0.2
 _ZN5QChar8categoryEj@Qt_5 5.0.2
 _ZN5QChar8isSymbolEj@Qt_5 5.0.2
 _ZN5QChar9directionEj@Qt_5 5.0.2
 _ZN5QDate10fromStringERK7QStringN2Qt10DateFormatE@Qt_5 5.0.2
 _ZN5QDate10fromStringERK7QStringS2_@Qt_5 5.0.2
 _ZN5QDate10isLeapYearEi@Qt_5 5.0.2
 _ZN5QDate11currentDateEv@Qt_5 5.0.2
 _ZN5QDate11longDayNameEiNS_13MonthNameTypeE@Qt_5 5.0.2
 _ZN5QDate12shortDayNameEiNS_13MonthNameTypeE@Qt_5 5.0.2
 _ZN5QDate13longMonthNameEiNS_13MonthNameTypeE@Qt_5 5.0.2
 _ZN5QDate14shortMonthNameEiNS_13MonthNameTypeE@Qt_5 5.0.2
 _ZN5QDate7getDateEPiS0_S0_@Qt_5 5.0.2
 _ZN5QDate7isValidEiii@Qt_5 5.0.2
 _ZN5QDate7setDateEiii@Qt_5 5.0.2
 _ZN5QDateC1Eiii@Qt_5 5.0.2
 _ZN5QDateC2Eiii@Qt_5 5.0.2
 _ZN5QFile11permissionsERK7QString@Qt_5 5.0.2
 _ZN5QFile11qt_metacallEN11QMetaObject4CallEiPPv@Qt_5 5.0.2
 _ZN5QFile11qt_metacastEPKc@Qt_5 5.0.2
 _ZN5QFile11setFileNameERK7QString@Qt_5 5.0.2
 _ZN5QFile14setPermissionsE6QFlagsIN11QFileDevice10PermissionEE@Qt_5 5.0.2
 _ZN5QFile14setPermissionsERK7QString6QFlagsIN11QFileDevice10PermissionEE@Qt_5 5.0.2
 _ZN5QFile16staticMetaObjectE@Qt_5 5.0.2
 _ZN5QFile4copyERK7QString@Qt_5 5.0.2
 _ZN5QFile4copyERK7QStringS2_@Qt_5 5.0.2
 _ZN5QFile4linkERK7QString@Qt_5 5.0.2
 _ZN5QFile4linkERK7QStringS2_@Qt_5 5.0.2
 _ZN5QFile4openE6QFlagsIN9QIODevice12OpenModeFlagEE@Qt_5 5.0.2
 _ZN5QFile4openEP8_IO_FILE6QFlagsIN9QIODevice12OpenModeFlagEES2_IN11QFileDevice14FileHandleFlagEE@Qt_5 5.0.2
 _ZN5QFile4openEi6QFlagsIN9QIODevice12OpenModeFlagEES0_IN11QFileDevice14FileHandleFlagEE@Qt_5 5.0.2
 _ZN5QFile6existsERK7QString@Qt_5 5.0.2
 _ZN5QFile6removeERK7QString@Qt_5 5.0.2
 _ZN5QFile6removeEv@Qt_5 5.0.2
 _ZN5QFile6renameERK7QString@Qt_5 5.0.2
 _ZN5QFile6renameERK7QStringS2_@Qt_5 5.0.2
 _ZN5QFile6resizeERK7QStringx@Qt_5 5.0.2
 _ZN5QFile6resizeEx@Qt_5 5.0.2
 _ZN5QFile8readLinkERK7QString@Qt_5 5.0.2
 _ZN5QFileC1EP7QObject@Qt_5 5.0.2
 _ZN5QFileC1ER12QFilePrivateP7QObject@Qt_5 5.0.2
 _ZN5QFileC1ERK7QString@Qt_5 5.0.2
 _ZN5QFileC1ERK7QStringP7QObject@Qt_5 5.0.2
 _ZN5QFileC1Ev@Qt_5 5.0.2
 _ZN5QFileC2EP7QObject@Qt_5 5.0.2
 _ZN5QFileC2ER12QFilePrivateP7QObject@Qt_5 5.0.2
 _ZN5QFileC2ERK7QString@Qt_5 5.0.2
 _ZN5QFileC2ERK7QStringP7QObject@Qt_5 5.0.2
 _ZN5QFileC2Ev@Qt_5 5.0.2
 _ZN5QFileD0Ev@Qt_5 5.0.2
 _ZN5QFileD1Ev@Qt_5 5.0.2
 _ZN5QFileD2Ev@Qt_5 5.0.2
 _ZN5QSize9transposeEv@Qt_5 5.0.2
 _ZN5QTime10fromStringERK7QStringN2Qt10DateFormatE@Qt_5 5.0.2
 _ZN5QTime10fromStringERK7QStringS2_@Qt_5 5.0.2
 _ZN5QTime11currentTimeEv@Qt_5 5.0.2
 _ZN5QTime5startEv@Qt_5 5.0.2
 _ZN5QTime6setHMSEiiii@Qt_5 5.0.2
 _ZN5QTime7isValidEiiii@Qt_5 5.0.2
 _ZN5QTime7restartEv@Qt_5 5.0.2
 _ZN5QTimeC1Eiiii@Qt_5 5.0.2
 _ZN5QTimeC2Eiiii@Qt_5 5.0.2
 _ZN5QUuid10createUuidEv@Qt_5 5.0.2
 _ZN5QUuid11fromRfc4122ERK10QByteArray@Qt_5 5.0.2
 _ZN5QUuid12createUuidV3ERKS_RK10QByteArray@Qt_5 5.0.2
 _ZN5QUuid12createUuidV5ERKS_RK10QByteArray@Qt_5 5.0.2
 _ZN5QUuidC1EPKc@Qt_5 5.0.2
 _ZN5QUuidC1ERK10QByteArray@Qt_5 5.0.2
 _ZN5QUuidC1ERK7QString@Qt_5 5.0.2
 _ZN5QUuidC2EPKc@Qt_5 5.0.2
 _ZN5QUuidC2ERK10QByteArray@Qt_5 5.0.2
 _ZN5QUuidC2ERK7QString@Qt_5 5.0.2
 _ZN6QDebug11resetFormatEv@Qt_5 5.4.0
 (subst)_ZN6QDebug12putByteArrayEPKc{size_t}NS_13Latin1ContentE@Qt_5 5.5.0
 _ZN6QDebug7putUcs4Ej@Qt_5 5.5.0
 (subst)_ZN6QDebug9putStringEPK5QChar{size_t}@Qt_5 5.5.0
 _ZN6QDebugD1Ev@Qt_5 5.4.0
 _ZN6QDebugD2Ev@Qt_5 5.4.0
 _ZN6QEvent16staticMetaObjectE@Qt_5 5.0.2
 _ZN6QEvent17registerEventTypeEi@Qt_5 5.0.2
 _ZN6QEventC1ENS_4TypeE@Qt_5 5.0.2
 _ZN6QEventC1ERKS_@Qt_5 5.0.2
 _ZN6QEventC2ENS_4TypeE@Qt_5 5.0.2
 _ZN6QEventC2ERKS_@Qt_5 5.0.2
 _ZN6QEventD0Ev@Qt_5 5.0.2
 _ZN6QEventD1Ev@Qt_5 5.0.2
 _ZN6QEventD2Ev@Qt_5 5.0.2
 _ZN6QEventaSERKS_@Qt_5 5.0.2
 _ZN6QLineF8setAngleEd@Qt_5 5.2.0
 _ZN6QLineF9fromPolarEdd@Qt_5 5.2.0
 _ZN6QMutex4lockEv@Qt_5 5.0.2
 _ZN6QMutex6unlockEv@Qt_5 5.0.2
 _ZN6QMutex7tryLockEi@Qt_5 5.0.2
 _ZN6QMutexC1ENS_13RecursionModeE@Qt_5 5.0.2
 _ZN6QMutexC2ENS_13RecursionModeE@Qt_5 5.0.2
 _ZN6QMutexD1Ev@Qt_5 5.0.2
 _ZN6QMutexD2Ev@Qt_5 5.0.2
 _ZN6QSizeF9transposeEv@Qt_5 5.0.2
 _ZN6QState11qt_metacallEN11QMetaObject4CallEiPPv@Qt_5 5.0.2
 _ZN6QState11qt_metacastEPKc@Qt_5 5.0.2
 _ZN6QState12setChildModeENS_9ChildModeE@Qt_5 5.0.2
 _ZN6QState13addTransitionEP14QAbstractState@Qt_5 5.0.2
 _ZN6QState13addTransitionEP19QAbstractTransition@Qt_5 5.0.2
 _ZN6QState13addTransitionEPK7QObjectPKcP14QAbstractState@Qt_5 5.0.2
 _ZN6QState13setErrorStateEP14QAbstractState@Qt_5 5.0.2
 _ZN6QState14assignPropertyEP7QObjectPKcRK8QVariant@Qt_5 5.0.2
 _ZN6QState15setInitialStateEP14QAbstractState@Qt_5 5.0.2
 _ZN6QState16childModeChangedENS_14QPrivateSignalE@Qt_5 5.4.0
 _ZN6QState16removeTransitionEP19QAbstractTransition@Qt_5 5.0.2
 _ZN6QState16staticMetaObjectE@Qt_5 5.0.2
 _ZN6QState17errorStateChangedENS_14QPrivateSignalE@Qt_5 5.4.0
 _ZN6QState18propertiesAssignedENS_14QPrivateSignalE@Qt_5 5.0.2
 _ZN6QState19initialStateChangedENS_14QPrivateSignalE@Qt_5 5.4.0
 _ZN6QState5eventEP6QEvent@Qt_5 5.0.2
 _ZN6QState6onExitEP6QEvent@Qt_5 5.0.2
 _ZN6QState7onEntryEP6QEvent@Qt_5 5.0.2
 _ZN6QState8finishedENS_14QPrivateSignalE@Qt_5 5.0.2
 _ZN6QStateC1ENS_9ChildModeEPS_@Qt_5 5.0.2
 _ZN6QStateC1EPS_@Qt_5 5.0.2
 _ZN6QStateC1ER13QStatePrivatePS_@Qt_5_PRIVATE_API 5.0.2 1
 _ZN6QStateC2ENS_9ChildModeEPS_@Qt_5 5.0.2
 _ZN6QStateC2EPS_@Qt_5 5.0.2
 _ZN6QStateC2ER13QStatePrivatePS_@Qt_5_PRIVATE_API 5.0.2 1
 _ZN6QStateD0Ev@Qt_5 5.0.2
 _ZN6QStateD1Ev@Qt_5 5.0.2
 _ZN6QStateD2Ev@Qt_5 5.0.2
 _ZN6QTimer10singleShotEiN2Qt9TimerTypeEPK7QObjectPKc@Qt_5 5.0.2
 _ZN6QTimer10singleShotEiPK7QObjectPKc@Qt_5 5.0.2
 _ZN6QTimer10timerEventEP11QTimerEvent@Qt_5 5.0.2
 _ZN6QTimer11qt_metacallEN11QMetaObject4CallEiPPv@Qt_5 5.0.2
 _ZN6QTimer11qt_metacastEPKc@Qt_5 5.0.2
 _ZN6QTimer11setIntervalEi@Qt_5 5.0.2
 _ZN6QTimer14singleShotImplEiN2Qt9TimerTypeEPK7QObjectPN9QtPrivate15QSlotObjectBaseE@Qt_5 5.4.0
 _ZN6QTimer16staticMetaObjectE@Qt_5 5.0.2
 _ZN6QTimer4stopEv@Qt_5 5.0.2
 _ZN6QTimer5startEi@Qt_5 5.0.2
 _ZN6QTimer5startEv@Qt_5 5.0.2
 _ZN6QTimer7timeoutENS_14QPrivateSignalE@Qt_5 5.0.2
 _ZN6QTimerC1EP7QObject@Qt_5 5.0.2
 _ZN6QTimerC2EP7QObject@Qt_5 5.0.2
 _ZN6QTimerD0Ev@Qt_5 5.0.2
 _ZN6QTimerD1Ev@Qt_5 5.0.2
 _ZN6QTimerD2Ev@Qt_5 5.0.2
 _ZN7QBuffer11qt_metacallEN11QMetaObject4CallEiPPv@Qt_5 5.0.2
 _ZN7QBuffer11qt_metacastEPKc@Qt_5 5.0.2
 _ZN7QBuffer13connectNotifyERK11QMetaMethod@Qt_5 5.0.2
 _ZN7QBuffer16disconnectNotifyERK11QMetaMethod@Qt_5 5.0.2
 _ZN7QBuffer16staticMetaObjectE@Qt_5 5.0.2
 _ZN7QBuffer4openE6QFlagsIN9QIODevice12OpenModeFlagEE@Qt_5 5.0.2
 _ZN7QBuffer4seekEx@Qt_5 5.0.2
 _ZN7QBuffer5closeEv@Qt_5 5.0.2
 _ZN7QBuffer6bufferEv@Qt_5 5.0.2
 _ZN7QBuffer7setDataERK10QByteArray@Qt_5 5.0.2
 _ZN7QBuffer8readDataEPcx@Qt_5 5.0.2
 _ZN7QBuffer9setBufferEP10QByteArray@Qt_5 5.0.2
 _ZN7QBuffer9writeDataEPKcx@Qt_5 5.0.2
 _ZN7QBufferC1EP10QByteArrayP7QObject@Qt_5 5.0.2
 _ZN7QBufferC1EP7QObject@Qt_5 5.0.2
 _ZN7QBufferC2EP10QByteArrayP7QObject@Qt_5 5.0.2
 _ZN7QBufferC2EP7QObject@Qt_5 5.0.2
 _ZN7QBufferD0Ev@Qt_5 5.0.2
 _ZN7QBufferD1Ev@Qt_5 5.0.2
 _ZN7QBufferD2Ev@Qt_5 5.0.2
 _ZN7QLocale10setDefaultERKS_@Qt_5 5.0.2
 _ZN7QLocale14scriptToStringENS_6ScriptE@Qt_5 5.0.2
 _ZN7QLocale15countryToStringENS_7CountryE@Qt_5 5.0.2
 _ZN7QLocale15matchingLocalesENS_8LanguageENS_6ScriptENS_7CountryE@Qt_5 5.0.2
 _ZN7QLocale16languageToStringENS_8LanguageE@Qt_5 5.0.2
 _ZN7QLocale16setNumberOptionsE6QFlagsINS_12NumberOptionEE@Qt_5 5.0.2
 _ZN7QLocale16staticMetaObjectE@Qt_5 5.0.2
 _ZN7QLocale20countriesForLanguageENS_8LanguageE@Qt_5 5.0.2
 _ZN7QLocale6systemEv@Qt_5 5.0.2
 _ZN7QLocaleC1ENS_8LanguageENS_6ScriptENS_7CountryE@Qt_5 5.0.2
 _ZN7QLocaleC1ENS_8LanguageENS_7CountryE@Qt_5 5.0.2
 _ZN7QLocaleC1ER14QLocalePrivate@Qt_5_PRIVATE_API 5.0.2 1
 _ZN7QLocaleC1ERK7QString@Qt_5 5.0.2
 _ZN7QLocaleC1ERKS_@Qt_5 5.0.2
 _ZN7QLocaleC1Ev@Qt_5 5.0.2
 _ZN7QLocaleC2ENS_8LanguageENS_6ScriptENS_7CountryE@Qt_5 5.0.2
 _ZN7QLocaleC2ENS_8LanguageENS_7CountryE@Qt_5 5.0.2
 _ZN7QLocaleC2ER14QLocalePrivate@Qt_5_PRIVATE_API 5.0.2 1
 _ZN7QLocaleC2ERK7QString@Qt_5 5.0.2
 _ZN7QLocaleC2ERKS_@Qt_5 5.0.2
 _ZN7QLocaleC2Ev@Qt_5 5.0.2
 _ZN7QLocaleD1Ev@Qt_5 5.0.2
 _ZN7QLocaleD2Ev@Qt_5 5.0.2
 _ZN7QLocaleaSERKS_@Qt_5 5.0.2
 _ZN7QObject10childEventEP11QChildEvent@Qt_5 5.0.2
 _ZN7QObject10disconnectEPKS_PKcS1_S3_@Qt_5 5.0.2
 _ZN7QObject10disconnectEPKS_RK11QMetaMethodS1_S4_@Qt_5 5.0.2
 _ZN7QObject10disconnectERKN11QMetaObject10ConnectionE@Qt_5 5.0.2
 _ZN7QObject10startTimerEiN2Qt9TimerTypeE@Qt_5 5.0.2
 _ZN7QObject10timerEventEP11QTimerEvent@Qt_5 5.0.2
 _ZN7QObject11connectImplEPKS_PPvS1_S3_PN9QtPrivate15QSlotObjectBaseEN2Qt14ConnectionTypeEPKiPK11QMetaObject@Qt_5 5.0.2
 _ZN7QObject11customEventEP6QEvent@Qt_5 5.0.2
 _ZN7QObject11deleteLaterEv@Qt_5 5.0.2
 _ZN7QObject11eventFilterEPS_P6QEvent@Qt_5 5.0.2
 _ZN7QObject11qt_metacallEN11QMetaObject4CallEiPPv@Qt_5 5.0.2
 _ZN7QObject11qt_metacastEPKc@Qt_5 5.0.2
 _ZN7QObject11setPropertyEPKcRK8QVariant@Qt_5 5.0.2
 _ZN7QObject11setUserDataEjP15QObjectUserData@Qt_5 5.0.2
 _ZN7QObject12blockSignalsEb@Qt_5 5.0.2
 _ZN7QObject12moveToThreadEP7QThread@Qt_5 5.0.2
 _ZN7QObject13connectNotifyERK11QMetaMethod@Qt_5 5.0.2
 _ZN7QObject13setObjectNameERK7QString@Qt_5 5.0.2
 _ZN7QObject14disconnectImplEPKS_PPvS1_S3_PK11QMetaObject@Qt_5 5.0.2
 _ZN7QObject14dumpObjectInfoEv@Qt_5 5.0.2
 _ZN7QObject14dumpObjectTreeEv@Qt_5 5.0.2
 _ZN7QObject16disconnectNotifyERK11QMetaMethod@Qt_5 5.0.2
 _ZN7QObject16registerUserDataEv@Qt_5 5.0.2
 _ZN7QObject16staticMetaObjectE@Qt_5 5.0.2
 _ZN7QObject17objectNameChangedERK7QStringNS_14QPrivateSignalE@Qt_5 5.0.2
 _ZN7QObject17removeEventFilterEPS_@Qt_5 5.0.2
 _ZN7QObject18installEventFilterEPS_@Qt_5 5.0.2
 _ZN7QObject18staticQtMetaObjectE@Qt_5 5.0.2
 _ZN7QObject5eventEP6QEvent@Qt_5 5.0.2
 _ZN7QObject7connectEPKS_PKcS1_S3_N2Qt14ConnectionTypeE@Qt_5 5.0.2
 _ZN7QObject7connectEPKS_RK11QMetaMethodS1_S4_N2Qt14ConnectionTypeE@Qt_5 5.0.2
 _ZN7QObject9destroyedEPS_@Qt_5 5.0.2
 _ZN7QObject9killTimerEi@Qt_5 5.0.2
 _ZN7QObject9setParentEPS_@Qt_5 5.0.2
 _ZN7QObjectC1EPS_@Qt_5 5.0.2
 _ZN7QObjectC1ER14QObjectPrivatePS_@Qt_5_PRIVATE_API 5.0.2 1
 _ZN7QObjectC2EPS_@Qt_5 5.0.2
 _ZN7QObjectC2ER14QObjectPrivatePS_@Qt_5_PRIVATE_API 5.0.2 1
 _ZN7QObjectD0Ev@Qt_5 5.0.2
 _ZN7QObjectD1Ev@Qt_5 5.0.2
 _ZN7QObjectD2Ev@Qt_5 5.0.2
 _ZN7QRegExp10setMinimalEb@Qt_5 5.0.2
 _ZN7QRegExp10setPatternERK7QString@Qt_5 5.0.2
 _ZN7QRegExp11errorStringEv@Qt_5 5.0.2
 _ZN7QRegExp13capturedTextsEv@Qt_5 5.0.2
 _ZN7QRegExp16setPatternSyntaxENS_13PatternSyntaxE@Qt_5 5.0.2
 _ZN7QRegExp18setCaseSensitivityEN2Qt15CaseSensitivityE@Qt_5 5.0.2
 _ZN7QRegExp3capEi@Qt_5 5.0.2
 _ZN7QRegExp3posEi@Qt_5 5.0.2
 _ZN7QRegExp6escapeERK7QString@Qt_5 5.0.2
 _ZN7QRegExpC1ERK7QStringN2Qt15CaseSensitivityENS_13PatternSyntaxE@Qt_5 5.0.2
 _ZN7QRegExpC1ERKS_@Qt_5 5.0.2
 _ZN7QRegExpC1Ev@Qt_5 5.0.2
 _ZN7QRegExpC2ERK7QStringN2Qt15CaseSensitivityENS_13PatternSyntaxE@Qt_5 5.0.2
 _ZN7QRegExpC2ERKS_@Qt_5 5.0.2
 _ZN7QRegExpC2Ev@Qt_5 5.0.2
 _ZN7QRegExpD1Ev@Qt_5 5.0.2
 _ZN7QRegExpD2Ev@Qt_5 5.0.2
 _ZN7QRegExpaSERKS_@Qt_5 5.0.2
 _ZN7QString10setRawDataEPK5QChari@Qt_5 5.0.2
 _ZN7QString10setUnicodeEPK5QChari@Qt_5 5.0.2
 _ZN7QString11fromRawDataEPK5QChari@Qt_5 5.0.2
 _ZN7QString11reallocDataEjb@Qt_5 5.0.2
 _ZN7QString13toUcs4_helperEPKtiPj@Qt_5 5.0.2
 _ZN7QString13toUtf8_helperERKS_@Qt_5 5.3.0
 _ZN7QString14compare_helperEPK5QChari13QLatin1StringN2Qt15CaseSensitivityE@Qt_5 5.0.2
 _ZN7QString14compare_helperEPK5QChariPKciN2Qt15CaseSensitivityE@Qt_5 5.0.2
 _ZN7QString14compare_helperEPK5QChariS2_iN2Qt15CaseSensitivityE@Qt_5 5.0.2
 _ZN7QString14replace_helperEPjiiPK5QChari@Qt_5 5.0.2
 _ZN7QString14toLower_helperERKS_@Qt_5 5.5.0
 _ZN7QString14toLower_helperERS_@Qt_5 5.5.0
 _ZN7QString14toUpper_helperERKS_@Qt_5 5.5.0
 _ZN7QString14toUpper_helperERS_@Qt_5 5.5.0
 _ZN7QString14trimmed_helperERKS_@Qt_5 5.5.0
 _ZN7QString14trimmed_helperERS_@Qt_5 5.5.0
 _ZN7QString15fromUtf8_helperEPKci@Qt_5 5.0.2
 _ZN7QString15toLatin1_helperEPK5QChari@Qt_5 5.3.0
 _ZN7QString15toLatin1_helperERKS_@Qt_5 5.3.0
 _ZN7QString16fromAscii_helperEPKci@Qt_5 5.0.2
 _ZN7QString17fromLatin1_helperEPKci@Qt_5 5.0.2
 _ZN7QString17simplified_helperERKS_@Qt_5 5.5.0
 _ZN7QString17simplified_helperERS_@Qt_5 5.5.0
 _ZN7QString17toIntegral_helperEPK5QChariPbi@Qt_5 5.3.0
 _ZN7QString17toIntegral_helperEPK5QCharjPbi@Qt_5 5.3.0
 _ZN7QString18toLocal8Bit_helperEPK5QChari@Qt_5 5.3.0
 _ZN7QString19toCaseFolded_helperERKS_@Qt_5 5.5.0
 _ZN7QString19toCaseFolded_helperERS_@Qt_5 5.5.0
 _ZN7QString20fromLocal8Bit_helperEPKci@Qt_5 5.0.2
 _ZN7QString23toLatin1_helper_inplaceERS_@Qt_5 5.3.0
 _ZN7QString25localeAwareCompare_helperEPK5QChariS2_i@Qt_5 5.0.2
 _ZN7QString4chopEi@Qt_5 5.0.2
 _ZN7QString4fillE5QChari@Qt_5 5.0.2
 _ZN7QString4nullE@Qt_5 5.0.2
 _ZN7QString6appendE13QLatin1String@Qt_5 5.0.2
 _ZN7QString6appendE5QChar@Qt_5 5.0.2
 _ZN7QString6appendEPK5QChari@Qt_5 5.0.2
 _ZN7QString6appendERK10QStringRef@Qt_5 5.0.2
 _ZN7QString6appendERKS_@Qt_5 5.0.2
 _ZN7QString6expandEi@Qt_5 5.0.2
 _ZN7QString6insertEi13QLatin1String@Qt_5 5.0.2
 _ZN7QString6insertEi5QChar@Qt_5 5.0.2
 _ZN7QString6insertEiPK5QChari@Qt_5 5.0.2
 _ZN7QString6numberEdci@Qt_5 5.0.2
 _ZN7QString6numberEii@Qt_5 5.0.2
 _ZN7QString6numberEji@Qt_5 5.0.2
 _ZN7QString6numberEli@Qt_5 5.0.2
 _ZN7QString6numberEmi@Qt_5 5.0.2
 _ZN7QString6numberExi@Qt_5 5.0.2
 _ZN7QString6numberEyi@Qt_5 5.0.2
 _ZN7QString6removeE5QCharN2Qt15CaseSensitivityE@Qt_5 5.0.2
 _ZN7QString6removeERKS_N2Qt15CaseSensitivityE@Qt_5 5.0.2
 _ZN7QString6removeEii@Qt_5 5.0.2
 _ZN7QString6resizeEi5QChar@Qt_5 5.7.0
 _ZN7QString6resizeEi@Qt_5 5.0.2
 _ZN7QString6setNumEdci@Qt_5 5.0.2
 _ZN7QString6setNumExi@Qt_5 5.0.2
 _ZN7QString6setNumEyi@Qt_5 5.0.2
 _ZN7QString7replaceE13QLatin1StringRKS_N2Qt15CaseSensitivityE@Qt_5 5.0.2
 _ZN7QString7replaceE13QLatin1StringS0_N2Qt15CaseSensitivityE@Qt_5 5.0.2
 _ZN7QString7replaceE5QChar13QLatin1StringN2Qt15CaseSensitivityE@Qt_5 5.0.2
 _ZN7QString7replaceE5QCharRKS_N2Qt15CaseSensitivityE@Qt_5 5.0.2
 _ZN7QString7replaceE5QCharS0_N2Qt15CaseSensitivityE@Qt_5 5.0.2
 _ZN7QString7replaceEPK5QChariS2_iN2Qt15CaseSensitivityE@Qt_5 5.0.2
 _ZN7QString7replaceERK18QRegularExpressionRKS_@Qt_5 5.0.2
 _ZN7QString7replaceERK7QRegExpRKS_@Qt_5 5.0.2
 _ZN7QString7replaceERKS_13QLatin1StringN2Qt15CaseSensitivityE@Qt_5 5.0.2
 _ZN7QString7replaceERKS_S1_N2Qt15CaseSensitivityE@Qt_5 5.0.2
 _ZN7QString7replaceEii5QChar@Qt_5 5.0.2
 _ZN7QString7replaceEiiPK5QChari@Qt_5 5.0.2
 _ZN7QString7replaceEiiRKS_@Qt_5 5.0.2
 _ZN7QString7sprintfEPKcz@Qt_5 5.0.2
 _ZN7QString8asprintfEPKcz@Qt_5 5.5.0
 _ZN7QString8fromUcs4EPKji@Qt_5 5.0.2
 _ZN7QString8truncateEi@Qt_5 5.0.2
 (arch=alpha sh4)_ZN7QString8vsprintfEPKc13__va_list_tag@Qt_5 5.4.2
 (arch=amd64 kfreebsd-amd64 powerpc powerpcspe s390x x32)_ZN7QString8vsprintfEPKcP13__va_list_tag@Qt_5 5.3.1
 (arch=hurd-i386 i386 kfreebsd-i386 ppc64 ppc64el)_ZN7QString8vsprintfEPKcPc@Qt_5 5.3.1
 (arch=hppa m68k mips mips64el mipsel sparc64)_ZN7QString8vsprintfEPKcPv@Qt_5 5.4.2
 (arch=arm64 armel armhf)_ZN7QString8vsprintfEPKcSt9__va_list@Qt_5 5.3.0
 _ZN7QString9fromUtf16EPKti@Qt_5 5.0.2
 (arch=alpha)_ZN7QString9vasprintfEPKc13__va_list_tag@Qt_5 5.5.0
 (arch=amd64 kfreebsd-amd64 powerpc powerpcspe s390x x32)_ZN7QString9vasprintfEPKcP13__va_list_tag@Qt_5 5.6.1
 (arch=hurd-i386 i386 kfreebsd-i386 ppc64 ppc64el)_ZN7QString9vasprintfEPKcPc@Qt_5 5.5.0
 (arch=hppa m68k mips mips64el mipsel sparc64)_ZN7QString9vasprintfEPKcPv@Qt_5 5.7.1
 (arch=arm64 armel armhf)_ZN7QString9vasprintfEPKcSt9__va_list@Qt_5 5.5.0
 _ZN7QStringC1E5QChar@Qt_5 5.0.2
 _ZN7QStringC1EPK5QChari@Qt_5 5.0.2
 _ZN7QStringC1Ei5QChar@Qt_5 5.0.2
 _ZN7QStringC1EiN2Qt14InitializationE@Qt_5 5.0.2
 _ZN7QStringC2E5QChar@Qt_5 5.0.2
 _ZN7QStringC2EPK5QChari@Qt_5 5.0.2
 _ZN7QStringC2Ei5QChar@Qt_5 5.0.2
 _ZN7QStringC2EiN2Qt14InitializationE@Qt_5 5.0.2
 _ZN7QStringaSE13QLatin1String@Qt_5 5.6.0~beta
 _ZN7QStringaSE5QChar@Qt_5 5.0.2
 _ZN7QStringaSERKS_@Qt_5 5.0.2
 _ZN7QThread11qt_metacallEN11QMetaObject4CallEiPPv@Qt_5 5.0.2
 _ZN7QThread11qt_metacastEPKc@Qt_5 5.0.2
 _ZN7QThread11setPriorityENS_8PriorityE@Qt_5 5.0.2
 _ZN7QThread12setStackSizeEj@Qt_5 5.0.2
 _ZN7QThread13currentThreadEv@Qt_5 5.0.2
 _ZN7QThread15currentThreadIdEv@Qt_5 5.0.2
 _ZN7QThread16idealThreadCountEv@Qt_5 5.0.2
 _ZN7QThread16staticMetaObjectE@Qt_5 5.0.2
 _ZN7QThread18setEventDispatcherEP24QAbstractEventDispatcher@Qt_5 5.0.2
 _ZN7QThread18yieldCurrentThreadEv@Qt_5 5.0.2
 _ZN7QThread19requestInterruptionEv@Qt_5 5.2.0~alpha1
 _ZN7QThread21setTerminationEnabledEb@Qt_5 5.0.2
 _ZN7QThread3runEv@Qt_5 5.0.2
 _ZN7QThread4execEv@Qt_5 5.0.2
 _ZN7QThread4exitEi@Qt_5 5.0.2
 _ZN7QThread4quitEv@Qt_5 5.0.2
 _ZN7QThread4waitEm@Qt_5 5.0.2
 _ZN7QThread5eventEP6QEvent@Qt_5 5.0.2
 _ZN7QThread5sleepEm@Qt_5 5.0.2
 _ZN7QThread5startENS_8PriorityE@Qt_5 5.0.2
 _ZN7QThread6msleepEm@Qt_5 5.0.2
 _ZN7QThread6usleepEm@Qt_5 5.0.2
 _ZN7QThread7startedENS_14QPrivateSignalE@Qt_5 5.0.2
 _ZN7QThread8finishedENS_14QPrivateSignalE@Qt_5 5.0.2
 _ZN7QThread9terminateEv@Qt_5 5.0.2
 _ZN7QThreadC1EP7QObject@Qt_5 5.0.2
 _ZN7QThreadC1ER14QThreadPrivateP7QObject@Qt_5 5.0.2
 _ZN7QThreadC2EP7QObject@Qt_5 5.0.2
 _ZN7QThreadC2ER14QThreadPrivateP7QObject@Qt_5 5.0.2
 _ZN7QThreadD0Ev@Qt_5 5.0.2
 _ZN7QThreadD1Ev@Qt_5 5.0.2
 _ZN7QThreadD2Ev@Qt_5 5.0.2
 _ZN8QLibrary11qt_metacallEN11QMetaObject4CallEiPPv@Qt_5 5.0.2
 _ZN8QLibrary11qt_metacastEPKc@Qt_5 5.0.2
 _ZN8QLibrary11setFileNameERK7QString@Qt_5 5.0.2
 _ZN8QLibrary12setLoadHintsE6QFlagsINS_8LoadHintEE@Qt_5 5.0.2
 _ZN8QLibrary16staticMetaObjectE@Qt_5 5.0.2
 _ZN8QLibrary21setFileNameAndVersionERK7QStringS2_@Qt_5 5.0.2
 _ZN8QLibrary21setFileNameAndVersionERK7QStringi@Qt_5 5.0.2
 _ZN8QLibrary4loadEv@Qt_5 5.0.2
 _ZN8QLibrary6unloadEv@Qt_5 5.0.2
 _ZN8QLibrary7resolveEPKc@Qt_5 5.0.2
 _ZN8QLibrary7resolveERK7QStringPKc@Qt_5 5.0.2
 _ZN8QLibrary7resolveERK7QStringS2_PKc@Qt_5 5.0.2
 _ZN8QLibrary7resolveERK7QStringiPKc@Qt_5 5.0.2
 _ZN8QLibrary9isLibraryERK7QString@Qt_5 5.0.2
 _ZN8QLibraryC1EP7QObject@Qt_5 5.0.2
 _ZN8QLibraryC1ERK7QStringP7QObject@Qt_5 5.0.2
 _ZN8QLibraryC1ERK7QStringS2_P7QObject@Qt_5 5.0.2
 _ZN8QLibraryC1ERK7QStringiP7QObject@Qt_5 5.0.2
 _ZN8QLibraryC2EP7QObject@Qt_5 5.0.2
 _ZN8QLibraryC2ERK7QStringP7QObject@Qt_5 5.0.2
 _ZN8QLibraryC2ERK7QStringS2_P7QObject@Qt_5 5.0.2
 _ZN8QLibraryC2ERK7QStringiP7QObject@Qt_5 5.0.2
 _ZN8QLibraryD0Ev@Qt_5 5.0.2
 _ZN8QLibraryD1Ev@Qt_5 5.0.2
 _ZN8QLibraryD2Ev@Qt_5 5.0.2
 _ZN8QProcess10nullDeviceEv@Qt_5 5.2.0~alpha1
 _ZN8QProcess10setProgramERK7QString@Qt_5 5.1.0
 _ZN8QProcess11qt_metacallEN11QMetaObject4CallEiPPv@Qt_5 5.0.2
 _ZN8QProcess11qt_metacastEPKc@Qt_5 5.0.2
 _ZN8QProcess12setArgumentsERK11QStringList@Qt_5 5.1.0
 _ZN8QProcess12stateChangedENS_12ProcessStateENS_14QPrivateSignalE@Qt_5 5.0.2
 _ZN8QProcess13errorOccurredENS_12ProcessErrorE@Qt_5 5.6.0~beta
 _ZN8QProcess13startDetachedERK7QString@Qt_5 5.0.2
 _ZN8QProcess13startDetachedERK7QStringRK11QStringList@Qt_5 5.0.2
 _ZN8QProcess13startDetachedERK7QStringRK11QStringListS2_Px@Qt_5 5.0.2
 _ZN8QProcess14setEnvironmentERK11QStringList@Qt_5 5.0.2
 _ZN8QProcess14setReadChannelENS_14ProcessChannelE@Qt_5 5.0.2
 _ZN8QProcess14waitForStartedEi@Qt_5 5.0.2
 _ZN8QProcess15setProcessStateENS_12ProcessStateE@Qt_5 5.0.2
 _ZN8QProcess15waitForFinishedEi@Qt_5 5.0.2
 _ZN8QProcess16closeReadChannelENS_14ProcessChannelE@Qt_5 5.0.2
 _ZN8QProcess16staticMetaObjectE@Qt_5 5.0.2
 _ZN8QProcess16waitForReadyReadEi@Qt_5 5.0.2
 _ZN8QProcess17closeWriteChannelEv@Qt_5 5.0.2
 _ZN8QProcess17setupChildProcessEv@Qt_5 5.0.2
 _ZN8QProcess17systemEnvironmentEv@Qt_5 5.0.2
 _ZN8QProcess18setReadChannelModeENS_18ProcessChannelModeE@Qt_5 5.0.2
 _ZN8QProcess19setInputChannelModeENS_16InputChannelModeE@Qt_5 5.2.0~alpha1
 _ZN8QProcess19setWorkingDirectoryERK7QString@Qt_5 5.0.2
 _ZN8QProcess19waitForBytesWrittenEi@Qt_5 5.0.2
 _ZN8QProcess20readAllStandardErrorEv@Qt_5 5.0.2
 _ZN8QProcess20setStandardErrorFileERK7QString6QFlagsIN9QIODevice12OpenModeFlagEE@Qt_5 5.0.2
 _ZN8QProcess20setStandardInputFileERK7QString@Qt_5 5.0.2
 _ZN8QProcess21readAllStandardOutputEv@Qt_5 5.0.2
 _ZN8QProcess21setProcessChannelModeENS_18ProcessChannelModeE@Qt_5 5.0.2
 _ZN8QProcess21setProcessEnvironmentERK19QProcessEnvironment@Qt_5 5.0.2
 _ZN8QProcess21setStandardOutputFileERK7QString6QFlagsIN9QIODevice12OpenModeFlagEE@Qt_5 5.0.2
 _ZN8QProcess22readyReadStandardErrorENS_14QPrivateSignalE@Qt_5 5.0.2
 _ZN8QProcess23readyReadStandardOutputENS_14QPrivateSignalE@Qt_5 5.0.2
 _ZN8QProcess24setStandardOutputProcessEPS_@Qt_5 5.0.2
 _ZN8QProcess4killEv@Qt_5 5.0.2
 _ZN8QProcess4openE6QFlagsIN9QIODevice12OpenModeFlagEE@Qt_5 5.1.0
 _ZN8QProcess5closeEv@Qt_5 5.0.2
 _ZN8QProcess5errorENS_12ProcessErrorE@Qt_5 5.0.2
 _ZN8QProcess5startE6QFlagsIN9QIODevice12OpenModeFlagEE@Qt_5 5.1.0
 _ZN8QProcess5startERK7QString6QFlagsIN9QIODevice12OpenModeFlagEE@Qt_5 5.0.2
 _ZN8QProcess5startERK7QStringRK11QStringList6QFlagsIN9QIODevice12OpenModeFlagEE@Qt_5 5.0.2
 _ZN8QProcess7executeERK7QString@Qt_5 5.0.2
 _ZN8QProcess7executeERK7QStringRK11QStringList@Qt_5 5.0.2
 _ZN8QProcess7startedENS_14QPrivateSignalE@Qt_5 5.0.2
 _ZN8QProcess8finishedEi@Qt_5 5.0.2
 _ZN8QProcess8finishedEiNS_10ExitStatusE@Qt_5 5.0.2
 _ZN8QProcess8readDataEPcx@Qt_5 5.0.2
 _ZN8QProcess9terminateEv@Qt_5 5.0.2
 _ZN8QProcess9writeDataEPKcx@Qt_5 5.0.2
 _ZN8QProcessC1EP7QObject@Qt_5 5.0.2
 _ZN8QProcessC2EP7QObject@Qt_5 5.0.2
 _ZN8QProcessD0Ev@Qt_5 5.0.2
 _ZN8QProcessD1Ev@Qt_5 5.0.2
 _ZN8QProcessD2Ev@Qt_5 5.0.2
 _ZN8QSysInfo10kernelTypeEv@Qt_5 5.4.0
 _ZN8QSysInfo11productTypeEv@Qt_5 5.4.0
 _ZN8QSysInfo13kernelVersionEv@Qt_5 5.4.0
 _ZN8QSysInfo14productVersionEv@Qt_5 5.4.0
 _ZN8QSysInfo15machineHostNameEv@Qt_5 5.6.0~beta
 _ZN8QSysInfo17prettyProductNameEv@Qt_5 5.4.0
 _ZN8QSysInfo20buildCpuArchitectureEv@Qt_5 5.4.0
 _ZN8QSysInfo22currentCpuArchitectureEv@Qt_5 5.4.0
 _ZN8QSysInfo8buildAbiEv@Qt_5 5.4.0
 _ZN8QVariant10nameToTypeEPKc@Qt_5 5.0.2
 _ZN8QVariant10typeToNameEi@Qt_5 5.0.2
 _ZN8QVariant4dataEv@Qt_5 5.0.2
 _ZN8QVariant4loadER11QDataStream@Qt_5 5.0.2
 _ZN8QVariant5clearEv@Qt_5 5.0.2
 _ZN8QVariant6createEiPKv@Qt_5 5.0.2
 _ZN8QVariant6detachEv@Qt_5 5.0.2
 _ZN8QVariant7convertEi@Qt_5 5.0.2
 _ZN8QVariantC1E13QLatin1String@Qt_5 5.0.2
 _ZN8QVariantC1E5QChar@Qt_5 5.0.2
 _ZN8QVariantC1ENS_4TypeE@Qt_5 5.0.2
 _ZN8QVariantC1EPKc@Qt_5 5.0.2
 _ZN8QVariantC1ER11QDataStream@Qt_5 5.0.2
 _ZN8QVariantC1ERK10QByteArray@Qt_5 5.0.2
 _ZN8QVariantC1ERK10QJsonArray@Qt_5 5.0.2
 _ZN8QVariantC1ERK10QJsonValue@Qt_5 5.0.2
 _ZN8QVariantC1ERK11QJsonObject@Qt_5 5.0.2
 _ZN8QVariantC1ERK11QModelIndex@Qt_5 5.0.2
 _ZN8QVariantC1ERK11QStringList@Qt_5 5.0.2
 _ZN8QVariantC1ERK12QEasingCurve@Qt_5 5.0.2
 _ZN8QVariantC1ERK13QJsonDocument@Qt_5 5.0.2
 _ZN8QVariantC1ERK18QRegularExpression@Qt_5 5.0.2
 _ZN8QVariantC1ERK21QPersistentModelIndex@Qt_5 5.5.0
 _ZN8QVariantC1ERK4QMapI7QStringS_E@Qt_5 5.0.2
 _ZN8QVariantC1ERK4QUrl@Qt_5 5.0.2
 _ZN8QVariantC1ERK5QDate@Qt_5 5.0.2
 _ZN8QVariantC1ERK5QHashI7QStringS_E@Qt_5 5.0.2
 _ZN8QVariantC1ERK5QLine@Qt_5 5.0.2
 _ZN8QVariantC1ERK5QListIS_E@Qt_5 5.0.2
 _ZN8QVariantC1ERK5QRect@Qt_5 5.0.2
 _ZN8QVariantC1ERK5QSize@Qt_5 5.0.2
 _ZN8QVariantC1ERK5QTime@Qt_5 5.0.2
 _ZN8QVariantC1ERK5QUuid@Qt_5 5.0.2
 _ZN8QVariantC1ERK6QLineF@Qt_5 5.0.2
 _ZN8QVariantC1ERK6QPoint@Qt_5 5.0.2
 _ZN8QVariantC1ERK6QRectF@Qt_5 5.0.2
 _ZN8QVariantC1ERK6QSizeF@Qt_5 5.0.2
 _ZN8QVariantC1ERK7QLocale@Qt_5 5.0.2
 _ZN8QVariantC1ERK7QPointF@Qt_5 5.0.2
 _ZN8QVariantC1ERK7QRegExp@Qt_5 5.0.2
 _ZN8QVariantC1ERK7QString@Qt_5 5.0.2
 _ZN8QVariantC1ERK9QBitArray@Qt_5 5.0.2
 _ZN8QVariantC1ERK9QDateTime@Qt_5 5.0.2
 _ZN8QVariantC1ERKS_@Qt_5 5.0.2
 _ZN8QVariantC1Eb@Qt_5 5.0.2
 _ZN8QVariantC1Ed@Qt_5 5.0.2
 _ZN8QVariantC1Ef@Qt_5 5.0.2
 _ZN8QVariantC1Ei@Qt_5 5.0.2
 _ZN8QVariantC1EiPKv@Qt_5 5.0.2
 _ZN8QVariantC1EiPKvj@Qt_5 5.0.2
 _ZN8QVariantC1Ej@Qt_5 5.0.2
 _ZN8QVariantC1Ex@Qt_5 5.0.2
 _ZN8QVariantC1Ey@Qt_5 5.0.2
 _ZN8QVariantC2E13QLatin1String@Qt_5 5.0.2
 _ZN8QVariantC2E5QChar@Qt_5 5.0.2
 _ZN8QVariantC2ENS_4TypeE@Qt_5 5.0.2
 _ZN8QVariantC2EPKc@Qt_5 5.0.2
 _ZN8QVariantC2ER11QDataStream@Qt_5 5.0.2
 _ZN8QVariantC2ERK10QByteArray@Qt_5 5.0.2
 _ZN8QVariantC2ERK10QJsonArray@Qt_5 5.0.2
 _ZN8QVariantC2ERK10QJsonValue@Qt_5 5.0.2
 _ZN8QVariantC2ERK11QJsonObject@Qt_5 5.0.2
 _ZN8QVariantC2ERK11QModelIndex@Qt_5 5.0.2
 _ZN8QVariantC2ERK11QStringList@Qt_5 5.0.2
 _ZN8QVariantC2ERK12QEasingCurve@Qt_5 5.0.2
 _ZN8QVariantC2ERK13QJsonDocument@Qt_5 5.0.2
 _ZN8QVariantC2ERK18QRegularExpression@Qt_5 5.0.2
 _ZN8QVariantC2ERK21QPersistentModelIndex@Qt_5 5.5.0
 _ZN8QVariantC2ERK4QMapI7QStringS_E@Qt_5 5.0.2
 _ZN8QVariantC2ERK4QUrl@Qt_5 5.0.2
 _ZN8QVariantC2ERK5QDate@Qt_5 5.0.2
 _ZN8QVariantC2ERK5QHashI7QStringS_E@Qt_5 5.0.2
 _ZN8QVariantC2ERK5QLine@Qt_5 5.0.2
 _ZN8QVariantC2ERK5QListIS_E@Qt_5 5.0.2
 _ZN8QVariantC2ERK5QRect@Qt_5 5.0.2
 _ZN8QVariantC2ERK5QSize@Qt_5 5.0.2
 _ZN8QVariantC2ERK5QTime@Qt_5 5.0.2
 _ZN8QVariantC2ERK5QUuid@Qt_5 5.0.2
 _ZN8QVariantC2ERK6QLineF@Qt_5 5.0.2
 _ZN8QVariantC2ERK6QPoint@Qt_5 5.0.2
 _ZN8QVariantC2ERK6QRectF@Qt_5 5.0.2
 _ZN8QVariantC2ERK6QSizeF@Qt_5 5.0.2
 _ZN8QVariantC2ERK7QLocale@Qt_5 5.0.2
 _ZN8QVariantC2ERK7QPointF@Qt_5 5.0.2
 _ZN8QVariantC2ERK7QRegExp@Qt_5 5.0.2
 _ZN8QVariantC2ERK7QString@Qt_5 5.0.2
 _ZN8QVariantC2ERK9QBitArray@Qt_5 5.0.2
 _ZN8QVariantC2ERK9QDateTime@Qt_5 5.0.2
 _ZN8QVariantC2ERKS_@Qt_5 5.0.2
 _ZN8QVariantC2Eb@Qt_5 5.0.2
 _ZN8QVariantC2Ed@Qt_5 5.0.2
 _ZN8QVariantC2Ef@Qt_5 5.0.2
 _ZN8QVariantC2Ei@Qt_5 5.0.2
 _ZN8QVariantC2EiPKv@Qt_5 5.0.2
 _ZN8QVariantC2EiPKvj@Qt_5 5.0.2
 _ZN8QVariantC2Ej@Qt_5 5.0.2
 _ZN8QVariantC2Ex@Qt_5 5.0.2
 _ZN8QVariantC2Ey@Qt_5 5.0.2
 _ZN8QVariantD1Ev@Qt_5 5.0.2
 _ZN8QVariantD2Ev@Qt_5 5.0.2
 _ZN8QVariantaSERKS_@Qt_5 5.0.2
 _ZN9QBitArray4fillEbii@Qt_5 5.0.2
 _ZN9QBitArray6resizeEi@Qt_5 5.0.2
 _ZN9QBitArrayC1Eib@Qt_5 5.0.2
 _ZN9QBitArrayC2Eib@Qt_5 5.0.2
 _ZN9QBitArrayaNERKS_@Qt_5 5.0.2
 _ZN9QBitArrayeOERKS_@Qt_5 5.0.2
 _ZN9QBitArrayoRERKS_@Qt_5 5.0.2
 _ZN9QCollator14setNumericModeEb@Qt_5 5.0.2
 _ZN9QCollator18setCaseSensitivityEN2Qt15CaseSensitivityE@Qt_5 5.2.0~alpha1
 _ZN9QCollator20setIgnorePunctuationEb@Qt_5 5.0.2
 _ZN9QCollator6detachEv@Qt_5 5.0.2
 _ZN9QCollator9setLocaleERK7QLocale@Qt_5 5.0.2
 _ZN9QCollatorC1ERK7QLocale@Qt_5 5.2.0~alpha1
 _ZN9QCollatorC1ERKS_@Qt_5 5.0.2
 _ZN9QCollatorC2ERK7QLocale@Qt_5 5.2.0~alpha1
 _ZN9QCollatorC2ERKS_@Qt_5 5.0.2
 _ZN9QCollatorD1Ev@Qt_5 5.0.2
 _ZN9QCollatorD2Ev@Qt_5 5.0.2
 _ZN9QCollatoraSERKS_@Qt_5 5.0.2
 _ZN9QDateTime10fromStringERK7QStringN2Qt10DateFormatE@Qt_5 5.0.2
 _ZN9QDateTime10fromStringERK7QStringS2_@Qt_5 5.0.2
 _ZN9QDateTime10fromTime_tEj@Qt_5 5.0.2
 _ZN9QDateTime10fromTime_tEjN2Qt8TimeSpecEi@Qt_5 5.2.0~alpha1
 _ZN9QDateTime10fromTime_tEjRK9QTimeZone@Qt_5 5.2.0~alpha1
 _ZN9QDateTime11setTimeSpecEN2Qt8TimeSpecE@Qt_5 5.0.2
 _ZN9QDateTime11setTimeZoneERK9QTimeZone@Qt_5 5.2.0~alpha1
 _ZN9QDateTime12setUtcOffsetEi@Qt_5 5.0.2
 _ZN9QDateTime15currentDateTimeEv@Qt_5 5.0.2
 _ZN9QDateTime16setOffsetFromUtcEi@Qt_5 5.2.0~alpha1
 _ZN9QDateTime18currentDateTimeUtcEv@Qt_5 5.0.2
 _ZN9QDateTime18setMSecsSinceEpochEx@Qt_5 5.0.2
 _ZN9QDateTime19fromMSecsSinceEpochEx@Qt_5 5.0.2
 _ZN9QDateTime19fromMSecsSinceEpochExN2Qt8TimeSpecEi@Qt_5 5.2.0~alpha1
 _ZN9QDateTime19fromMSecsSinceEpochExRK9QTimeZone@Qt_5 5.2.0~alpha1
 _ZN9QDateTime22currentMSecsSinceEpochEv@Qt_5 5.0.2
 _ZN9QDateTime7setDateERK5QDate@Qt_5 5.0.2
 _ZN9QDateTime7setTimeERK5QTime@Qt_5 5.0.2
 _ZN9QDateTime9setTime_tEj@Qt_5 5.0.2
 _ZN9QDateTimeC1ERK5QDate@Qt_5 5.0.2
 _ZN9QDateTimeC1ERK5QDateRK5QTimeN2Qt8TimeSpecE@Qt_5 5.0.2
 _ZN9QDateTimeC1ERK5QDateRK5QTimeN2Qt8TimeSpecEi@Qt_5 5.2.0~alpha1
 _ZN9QDateTimeC1ERK5QDateRK5QTimeRK9QTimeZone@Qt_5 5.2.0~alpha1
 _ZN9QDateTimeC1ERKS_@Qt_5 5.0.2
 _ZN9QDateTimeC1Ev@Qt_5 5.0.2
 _ZN9QDateTimeC2ERK5QDate@Qt_5 5.0.2
 _ZN9QDateTimeC2ERK5QDateRK5QTimeN2Qt8TimeSpecE@Qt_5 5.0.2
 _ZN9QDateTimeC2ERK5QDateRK5QTimeN2Qt8TimeSpecEi@Qt_5 5.2.0~alpha1
 _ZN9QDateTimeC2ERK5QDateRK5QTimeRK9QTimeZone@Qt_5 5.2.0~alpha1
 _ZN9QDateTimeC2ERKS_@Qt_5 5.0.2
 _ZN9QDateTimeC2Ev@Qt_5 5.0.2
 _ZN9QDateTimeD1Ev@Qt_5 5.0.2
 _ZN9QDateTimeD2Ev@Qt_5 5.0.2
 _ZN9QDateTimeaSERKS_@Qt_5 5.0.2
 _ZN9QFileInfo10setCachingEb@Qt_5 5.0.2
 _ZN9QFileInfo12makeAbsoluteEv@Qt_5 5.0.2
 _ZN9QFileInfo6d_funcEv@Qt_5 5.0.2
 _ZN9QFileInfo6existsERK7QString@Qt_5 5.2.0~alpha1
 _ZN9QFileInfo7refreshEv@Qt_5 5.0.2
 _ZN9QFileInfo7setFileERK4QDirRK7QString@Qt_5 5.0.2
 _ZN9QFileInfo7setFileERK5QFile@Qt_5 5.0.2
 _ZN9QFileInfo7setFileERK7QString@Qt_5 5.0.2
 _ZN9QFileInfoC1EP16QFileInfoPrivate@Qt_5 5.0.2
 _ZN9QFileInfoC1ERK4QDirRK7QString@Qt_5 5.0.2
 _ZN9QFileInfoC1ERK5QFile@Qt_5 5.0.2
 _ZN9QFileInfoC1ERK7QString@Qt_5 5.0.2
 _ZN9QFileInfoC1ERKS_@Qt_5 5.0.2
 _ZN9QFileInfoC1Ev@Qt_5 5.0.2
 _ZN9QFileInfoC2EP16QFileInfoPrivate@Qt_5 5.0.2
 _ZN9QFileInfoC2ERK4QDirRK7QString@Qt_5 5.0.2
 _ZN9QFileInfoC2ERK5QFile@Qt_5 5.0.2
 _ZN9QFileInfoC2ERK7QString@Qt_5 5.0.2
 _ZN9QFileInfoC2ERKS_@Qt_5 5.0.2
 _ZN9QFileInfoC2Ev@Qt_5 5.0.2
 _ZN9QFileInfoD1Ev@Qt_5 5.0.2
 _ZN9QFileInfoD2Ev@Qt_5 5.0.2
 _ZN9QFileInfoaSERKS_@Qt_5 5.0.2
 _ZN9QHashData11free_helperEPFvPNS_4NodeEE@Qt_5 5.0.2
 _ZN9QHashData11shared_nullE@Qt_5 5.0.2
 _ZN9QHashData12allocateNodeEi@Qt_5 5.0.2
 _ZN9QHashData12previousNodeEPNS_4NodeE@Qt_5 5.0.2
 _ZN9QHashData13detach_helperEPFvPNS_4NodeEPvEPFvS1_Eii@Qt_5 5.0.2
 _ZN9QHashData6rehashEi@Qt_5 5.0.2
 _ZN9QHashData8freeNodeEPv@Qt_5 5.0.2
 _ZN9QHashData8nextNodeEPNS_4NodeE@Qt_5 5.0.2
 _ZN9QHashData9hasShrunkEv@Qt_5 5.3.0
 _ZN9QIODevice11qt_metacallEN11QMetaObject4CallEiPPv@Qt_5 5.0.2
 _ZN9QIODevice11qt_metacastEPKc@Qt_5 5.0.2
 _ZN9QIODevice11setOpenModeE6QFlagsINS_12OpenModeFlagEE@Qt_5 5.0.2
 _ZN9QIODevice12aboutToCloseEv@Qt_5 5.0.2
 _ZN9QIODevice12bytesWrittenEx@Qt_5 5.0.2
 _ZN9QIODevice12readLineDataEPcx@Qt_5 5.0.2
 _ZN9QIODevice14setErrorStringERK7QString@Qt_5 5.0.2
 _ZN9QIODevice16channelReadyReadEi@Qt_5 5.7.0
 _ZN9QIODevice16startTransactionEv@Qt_5 5.7.0
 _ZN9QIODevice16staticMetaObjectE@Qt_5 5.0.2
 _ZN9QIODevice16waitForReadyReadEi@Qt_5 5.0.2
 _ZN9QIODevice17commitTransactionEv@Qt_5 5.7.0
 _ZN9QIODevice18setTextModeEnabledEb@Qt_5 5.0.2
 _ZN9QIODevice19channelBytesWrittenEix@Qt_5 5.7.0
 _ZN9QIODevice19readChannelFinishedEv@Qt_5 5.0.2
 _ZN9QIODevice19rollbackTransactionEv@Qt_5 5.7.0
 _ZN9QIODevice19waitForBytesWrittenEi@Qt_5 5.0.2
 _ZN9QIODevice21setCurrentReadChannelEi@Qt_5 5.7.0
 _ZN9QIODevice22setCurrentWriteChannelEi@Qt_5 5.7.0
 _ZN9QIODevice4openE6QFlagsINS_12OpenModeFlagEE@Qt_5 5.0.2
 _ZN9QIODevice4peekEPcx@Qt_5 5.0.2
 _ZN9QIODevice4peekEx@Qt_5 5.0.2
 _ZN9QIODevice4readEPcx@Qt_5 5.0.2
 _ZN9QIODevice4readEx@Qt_5 5.0.2
 _ZN9QIODevice4seekEx@Qt_5 5.0.2
 _ZN9QIODevice5closeEv@Qt_5 5.0.2
 _ZN9QIODevice5resetEv@Qt_5 5.0.2
 _ZN9QIODevice5writeEPKc@Qt_5 5.0.2
 _ZN9QIODevice5writeEPKcx@Qt_5 5.0.2
 _ZN9QIODevice7getCharEPc@Qt_5 5.0.2
 _ZN9QIODevice7putCharEc@Qt_5 5.0.2
 _ZN9QIODevice7readAllEv@Qt_5 5.0.2
 _ZN9QIODevice8readLineEPcx@Qt_5 5.0.2
 _ZN9QIODevice8readLineEx@Qt_5 5.0.2
 _ZN9QIODevice9readyReadEv@Qt_5 5.0.2
 _ZN9QIODevice9ungetCharEc@Qt_5 5.0.2
 _ZN9QIODeviceC1EP7QObject@Qt_5 5.0.2
 _ZN9QIODeviceC1ER16QIODevicePrivateP7QObject@Qt_5_PRIVATE_API 5.0.2 1
 _ZN9QIODeviceC1Ev@Qt_5 5.0.2
 _ZN9QIODeviceC2EP7QObject@Qt_5 5.0.2
 _ZN9QIODeviceC2ER16QIODevicePrivateP7QObject@Qt_5_PRIVATE_API 5.0.2 1
 _ZN9QIODeviceC2Ev@Qt_5 5.0.2
 _ZN9QIODeviceD0Ev@Qt_5 5.0.2
 _ZN9QIODeviceD1Ev@Qt_5 5.0.2
 _ZN9QIODeviceD2Ev@Qt_5 5.0.2
 _ZN9QInternal16registerCallbackENS_8CallbackEPFbPPvE@Qt_5 5.0.2
 _ZN9QInternal17activateCallbacksENS_8CallbackEPPv@Qt_5 5.0.2
 _ZN9QInternal18unregisterCallbackENS_8CallbackEPFbPPvE@Qt_5 5.0.2
 _ZN9QListData11detach_growEPii@Qt_5 5.0.2
 _ZN9QListData11shared_nullE@Qt_5 5.0.2
 _ZN9QListData12realloc_growEi@Qt_5 5.6.0~beta
 _ZN9QListData4moveEii@Qt_5 5.0.2
 _ZN9QListData5eraseEPPv@Qt_5 5.0.2
 _ZN9QListData6appendERKS_@Qt_5 5.0.2
 _ZN9QListData6appendEi@Qt_5 5.0.2
 _ZN9QListData6appendEv@Qt_5 5.0.2
 _ZN9QListData6detachEi@Qt_5 5.0.2
 _ZN9QListData6insertEi@Qt_5 5.0.2
 _ZN9QListData6removeEi@Qt_5 5.0.2
 _ZN9QListData6removeEii@Qt_5 5.0.2
 _ZN9QListData7disposeEPNS_4DataE@Qt_5 5.0.2
 _ZN9QListData7prependEv@Qt_5 5.0.2
 _ZN9QListData7reallocEi@Qt_5 5.0.2
 _ZN9QLockFile16setStaleLockTimeEi@Qt_5 5.1.0
 _ZN9QLockFile19removeStaleLockFileEv@Qt_5 5.1.0
 _ZN9QLockFile4lockEv@Qt_5 5.1.0
 _ZN9QLockFile6unlockEv@Qt_5 5.1.0
 _ZN9QLockFile7tryLockEi@Qt_5 5.1.0
 _ZN9QLockFileC1ERK7QString@Qt_5 5.1.0
 _ZN9QLockFileC2ERK7QString@Qt_5 5.1.0
 _ZN9QLockFileD1Ev@Qt_5 5.1.0
 _ZN9QLockFileD2Ev@Qt_5 5.1.0
 _ZN9QMetaType11debugStreamER6QDebugPKvi@Qt_5 5.2.0~alpha1
 _ZN9QMetaType12isRegisteredEi@Qt_5 5.0.2
 _ZN9QMetaType12registerTypeEPKcPFvPvEPFS2_PKvE@Qt_5 5.0.2
 _ZN9QMetaType12registerTypeEPKcPFvPvEPFS2_PKvES4_PFS2_S2_S6_Ei6QFlagsINS_8TypeFlagEEPK11QMetaObject@Qt_5 5.0.2
 _ZN9QMetaType14unregisterTypeEi@Qt_5 5.5.0
 _ZN9QMetaType15registerTypedefEPKci@Qt_5 5.0.2
 _ZN9QMetaType17metaObjectForTypeEi@Qt_5 5.0.2
 _ZN9QMetaType22registerNormalizedTypeERK10QByteArrayPFvPvEPFS3_PKvES5_PFS3_S3_S7_Ei6QFlagsINS_8TypeFlagEEPK11QMetaObject@Qt_5 5.0.2
 _ZN9QMetaType22registerNormalizedTypeERK10QByteArrayPFvPvEPFS3_S3_PKvEi6QFlagsINS_8TypeFlagEEPK11QMetaObject@Qt_5 5.5.0
 _ZN9QMetaType23registerStreamOperatorsEPKcPFvR11QDataStreamPKvEPFvS3_PvE@Qt_5 5.0.2
 _ZN9QMetaType23registerStreamOperatorsEiPFvR11QDataStreamPKvEPFvS1_PvE@Qt_5 5.0.2
 _ZN9QMetaType24hasRegisteredComparatorsEi@Qt_5 5.2.0~alpha1
 _ZN9QMetaType25registerConverterFunctionEPKN9QtPrivate25AbstractConverterFunctionEii@Qt_5 5.2.0~alpha1
 _ZN9QMetaType25registerNormalizedTypedefERK10QByteArrayi@Qt_5 5.0.2
 _ZN9QMetaType26registerComparatorFunctionEPKN9QtPrivate26AbstractComparatorFunctionEi@Qt_5 5.2.0~alpha1
 _ZN9QMetaType27unregisterConverterFunctionEii@Qt_5 5.2.0~alpha1
 _ZN9QMetaType30hasRegisteredConverterFunctionEii@Qt_5 5.2.0~alpha1
 _ZN9QMetaType32hasRegisteredDebugStreamOperatorEi@Qt_5 5.2.0~alpha1
 _ZN9QMetaType35registerDebugStreamOperatorFunctionEPKN9QtPrivate27AbstractDebugStreamFunctionEi@Qt_5 5.2.0~alpha1
 _ZN9QMetaType4ctorEPK18QMetaTypeInterface@Qt_5 5.0.2
 _ZN9QMetaType4dtorEv@Qt_5 5.0.2
 _ZN9QMetaType4loadER11QDataStreamiPv@Qt_5 5.0.2
 _ZN9QMetaType4saveER11QDataStreamiPKv@Qt_5 5.0.2
 _ZN9QMetaType4typeEPKc@Qt_5 5.0.2
 _ZN9QMetaType4typeERK10QByteArray@Qt_5 5.5.0
 _ZN9QMetaType6createEiPKv@Qt_5 5.0.2
 _ZN9QMetaType6equalsEPKvS1_iPi@Qt_5 5.5.0
 _ZN9QMetaType6sizeOfEi@Qt_5 5.0.2
 _ZN9QMetaType7compareEPKvS1_iPi@Qt_5 5.2.0~alpha1
 _ZN9QMetaType7convertEPKviPvi@Qt_5 5.2.0~alpha1
 _ZN9QMetaType7destroyEiPv@Qt_5 5.0.2
 _ZN9QMetaType8destructEiPv@Qt_5 5.0.2
 _ZN9QMetaType8typeInfoEi@Qt_5 5.0.2
 _ZN9QMetaType8typeNameEi@Qt_5 5.0.2
 _ZN9QMetaType9constructEiPvPKv@Qt_5 5.0.2
 _ZN9QMetaType9typeFlagsEi@Qt_5 5.0.2
 _ZN9QMetaTypeC1ERKS_@Qt_5 5.0.2
 _ZN9QMetaTypeC1Ei@Qt_5 5.0.2
 _ZN9QMetaTypeC2ERKS_@Qt_5 5.0.2
 _ZN9QMetaTypeC2Ei@Qt_5 5.0.2
 _ZN9QMetaTypeaSERKS_@Qt_5 5.0.2
 _ZN9QMimeData11qt_metacallEN11QMetaObject4CallEiPPv@Qt_5 5.0.2
 _ZN9QMimeData11qt_metacastEPKc@Qt_5 5.0.2
 _ZN9QMimeData12removeFormatERK7QString@Qt_5 5.0.2
 _ZN9QMimeData12setColorDataERK8QVariant@Qt_5 5.0.2
 _ZN9QMimeData12setImageDataERK8QVariant@Qt_5 5.0.2
 _ZN9QMimeData16staticMetaObjectE@Qt_5 5.0.2
 _ZN9QMimeData5clearEv@Qt_5 5.0.2
 _ZN9QMimeData7setDataERK7QStringRK10QByteArray@Qt_5 5.0.2
 _ZN9QMimeData7setHtmlERK7QString@Qt_5 5.0.2
 _ZN9QMimeData7setTextERK7QString@Qt_5 5.0.2
 _ZN9QMimeData7setUrlsERK5QListI4QUrlE@Qt_5 5.0.2
 _ZN9QMimeDataC1Ev@Qt_5 5.0.2
 _ZN9QMimeDataC2Ev@Qt_5 5.0.2
 _ZN9QMimeDataD0Ev@Qt_5 5.0.2
 _ZN9QMimeDataD1Ev@Qt_5 5.0.2
 _ZN9QMimeDataD2Ev@Qt_5 5.0.2
 _ZN9QMimeTypeC1ERK16QMimeTypePrivate@Qt_5_PRIVATE_API 5.0.2 1
 _ZN9QMimeTypeC1ERKS_@Qt_5 5.0.2
 _ZN9QMimeTypeC1Ev@Qt_5 5.0.2
 _ZN9QMimeTypeC2ERK16QMimeTypePrivate@Qt_5_PRIVATE_API 5.0.2 1
 _ZN9QMimeTypeC2ERKS_@Qt_5 5.0.2
 _ZN9QMimeTypeC2Ev@Qt_5 5.0.2
 _ZN9QMimeTypeD1Ev@Qt_5 5.0.2
 _ZN9QMimeTypeD2Ev@Qt_5 5.0.2
 _ZN9QMimeTypeaSERKS_@Qt_5 5.0.2
 _ZN9QResource11searchPathsEv@Qt_5 5.0.2
 _ZN9QResource11setFileNameERK7QString@Qt_5 5.0.2
 _ZN9QResource13addSearchPathERK7QString@Qt_5 5.0.2
 _ZN9QResource16registerResourceEPKhRK7QString@Qt_5 5.0.2
 _ZN9QResource16registerResourceERK7QStringS2_@Qt_5 5.0.2
 _ZN9QResource18unregisterResourceEPKhRK7QString@Qt_5 5.0.2
 _ZN9QResource18unregisterResourceERK7QStringS2_@Qt_5 5.0.2
 _ZN9QResource9setLocaleERK7QLocale@Qt_5 5.0.2
 _ZN9QResourceC1ERK7QStringRK7QLocale@Qt_5 5.0.2
 _ZN9QResourceC2ERK7QStringRK7QLocale@Qt_5 5.0.2
 _ZN9QResourceD1Ev@Qt_5 5.0.2
 _ZN9QResourceD2Ev@Qt_5 5.0.2
 _ZN9QRunnableD0Ev@Qt_5 5.6.0~beta
 _ZN9QRunnableD1Ev@Qt_5 5.6.0~beta
 _ZN9QRunnableD2Ev@Qt_5 5.6.0~beta
 _ZN9QSaveFile11qt_metacallEN11QMetaObject4CallEiPPv@Qt_5 5.1.0
 _ZN9QSaveFile11qt_metacastEPKc@Qt_5 5.1.0
 _ZN9QSaveFile11setFileNameERK7QString@Qt_5 5.1.0
 _ZN9QSaveFile13cancelWritingEv@Qt_5 5.1.0
 _ZN9QSaveFile16staticMetaObjectE@Qt_5 5.1.0
 _ZN9QSaveFile22setDirectWriteFallbackEb@Qt_5 5.1.0
 _ZN9QSaveFile4openE6QFlagsIN9QIODevice12OpenModeFlagEE@Qt_5 5.1.0
 _ZN9QSaveFile5closeEv@Qt_5 5.1.0
 _ZN9QSaveFile6commitEv@Qt_5 5.1.0
 _ZN9QSaveFile9writeDataEPKcx@Qt_5 5.1.0
 _ZN9QSaveFileC1EP7QObject@Qt_5 5.1.0
 _ZN9QSaveFileC1ERK7QString@Qt_5 5.1.0
 _ZN9QSaveFileC1ERK7QStringP7QObject@Qt_5 5.1.0
 _ZN9QSaveFileC2EP7QObject@Qt_5 5.1.0
 _ZN9QSaveFileC2ERK7QString@Qt_5 5.1.0
 _ZN9QSaveFileC2ERK7QStringP7QObject@Qt_5 5.1.0
 _ZN9QSaveFileD0Ev@Qt_5 5.1.0
 _ZN9QSaveFileD1Ev@Qt_5 5.1.0
 _ZN9QSaveFileD2Ev@Qt_5 5.1.0
 _ZN9QSettings10beginGroupERK7QString@Qt_5 5.0.2
 _ZN9QSettings11qt_metacallEN11QMetaObject4CallEiPPv@Qt_5 5.0.2
 _ZN9QSettings11qt_metacastEPKc@Qt_5 5.0.2
 _ZN9QSettings11setIniCodecEP10QTextCodec@Qt_5 5.0.2
 _ZN9QSettings11setIniCodecEPKc@Qt_5 5.0.2
 _ZN9QSettings13defaultFormatEv@Qt_5 5.0.2
 _ZN9QSettings13setArrayIndexEi@Qt_5 5.0.2
 _ZN9QSettings14beginReadArrayERK7QString@Qt_5 5.0.2
 (optional=templinst)_ZN9QSettings14registerFormatERK7QStringPFbR9QIODeviceR4QMapIS0_8QVariantEEPFbS4_RKS7_EN2Qt15CaseSensitivityE@Qt_5 5.0.2
 _ZN9QSettings14setUserIniPathERK7QString@Qt_5 5.0.2
 _ZN9QSettings15beginWriteArrayERK7QStringi@Qt_5 5.0.2
 _ZN9QSettings16setDefaultFormatENS_6FormatE@Qt_5 5.0.2
 _ZN9QSettings16setSystemIniPathERK7QString@Qt_5 5.0.2
 _ZN9QSettings16staticMetaObjectE@Qt_5 5.0.2
 _ZN9QSettings19setFallbacksEnabledEb@Qt_5 5.0.2
 _ZN9QSettings4syncEv@Qt_5 5.0.2
 _ZN9QSettings5clearEv@Qt_5 5.0.2
 _ZN9QSettings5eventEP6QEvent@Qt_5 5.0.2
 _ZN9QSettings6removeERK7QString@Qt_5 5.0.2
 _ZN9QSettings7setPathENS_6FormatENS_5ScopeERK7QString@Qt_5 5.0.2
 _ZN9QSettings8endArrayEv@Qt_5 5.0.2
 _ZN9QSettings8endGroupEv@Qt_5 5.0.2
 _ZN9QSettings8setValueERK7QStringRK8QVariant@Qt_5 5.0.2
 _ZN9QSettingsC1ENS_5ScopeERK7QStringS3_P7QObject@Qt_5 5.0.2
 _ZN9QSettingsC1ENS_6FormatENS_5ScopeERK7QStringS4_P7QObject@Qt_5 5.0.2
 _ZN9QSettingsC1EP7QObject@Qt_5 5.0.2
 _ZN9QSettingsC1ERK7QStringNS_6FormatEP7QObject@Qt_5 5.0.2
 _ZN9QSettingsC1ERK7QStringS2_P7QObject@Qt_5 5.0.2
 _ZN9QSettingsC2ENS_5ScopeERK7QStringS3_P7QObject@Qt_5 5.0.2
 _ZN9QSettingsC2ENS_6FormatENS_5ScopeERK7QStringS4_P7QObject@Qt_5 5.0.2
 _ZN9QSettingsC2EP7QObject@Qt_5 5.0.2
 _ZN9QSettingsC2ERK7QStringNS_6FormatEP7QObject@Qt_5 5.0.2
 _ZN9QSettingsC2ERK7QStringS2_P7QObject@Qt_5 5.0.2
 _ZN9QSettingsD0Ev@Qt_5 5.0.2
 _ZN9QSettingsD1Ev@Qt_5 5.0.2
 _ZN9QSettingsD2Ev@Qt_5 5.0.2
 _ZN9QTimeLine10timerEventEP11QTimerEvent@Qt_5 5.0.2
 _ZN9QTimeLine11qt_metacallEN11QMetaObject4CallEiPPv@Qt_5 5.0.2
 _ZN9QTimeLine11qt_metacastEPKc@Qt_5 5.0.2
 _ZN9QTimeLine11setDurationEi@Qt_5 5.0.2
 _ZN9QTimeLine11setEndFrameEi@Qt_5 5.0.2
 _ZN9QTimeLine12frameChangedEiNS_14QPrivateSignalE@Qt_5 5.0.2
 _ZN9QTimeLine12setDirectionENS_9DirectionE@Qt_5 5.0.2
 _ZN9QTimeLine12setLoopCountEi@Qt_5 5.0.2
 _ZN9QTimeLine12stateChangedENS_5StateENS_14QPrivateSignalE@Qt_5 5.0.2
 _ZN9QTimeLine12valueChangedEdNS_14QPrivateSignalE@Qt_5 5.2.0
 _ZN9QTimeLine13setCurveShapeENS_10CurveShapeE@Qt_5 5.0.2
 _ZN9QTimeLine13setFrameRangeEii@Qt_5 5.0.2
 _ZN9QTimeLine13setStartFrameEi@Qt_5 5.0.2
 _ZN9QTimeLine14setCurrentTimeEi@Qt_5 5.0.2
 _ZN9QTimeLine14setEasingCurveERK12QEasingCurve@Qt_5 5.0.2
 _ZN9QTimeLine15toggleDirectionEv@Qt_5 5.0.2
 _ZN9QTimeLine16staticMetaObjectE@Qt_5 5.0.2
 _ZN9QTimeLine17setUpdateIntervalEi@Qt_5 5.0.2
 _ZN9QTimeLine4stopEv@Qt_5 5.0.2
 _ZN9QTimeLine5startEv@Qt_5 5.0.2
 _ZN9QTimeLine6resumeEv@Qt_5 5.0.2
 _ZN9QTimeLine8finishedENS_14QPrivateSignalE@Qt_5 5.0.2
 _ZN9QTimeLine9setPausedEb@Qt_5 5.0.2
 _ZN9QTimeLineC1EiP7QObject@Qt_5 5.0.2
 _ZN9QTimeLineC2EiP7QObject@Qt_5 5.0.2
 _ZN9QTimeLineD0Ev@Qt_5 5.0.2
 _ZN9QTimeLineD1Ev@Qt_5 5.0.2
 _ZN9QTimeLineD2Ev@Qt_5 5.0.2
 _ZN9QTimeZone14systemTimeZoneEv@Qt_5 5.5.0
 _ZN9QTimeZone16systemTimeZoneIdEv@Qt_5 5.2.0~alpha1
 _ZN9QTimeZone17ianaIdToWindowsIdERK10QByteArray@Qt_5 5.2.0~rc1
 _ZN9QTimeZone18windowsIdToIanaIdsERK10QByteArray@Qt_5 5.2.0~rc1
 _ZN9QTimeZone18windowsIdToIanaIdsERK10QByteArrayN7QLocale7CountryE@Qt_5 5.2.0~rc1
 _ZN9QTimeZone20availableTimeZoneIdsEN7QLocale7CountryE@Qt_5 5.2.0~alpha1
 _ZN9QTimeZone20availableTimeZoneIdsEi@Qt_5 5.2.0~alpha1
 _ZN9QTimeZone20availableTimeZoneIdsEv@Qt_5 5.2.0~alpha1
 _ZN9QTimeZone21isTimeZoneIdAvailableERK10QByteArray@Qt_5 5.2.0~alpha1
 _ZN9QTimeZone24windowsIdToDefaultIanaIdERK10QByteArray@Qt_5 5.2.0~rc1
 _ZN9QTimeZone24windowsIdToDefaultIanaIdERK10QByteArrayN7QLocale7CountryE@Qt_5 5.2.0~rc1
 _ZN9QTimeZone3utcEv@Qt_5 5.5.0
 _ZN9QTimeZoneC1ER16QTimeZonePrivate@Qt_5_PRIVATE_API 5.2.0~alpha1 1
 _ZN9QTimeZoneC1ERK10QByteArray@Qt_5 5.2.0~alpha1
 _ZN9QTimeZoneC1ERK10QByteArrayiRK7QStringS5_N7QLocale7CountryES5_@Qt_5 5.2.0~alpha1
 _ZN9QTimeZoneC1ERKS_@Qt_5 5.2.0~alpha1
 _ZN9QTimeZoneC1Ei@Qt_5 5.2.0~alpha1
 _ZN9QTimeZoneC1Ev@Qt_5 5.2.0~alpha1
 _ZN9QTimeZoneC2ER16QTimeZonePrivate@Qt_5_PRIVATE_API 5.2.0~alpha1 1
 _ZN9QTimeZoneC2ERK10QByteArray@Qt_5 5.2.0~alpha1
 _ZN9QTimeZoneC2ERK10QByteArrayiRK7QStringS5_N7QLocale7CountryES5_@Qt_5 5.2.0~alpha1
 _ZN9QTimeZoneC2ERKS_@Qt_5 5.2.0~alpha1
 _ZN9QTimeZoneC2Ei@Qt_5 5.2.0~alpha1
 _ZN9QTimeZoneC2Ev@Qt_5 5.2.0~alpha1
 _ZN9QTimeZoneD1Ev@Qt_5 5.2.0~alpha1
 _ZN9QTimeZoneD2Ev@Qt_5 5.2.0~alpha1
 _ZN9QTimeZoneaSERKS_@Qt_5 5.2.0~alpha1
 _ZN9QUrlQuery12addQueryItemERK7QStringS2_@Qt_5 5.0.2
 _ZN9QUrlQuery13setQueryItemsERK5QListI5QPairI7QStringS2_EE@Qt_5 5.0.2
 _ZN9QUrlQuery15removeQueryItemERK7QString@Qt_5 5.0.2
 _ZN9QUrlQuery18setQueryDelimitersE5QCharS0_@Qt_5 5.0.2
 _ZN9QUrlQuery19removeAllQueryItemsERK7QString@Qt_5 5.0.2
 _ZN9QUrlQuery5clearEv@Qt_5 5.0.2
 _ZN9QUrlQuery8setQueryERK7QString@Qt_5 5.0.2
 _ZN9QUrlQueryC1ERK4QUrl@Qt_5 5.0.2
 _ZN9QUrlQueryC1ERK7QString@Qt_5 5.0.2
 _ZN9QUrlQueryC1ERKS_@Qt_5 5.0.2
 _ZN9QUrlQueryC1Ev@Qt_5 5.0.2
 _ZN9QUrlQueryC2ERK4QUrl@Qt_5 5.0.2
 _ZN9QUrlQueryC2ERK7QString@Qt_5 5.0.2
 _ZN9QUrlQueryC2ERKS_@Qt_5 5.0.2
 _ZN9QUrlQueryC2Ev@Qt_5 5.0.2
 _ZN9QUrlQueryD1Ev@Qt_5 5.0.2
 _ZN9QUrlQueryD2Ev@Qt_5 5.0.2
 _ZN9QUrlQueryaSERKS_@Qt_5 5.0.2
 _ZN9QXmlUtils10isBaseCharE5QChar@Qt_5_PRIVATE_API 5.0.2 1
 _ZN9QXmlUtils10isExtenderE5QChar@Qt_5_PRIVATE_API 5.0.2 1
 _ZN9QXmlUtils10isNameCharE5QChar@Qt_5_PRIVATE_API 5.0.2 1
 _ZN9QXmlUtils10isPublicIDERK7QString@Qt_5_PRIVATE_API 5.0.2 1
 _ZN9QXmlUtils13isIdeographicE5QChar@Qt_5_PRIVATE_API 5.0.2 1
 _ZN9QXmlUtils13rangeContainsEPK13QXmlCharRangeS2_5QChar@Qt_5_PRIVATE_API 5.0.2 1
 _ZN9QXmlUtils15isCombiningCharE5QChar@Qt_5_PRIVATE_API 5.0.2 1
 _ZN9QXmlUtils6isCharE5QChar@Qt_5_PRIVATE_API 5.0.2 1
 _ZN9QXmlUtils7isDigitE5QChar@Qt_5_PRIVATE_API 5.0.2 1
 _ZN9QXmlUtils8isLetterE5QChar@Qt_5_PRIVATE_API 5.0.2 1
 _ZN9QXmlUtils8isNCNameERK10QStringRef@Qt_5_PRIVATE_API 5.0.2 1
 _ZN9QXmlUtils9isEncNameERK7QString@Qt_5_PRIVATE_API 5.0.2 1
 _ZN9QtPrivate13isBuiltinTypeERK10QByteArray@Qt_5 5.0.2
 _ZN9QtPrivate14ExceptionStore12setExceptionERK10QException@Qt_5 5.0.2
 _ZN9QtPrivate14ExceptionStore22throwPossibleExceptionEv@Qt_5 5.0.2
 _ZN9QtPrivate14ExceptionStore9exceptionEv@Qt_5 5.0.2
 _ZN9QtPrivate15ExceptionHolderC1EP10QException@Qt_5 5.0.2
 _ZN9QtPrivate15ExceptionHolderC1ERKS0_@Qt_5 5.0.2
 _ZN9QtPrivate15ExceptionHolderC2EP10QException@Qt_5 5.0.2
 _ZN9QtPrivate15ExceptionHolderC2ERKS0_@Qt_5 5.0.2
 _ZN9QtPrivate15ExceptionHolderD1Ev@Qt_5 5.0.2
 _ZN9QtPrivate15ExceptionHolderD2Ev@Qt_5 5.0.2
 _ZN9QtPrivate15ExceptionHolderaSERKS0_@Qt_5 5.0.2
 _ZN9QtPrivate15ResultStoreBase10addResultsEiPKvii@Qt_5 5.0.2
 _ZN9QtPrivate15ResultStoreBase13setFilterModeEb@Qt_5 5.0.2
 _ZN9QtPrivate15ResultStoreBase15syncResultCountEv@Qt_5 5.0.2
 _ZN9QtPrivate15ResultStoreBase16insertResultItemEiRNS_10ResultItemE@Qt_5 5.0.2
 _ZN9QtPrivate15ResultStoreBase17updateInsertIndexEii@Qt_5 5.0.2
 _ZN9QtPrivate15ResultStoreBase18syncPendingResultsEv@Qt_5 5.0.2
 _ZN9QtPrivate15ResultStoreBase23insertResultItemIfValidEiRNS_10ResultItemE@Qt_5 5.0.2
 _ZN9QtPrivate15ResultStoreBase9addResultEiPKv@Qt_5 5.0.2
 _ZN9QtPrivate15ResultStoreBaseC1Ev@Qt_5 5.0.2
 _ZN9QtPrivate15ResultStoreBaseC2Ev@Qt_5 5.0.2
 _ZN9QtPrivate16QStringList_joinEPK11QStringListPK5QChari@Qt_5 5.0.2
 _ZN9QtPrivate16QStringList_sortEP11QStringListN2Qt15CaseSensitivityE@Qt_5 5.0.2
 _ZN9QtPrivate18QStringList_filterEPK11QStringListRK18QRegularExpression@Qt_5 5.0.2
 _ZN9QtPrivate18QStringList_filterEPK11QStringListRK7QRegExp@Qt_5 5.0.2
 _ZN9QtPrivate18QStringList_filterEPK11QStringListRK7QStringN2Qt15CaseSensitivityE@Qt_5 5.0.2
 _ZN9QtPrivate18ResultIteratorBase14batchedAdvanceEv@Qt_5 5.0.2
 _ZN9QtPrivate18ResultIteratorBaseC1EN4QMapIiNS_10ResultItemEE14const_iteratorEi@Qt_5 5.0.2
 _ZN9QtPrivate18ResultIteratorBaseC1Ev@Qt_5 5.0.2
 _ZN9QtPrivate18ResultIteratorBaseC2EN4QMapIiNS_10ResultItemEE14const_iteratorEi@Qt_5 5.0.2
 _ZN9QtPrivate18ResultIteratorBaseC2Ev@Qt_5 5.0.2
 _ZN9QtPrivate18ResultIteratorBaseppEv@Qt_5 5.0.2
 _ZN9QtPrivate19QByteArrayList_joinEPK5QListI10QByteArrayEPKci@Qt_5 5.4.0
 _ZN9QtPrivate19QStringList_indexOfEPK11QStringListR7QRegExpi@Qt_5 5.0.2
 _ZN9QtPrivate19QStringList_indexOfEPK11QStringListRK18QRegularExpressioni@Qt_5 5.0.2
 _ZN9QtPrivate19QStringList_indexOfEPK11QStringListRK7QRegExpi@Qt_5 5.0.2
 _ZN9QtPrivate20QContainerImplHelper3midEiPiS1_@Qt_5 5.4.0
 _ZN9QtPrivate20QStringList_containsEPK11QStringListRK7QStringN2Qt15CaseSensitivityE@Qt_5 5.0.2
 _ZN9QtPrivate23QStringList_lastIndexOfEPK11QStringListR7QRegExpi@Qt_5 5.0.2
 _ZN9QtPrivate23QStringList_lastIndexOfEPK11QStringListRK18QRegularExpressioni@Qt_5 5.0.2
 _ZN9QtPrivate23QStringList_lastIndexOfEPK11QStringListRK7QRegExpi@Qt_5 5.0.2
 _ZN9QtPrivate28QStringList_removeDuplicatesEP11QStringList@Qt_5 5.0.2
 _ZN9QtPrivate28QStringList_replaceInStringsEP11QStringListRK18QRegularExpressionRK7QString@Qt_5 5.0.2
 _ZN9QtPrivate28QStringList_replaceInStringsEP11QStringListRK7QRegExpRK7QString@Qt_5 5.0.2
 _ZN9QtPrivate28QStringList_replaceInStringsEP11QStringListRK7QStringS4_N2Qt15CaseSensitivityE@Qt_5 5.0.2
 _ZNK10QByteArray10simplifiedEv@Qt_5 5.0.2
 _ZNK10QByteArray10startsWithEPKc@Qt_5 5.0.2
 _ZNK10QByteArray10startsWithERKS_@Qt_5 5.0.2
 _ZNK10QByteArray10startsWithEc@Qt_5 5.0.2
 _ZNK10QByteArray10toLongLongEPbi@Qt_5 5.0.2
 _ZNK10QByteArray11lastIndexOfEPKci@Qt_5 5.0.2
 _ZNK10QByteArray11lastIndexOfERKS_i@Qt_5 5.0.2
 _ZNK10QByteArray11lastIndexOfEci@Qt_5 5.0.2
 _ZNK10QByteArray11toULongLongEPbi@Qt_5 5.0.2
 _ZNK10QByteArray13leftJustifiedEicb@Qt_5 5.0.2
 _ZNK10QByteArray13nulTerminatedEv@Qt_5 5.0.2
 _ZNK10QByteArray14rightJustifiedEicb@Qt_5 5.0.2
 _ZNK10QByteArray17toPercentEncodingERKS_S1_c@Qt_5 5.0.2
 _ZNK10QByteArray3midEii@Qt_5 5.0.2
 _ZNK10QByteArray4leftEi@Qt_5 5.0.2
 _ZNK10QByteArray5countEPKc@Qt_5 5.0.2
 _ZNK10QByteArray5countERKS_@Qt_5 5.0.2
 _ZNK10QByteArray5countEc@Qt_5 5.0.2
 _ZNK10QByteArray5rightEi@Qt_5 5.0.2
 _ZNK10QByteArray5splitEc@Qt_5 5.0.2
 _ZNK10QByteArray5toHexEv@Qt_5 5.0.2
 _ZNK10QByteArray5toIntEPbi@Qt_5 5.0.2
 _ZNK10QByteArray6isNullEv@Qt_5 5.0.2
 _ZNK10QByteArray6toLongEPbi@Qt_5 5.0.2
 _ZNK10QByteArray6toUIntEPbi@Qt_5 5.0.2
 _ZNK10QByteArray7indexOfEPKci@Qt_5 5.0.2
 _ZNK10QByteArray7indexOfERKS_i@Qt_5 5.0.2
 _ZNK10QByteArray7indexOfEci@Qt_5 5.0.2
 _ZNK10QByteArray7toFloatEPb@Qt_5 5.0.2
 _ZNK10QByteArray7toLowerEv@Qt_5 5.0.2
 _ZNK10QByteArray7toShortEPbi@Qt_5 5.0.2
 _ZNK10QByteArray7toULongEPbi@Qt_5 5.0.2
 _ZNK10QByteArray7toUpperEv@Qt_5 5.0.2
 _ZNK10QByteArray7trimmedEv@Qt_5 5.0.2
 _ZNK10QByteArray8endsWithEPKc@Qt_5 5.0.2
 _ZNK10QByteArray8endsWithERKS_@Qt_5 5.0.2
 _ZNK10QByteArray8endsWithEc@Qt_5 5.0.2
 _ZNK10QByteArray8repeatedEi@Qt_5 5.0.2
 _ZNK10QByteArray8toBase64E6QFlagsINS_12Base64OptionEE@Qt_5 5.2.0~alpha1
 _ZNK10QByteArray8toBase64Ev@Qt_5 5.0.2
 _ZNK10QByteArray8toDoubleEPb@Qt_5 5.0.2
 _ZNK10QByteArray8toUShortEPbi@Qt_5 5.0.2
 _ZNK10QEventLoop10metaObjectEv@Qt_5 5.0.2
 _ZNK10QEventLoop9isRunningEv@Qt_5 5.0.2
 _ZNK10QException5cloneEv@Qt_5 5.0.2
 _ZNK10QException5raiseEv@Qt_5 5.0.2
 _ZNK10QJsonArray13toVariantListEv@Qt_5 5.0.2
 _ZNK10QJsonArray2atEi@Qt_5 5.0.2
 _ZNK10QJsonArray4lastEv@Qt_5 5.0.2
 _ZNK10QJsonArray4sizeEv@Qt_5 5.0.2
 _ZNK10QJsonArray5firstEv@Qt_5 5.0.2
 _ZNK10QJsonArray7isEmptyEv@Qt_5 5.0.2
 _ZNK10QJsonArray8containsERK10QJsonValue@Qt_5 5.0.2
 _ZNK10QJsonArrayeqERKS_@Qt_5 5.0.2
 _ZNK10QJsonArrayixEi@Qt_5 5.0.2
 _ZNK10QJsonArrayneERKS_@Qt_5 5.0.2
 _ZNK10QJsonValue4typeEv@Qt_5 5.0.2
 _ZNK10QJsonValue5toIntEi@Qt_5 5.2.0~alpha1
 _ZNK10QJsonValue6toBoolEb@Qt_5 5.0.2
 _ZNK10QJsonValue7toArrayERK10QJsonArray@Qt_5 5.0.2
 _ZNK10QJsonValue7toArrayEv@Qt_5 5.0.2
 _ZNK10QJsonValue8toDoubleEd@Qt_5 5.0.2
 _ZNK10QJsonValue8toObjectERK11QJsonObject@Qt_5 5.0.2
 _ZNK10QJsonValue8toObjectEv@Qt_5 5.0.2
 _ZNK10QJsonValue8toStringERK7QString@Qt_5 5.0.2
 _ZNK10QJsonValue8toStringEv@Qt_5 5.7.0
 _ZNK10QJsonValue9toVariantEv@Qt_5 5.0.2
 _ZNK10QJsonValueeqERKS_@Qt_5 5.0.2
 _ZNK10QJsonValueneERKS_@Qt_5 5.0.2
 _ZNK10QSemaphore9availableEv@Qt_5 5.0.2
 _ZNK10QStringRef10startsWithE13QLatin1StringN2Qt15CaseSensitivityE@Qt_5 5.0.2
 _ZNK10QStringRef10startsWithE5QCharN2Qt15CaseSensitivityE@Qt_5 5.0.2
 _ZNK10QStringRef10startsWithERK7QStringN2Qt15CaseSensitivityE@Qt_5 5.0.2
 _ZNK10QStringRef10startsWithERKS_N2Qt15CaseSensitivityE@Qt_5 5.0.2
 _ZNK10QStringRef10toLongLongEPbi@Qt_5 5.1.0
 _ZNK10QStringRef11lastIndexOfE13QLatin1StringiN2Qt15CaseSensitivityE@Qt_5 5.0.2
 _ZNK10QStringRef11lastIndexOfE5QChariN2Qt15CaseSensitivityE@Qt_5 5.0.2
 _ZNK10QStringRef11lastIndexOfERK7QStringiN2Qt15CaseSensitivityE@Qt_5 5.0.2
 _ZNK10QStringRef11lastIndexOfERKS_iN2Qt15CaseSensitivityE@Qt_5 5.0.2
 _ZNK10QStringRef11toLocal8BitEv@Qt_5 5.0.2
 _ZNK10QStringRef11toULongLongEPbi@Qt_5 5.1.0
 _ZNK10QStringRef3midEii@Qt_5 5.2.0~alpha1
 _ZNK10QStringRef4leftEi@Qt_5 5.2.0~alpha1
 _ZNK10QStringRef5countE5QCharN2Qt15CaseSensitivityE@Qt_5 5.0.2
 _ZNK10QStringRef5countERK7QStringN2Qt15CaseSensitivityE@Qt_5 5.0.2
 _ZNK10QStringRef5countERKS_N2Qt15CaseSensitivityE@Qt_5 5.0.2
 _ZNK10QStringRef5rightEi@Qt_5 5.2.0~alpha1
 _ZNK10QStringRef5splitE5QCharN7QString13SplitBehaviorEN2Qt15CaseSensitivityE@Qt_5 5.4.0
 _ZNK10QStringRef5splitERK7QStringNS0_13SplitBehaviorEN2Qt15CaseSensitivityE@Qt_5 5.4.0
 _ZNK10QStringRef5toIntEPbi@Qt_5 5.1.0
 _ZNK10QStringRef6toLongEPbi@Qt_5 5.1.0
 _ZNK10QStringRef6toUIntEPbi@Qt_5 5.1.0
 _ZNK10QStringRef6toUcs4Ev@Qt_5 5.0.2
 _ZNK10QStringRef6toUtf8Ev@Qt_5 5.0.2
 _ZNK10QStringRef7indexOfE13QLatin1StringiN2Qt15CaseSensitivityE@Qt_5 5.0.2
 _ZNK10QStringRef7indexOfE5QChariN2Qt15CaseSensitivityE@Qt_5 5.0.2
 _ZNK10QStringRef7indexOfERK7QStringiN2Qt15CaseSensitivityE@Qt_5 5.0.2
 _ZNK10QStringRef7indexOfERKS_iN2Qt15CaseSensitivityE@Qt_5 5.0.2
 _ZNK10QStringRef7toFloatEPb@Qt_5 5.1.0
 _ZNK10QStringRef7toShortEPbi@Qt_5 5.1.0
 _ZNK10QStringRef7toULongEPbi@Qt_5 5.1.0
 _ZNK10QStringRef7trimmedEv@Qt_5 5.1.0
 _ZNK10QStringRef8appendToEP7QString@Qt_5 5.0.2
 _ZNK10QStringRef8endsWithE13QLatin1StringN2Qt15CaseSensitivityE@Qt_5 5.0.2
 _ZNK10QStringRef8endsWithE5QCharN2Qt15CaseSensitivityE@Qt_5 5.0.2
 _ZNK10QStringRef8endsWithERK7QStringN2Qt15CaseSensitivityE@Qt_5 5.0.2
 _ZNK10QStringRef8endsWithERKS_N2Qt15CaseSensitivityE@Qt_5 5.0.2
 _ZNK10QStringRef8toDoubleEPb@Qt_5 5.1.0
 _ZNK10QStringRef8toLatin1Ev@Qt_5 5.0.2
 _ZNK10QStringRef8toStringEv@Qt_5 5.0.2
 _ZNK10QStringRef8toUShortEPbi@Qt_5 5.1.0
 _ZNK10QTextCodec11fromUnicodeERK7QString@Qt_5 5.0.2
 _ZNK10QTextCodec11makeDecoderE6QFlagsINS_14ConversionFlagEE@Qt_5 5.0.2
 _ZNK10QTextCodec11makeEncoderE6QFlagsINS_14ConversionFlagEE@Qt_5 5.0.2
 _ZNK10QTextCodec7aliasesEv@Qt_5 5.0.2
 _ZNK10QTextCodec9canEncodeE5QChar@Qt_5 5.0.2
 _ZNK10QTextCodec9canEncodeERK7QString@Qt_5 5.0.2
 _ZNK10QTextCodec9toUnicodeEPKc@Qt_5 5.0.2
 _ZNK10QTextCodec9toUnicodeERK10QByteArray@Qt_5 5.0.2
 _ZNK11QBasicMutex11isRecursiveEv@Qt_5 5.7.0
 _ZNK11QDataStream22floatingPointPrecisionEv@Qt_5 5.0.2
 _ZNK11QDataStream5atEndEv@Qt_5 5.0.2
 _ZNK11QDataStream6statusEv@Qt_5 5.0.2
 _ZNK11QFileDevice10metaObjectEv@Qt_5 5.0.2
 _ZNK11QFileDevice11permissionsEv@Qt_5 5.0.2
 _ZNK11QFileDevice12isSequentialEv@Qt_5 5.0.2
 _ZNK11QFileDevice3posEv@Qt_5 5.0.2
 _ZNK11QFileDevice4sizeEv@Qt_5 5.0.2
 _ZNK11QFileDevice5atEndEv@Qt_5 5.0.2
 _ZNK11QFileDevice5errorEv@Qt_5 5.0.2
 _ZNK11QFileDevice6handleEv@Qt_5 5.0.2
 _ZNK11QFileDevice8fileNameEv@Qt_5 5.0.2
 _ZNK11QFinalState10metaObjectEv@Qt_5 5.0.2
 _ZNK11QJsonObject12toVariantMapEv@Qt_5 5.0.2
 _ZNK11QJsonObject13toVariantHashEv@Qt_5 5.5.0
 _ZNK11QJsonObject4keysEv@Qt_5 5.0.2
 _ZNK11QJsonObject4sizeEv@Qt_5 5.0.2
 _ZNK11QJsonObject5keyAtEi@Qt_5 5.0.2
 _ZNK11QJsonObject5valueE13QLatin1String@Qt_5 5.7.0
 _ZNK11QJsonObject5valueERK7QString@Qt_5 5.0.2
 _ZNK11QJsonObject7isEmptyEv@Qt_5 5.0.2
 _ZNK11QJsonObject7valueAtEi@Qt_5 5.0.2
 _ZNK11QJsonObject8containsE13QLatin1String@Qt_5 5.7.0
 _ZNK11QJsonObject8containsERK7QString@Qt_5 5.0.2
 _ZNK11QJsonObject9constFindE13QLatin1String@Qt_5 5.7.0
 _ZNK11QJsonObject9constFindERK7QString@Qt_5 5.0.2
 _ZNK11QJsonObjecteqERKS_@Qt_5 5.0.2
 _ZNK11QJsonObjectixERK7QString@Qt_5 5.0.2
 _ZNK11QJsonObjectneERKS_@Qt_5 5.0.2
 _ZNK11QLocaleData13validateCharsERK7QStringNS_10NumberModeEP10QByteArrayi6QFlagsIN7QLocale12NumberOptionEE@Qt_5 5.7.0
 _ZNK11QMetaMethod10attributesEv@Qt_5 5.0.2
 _ZNK11QMetaMethod10methodTypeEv@Qt_5 5.0.2
 _ZNK11QMetaMethod10returnTypeEv@Qt_5 5.0.2
 _ZNK11QMetaMethod11methodIndexEv@Qt_5 5.0.2
 _ZNK11QMetaMethod13parameterTypeEi@Qt_5 5.0.2
 _ZNK11QMetaMethod14invokeOnGadgetEPv22QGenericReturnArgument16QGenericArgumentS2_S2_S2_S2_S2_S2_S2_S2_S2_@Qt_5 5.5.0
 _ZNK11QMetaMethod14parameterCountEv@Qt_5 5.0.2
 _ZNK11QMetaMethod14parameterNamesEv@Qt_5 5.0.2
 _ZNK11QMetaMethod14parameterTypesEv@Qt_5 5.0.2
 _ZNK11QMetaMethod15methodSignatureEv@Qt_5 5.0.2
 _ZNK11QMetaMethod17getParameterTypesEPi@Qt_5 5.0.2
 _ZNK11QMetaMethod3tagEv@Qt_5 5.0.2
 _ZNK11QMetaMethod4nameEv@Qt_5 5.0.2
 _ZNK11QMetaMethod6accessEv@Qt_5 5.0.2
 _ZNK11QMetaMethod6invokeEP7QObjectN2Qt14ConnectionTypeE22QGenericReturnArgument16QGenericArgumentS5_S5_S5_S5_S5_S5_S5_S5_S5_@Qt_5 5.0.2
 _ZNK11QMetaMethod8revisionEv@Qt_5 5.0.2
 _ZNK11QMetaMethod8typeNameEv@Qt_5 5.0.2
 _ZNK11QMetaObject10Connection18isConnected_helperEv@Qt_5 5.5.1
 _ZNK11QMetaObject10enumeratorEi@Qt_5 5.0.2
 _ZNK11QMetaObject11constructorEi@Qt_5 5.0.2
 _ZNK11QMetaObject11indexOfSlotEPKc@Qt_5 5.0.2
 _ZNK11QMetaObject11methodCountEv@Qt_5 5.0.2
 _ZNK11QMetaObject11newInstanceE16QGenericArgumentS0_S0_S0_S0_S0_S0_S0_S0_S0_@Qt_5 5.0.2
 _ZNK11QMetaObject12methodOffsetEv@Qt_5 5.0.2
 _ZNK11QMetaObject12userPropertyEv@Qt_5 5.0.2
 _ZNK11QMetaObject13indexOfMethodEPKc@Qt_5 5.0.2
 _ZNK11QMetaObject13indexOfSignalEPKc@Qt_5 5.0.2
 _ZNK11QMetaObject13propertyCountEv@Qt_5 5.0.2
 _ZNK11QMetaObject14classInfoCountEv@Qt_5 5.0.2
 _ZNK11QMetaObject14propertyOffsetEv@Qt_5 5.0.2
 _ZNK11QMetaObject15classInfoOffsetEv@Qt_5 5.0.2
 _ZNK11QMetaObject15enumeratorCountEv@Qt_5 5.0.2
 _ZNK11QMetaObject15indexOfPropertyEPKc@Qt_5 5.0.2
 _ZNK11QMetaObject15static_metacallENS_4CallEiPPv@Qt_5 5.0.2
 _ZNK11QMetaObject16constructorCountEv@Qt_5 5.0.2
 _ZNK11QMetaObject16enumeratorOffsetEv@Qt_5 5.0.2
 _ZNK11QMetaObject16indexOfClassInfoEPKc@Qt_5 5.0.2
 _ZNK11QMetaObject17indexOfEnumeratorEPKc@Qt_5 5.0.2
 _ZNK11QMetaObject18indexOfConstructorEPKc@Qt_5 5.0.2
 _ZNK11QMetaObject2trEPKcS1_i@Qt_5 5.0.2
 _ZNK11QMetaObject4castEP7QObject@Qt_5 5.0.2
 _ZNK11QMetaObject4castEPK7QObject@Qt_5 5.0.2
 _ZNK11QMetaObject6methodEi@Qt_5 5.0.2
 _ZNK11QMetaObject8inheritsEPKS_@Qt_5 5.7.0
 _ZNK11QMetaObject8propertyEi@Qt_5 5.0.2
 _ZNK11QMetaObject9classInfoEi@Qt_5 5.0.2
 _ZNK11QMetaObject9classNameEv@Qt_5 5.0.2
 _ZNK11QObjectData17dynamicMetaObjectEv@Qt_5 5.0.2
 _ZNK11QRingBuffer21readPointerAtPositionExRx@Qt_5 5.6.0~beta
 _ZNK11QRingBuffer4peekEPcxx@Qt_5 5.6.0~beta
 _ZNK11QRingBuffer7indexOfEcxx@Qt_5 5.7.0
 _ZNK11QTextStream10fieldWidthEv@Qt_5 5.0.2
 _ZNK11QTextStream11integerBaseEv@Qt_5 5.0.2
 _ZNK11QTextStream11numberFlagsEv@Qt_5 5.0.2
 _ZNK11QTextStream14fieldAlignmentEv@Qt_5 5.0.2
 _ZNK11QTextStream17autoDetectUnicodeEv@Qt_5 5.0.2
 _ZNK11QTextStream18realNumberNotationEv@Qt_5 5.0.2
 _ZNK11QTextStream19realNumberPrecisionEv@Qt_5 5.0.2
 _ZNK11QTextStream21generateByteOrderMarkEv@Qt_5 5.0.2
 _ZNK11QTextStream3posEv@Qt_5 5.0.2
 _ZNK11QTextStream5atEndEv@Qt_5 5.0.2
 _ZNK11QTextStream5codecEv@Qt_5 5.0.2
 _ZNK11QTextStream6deviceEv@Qt_5 5.0.2
 _ZNK11QTextStream6localeEv@Qt_5 5.0.2
 _ZNK11QTextStream6statusEv@Qt_5 5.0.2
 _ZNK11QTextStream6stringEv@Qt_5 5.0.2
 _ZNK11QTextStream7padCharEv@Qt_5 5.0.2
 _ZNK11QThreadPool10metaObjectEv@Qt_5 5.0.2
 _ZNK11QThreadPool13expiryTimeoutEv@Qt_5 5.0.2
 _ZNK11QThreadPool14maxThreadCountEv@Qt_5 5.0.2
 _ZNK11QThreadPool17activeThreadCountEv@Qt_5 5.0.2
 _ZNK11QTranslator10metaObjectEv@Qt_5 5.0.2
 _ZNK11QTranslator7isEmptyEv@Qt_5 5.0.2
 _ZNK11QTranslator9translateEPKcS1_S1_i@Qt_5 5.0.2
 _ZNK12QDirIterator4pathEv@Qt_5 5.0.2
 _ZNK12QDirIterator7hasNextEv@Qt_5 5.0.2
 _ZNK12QDirIterator8fileInfoEv@Qt_5 5.0.2
 _ZNK12QDirIterator8fileNameEv@Qt_5 5.0.2
 _ZNK12QDirIterator8filePathEv@Qt_5 5.0.2
 _ZNK12QEasingCurve10customTypeEv@Qt_5 5.0.2
 _ZNK12QEasingCurve13toCubicSplineEv@Qt_5 5.0.2
 _ZNK12QEasingCurve16valueForProgressEd@Qt_5 5.2.0
 _ZNK12QEasingCurve4typeEv@Qt_5 5.0.2
 _ZNK12QEasingCurve6periodEv@Qt_5 5.0.2
 _ZNK12QEasingCurve9amplitudeEv@Qt_5 5.0.2
 _ZNK12QEasingCurve9overshootEv@Qt_5 5.0.2
 _ZNK12QEasingCurveeqERKS_@Qt_5 5.0.2
 _ZNK12QMapNodeBase12previousNodeEv@Qt_5 5.0.2
 _ZNK12QMapNodeBase8nextNodeEv@Qt_5 5.0.2
 _ZNK12QStorageInfo10bytesTotalEv@Qt_5 5.4.0
 _ZNK12QStorageInfo10isReadOnlyEv@Qt_5 5.4.0
 _ZNK12QStorageInfo11displayNameEv@Qt_5 5.4.0
 _ZNK12QStorageInfo14bytesAvailableEv@Qt_5 5.4.0
 _ZNK12QStorageInfo14fileSystemTypeEv@Qt_5 5.4.0
 _ZNK12QStorageInfo4nameEv@Qt_5 5.4.0
 _ZNK12QStorageInfo6deviceEv@Qt_5 5.4.0
 _ZNK12QStorageInfo7isReadyEv@Qt_5 5.4.0
 _ZNK12QStorageInfo7isValidEv@Qt_5 5.4.0
 _ZNK12QStorageInfo8rootPathEv@Qt_5 5.4.0
 _ZNK12QStorageInfo9blockSizeEv@Qt_5 5.6.0~beta
 _ZNK12QStorageInfo9bytesFreeEv@Qt_5 5.4.0
 _ZNK12QSystemError8toStringEv@Qt_5_PRIVATE_API 5.6.0~beta 1
 _ZNK12QTextDecoder10hasFailureEv@Qt_5 5.0.2
 _ZNK12QTextEncoder10hasFailureEv@Qt_5 5.0.2
 _ZNK13QElapsedTimer10hasExpiredEx@Qt_5 5.0.2
 _ZNK13QElapsedTimer12nsecsElapsedEv@Qt_5 5.0.2
 _ZNK13QElapsedTimer19msecsSinceReferenceEv@Qt_5 5.0.2
 _ZNK13QElapsedTimer6secsToERKS_@Qt_5 5.0.2
 _ZNK13QElapsedTimer7elapsedEv@Qt_5 5.0.2
 _ZNK13QElapsedTimer7isValidEv@Qt_5 5.0.2
 _ZNK13QElapsedTimer7msecsToERKS_@Qt_5 5.0.2
 _ZNK13QFSFileEngine12isSequentialEv@Qt_5_PRIVATE_API 5.4.0 1
 _ZNK13QFSFileEngine13caseSensitiveEv@Qt_5_PRIVATE_API 5.4.0 1
 _ZNK13QFSFileEngine14isRelativePathEv@Qt_5_PRIVATE_API 5.4.0 1
 _ZNK13QFSFileEngine17supportsExtensionEN19QAbstractFileEngine9ExtensionE@Qt_5_PRIVATE_API 5.4.0 1
 _ZNK13QFSFileEngine3posEv@Qt_5_PRIVATE_API 5.4.0 1
 _ZNK13QFSFileEngine4sizeEv@Qt_5_PRIVATE_API 5.4.0 1
 _ZNK13QFSFileEngine5mkdirERK7QStringb@Qt_5_PRIVATE_API 5.4.0 1
 _ZNK13QFSFileEngine5ownerEN19QAbstractFileEngine9FileOwnerE@Qt_5_PRIVATE_API 5.4.0 1
 _ZNK13QFSFileEngine5rmdirERK7QStringb@Qt_5_PRIVATE_API 5.4.0 1
 _ZNK13QFSFileEngine6handleEv@Qt_5_PRIVATE_API 5.4.0 1
 _ZNK13QFSFileEngine7ownerIdEN19QAbstractFileEngine9FileOwnerE@Qt_5_PRIVATE_API 5.4.0 1
 _ZNK13QFSFileEngine8fileNameEN19QAbstractFileEngine8FileNameE@Qt_5_PRIVATE_API 5.4.0 1
 _ZNK13QFSFileEngine8fileTimeEN19QAbstractFileEngine8FileTimeE@Qt_5_PRIVATE_API 5.4.0 1
 _ZNK13QFSFileEngine9entryListE6QFlagsIN4QDir6FilterEERK11QStringList@Qt_5_PRIVATE_API 5.4.0 1
 _ZNK13QFSFileEngine9fileFlagsE6QFlagsIN19QAbstractFileEngine8FileFlagEE@Qt_5_PRIVATE_API 5.4.0 1
 _ZNK13QFileSelector10metaObjectEv@Qt_5 5.2.0~alpha1
 _ZNK13QFileSelector12allSelectorsEv@Qt_5 5.2.0~alpha1
 _ZNK13QFileSelector14extraSelectorsEv@Qt_5 5.2.0~alpha1
 _ZNK13QFileSelector6selectERK4QUrl@Qt_5 5.2.0~alpha1
 _ZNK13QFileSelector6selectERK7QString@Qt_5 5.2.0~alpha1
 _ZNK13QHistoryState10metaObjectEv@Qt_5 5.0.2
 _ZNK13QHistoryState11historyTypeEv@Qt_5 5.0.2
 _ZNK13QHistoryState12defaultStateEv@Qt_5 5.0.2
 _ZNK13QHistoryState17defaultTransitionEv@Qt_5 5.6.0~beta
 _ZNK13QJsonDocument12toBinaryDataEv@Qt_5 5.0.2
 _ZNK13QJsonDocument5arrayEv@Qt_5 5.0.2
 _ZNK13QJsonDocument6isNullEv@Qt_5 5.0.2
 _ZNK13QJsonDocument6objectEv@Qt_5 5.0.2
 _ZNK13QJsonDocument6toJsonENS_10JsonFormatE@Qt_5 5.1.0
 _ZNK13QJsonDocument6toJsonEv@Qt_5 5.0.2
 _ZNK13QJsonDocument7isArrayEv@Qt_5 5.0.2
 _ZNK13QJsonDocument7isEmptyEv@Qt_5 5.0.2
 _ZNK13QJsonDocument7rawDataEPi@Qt_5 5.0.2
 _ZNK13QJsonDocument8isObjectEv@Qt_5 5.0.2
 _ZNK13QJsonDocument9toVariantEv@Qt_5 5.0.2
 _ZNK13QJsonDocumenteqERKS_@Qt_5 5.0.2
 _ZNK13QJsonValueRef7toArrayEv@Qt_5 5.0.2
 _ZNK13QJsonValueRef7toValueEv@Qt_5 5.0.2
 _ZNK13QJsonValueRef8toObjectEv@Qt_5 5.0.2
 _ZNK13QJsonValueRef9toVariantEv@Qt_5 5.5.0
 _ZNK13QMetaProperty10enumeratorEv@Qt_5 5.0.2
 _ZNK13QMetaProperty10isConstantEv@Qt_5 5.0.2
 _ZNK13QMetaProperty10isEditableEPK7QObject@Qt_5 5.0.2
 _ZNK13QMetaProperty10isEnumTypeEv@Qt_5 5.0.2
 _ZNK13QMetaProperty10isFlagTypeEv@Qt_5 5.0.2
 _ZNK13QMetaProperty10isReadableEv@Qt_5 5.0.2
 _ZNK13QMetaProperty10isWritableEv@Qt_5 5.0.2
 _ZNK13QMetaProperty12hasStdCppSetEv@Qt_5 5.0.2
 _ZNK13QMetaProperty12isDesignableEPK7QObject@Qt_5 5.0.2
 _ZNK13QMetaProperty12isResettableEv@Qt_5 5.0.2
 _ZNK13QMetaProperty12isScriptableEPK7QObject@Qt_5 5.0.2
 _ZNK13QMetaProperty12notifySignalEv@Qt_5 5.0.2
 _ZNK13QMetaProperty12readOnGadgetEPKv@Qt_5 5.5.0
 _ZNK13QMetaProperty13propertyIndexEv@Qt_5 5.0.2
 _ZNK13QMetaProperty13resetOnGadgetEPv@Qt_5 5.5.0
 _ZNK13QMetaProperty13writeOnGadgetEPvRK8QVariant@Qt_5 5.5.0
 _ZNK13QMetaProperty15hasNotifySignalEv@Qt_5 5.0.2
 _ZNK13QMetaProperty17notifySignalIndexEv@Qt_5 5.0.2
 _ZNK13QMetaProperty20registerPropertyTypeEv@Qt_5 5.5.0
 _ZNK13QMetaProperty4nameEv@Qt_5 5.0.2
 _ZNK13QMetaProperty4readEPK7QObject@Qt_5 5.0.2
 _ZNK13QMetaProperty4typeEv@Qt_5 5.0.2
 _ZNK13QMetaProperty5resetEP7QObject@Qt_5 5.0.2
 _ZNK13QMetaProperty5writeEP7QObjectRK8QVariant@Qt_5 5.0.2
 _ZNK13QMetaProperty6isUserEPK7QObject@Qt_5 5.0.2
 _ZNK13QMetaProperty7isFinalEv@Qt_5 5.0.2
 _ZNK13QMetaProperty8isStoredEPK7QObject@Qt_5 5.0.2
 _ZNK13QMetaProperty8revisionEv@Qt_5 5.0.2
 _ZNK13QMetaProperty8typeNameEv@Qt_5 5.0.2
 _ZNK13QMetaProperty8userTypeEv@Qt_5 5.0.2
 _ZNK13QMimeDatabase12allMimeTypesEv@Qt_5 5.0.2
 _ZNK13QMimeDatabase14mimeTypeForUrlERK4QUrl@Qt_5 5.0.2
 _ZNK13QMimeDatabase15mimeTypeForDataEP9QIODevice@Qt_5 5.0.2
 _ZNK13QMimeDatabase15mimeTypeForDataERK10QByteArray@Qt_5 5.0.2
 _ZNK13QMimeDatabase15mimeTypeForFileERK7QStringNS_9MatchModeE@Qt_5 5.0.2
 _ZNK13QMimeDatabase15mimeTypeForFileERK9QFileInfoNS_9MatchModeE@Qt_5 5.0.2
 _ZNK13QMimeDatabase15mimeTypeForNameERK7QString@Qt_5 5.0.2
 _ZNK13QMimeDatabase17suffixForFileNameERK7QString@Qt_5 5.0.2
 _ZNK13QMimeDatabase20mimeTypesForFileNameERK7QString@Qt_5 5.0.2
 _ZNK13QMimeDatabase26mimeTypeForFileNameAndDataERK7QStringP9QIODevice@Qt_5 5.0.2
 _ZNK13QMimeDatabase26mimeTypeForFileNameAndDataERK7QStringRK10QByteArray@Qt_5 5.0.2
 _ZNK13QPluginLoader10metaObjectEv@Qt_5 5.0.2
 _ZNK13QPluginLoader11errorStringEv@Qt_5 5.0.2
 _ZNK13QPluginLoader8fileNameEv@Qt_5 5.0.2
 _ZNK13QPluginLoader8isLoadedEv@Qt_5 5.0.2
 _ZNK13QPluginLoader8metaDataEv@Qt_5 5.0.2
 _ZNK13QPluginLoader9loadHintsEv@Qt_5 5.0.2
 _ZNK13QSharedMemory10isAttachedEv@Qt_5 5.0.2
 _ZNK13QSharedMemory10metaObjectEv@Qt_5 5.0.2
 _ZNK13QSharedMemory11errorStringEv@Qt_5 5.0.2
 _ZNK13QSharedMemory3keyEv@Qt_5 5.0.2
 _ZNK13QSharedMemory4dataEv@Qt_5 5.0.2
 _ZNK13QSharedMemory4sizeEv@Qt_5 5.0.2
 _ZNK13QSharedMemory5errorEv@Qt_5 5.0.2
 _ZNK13QSharedMemory9constDataEv@Qt_5 5.0.2
 _ZNK13QSharedMemory9nativeKeyEv@Qt_5 5.0.2
 _ZNK13QSignalMapper10metaObjectEv@Qt_5 5.0.2
 _ZNK13QSignalMapper7mappingEP7QObject@Qt_5 5.0.2
 _ZNK13QSignalMapper7mappingEP7QWidget@Qt_5 5.0.2
 _ZNK13QSignalMapper7mappingERK7QString@Qt_5 5.0.2
 _ZNK13QSignalMapper7mappingEi@Qt_5 5.0.2
 _ZNK13QStateMachine10isAnimatedEv@Qt_5 5.0.2
 _ZNK13QStateMachine10metaObjectEv@Qt_5 5.0.2
 _ZNK13QStateMachine11errorStringEv@Qt_5 5.0.2
 _ZNK13QStateMachine13configurationEv@Qt_5 5.0.2
 _ZNK13QStateMachine17defaultAnimationsEv@Qt_5 5.0.2
 _ZNK13QStateMachine19globalRestorePolicyEv@Qt_5 5.0.2
 _ZNK13QStateMachine5errorEv@Qt_5 5.0.2
 _ZNK13QStateMachine9isRunningEv@Qt_5 5.0.2
 _ZNK13QStatePrivate11childStatesEv@Qt_5_PRIVATE_API 5.6.0~rc 1
 _ZNK13QStatePrivate11transitionsEv@Qt_5_PRIVATE_API 5.6.0~rc 1
 _ZNK13QStatePrivate13historyStatesEv@Qt_5_PRIVATE_API 5.6.0~rc 1
 _ZNK13QStaticPlugin8metaDataEv@Qt_5 5.2.0~alpha1
 _ZNK13QSystemLocale16fallbackUiLocaleEv@Qt_5_PRIVATE_API 5.2.0~alpha1 1
 _ZNK13QSystemLocale5queryENS_9QueryTypeE8QVariant@Qt_5_PRIVATE_API 5.2.0~alpha1 1
 _ZNK13QTemporaryDir10autoRemoveEv@Qt_5 5.0.2
 _ZNK13QTemporaryDir11errorStringEv@Qt_5 5.6.0~beta
 _ZNK13QTemporaryDir4pathEv@Qt_5 5.0.2
 _ZNK13QTemporaryDir7isValidEv@Qt_5 5.0.2
 _ZNK13QUnifiedTimer10metaObjectEv@Qt_5_PRIVATE_API 5.0.2 1
 _ZNK13QUnifiedTimer7elapsedEv@Qt_5_PRIVATE_API 5.4.0 1
 _ZNK14QAbstractState10metaObjectEv@Qt_5 5.0.2
 _ZNK14QAbstractState11parentStateEv@Qt_5 5.0.2
 _ZNK14QAbstractState6activeEv@Qt_5 5.4.0
 _ZNK14QAbstractState7machineEv@Qt_5 5.0.2
 _ZNK14QFactoryLoader10metaObjectEv@Qt_5_PRIVATE_API 5.0.2 1
 _ZNK14QFactoryLoader6keyMapEv@Qt_5_PRIVATE_API 5.0.2 1
 _ZNK14QFactoryLoader7indexOfERK7QString@Qt_5_PRIVATE_API 5.0.2 1
 _ZNK14QFactoryLoader7libraryERK7QString@Qt_5_PRIVATE_API 5.0.2 1
 _ZNK14QFactoryLoader8instanceEi@Qt_5_PRIVATE_API 5.0.2 1
 _ZNK14QFactoryLoader8metaDataEv@Qt_5_PRIVATE_API 5.0.2 1
 _ZNK14QItemSelection7indexesEv@Qt_5 5.0.2
 _ZNK14QItemSelection8containsERK11QModelIndex@Qt_5 5.0.2
 _ZNK14QLocalePrivate16dateTimeToStringERK7QStringRK9QDateTimeRK5QDateRK5QTimePK7QLocale@Qt_5_PRIVATE_API 5.2.0~alpha1 1
 _ZNK14QLocalePrivate17measurementSystemEv@Qt_5_PRIVATE_API 5.0.2 1
 _ZNK14QLocalePrivate9bcp47NameEc@Qt_5_PRIVATE_API 5.1.0 1
 _ZNK14QMessageLogger4infoEPFRK16QLoggingCategoryvE@Qt_5 5.5.0
 _ZNK14QMessageLogger4infoEPFRK16QLoggingCategoryvEPKcz@Qt_5 5.5.0
 _ZNK14QMessageLogger4infoEPKcz@Qt_5 5.5.0
 _ZNK14QMessageLogger4infoERK16QLoggingCategory@Qt_5 5.5.0
 _ZNK14QMessageLogger4infoERK16QLoggingCategoryPKcz@Qt_5 5.5.0
 _ZNK14QMessageLogger4infoEv@Qt_5 5.5.0
 _ZNK14QMessageLogger5debugEPFRK16QLoggingCategoryvE@Qt_5 5.3.0
 _ZNK14QMessageLogger5debugEPFRK16QLoggingCategoryvEPKcz@Qt_5 5.3.0
 _ZNK14QMessageLogger5debugEPKcz@Qt_5 5.0.2
 _ZNK14QMessageLogger5debugERK16QLoggingCategory@Qt_5 5.3.0
 _ZNK14QMessageLogger5debugERK16QLoggingCategoryPKcz@Qt_5 5.3.0
 _ZNK14QMessageLogger5debugEv@Qt_5 5.0.2
 _ZNK14QMessageLogger5fatalEPKcz@Qt_5 5.0.2
 _ZNK14QMessageLogger7noDebugEv@Qt_5 5.0.2
 _ZNK14QMessageLogger7warningEPFRK16QLoggingCategoryvE@Qt_5 5.3.0
 _ZNK14QMessageLogger7warningEPFRK16QLoggingCategoryvEPKcz@Qt_5 5.3.0
 _ZNK14QMessageLogger7warningEPKcz@Qt_5 5.0.2
 _ZNK14QMessageLogger7warningERK16QLoggingCategory@Qt_5 5.3.0
 _ZNK14QMessageLogger7warningERK16QLoggingCategoryPKcz@Qt_5 5.3.0
 _ZNK14QMessageLogger7warningEv@Qt_5 5.0.2
 _ZNK14QMessageLogger8criticalEPFRK16QLoggingCategoryvE@Qt_5 5.3.0
 _ZNK14QMessageLogger8criticalEPFRK16QLoggingCategoryvEPKcz@Qt_5 5.3.0
 _ZNK14QMessageLogger8criticalEPKcz@Qt_5 5.0.2
 _ZNK14QMessageLogger8criticalERK16QLoggingCategory@Qt_5 5.3.0
 _ZNK14QMessageLogger8criticalERK16QLoggingCategoryPKcz@Qt_5 5.3.0
 _ZNK14QMessageLogger8criticalEv@Qt_5 5.0.2
 _ZNK14QMetaClassInfo4nameEv@Qt_5 5.0.2
 _ZNK14QMetaClassInfo5valueEv@Qt_5 5.0.2
 _ZNK14QObjectPrivate10senderListEv@Qt_5_PRIVATE_API 5.0.2 1
 _ZNK14QObjectPrivate11signalIndexEPKcPPK11QMetaObject@Qt_5_PRIVATE_API 5.0.2 1
 _ZNK14QObjectPrivate12receiverListEPKc@Qt_5_PRIVATE_API 5.0.2 1
 _ZNK14QObjectPrivate8isSenderEPK7QObjectPKc@Qt_5_PRIVATE_API 5.0.2 1
 _ZNK14QReadWriteLock21stateForWaitConditionEv@Qt_5 5.7.0
 _ZNK14QStringMatcher7indexInEPK5QCharii@Qt_5 5.0.2
 _ZNK14QStringMatcher7indexInERK7QStringi@Qt_5 5.0.2
 _ZNK14QStringMatcher7patternEv@Qt_5 5.0.2
 _ZNK14QTemporaryFile10autoRemoveEv@Qt_5 5.0.2
 _ZNK14QTemporaryFile10metaObjectEv@Qt_5 5.0.2
 _ZNK14QTemporaryFile12fileTemplateEv@Qt_5 5.0.2
 _ZNK14QTemporaryFile8fileNameEv@Qt_5 5.0.2
 _ZNK14QTimerInfoList16registeredTimersEP7QObject@Qt_5_PRIVATE_API 5.0.2 1
 _ZNK14QVersionNumber10isPrefixOfERKS_@Qt_5 5.4.0
 _ZNK14QVersionNumber10normalizedEv@Qt_5 5.6.0~beta
 _ZNK14QVersionNumber8segmentsEv@Qt_5 5.6.0~beta
 _ZNK14QVersionNumber8toStringEv@Qt_5 5.4.0
 _ZNK15QAnimationGroup10metaObjectEv@Qt_5 5.0.2
 _ZNK15QAnimationGroup11animationAtEi@Qt_5 5.0.2
 _ZNK15QAnimationGroup14animationCountEv@Qt_5 5.0.2
 _ZNK15QAnimationGroup16indexOfAnimationEP18QAbstractAnimation@Qt_5 5.0.2
 _ZNK15QDateTimeParser10fromStringERK7QStringP5QDateP5QTime@Qt_5_PRIVATE_API 5.0.2 1
 _ZNK15QDateTimeParser10getMaximumEv@Qt_5_PRIVATE_API 5.0.2 1
 _ZNK15QDateTimeParser10getMinimumEv@Qt_5_PRIVATE_API 5.0.2 1
 _ZNK15QDateTimeParser10sectionPosERKNS_11SectionNodeE@Qt_5_PRIVATE_API 5.0.2 1
 _ZNK15QDateTimeParser10sectionPosEi@Qt_5_PRIVATE_API 5.0.2 1
 _ZNK15QDateTimeParser11SectionNode6formatEv@Qt_5_PRIVATE_API 5.6.1 1
 _ZNK15QDateTimeParser11SectionNode9maxChangeEv@Qt_5_PRIVATE_API 5.6.1 1
 _ZNK15QDateTimeParser11absoluteMaxEiRK9QDateTime@Qt_5_PRIVATE_API 5.0.2 1
 _ZNK15QDateTimeParser11absoluteMinEi@Qt_5_PRIVATE_API 5.0.2 1
 _ZNK15QDateTimeParser11getAmPmTextENS_4AmPmENS_4CaseE@Qt_5_PRIVATE_API 5.0.2 1
 _ZNK15QDateTimeParser11sectionNodeEi@Qt_5_PRIVATE_API 5.0.2 1
 _ZNK15QDateTimeParser11sectionSizeEi@Qt_5_PRIVATE_API 5.0.2 1
 _ZNK15QDateTimeParser11sectionTextERK7QStringii@Qt_5_PRIVATE_API 5.0.2 1
 _ZNK15QDateTimeParser11sectionTextEi@Qt_5_PRIVATE_API 5.0.2 1
 _ZNK15QDateTimeParser11sectionTypeEi@Qt_5_PRIVATE_API 5.0.2 1
 _ZNK15QDateTimeParser12parseSectionERK9QDateTimeiR7QStringRiiRNS_5StateEPi@Qt_5_PRIVATE_API 5.0.2 1
 _ZNK15QDateTimeParser14potentialValueERK10QStringRefiiiRK9QDateTimei@Qt_5_PRIVATE_API 5.7.1 1
 _ZNK15QDateTimeParser14sectionMaxSizeENS_7SectionEi@Qt_5_PRIVATE_API 5.0.2 1
 _ZNK15QDateTimeParser14sectionMaxSizeEi@Qt_5_PRIVATE_API 5.0.2 1
 _ZNK15QDateTimeParser17skipToNextSectionEiRK9QDateTimeRK10QStringRef@Qt_5_PRIVATE_API 5.7.1 1
 _ZNK15QDateTimeParser5parseER7QStringRiRK9QDateTimeb@Qt_5_PRIVATE_API 5.0.2 1
 _ZNK15QDateTimeParser7findDayERK7QStringiiPS0_Pi@Qt_5_PRIVATE_API 5.0.2 1
 _ZNK15QDateTimeParser8findAmPmER7QStringiPi@Qt_5_PRIVATE_API 5.0.2 1
 _ZNK15QDateTimeParser8getDigitERK9QDateTimei@Qt_5_PRIVATE_API 5.0.2 1
 _ZNK15QDateTimeParser8setDigitER9QDateTimeii@Qt_5_PRIVATE_API 5.0.2 1
 _ZNK15QDateTimeParser9fieldInfoEi@Qt_5_PRIVATE_API 5.0.2 1
 _ZNK15QDateTimeParser9findMonthERK7QStringiiPS0_Pi@Qt_5_PRIVATE_API 5.0.2 1
 _ZNK15QDateTimeParser9stateNameENS_5StateE@Qt_5_PRIVATE_API 5.6.1 1
 _ZNK15QJsonParseError11errorStringEv@Qt_5 5.0.2
 _ZNK15QPauseAnimation10metaObjectEv@Qt_5 5.0.2
 _ZNK15QPauseAnimation8durationEv@Qt_5 5.0.2
 _ZNK15QSocketNotifier10metaObjectEv@Qt_5 5.0.2
 _ZNK15QSocketNotifier4typeEv@Qt_5 5.0.2
 _ZNK15QSocketNotifier6socketEv@Qt_5 5.0.2
 _ZNK15QSocketNotifier9isEnabledEv@Qt_5 5.0.2
 _ZNK16QAnimationDriver10metaObjectEv@Qt_5 5.0.2
 _ZNK16QAnimationDriver7elapsedEv@Qt_5 5.0.2
 _ZNK16QAnimationDriver9isRunningEv@Qt_5 5.0.2
 _ZNK16QAnimationDriver9startTimeEv@Qt_5 5.0.2
 _ZNK16QCollatorSortKey7compareERKS_@Qt_5 5.2.0~alpha1
 _ZNK16QCoreApplication10metaObjectEv@Qt_5 5.0.2
 _ZNK16QEventTransition10metaObjectEv@Qt_5 5.0.2
 _ZNK16QEventTransition11eventSourceEv@Qt_5 5.0.2
 _ZNK16QEventTransition9eventTypeEv@Qt_5 5.0.2
 _ZNK16QLoggingCategory9isEnabledE9QtMsgType@Qt_5 5.2.0~alpha1
 _ZNK16QMetaEnumBuilder3keyEi@Qt_5_PRIVATE_API 5.0.2 1
 _ZNK16QMetaEnumBuilder4nameEv@Qt_5_PRIVATE_API 5.0.2 1
 _ZNK16QMetaEnumBuilder5valueEi@Qt_5_PRIVATE_API 5.0.2 1
 _ZNK16QMetaEnumBuilder6d_funcEv@Qt_5_PRIVATE_API 5.0.2 1
 _ZNK16QMetaEnumBuilder6isFlagEv@Qt_5_PRIVATE_API 5.0.2 1
 _ZNK16QMetaEnumBuilder8keyCountEv@Qt_5_PRIVATE_API 5.0.2 1
 _ZNK16QMetaStringTable8blobSizeEv@Qt_5_PRIVATE_API 5.0.2 1
 _ZNK16QMetaStringTable9writeBlobEPc@Qt_5_PRIVATE_API 5.2.1 1
 _ZNK16QStringListModel10metaObjectEv@Qt_5 5.0.2
 _ZNK16QStringListModel10stringListEv@Qt_5 5.0.2
 _ZNK16QStringListModel20supportedDropActionsEv@Qt_5 5.0.2
 _ZNK16QStringListModel4dataERK11QModelIndexi@Qt_5 5.0.2
 _ZNK16QStringListModel5flagsERK11QModelIndex@Qt_5 5.0.2
 _ZNK16QStringListModel7siblingEiiRK11QModelIndex@Qt_5 5.0.2
 _ZNK16QStringListModel8rowCountERK11QModelIndex@Qt_5 5.0.2
 _ZNK16QSystemSemaphore11errorStringEv@Qt_5 5.0.2
 _ZNK16QSystemSemaphore3keyEv@Qt_5 5.0.2
 _ZNK16QSystemSemaphore5errorEv@Qt_5 5.0.2
 _ZNK16QTimeZonePrivate11displayNameEN9QTimeZone8TimeTypeENS0_8NameTypeERK7QLocale@Qt_5_PRIVATE_API 5.2.0~alpha1 1
 _ZNK16QTimeZonePrivate11displayNameExN9QTimeZone8NameTypeERK7QLocale@Qt_5_PRIVATE_API 5.2.0~alpha1 1
 _ZNK16QTimeZonePrivate11transitionsExx@Qt_5_PRIVATE_API 5.2.0~alpha1 1
 _ZNK16QTimeZonePrivate12abbreviationEx@Qt_5_PRIVATE_API 5.2.0~alpha1 1
 _ZNK16QTimeZonePrivate13offsetFromUtcEx@Qt_5_PRIVATE_API 5.2.0~alpha1 1
 _ZNK16QTimeZonePrivate14hasTransitionsEv@Qt_5_PRIVATE_API 5.2.0~alpha1 1
 _ZNK16QTimeZonePrivate14isDaylightTimeEx@Qt_5_PRIVATE_API 5.2.0~alpha1 1
 _ZNK16QTimeZonePrivate14nextTransitionEx@Qt_5_PRIVATE_API 5.2.0~alpha1 1
 _ZNK16QTimeZonePrivate15hasDaylightTimeEv@Qt_5_PRIVATE_API 5.2.0~alpha1 1
 _ZNK16QTimeZonePrivate16dataForLocalTimeEx@Qt_5_PRIVATE_API 5.2.0~alpha1 1
 _ZNK16QTimeZonePrivate16systemTimeZoneIdEv@Qt_5_PRIVATE_API 5.2.0~alpha1 1
 _ZNK16QTimeZonePrivate18daylightTimeOffsetEx@Qt_5_PRIVATE_API 5.2.0~alpha1 1
 _ZNK16QTimeZonePrivate18previousTransitionEx@Qt_5_PRIVATE_API 5.2.0~alpha1 1
 _ZNK16QTimeZonePrivate18standardTimeOffsetEx@Qt_5_PRIVATE_API 5.2.0~alpha1 1
 _ZNK16QTimeZonePrivate20availableTimeZoneIdsEN7QLocale7CountryE@Qt_5_PRIVATE_API 5.2.0~alpha1 1
 _ZNK16QTimeZonePrivate20availableTimeZoneIdsEi@Qt_5_PRIVATE_API 5.2.0~alpha1 1
 _ZNK16QTimeZonePrivate20availableTimeZoneIdsEv@Qt_5_PRIVATE_API 5.2.0~alpha1 1
 _ZNK16QTimeZonePrivate2idEv@Qt_5_PRIVATE_API 5.2.0~alpha1 1
 _ZNK16QTimeZonePrivate4dataEx@Qt_5_PRIVATE_API 5.2.0~alpha1 1
 _ZNK16QTimeZonePrivate7commentEv@Qt_5_PRIVATE_API 5.2.0~alpha1 1
 _ZNK16QTimeZonePrivate7countryEv@Qt_5_PRIVATE_API 5.2.0~alpha1 1
 _ZNK16QTimeZonePrivate7isValidEv@Qt_5_PRIVATE_API 5.2.0~alpha1 1
 _ZNK16QTimeZonePrivate9serializeER11QDataStream@Qt_5_PRIVATE_API 5.2.0~alpha1 1
 _ZNK16QTimeZonePrivateeqERKS_@Qt_5_PRIVATE_API 5.2.0~alpha1 1
 _ZNK16QTimeZonePrivateneERKS_@Qt_5_PRIVATE_API 5.2.0~alpha1 1
 _ZNK16QXmlStreamReader10attributesEv@Qt_5 5.0.2
 _ZNK16QXmlStreamReader10lineNumberEv@Qt_5 5.0.2
 _ZNK16QXmlStreamReader11dtdPublicIdEv@Qt_5 5.0.2
 _ZNK16QXmlStreamReader11dtdSystemIdEv@Qt_5 5.0.2
 _ZNK16QXmlStreamReader11errorStringEv@Qt_5 5.0.2
 _ZNK16QXmlStreamReader11tokenStringEv@Qt_5 5.0.2
 _ZNK16QXmlStreamReader12columnNumberEv@Qt_5 5.0.2
 _ZNK16QXmlStreamReader12isWhitespaceEv@Qt_5 5.0.2
 _ZNK16QXmlStreamReader12namespaceUriEv@Qt_5 5.0.2
 _ZNK16QXmlStreamReader13qualifiedNameEv@Qt_5 5.0.2
 _ZNK16QXmlStreamReader14entityResolverEv@Qt_5 5.0.2
 _ZNK16QXmlStreamReader15characterOffsetEv@Qt_5 5.0.2
 _ZNK16QXmlStreamReader15documentVersionEv@Qt_5 5.0.2
 _ZNK16QXmlStreamReader16documentEncodingEv@Qt_5 5.0.2
 _ZNK16QXmlStreamReader18entityDeclarationsEv@Qt_5 5.0.2
 _ZNK16QXmlStreamReader19namespaceProcessingEv@Qt_5 5.0.2
 _ZNK16QXmlStreamReader20isStandaloneDocumentEv@Qt_5 5.0.2
 _ZNK16QXmlStreamReader20notationDeclarationsEv@Qt_5 5.0.2
 _ZNK16QXmlStreamReader21namespaceDeclarationsEv@Qt_5 5.0.2
 _ZNK16QXmlStreamReader25processingInstructionDataEv@Qt_5 5.0.2
 _ZNK16QXmlStreamReader27processingInstructionTargetEv@Qt_5 5.0.2
 _ZNK16QXmlStreamReader4nameEv@Qt_5 5.0.2
 _ZNK16QXmlStreamReader4textEv@Qt_5 5.0.2
 _ZNK16QXmlStreamReader5atEndEv@Qt_5 5.0.2
 _ZNK16QXmlStreamReader5errorEv@Qt_5 5.0.2
 _ZNK16QXmlStreamReader6deviceEv@Qt_5 5.0.2
 _ZNK16QXmlStreamReader6prefixEv@Qt_5 5.0.2
 _ZNK16QXmlStreamReader7dtdNameEv@Qt_5 5.0.2
 _ZNK16QXmlStreamReader7isCDATAEv@Qt_5 5.0.2
 _ZNK16QXmlStreamReader9tokenTypeEv@Qt_5 5.0.2
 _ZNK16QXmlStreamWriter14autoFormattingEv@Qt_5 5.0.2
 _ZNK16QXmlStreamWriter20autoFormattingIndentEv@Qt_5 5.0.2
 _ZNK16QXmlStreamWriter5codecEv@Qt_5 5.0.2
 _ZNK16QXmlStreamWriter6deviceEv@Qt_5 5.0.2
 _ZNK16QXmlStreamWriter8hasErrorEv@Qt_5 5.0.2
 _ZNK17QByteArrayMatcher7indexInEPKcii@Qt_5 5.0.2
 _ZNK17QByteArrayMatcher7indexInERK10QByteArrayi@Qt_5 5.0.2
 _ZNK17QSignalTransition10metaObjectEv@Qt_5 5.0.2
 _ZNK17QSignalTransition12senderObjectEv@Qt_5 5.0.2
 _ZNK17QSignalTransition6signalEv@Qt_5 5.0.2
 _ZNK17QVariantAnimation10keyValueAtEd@Qt_5 5.2.0
 _ZNK17QVariantAnimation10metaObjectEv@Qt_5 5.0.2
 _ZNK17QVariantAnimation10startValueEv@Qt_5 5.0.2
 _ZNK17QVariantAnimation11easingCurveEv@Qt_5 5.0.2
 _ZNK17QVariantAnimation12currentValueEv@Qt_5 5.0.2
 _ZNK17QVariantAnimation12interpolatedERK8QVariantS2_d@Qt_5 5.2.0
 _ZNK17QVariantAnimation8durationEv@Qt_5 5.0.2
 _ZNK17QVariantAnimation8endValueEv@Qt_5 5.0.2
 _ZNK17QVariantAnimation9keyValuesEv@Qt_5 5.0.2
 _ZNK18QAbstractAnimation10metaObjectEv@Qt_5 5.0.2
 _ZNK18QAbstractAnimation11currentLoopEv@Qt_5 5.0.2
 _ZNK18QAbstractAnimation11currentTimeEv@Qt_5 5.0.2
 _ZNK18QAbstractAnimation13totalDurationEv@Qt_5 5.0.2
 _ZNK18QAbstractAnimation15currentLoopTimeEv@Qt_5 5.0.2
 _ZNK18QAbstractAnimation5groupEv@Qt_5 5.0.2
 _ZNK18QAbstractAnimation5stateEv@Qt_5 5.0.2
 _ZNK18QAbstractAnimation9directionEv@Qt_5 5.0.2
 _ZNK18QAbstractAnimation9loopCountEv@Qt_5 5.0.2
 _ZNK18QAbstractItemModel10encodeDataERK5QListI11QModelIndexER11QDataStream@Qt_5 5.0.2
 _ZNK18QAbstractItemModel10headerDataEiN2Qt11OrientationEi@Qt_5 5.0.2
 _ZNK18QAbstractItemModel10metaObjectEv@Qt_5 5.0.2
 _ZNK18QAbstractItemModel11hasChildrenERK11QModelIndex@Qt_5 5.0.2
 _ZNK18QAbstractItemModel12canFetchMoreERK11QModelIndex@Qt_5 5.0.2
 _ZNK18QAbstractItemModel15canDropMimeDataEPK9QMimeDataN2Qt10DropActionEiiRK11QModelIndex@Qt_5 5.0.2
 _ZNK18QAbstractItemModel19persistentIndexListEv@Qt_5 5.0.2
 _ZNK18QAbstractItemModel20supportedDragActionsEv@Qt_5 5.0.2
 _ZNK18QAbstractItemModel20supportedDropActionsEv@Qt_5 5.0.2
 _ZNK18QAbstractItemModel4spanERK11QModelIndex@Qt_5 5.0.2
 _ZNK18QAbstractItemModel5buddyERK11QModelIndex@Qt_5 5.0.2
 _ZNK18QAbstractItemModel5flagsERK11QModelIndex@Qt_5 5.0.2
 _ZNK18QAbstractItemModel5matchERK11QModelIndexiRK8QVarianti6QFlagsIN2Qt9MatchFlagEE@Qt_5 5.0.2
 _ZNK18QAbstractItemModel7siblingEiiRK11QModelIndex@Qt_5 5.0.2
 _ZNK18QAbstractItemModel8hasIndexEiiRK11QModelIndex@Qt_5 5.0.2
 _ZNK18QAbstractItemModel8itemDataERK11QModelIndex@Qt_5 5.0.2
 _ZNK18QAbstractItemModel8mimeDataERK5QListI11QModelIndexE@Qt_5 5.0.2
 _ZNK18QAbstractItemModel9mimeTypesEv@Qt_5 5.0.2
 _ZNK18QAbstractItemModel9roleNamesEv@Qt_5 5.0.2
 _ZNK18QAbstractListModel10metaObjectEv@Qt_5 5.0.2
 _ZNK18QAbstractListModel11columnCountERK11QModelIndex@Qt_5 5.0.2
 _ZNK18QAbstractListModel11hasChildrenERK11QModelIndex@Qt_5 5.0.2
 _ZNK18QAbstractListModel5flagsERK11QModelIndex@Qt_5 5.1.0
 _ZNK18QAbstractListModel5indexEiiRK11QModelIndex@Qt_5 5.0.2
 _ZNK18QAbstractListModel6parentERK11QModelIndex@Qt_5 5.0.2
 _ZNK18QAbstractListModel7siblingEiiRK11QModelIndex@Qt_5 5.5.0
 _ZNK18QCommandLineOption11descriptionEv@Qt_5 5.2.0~alpha1
 _ZNK18QCommandLineOption13defaultValuesEv@Qt_5 5.2.0~alpha1
 _ZNK18QCommandLineOption5namesEv@Qt_5 5.2.0~alpha1
 _ZNK18QCommandLineOption8isHiddenEv@Qt_5 5.6.0~beta
 _ZNK18QCommandLineOption9valueNameEv@Qt_5 5.2.0~alpha1
 _ZNK18QCommandLineParser11optionNamesEv@Qt_5 5.2.0~alpha1
 _ZNK18QCommandLineParser18unknownOptionNamesEv@Qt_5 5.2.0~alpha1
 _ZNK18QCommandLineParser19positionalArgumentsEv@Qt_5 5.2.0~alpha1
 _ZNK18QCommandLineParser22applicationDescriptionEv@Qt_5 5.2.0~alpha1
 _ZNK18QCommandLineParser5isSetERK18QCommandLineOption@Qt_5 5.2.0~alpha1
 _ZNK18QCommandLineParser5isSetERK7QString@Qt_5 5.2.0~alpha1
 _ZNK18QCommandLineParser5valueERK18QCommandLineOption@Qt_5 5.2.0~alpha1
 _ZNK18QCommandLineParser5valueERK7QString@Qt_5 5.2.0~alpha1
 _ZNK18QCommandLineParser6valuesERK18QCommandLineOption@Qt_5 5.2.0~alpha1
 _ZNK18QCommandLineParser6valuesERK7QString@Qt_5 5.2.0~alpha1
 _ZNK18QCommandLineParser8helpTextEv@Qt_5 5.2.0~alpha1
 _ZNK18QCommandLineParser9errorTextEv@Qt_5 5.2.0~alpha1
 _ZNK18QCryptographicHash6resultEv@Qt_5 5.0.2
 _ZNK18QFileSystemWatcher10metaObjectEv@Qt_5 5.0.2
 _ZNK18QFileSystemWatcher11directoriesEv@Qt_5 5.0.2
 _ZNK18QFileSystemWatcher5filesEv@Qt_5 5.0.2
 _ZNK18QFutureWatcherBase10isCanceledEv@Qt_5 5.0.2
 _ZNK18QFutureWatcherBase10isFinishedEv@Qt_5 5.0.2
 _ZNK18QFutureWatcherBase10metaObjectEv@Qt_5 5.0.2
 _ZNK18QFutureWatcherBase12progressTextEv@Qt_5 5.0.2
 _ZNK18QFutureWatcherBase13progressValueEv@Qt_5 5.0.2
 _ZNK18QFutureWatcherBase15progressMaximumEv@Qt_5 5.0.2
 _ZNK18QFutureWatcherBase15progressMinimumEv@Qt_5 5.0.2
 _ZNK18QFutureWatcherBase8isPausedEv@Qt_5 5.0.2
 _ZNK18QFutureWatcherBase9isRunningEv@Qt_5 5.0.2
 _ZNK18QFutureWatcherBase9isStartedEv@Qt_5 5.0.2
 _ZNK18QMetaMethodBuilder10attributesEv@Qt_5_PRIVATE_API 5.0.2 1
 _ZNK18QMetaMethodBuilder10methodTypeEv@Qt_5_PRIVATE_API 5.0.2 1
 _ZNK18QMetaMethodBuilder10returnTypeEv@Qt_5_PRIVATE_API 5.0.2 1
 _ZNK18QMetaMethodBuilder14parameterNamesEv@Qt_5_PRIVATE_API 5.0.2 1
 _ZNK18QMetaMethodBuilder14parameterTypesEv@Qt_5_PRIVATE_API 5.0.2 1
 _ZNK18QMetaMethodBuilder3tagEv@Qt_5_PRIVATE_API 5.0.2 1
 _ZNK18QMetaMethodBuilder5indexEv@Qt_5_PRIVATE_API 5.0.2 1
 _ZNK18QMetaMethodBuilder6accessEv@Qt_5_PRIVATE_API 5.0.2 1
 _ZNK18QMetaMethodBuilder6d_funcEv@Qt_5_PRIVATE_API 5.0.2 1
 _ZNK18QMetaMethodBuilder8revisionEv@Qt_5_PRIVATE_API 5.0.2 1
 _ZNK18QMetaMethodBuilder9signatureEv@Qt_5_PRIVATE_API 5.0.2 1
 _ZNK18QMetaObjectBuilder10enumeratorEi@Qt_5_PRIVATE_API 5.0.2 1
 _ZNK18QMetaObjectBuilder10superClassEv@Qt_5_PRIVATE_API 5.0.2 1
 _ZNK18QMetaObjectBuilder11constructorEi@Qt_5_PRIVATE_API 5.0.2 1
 _ZNK18QMetaObjectBuilder11methodCountEv@Qt_5_PRIVATE_API 5.0.2 1
 _ZNK18QMetaObjectBuilder12toMetaObjectEv@Qt_5_PRIVATE_API 5.0.2 1
 _ZNK18QMetaObjectBuilder13classInfoNameEi@Qt_5_PRIVATE_API 5.0.2 1
 _ZNK18QMetaObjectBuilder13propertyCountEv@Qt_5_PRIVATE_API 5.0.2 1
 _ZNK18QMetaObjectBuilder14classInfoCountEv@Qt_5_PRIVATE_API 5.0.2 1
 _ZNK18QMetaObjectBuilder14classInfoValueEi@Qt_5_PRIVATE_API 5.0.2 1
 _ZNK18QMetaObjectBuilder15enumeratorCountEv@Qt_5_PRIVATE_API 5.0.2 1
 _ZNK18QMetaObjectBuilder16constructorCountEv@Qt_5_PRIVATE_API 5.0.2 1
 _ZNK18QMetaObjectBuilder17relatedMetaObjectEi@Qt_5_PRIVATE_API 5.0.2 1
 _ZNK18QMetaObjectBuilder17toRelocatableDataEPb@Qt_5_PRIVATE_API 5.0.2 1
 _ZNK18QMetaObjectBuilder22relatedMetaObjectCountEv@Qt_5_PRIVATE_API 5.0.2 1
 _ZNK18QMetaObjectBuilder22staticMetacallFunctionEv@Qt_5_PRIVATE_API 5.0.2 1
 _ZNK18QMetaObjectBuilder5flagsEv@Qt_5_PRIVATE_API 5.0.2 1
 _ZNK18QMetaObjectBuilder6methodEi@Qt_5_PRIVATE_API 5.0.2 1
 _ZNK18QMetaObjectBuilder8propertyEi@Qt_5_PRIVATE_API 5.0.2 1
 _ZNK18QMetaObjectBuilder9classNameEv@Qt_5_PRIVATE_API 5.0.2 1
 _ZNK18QMetaObjectBuilder9serializeER11QDataStream@Qt_5_PRIVATE_API 5.0.2 1
 _ZNK18QPropertyAnimation10metaObjectEv@Qt_5 5.0.2
 _ZNK18QPropertyAnimation12propertyNameEv@Qt_5 5.0.2
 _ZNK18QPropertyAnimation12targetObjectEv@Qt_5 5.0.2
 _ZNK18QRegularExpression11errorStringEv@Qt_5 5.0.2
 _ZNK18QRegularExpression11globalMatchERK10QStringRefiNS_9MatchTypeE6QFlagsINS_11MatchOptionEE@Qt_5 5.5.0
 _ZNK18QRegularExpression11globalMatchERK7QStringiNS_9MatchTypeE6QFlagsINS_11MatchOptionEE@Qt_5 5.0.2
 _ZNK18QRegularExpression12captureCountEv@Qt_5 5.0.2
 _ZNK18QRegularExpression14patternOptionsEv@Qt_5 5.0.2
 _ZNK18QRegularExpression18namedCaptureGroupsEv@Qt_5 5.1.0
 _ZNK18QRegularExpression18patternErrorOffsetEv@Qt_5 5.0.2
 _ZNK18QRegularExpression5matchERK10QStringRefiNS_9MatchTypeE6QFlagsINS_11MatchOptionEE@Qt_5 5.5.0
 _ZNK18QRegularExpression5matchERK7QStringiNS_9MatchTypeE6QFlagsINS_11MatchOptionEE@Qt_5 5.0.2
 _ZNK18QRegularExpression7isValidEv@Qt_5 5.0.2
 _ZNK18QRegularExpression7patternEv@Qt_5 5.0.2
 _ZNK18QRegularExpression8optimizeEv@Qt_5 5.4.0
 _ZNK18QRegularExpressioneqERKS_@Qt_5 5.0.2
 _ZNK18QThreadPoolPrivate17activeThreadCountEv@Qt_5_PRIVATE_API 5.0.2 1
 _ZNK18QThreadPoolPrivate20tooManyThreadsActiveEv@Qt_5_PRIVATE_API 5.0.2 1
 _ZNK18QThreadStorageData3getEv@Qt_5 5.0.2
 _ZNK19QAbstractFileEngine11errorStringEv@Qt_5_PRIVATE_API 5.1.0 1
 _ZNK19QAbstractFileEngine12isSequentialEv@Qt_5_PRIVATE_API 5.1.0 1
 _ZNK19QAbstractFileEngine13caseSensitiveEv@Qt_5_PRIVATE_API 5.1.0 1
 _ZNK19QAbstractFileEngine14isRelativePathEv@Qt_5_PRIVATE_API 5.1.0 1
 _ZNK19QAbstractFileEngine17supportsExtensionENS_9ExtensionE@Qt_5_PRIVATE_API 5.1.0 1
 _ZNK19QAbstractFileEngine3posEv@Qt_5_PRIVATE_API 5.1.0 1
 _ZNK19QAbstractFileEngine4sizeEv@Qt_5_PRIVATE_API 5.1.0 1
 _ZNK19QAbstractFileEngine5atEndEv@Qt_5_PRIVATE_API 5.1.0 1
 _ZNK19QAbstractFileEngine5errorEv@Qt_5_PRIVATE_API 5.1.0 1
 _ZNK19QAbstractFileEngine5mkdirERK7QStringb@Qt_5_PRIVATE_API 5.1.0 1
 _ZNK19QAbstractFileEngine5ownerENS_9FileOwnerE@Qt_5_PRIVATE_API 5.1.0 1
 _ZNK19QAbstractFileEngine5rmdirERK7QStringb@Qt_5_PRIVATE_API 5.1.0 1
 _ZNK19QAbstractFileEngine6handleEv@Qt_5_PRIVATE_API 5.1.0 1
 _ZNK19QAbstractFileEngine7ownerIdENS_9FileOwnerE@Qt_5_PRIVATE_API 5.1.0 1
 _ZNK19QAbstractFileEngine8fileNameENS_8FileNameE@Qt_5_PRIVATE_API 5.1.0 1
 _ZNK19QAbstractFileEngine8fileTimeENS_8FileTimeE@Qt_5_PRIVATE_API 5.1.0 1
 _ZNK19QAbstractFileEngine9entryListE6QFlagsIN4QDir6FilterEERK11QStringList@Qt_5_PRIVATE_API 5.1.0 1
 _ZNK19QAbstractFileEngine9fileFlagsE6QFlagsINS_8FileFlagEE@Qt_5_PRIVATE_API 5.1.0 1
 _ZNK19QAbstractProxyModel10headerDataEiN2Qt11OrientationEi@Qt_5 5.0.2
 _ZNK19QAbstractProxyModel10metaObjectEv@Qt_5 5.0.2
 _ZNK19QAbstractProxyModel11hasChildrenERK11QModelIndex@Qt_5 5.0.2
 _ZNK19QAbstractProxyModel11sourceModelEv@Qt_5 5.0.2
 _ZNK19QAbstractProxyModel12canFetchMoreERK11QModelIndex@Qt_5 5.0.2
 _ZNK19QAbstractProxyModel15canDropMimeDataEPK9QMimeDataN2Qt10DropActionEiiRK11QModelIndex@Qt_5 5.4.0
 _ZNK19QAbstractProxyModel20mapSelectionToSourceERK14QItemSelection@Qt_5 5.0.2
 _ZNK19QAbstractProxyModel20supportedDragActionsEv@Qt_5 5.4.0
 _ZNK19QAbstractProxyModel20supportedDropActionsEv@Qt_5 5.0.2
 _ZNK19QAbstractProxyModel22mapSelectionFromSourceERK14QItemSelection@Qt_5 5.0.2
 _ZNK19QAbstractProxyModel4dataERK11QModelIndexi@Qt_5 5.0.2
 _ZNK19QAbstractProxyModel4spanERK11QModelIndex@Qt_5 5.0.2
 _ZNK19QAbstractProxyModel5buddyERK11QModelIndex@Qt_5 5.0.2
 _ZNK19QAbstractProxyModel5flagsERK11QModelIndex@Qt_5 5.0.2
 _ZNK19QAbstractProxyModel7siblingEiiRK11QModelIndex@Qt_5 5.0.2
 _ZNK19QAbstractProxyModel8itemDataERK11QModelIndex@Qt_5 5.0.2
 _ZNK19QAbstractProxyModel8mimeDataERK5QListI11QModelIndexE@Qt_5 5.0.2
 _ZNK19QAbstractProxyModel9mimeTypesEv@Qt_5 5.0.2
 _ZNK19QAbstractTableModel10metaObjectEv@Qt_5 5.0.2
 _ZNK19QAbstractTableModel11hasChildrenERK11QModelIndex@Qt_5 5.0.2
 _ZNK19QAbstractTableModel5flagsERK11QModelIndex@Qt_5 5.1.0
 _ZNK19QAbstractTableModel5indexEiiRK11QModelIndex@Qt_5 5.0.2
 _ZNK19QAbstractTableModel6parentERK11QModelIndex@Qt_5 5.0.2
 _ZNK19QAbstractTableModel7siblingEiiRK11QModelIndex@Qt_5 5.5.0
 _ZNK19QAbstractTransition10animationsEv@Qt_5 5.0.2
 _ZNK19QAbstractTransition10metaObjectEv@Qt_5 5.0.2
 _ZNK19QAbstractTransition11sourceStateEv@Qt_5 5.0.2
 _ZNK19QAbstractTransition11targetStateEv@Qt_5 5.0.2
 _ZNK19QAbstractTransition12targetStatesEv@Qt_5 5.0.2
 _ZNK19QAbstractTransition14transitionTypeEv@Qt_5 5.5.0
 _ZNK19QAbstractTransition7machineEv@Qt_5 5.0.2
 _ZNK19QIdentityProxyModel10headerDataEiN2Qt11OrientationEi@Qt_5 5.0.2
 _ZNK19QIdentityProxyModel10metaObjectEv@Qt_5 5.0.2
 _ZNK19QIdentityProxyModel11columnCountERK11QModelIndex@Qt_5 5.0.2
 _ZNK19QIdentityProxyModel11mapToSourceERK11QModelIndex@Qt_5 5.0.2
 _ZNK19QIdentityProxyModel13mapFromSourceERK11QModelIndex@Qt_5 5.0.2
 _ZNK19QIdentityProxyModel20mapSelectionToSourceERK14QItemSelection@Qt_5 5.0.2
 _ZNK19QIdentityProxyModel22mapSelectionFromSourceERK14QItemSelection@Qt_5 5.0.2
 _ZNK19QIdentityProxyModel5indexEiiRK11QModelIndex@Qt_5 5.0.2
 _ZNK19QIdentityProxyModel5matchERK11QModelIndexiRK8QVarianti6QFlagsIN2Qt9MatchFlagEE@Qt_5 5.0.2
 _ZNK19QIdentityProxyModel6parentERK11QModelIndex@Qt_5 5.0.2
 _ZNK19QIdentityProxyModel7siblingEiiRK11QModelIndex@Qt_5 5.0.2
 _ZNK19QIdentityProxyModel8rowCountERK11QModelIndex@Qt_5 5.0.2
 _ZNK19QItemSelectionModel10isSelectedERK11QModelIndex@Qt_5 5.0.2
 _ZNK19QItemSelectionModel10metaObjectEv@Qt_5 5.0.2
 _ZNK19QItemSelectionModel12currentIndexEv@Qt_5 5.0.2
 _ZNK19QItemSelectionModel12hasSelectionEv@Qt_5 5.0.2
 _ZNK19QItemSelectionModel12selectedRowsEi@Qt_5 5.0.2
 _ZNK19QItemSelectionModel13isRowSelectedEiRK11QModelIndex@Qt_5 5.0.2
 _ZNK19QItemSelectionModel15selectedColumnsEi@Qt_5 5.0.2
 _ZNK19QItemSelectionModel15selectedIndexesEv@Qt_5 5.0.2
 _ZNK19QItemSelectionModel16isColumnSelectedEiRK11QModelIndex@Qt_5 5.0.2
 _ZNK19QItemSelectionModel22rowIntersectsSelectionEiRK11QModelIndex@Qt_5 5.0.2
 _ZNK19QItemSelectionModel25columnIntersectsSelectionEiRK11QModelIndex@Qt_5 5.0.2
 _ZNK19QItemSelectionModel5modelEv@Qt_5 5.0.2
 _ZNK19QItemSelectionModel9selectionEv@Qt_5 5.0.2
 _ZNK19QItemSelectionRange10intersectsERKS_@Qt_5 5.0.2
 _ZNK19QItemSelectionRange11intersectedERKS_@Qt_5 5.0.2
 _ZNK19QItemSelectionRange7indexesEv@Qt_5 5.0.2
 _ZNK19QItemSelectionRange7isEmptyEv@Qt_5 5.0.2
 _ZNK19QProcessEnvironment12toStringListEv@Qt_5 5.0.2
 _ZNK19QProcessEnvironment4keysEv@Qt_5 5.0.2
 _ZNK19QProcessEnvironment5valueERK7QStringS2_@Qt_5 5.0.2
 _ZNK19QProcessEnvironment7isEmptyEv@Qt_5 5.0.2
 _ZNK19QProcessEnvironment8containsERK7QString@Qt_5 5.0.2
 _ZNK19QProcessEnvironmenteqERKS_@Qt_5 5.0.2
 _ZNK19QSequentialIterable14const_iteratordeEv@Qt_5 5.2.0~alpha1
 _ZNK19QSequentialIterable14const_iteratoreqERKS0_@Qt_5 5.2.0~alpha1
 _ZNK19QSequentialIterable14const_iteratormiEi@Qt_5 5.2.0~alpha1
 _ZNK19QSequentialIterable14const_iteratorneERKS0_@Qt_5 5.2.0~alpha1
 _ZNK19QSequentialIterable14const_iteratorplEi@Qt_5 5.2.0~alpha1
 _ZNK19QSequentialIterable17canReverseIterateEv@Qt_5 5.2.0~alpha1
 _ZNK19QSequentialIterable2atEi@Qt_5 5.2.0~alpha1
 _ZNK19QSequentialIterable3endEv@Qt_5 5.2.0~alpha1
 _ZNK19QSequentialIterable4sizeEv@Qt_5 5.2.0~alpha1
 _ZNK19QSequentialIterable5beginEv@Qt_5 5.2.0~alpha1
 _ZNK19QTextBoundaryFinder12isAtBoundaryEv@Qt_5 5.0.2
 _ZNK19QTextBoundaryFinder15boundaryReasonsEv@Qt_5 5.0.2
 _ZNK19QTextBoundaryFinder6stringEv@Qt_5 5.0.2
 _ZNK19QTextBoundaryFinder8positionEv@Qt_5 5.0.2
 _ZNK19QUnhandledException5cloneEv@Qt_5 5.0.2
 _ZNK19QUnhandledException5raiseEv@Qt_5 5.0.2
 _ZNK20QAssociativeIterable14const_iterator3keyEv@Qt_5 5.2.0~alpha1
 _ZNK20QAssociativeIterable14const_iterator5valueEv@Qt_5 5.2.0~alpha1
 _ZNK20QAssociativeIterable14const_iteratordeEv@Qt_5 5.2.0~alpha1
 _ZNK20QAssociativeIterable14const_iteratoreqERKS0_@Qt_5 5.2.0~alpha1
 _ZNK20QAssociativeIterable14const_iteratormiEi@Qt_5 5.2.0~alpha1
 _ZNK20QAssociativeIterable14const_iteratorneERKS0_@Qt_5 5.2.0~alpha1
 _ZNK20QAssociativeIterable14const_iteratorplEi@Qt_5 5.2.0~alpha1
 _ZNK20QAssociativeIterable3endEv@Qt_5 5.2.0~alpha1
 _ZNK20QAssociativeIterable4findERK8QVariant@Qt_5 5.5.0
 _ZNK20QAssociativeIterable4sizeEv@Qt_5 5.2.0~alpha1
 _ZNK20QAssociativeIterable5beginEv@Qt_5 5.2.0~alpha1
 _ZNK20QAssociativeIterable5valueERK8QVariant@Qt_5 5.2.0~alpha1
 _ZNK20QEventDispatcherGlib10metaObjectEv@Qt_5_PRIVATE_API 5.0.2 1
 _ZNK20QEventDispatcherGlib16registeredTimersEP7QObject@Qt_5_PRIVATE_API 5.0.2 1
 _ZNK20QEventDispatcherUNIX10metaObjectEv@Qt_5_PRIVATE_API 5.0.2 1
 _ZNK20QEventDispatcherUNIX16registeredTimersEP7QObject@Qt_5_PRIVATE_API 5.0.2 1
 _ZNK20QFileSelectorPrivate6selectERK7QString@Qt_5_PRIVATE_API 5.2.0~alpha1 1
 _ZNK20QFutureInterfaceBase10isCanceledEv@Qt_5 5.0.2
 _ZNK20QFutureInterfaceBase10isFinishedEv@Qt_5 5.0.2
 _ZNK20QFutureInterfaceBase10queryStateENS_5StateE@Qt_5 5.0.2
 _ZNK20QFutureInterfaceBase11isThrottledEv@Qt_5 5.0.2
 _ZNK20QFutureInterfaceBase11resultCountEv@Qt_5 5.0.2
 _ZNK20QFutureInterfaceBase12progressTextEv@Qt_5 5.0.2
 _ZNK20QFutureInterfaceBase13progressValueEv@Qt_5 5.0.2
 _ZNK20QFutureInterfaceBase15isResultReadyAtEi@Qt_5 5.0.2
 _ZNK20QFutureInterfaceBase15progressMaximumEv@Qt_5 5.0.2
 _ZNK20QFutureInterfaceBase15progressMinimumEv@Qt_5 5.0.2
 _ZNK20QFutureInterfaceBase15resultStoreBaseEv@Qt_5 5.0.2
 _ZNK20QFutureInterfaceBase22isProgressUpdateNeededEv@Qt_5 5.0.2
 _ZNK20QFutureInterfaceBase4refTEv@Qt_5 5.0.2
 _ZNK20QFutureInterfaceBase5mutexEv@Qt_5 5.0.2
 _ZNK20QFutureInterfaceBase6derefTEv@Qt_5 5.0.2
 _ZNK20QFutureInterfaceBase8isPausedEv@Qt_5 5.0.2
 _ZNK20QFutureInterfaceBase9isRunningEv@Qt_5 5.0.2
 _ZNK20QFutureInterfaceBase9isStartedEv@Qt_5 5.0.2
 _ZNK20QMetaPropertyBuilder10isConstantEv@Qt_5_PRIVATE_API 5.0.2 1
 _ZNK20QMetaPropertyBuilder10isEditableEv@Qt_5_PRIVATE_API 5.0.2 1
 _ZNK20QMetaPropertyBuilder10isReadableEv@Qt_5_PRIVATE_API 5.0.2 1
 _ZNK20QMetaPropertyBuilder10isWritableEv@Qt_5_PRIVATE_API 5.0.2 1
 _ZNK20QMetaPropertyBuilder12hasStdCppSetEv@Qt_5_PRIVATE_API 5.0.2 1
 _ZNK20QMetaPropertyBuilder12isDesignableEv@Qt_5_PRIVATE_API 5.0.2 1
 _ZNK20QMetaPropertyBuilder12isEnumOrFlagEv@Qt_5_PRIVATE_API 5.0.2 1
 _ZNK20QMetaPropertyBuilder12isResettableEv@Qt_5_PRIVATE_API 5.0.2 1
 _ZNK20QMetaPropertyBuilder12isScriptableEv@Qt_5_PRIVATE_API 5.0.2 1
 _ZNK20QMetaPropertyBuilder12notifySignalEv@Qt_5_PRIVATE_API 5.0.2 1
 _ZNK20QMetaPropertyBuilder15hasNotifySignalEv@Qt_5_PRIVATE_API 5.0.2 1
 _ZNK20QMetaPropertyBuilder4nameEv@Qt_5_PRIVATE_API 5.0.2 1
 _ZNK20QMetaPropertyBuilder4typeEv@Qt_5_PRIVATE_API 5.0.2 1
 _ZNK20QMetaPropertyBuilder6d_funcEv@Qt_5_PRIVATE_API 5.0.2 1
 _ZNK20QMetaPropertyBuilder6isUserEv@Qt_5_PRIVATE_API 5.0.2 1
 _ZNK20QMetaPropertyBuilder7isFinalEv@Qt_5_PRIVATE_API 5.0.2 1
 _ZNK20QMetaPropertyBuilder8isStoredEv@Qt_5_PRIVATE_API 5.0.2 1
 _ZNK20QMetaPropertyBuilder8revisionEv@Qt_5_PRIVATE_API 5.0.2 1
 _ZNK20QStateMachinePrivate10isCompoundEPK14QAbstractState@Qt_5_PRIVATE_API 5.0.2 1
 _ZNK20QStateMachinePrivate13hasRestorableEP14QAbstractStateP7QObjectRK10QByteArray@Qt_5_PRIVATE_API 5.0.2 1
 _ZNK20QStateMachinePrivate14isInFinalStateEP14QAbstractState@Qt_5_PRIVATE_API 5.0.2 1
 _ZNK20QStateMachinePrivate16selectAnimationsERK5QListIP19QAbstractTransitionE@Qt_5_PRIVATE_API 5.0.2 1
 _ZNK20QStateMachinePrivate19getTransitionDomainEP19QAbstractTransitionRK5QListIP14QAbstractStateEP16CalculationCache@Qt_5_PRIVATE_API 5.5.0 1
 _ZNK20QStateMachinePrivate23createInitialTransitionEv@Qt_5_PRIVATE_API 5.0.2 1
 _ZNK20QStateMachinePrivate23savedValueForRestorableERK5QListIP14QAbstractStateEP7QObjectRK10QByteArray@Qt_5_PRIVATE_API 5.0.2 1
 _ZNK20QStateMachinePrivate25computePendingRestorablesERK5QListIP14QAbstractStateE@Qt_5_PRIVATE_API 5.0.2 1
 _ZNK20QStateMachinePrivate25restorablesToPropertyListERK5QHashINS_12RestorableIdE8QVariantE@Qt_5_PRIVATE_API 5.5.0 1
 _ZNK20QStateMachinePrivate26computePropertyAssignmentsERK5QListIP14QAbstractStateER5QHashINS_12RestorableIdE8QVariantE@Qt_5_PRIVATE_API 5.5.0 1
 _ZNK20QStateMachinePrivate7findLCAERK5QListIP14QAbstractStateEb@Qt_5_PRIVATE_API 5.5.0 1
 _ZNK20QStateMachinePrivate8findLCCAERK5QListIP14QAbstractStateE@Qt_5_PRIVATE_API 5.5.0 1
 _ZNK20QStateMachinePrivate8isAtomicEPK14QAbstractState@Qt_5_PRIVATE_API 5.0.2 1
 _ZNK20QStateMachinePrivate9rootStateEv@Qt_5_PRIVATE_API 5.0.2 1
 _ZNK20QXmlStreamAttributes5valueE13QLatin1String@Qt_5 5.0.2
 _ZNK20QXmlStreamAttributes5valueE13QLatin1StringS0_@Qt_5 5.0.2
 _ZNK20QXmlStreamAttributes5valueERK7QString13QLatin1String@Qt_5 5.0.2
 _ZNK20QXmlStreamAttributes5valueERK7QString@Qt_5 5.0.2
 _ZNK20QXmlStreamAttributes5valueERK7QStringS2_@Qt_5 5.0.2
 _ZNK21QObjectCleanupHandler10metaObjectEv@Qt_5 5.0.2
 _ZNK21QObjectCleanupHandler7isEmptyEv@Qt_5 5.0.2
 _ZNK21QPersistentModelIndex10internalIdEv@Qt_5 5.0.2
 _ZNK21QPersistentModelIndex15internalPointerEv@Qt_5 5.0.2
 _ZNK21QPersistentModelIndex3rowEv@Qt_5 5.0.2
 _ZNK21QPersistentModelIndex4dataEi@Qt_5 5.0.2
 _ZNK21QPersistentModelIndex5childEii@Qt_5 5.0.2
 _ZNK21QPersistentModelIndex5flagsEv@Qt_5 5.0.2
 _ZNK21QPersistentModelIndex5modelEv@Qt_5 5.0.2
 _ZNK21QPersistentModelIndex6columnEv@Qt_5 5.0.2
 _ZNK21QPersistentModelIndex6parentEv@Qt_5 5.0.2
 _ZNK21QPersistentModelIndex7isValidEv@Qt_5 5.0.2
 _ZNK21QPersistentModelIndex7siblingEii@Qt_5 5.0.2
 _ZNK21QPersistentModelIndexcvRK11QModelIndexEv@Qt_5 5.0.2
 _ZNK21QPersistentModelIndexeqERK11QModelIndex@Qt_5 5.0.2
 _ZNK21QPersistentModelIndexeqERKS_@Qt_5 5.0.2
 _ZNK21QPersistentModelIndexltERKS_@Qt_5 5.0.2
 _ZNK21QPersistentModelIndexneERK11QModelIndex@Qt_5 5.0.2
 _ZNK21QSortFilterProxyModel10filterRoleEv@Qt_5 5.0.2
 _ZNK21QSortFilterProxyModel10headerDataEiN2Qt11OrientationEi@Qt_5 5.0.2
 _ZNK21QSortFilterProxyModel10metaObjectEv@Qt_5 5.0.2
 _ZNK21QSortFilterProxyModel10sortColumnEv@Qt_5 5.0.2
 _ZNK21QSortFilterProxyModel11columnCountERK11QModelIndex@Qt_5 5.0.2
 _ZNK21QSortFilterProxyModel11hasChildrenERK11QModelIndex@Qt_5 5.0.2
 _ZNK21QSortFilterProxyModel11mapToSourceERK11QModelIndex@Qt_5 5.0.2
 _ZNK21QSortFilterProxyModel12canFetchMoreERK11QModelIndex@Qt_5 5.0.2
 _ZNK21QSortFilterProxyModel12filterRegExpEv@Qt_5 5.0.2
 _ZNK21QSortFilterProxyModel13mapFromSourceERK11QModelIndex@Qt_5 5.0.2
 _ZNK21QSortFilterProxyModel15filterKeyColumnEv@Qt_5 5.0.2
 _ZNK21QSortFilterProxyModel16filterAcceptsRowEiRK11QModelIndex@Qt_5 5.0.2
 _ZNK21QSortFilterProxyModel17dynamicSortFilterEv@Qt_5 5.0.2
 _ZNK21QSortFilterProxyModel17isSortLocaleAwareEv@Qt_5 5.0.2
 _ZNK21QSortFilterProxyModel19filterAcceptsColumnEiRK11QModelIndex@Qt_5 5.0.2
 _ZNK21QSortFilterProxyModel19sortCaseSensitivityEv@Qt_5 5.0.2
 _ZNK21QSortFilterProxyModel20mapSelectionToSourceERK14QItemSelection@Qt_5 5.0.2
 _ZNK21QSortFilterProxyModel20supportedDropActionsEv@Qt_5 5.0.2
 _ZNK21QSortFilterProxyModel21filterCaseSensitivityEv@Qt_5 5.0.2
 _ZNK21QSortFilterProxyModel22mapSelectionFromSourceERK14QItemSelection@Qt_5 5.0.2
 _ZNK21QSortFilterProxyModel4dataERK11QModelIndexi@Qt_5 5.0.2
 _ZNK21QSortFilterProxyModel4spanERK11QModelIndex@Qt_5 5.0.2
 _ZNK21QSortFilterProxyModel5buddyERK11QModelIndex@Qt_5 5.0.2
 _ZNK21QSortFilterProxyModel5flagsERK11QModelIndex@Qt_5 5.0.2
 _ZNK21QSortFilterProxyModel5indexEiiRK11QModelIndex@Qt_5 5.0.2
 _ZNK21QSortFilterProxyModel5matchERK11QModelIndexiRK8QVarianti6QFlagsIN2Qt9MatchFlagEE@Qt_5 5.0.2
 _ZNK21QSortFilterProxyModel6parentERK11QModelIndex@Qt_5 5.0.2
 _ZNK21QSortFilterProxyModel7siblingEiiRK11QModelIndex@Qt_5 5.0.2
 _ZNK21QSortFilterProxyModel8lessThanERK11QModelIndexS2_@Qt_5 5.0.2
 _ZNK21QSortFilterProxyModel8mimeDataERK5QListI11QModelIndexE@Qt_5 5.0.2
 _ZNK21QSortFilterProxyModel8rowCountERK11QModelIndex@Qt_5 5.0.2
 _ZNK21QSortFilterProxyModel8sortRoleEv@Qt_5 5.0.2
 _ZNK21QSortFilterProxyModel9mimeTypesEv@Qt_5 5.0.2
 _ZNK21QSortFilterProxyModel9sortOrderEv@Qt_5 5.0.2
 _ZNK23QAbstractAnimationTimer10metaObjectEv@Qt_5_PRIVATE_API 5.0.2 1
 _ZNK23QCoreApplicationPrivate7appNameEv@Qt_5_PRIVATE_API 5.0.2 1
 _ZNK23QParallelAnimationGroup10metaObjectEv@Qt_5 5.0.2
 _ZNK23QParallelAnimationGroup8durationEv@Qt_5 5.0.2
 _ZNK23QRegularExpressionMatch11capturedEndERK7QString@Qt_5 5.0.2
 _ZNK23QRegularExpressionMatch11capturedEndEi@Qt_5 5.0.2
 _ZNK23QRegularExpressionMatch11capturedRefERK7QString@Qt_5 5.0.2
 _ZNK23QRegularExpressionMatch11capturedRefEi@Qt_5 5.0.2
 _ZNK23QRegularExpressionMatch12matchOptionsEv@Qt_5 5.0.2
 _ZNK23QRegularExpressionMatch13capturedStartERK7QString@Qt_5 5.0.2
 _ZNK23QRegularExpressionMatch13capturedStartEi@Qt_5 5.0.2
 _ZNK23QRegularExpressionMatch13capturedTextsEv@Qt_5 5.0.2
 _ZNK23QRegularExpressionMatch14capturedLengthERK7QString@Qt_5 5.0.2
 _ZNK23QRegularExpressionMatch14capturedLengthEi@Qt_5 5.0.2
 _ZNK23QRegularExpressionMatch15hasPartialMatchEv@Qt_5 5.0.2
 _ZNK23QRegularExpressionMatch17lastCapturedIndexEv@Qt_5 5.0.2
 _ZNK23QRegularExpressionMatch17regularExpressionEv@Qt_5 5.0.2
 _ZNK23QRegularExpressionMatch7isValidEv@Qt_5 5.0.2
 _ZNK23QRegularExpressionMatch8capturedERK7QString@Qt_5 5.0.2
 _ZNK23QRegularExpressionMatch8capturedEi@Qt_5 5.0.2
 _ZNK23QRegularExpressionMatch8hasMatchEv@Qt_5 5.0.2
 _ZNK23QRegularExpressionMatch9matchTypeEv@Qt_5 5.0.2
 _ZNK24QAbstractEventDispatcher10metaObjectEv@Qt_5 5.0.2
 _ZNK24QNonContiguousByteDevice10metaObjectEv@Qt_5_PRIVATE_API 5.0.2 1
 _ZNK25QSequentialAnimationGroup10metaObjectEv@Qt_5 5.0.2
 _ZNK25QSequentialAnimationGroup16currentAnimationEv@Qt_5 5.0.2
 _ZNK25QSequentialAnimationGroup8durationEv@Qt_5 5.0.2
 _ZNK26QAbstractProxyModelPrivate26mapDropCoordinatesToSourceEiiRK11QModelIndexPiS3_PS0_@Qt_5_PRIVATE_API 5.4.1 1
 _ZNK26QAbstractTransitionPrivate11sourceStateEv@Qt_5_PRIVATE_API 5.0.2 1
 _ZNK26QAbstractTransitionPrivate7machineEv@Qt_5_PRIVATE_API 5.0.2 1
 _ZNK26QMessageAuthenticationCode6resultEv@Qt_5 5.1.0
 _ZNK27QAbstractFileEngineIterator11nameFiltersEv@Qt_5_PRIVATE_API 5.1.0 1
 _ZNK27QAbstractFileEngineIterator15currentFileInfoEv@Qt_5_PRIVATE_API 5.1.0 1
 _ZNK27QAbstractFileEngineIterator15currentFilePathEv@Qt_5_PRIVATE_API 5.1.0 1
 _ZNK27QAbstractFileEngineIterator4pathEv@Qt_5_PRIVATE_API 5.1.0 1
 _ZNK27QAbstractFileEngineIterator7filtersEv@Qt_5_PRIVATE_API 5.1.0 1
 _ZNK27QAbstractFileEngineIterator9entryInfoENS_13EntryInfoTypeE@Qt_5_PRIVATE_API 5.1.0 1
 _ZNK31QRegularExpressionMatchIterator12matchOptionsEv@Qt_5 5.0.2
 _ZNK31QRegularExpressionMatchIterator17regularExpressionEv@Qt_5 5.0.2
 _ZNK31QRegularExpressionMatchIterator7hasNextEv@Qt_5 5.0.2
 _ZNK31QRegularExpressionMatchIterator7isValidEv@Qt_5 5.0.2
 _ZNK31QRegularExpressionMatchIterator8peekNextEv@Qt_5 5.0.2
 _ZNK31QRegularExpressionMatchIterator9matchTypeEv@Qt_5 5.0.2
 _ZNK4QDir10isReadableEv@Qt_5 5.0.2
 _ZNK4QDir10isRelativeEv@Qt_5 5.0.2
 _ZNK4QDir11nameFiltersEv@Qt_5 5.0.2
 _ZNK4QDir12absolutePathEv@Qt_5 5.0.2
 _ZNK4QDir13canonicalPathEv@Qt_5 5.0.2
 _ZNK4QDir13entryInfoListE6QFlagsINS_6FilterEES0_INS_8SortFlagEE@Qt_5 5.0.2
 _ZNK4QDir13entryInfoListERK11QStringList6QFlagsINS_6FilterEES3_INS_8SortFlagEE@Qt_5 5.0.2
 _ZNK4QDir16absoluteFilePathERK7QString@Qt_5 5.0.2
 _ZNK4QDir16relativeFilePathERK7QString@Qt_5 5.0.2
 _ZNK4QDir4pathEv@Qt_5 5.0.2
 _ZNK4QDir5countEv@Qt_5 5.0.2
 _ZNK4QDir5mkdirERK7QString@Qt_5 5.0.2
 _ZNK4QDir5rmdirERK7QString@Qt_5 5.0.2
 _ZNK4QDir6existsERK7QString@Qt_5 5.0.2
 _ZNK4QDir6existsEv@Qt_5 5.0.2
 _ZNK4QDir6filterEv@Qt_5 5.0.2
 _ZNK4QDir6isRootEv@Qt_5 5.0.2
 _ZNK4QDir6mkpathERK7QString@Qt_5 5.0.2
 _ZNK4QDir6rmpathERK7QString@Qt_5 5.0.2
 _ZNK4QDir7dirNameEv@Qt_5 5.0.2
 _ZNK4QDir7refreshEv@Qt_5 5.0.2
 _ZNK4QDir7sortingEv@Qt_5 5.0.2
 _ZNK4QDir8filePathERK7QString@Qt_5 5.0.2
 _ZNK4QDir9entryListE6QFlagsINS_6FilterEES0_INS_8SortFlagEE@Qt_5 5.0.2
 _ZNK4QDir9entryListERK11QStringList6QFlagsINS_6FilterEES3_INS_8SortFlagEE@Qt_5 5.0.2
 _ZNK4QDireqERKS_@Qt_5 5.0.2
 _ZNK4QDirixEi@Qt_5 5.0.2
 _ZNK4QUrl10isDetachedEv@Qt_5 5.0.2
 _ZNK4QUrl10isParentOfERKS_@Qt_5 5.0.2
 _ZNK4QUrl10isRelativeEv@Qt_5 5.0.2
 _ZNK4QUrl11errorStringEv@Qt_5 5.0.2
 _ZNK4QUrl11hasFragmentEv@Qt_5 5.0.2
 _ZNK4QUrl11isLocalFileEv@Qt_5 5.0.2
 _ZNK4QUrl11toLocalFileEv@Qt_5 5.0.2
 _ZNK4QUrl14topLevelDomainE6QFlagsINS_25ComponentFormattingOptionEE@Qt_5 5.0.2
 _ZNK4QUrl15toDisplayStringE12QUrlTwoFlagsINS_19UrlFormattingOptionENS_25ComponentFormattingOptionEE@Qt_5 5.0.2
 _ZNK4QUrl3urlE12QUrlTwoFlagsINS_19UrlFormattingOptionENS_25ComponentFormattingOptionEE@Qt_5 5.0.2
 _ZNK4QUrl4hostE6QFlagsINS_25ComponentFormattingOptionEE@Qt_5 5.0.2
 _ZNK4QUrl4pathE6QFlagsINS_25ComponentFormattingOptionEE@Qt_5 5.0.2
 _ZNK4QUrl4portEi@Qt_5 5.0.2
 _ZNK4QUrl5queryE6QFlagsINS_25ComponentFormattingOptionEE@Qt_5 5.0.2
 _ZNK4QUrl6schemeEv@Qt_5 5.0.2
 _ZNK4QUrl7isEmptyEv@Qt_5 5.0.2
 _ZNK4QUrl7isValidEv@Qt_5 5.0.2
 _ZNK4QUrl7matchesERKS_12QUrlTwoFlagsINS_19UrlFormattingOptionENS_25ComponentFormattingOptionEE@Qt_5 5.2.0~alpha1
 _ZNK4QUrl8adjustedE12QUrlTwoFlagsINS_19UrlFormattingOptionENS_25ComponentFormattingOptionEE@Qt_5 5.2.0~alpha1
 _ZNK4QUrl8fileNameE6QFlagsINS_25ComponentFormattingOptionEE@Qt_5 5.2.0~alpha1
 _ZNK4QUrl8fragmentE6QFlagsINS_25ComponentFormattingOptionEE@Qt_5 5.0.2
 _ZNK4QUrl8hasQueryEv@Qt_5 5.0.2
 _ZNK4QUrl8passwordE6QFlagsINS_25ComponentFormattingOptionEE@Qt_5 5.0.2
 _ZNK4QUrl8resolvedERKS_@Qt_5 5.0.2
 _ZNK4QUrl8toStringE12QUrlTwoFlagsINS_19UrlFormattingOptionENS_25ComponentFormattingOptionEE@Qt_5 5.0.2
 _ZNK4QUrl8userInfoE6QFlagsINS_25ComponentFormattingOptionEE@Qt_5 5.0.2
 _ZNK4QUrl8userNameE6QFlagsINS_25ComponentFormattingOptionEE@Qt_5 5.0.2
 _ZNK4QUrl9authorityE6QFlagsINS_25ComponentFormattingOptionEE@Qt_5 5.0.2
 _ZNK4QUrl9toEncodedE12QUrlTwoFlagsINS_19UrlFormattingOptionENS_25ComponentFormattingOptionEE@Qt_5 5.0.2
 _ZNK4QUrleqERKS_@Qt_5 5.0.2
 _ZNK4QUrlltERKS_@Qt_5 5.0.2
 _ZNK4QUrlneERKS_@Qt_5 5.0.2
 _ZNK5QChar13decompositionEv@Qt_5 5.0.2
 _ZNK5QDate10daysInYearEv@Qt_5 5.0.2
 _ZNK5QDate10weekNumberEPi@Qt_5 5.0.2
 _ZNK5QDate11daysInMonthEv@Qt_5 5.0.2
 _ZNK5QDate3dayEv@Qt_5 5.0.2
 _ZNK5QDate4yearEv@Qt_5 5.0.2
 _ZNK5QDate5monthEv@Qt_5 5.0.2
 _ZNK5QDate6daysToERKS_@Qt_5 5.0.2
 _ZNK5QDate7addDaysEx@Qt_5 5.0.2
 _ZNK5QDate7getDateEPiS0_S0_@Qt_5 5.7.0
 _ZNK5QDate8addYearsEi@Qt_5 5.0.2
 _ZNK5QDate8toStringEN2Qt10DateFormatE@Qt_5 5.0.2
 _ZNK5QDate8toStringERK7QString@Qt_5 5.0.2
 _ZNK5QDate9addMonthsEi@Qt_5 5.0.2
 _ZNK5QDate9dayOfWeekEv@Qt_5 5.0.2
 _ZNK5QDate9dayOfYearEv@Qt_5 5.0.2
 _ZNK5QFile10metaObjectEv@Qt_5 5.0.2
 _ZNK5QFile11permissionsEv@Qt_5 5.0.2
 _ZNK5QFile4sizeEv@Qt_5 5.0.2
 _ZNK5QFile6existsEv@Qt_5 5.0.2
 _ZNK5QFile8fileNameEv@Qt_5 5.0.2
 _ZNK5QFile8readLinkEv@Qt_5 5.0.2
 _ZNK5QRect10intersectsERKS_@Qt_5 5.0.2
 _ZNK5QRect10normalizedEv@Qt_5 5.0.2
 _ZNK5QRect8containsERK6QPointb@Qt_5 5.0.2
 _ZNK5QRect8containsERKS_b@Qt_5 5.0.2
 _ZNK5QRectanERKS_@Qt_5 5.0.2
 _ZNK5QRectorERKS_@Qt_5 5.0.2
 _ZNK5QSize6scaledERKS_N2Qt15AspectRatioModeE@Qt_5 5.0.2
 _ZNK5QTime4hourEv@Qt_5 5.0.2
 _ZNK5QTime4msecEv@Qt_5 5.0.2
 _ZNK5QTime6minuteEv@Qt_5 5.0.2
 _ZNK5QTime6secondEv@Qt_5 5.0.2
 _ZNK5QTime6secsToERKS_@Qt_5 5.0.2
 _ZNK5QTime7addSecsEi@Qt_5 5.0.2
 _ZNK5QTime7elapsedEv@Qt_5 5.0.2
 _ZNK5QTime7isValidEv@Qt_5 5.0.2
 _ZNK5QTime7msecsToERKS_@Qt_5 5.0.2
 _ZNK5QTime8addMSecsEi@Qt_5 5.0.2
 _ZNK5QTime8toStringEN2Qt10DateFormatE@Qt_5 5.0.2
 _ZNK5QTime8toStringERK7QString@Qt_5 5.0.2
 _ZNK5QUuid11toByteArrayEv@Qt_5 5.0.2
 _ZNK5QUuid6isNullEv@Qt_5 5.0.2
 _ZNK5QUuid7variantEv@Qt_5 5.0.2
 _ZNK5QUuid7versionEv@Qt_5 5.0.2
 _ZNK5QUuid8toStringEv@Qt_5 5.0.2
 _ZNK5QUuid9toRfc4122Ev@Qt_5 5.0.2
 _ZNK5QUuidgtERKS_@Qt_5 5.0.2
 _ZNK5QUuidltERKS_@Qt_5 5.0.2
 _ZNK6QLineF10unitVectorEv@Qt_5 5.0.2
 _ZNK6QLineF5angleERKS_@Qt_5 5.0.2
 _ZNK6QLineF5angleEv@Qt_5 5.0.2
 _ZNK6QLineF6lengthEv@Qt_5 5.0.2
 _ZNK6QLineF7angleToERKS_@Qt_5 5.0.2
 _ZNK6QLineF9intersectERKS_P7QPointF@Qt_5 5.0.2
 _ZNK6QRectF10intersectsERKS_@Qt_5 5.0.2
 _ZNK6QRectF10normalizedEv@Qt_5 5.0.2
 _ZNK6QRectF13toAlignedRectEv@Qt_5 5.0.2
 _ZNK6QRectF8containsERK7QPointF@Qt_5 5.0.2
 _ZNK6QRectF8containsERKS_@Qt_5 5.0.2
 _ZNK6QRectFanERKS_@Qt_5 5.0.2
 _ZNK6QRectForERKS_@Qt_5 5.0.2
 _ZNK6QSizeF6scaledERKS_N2Qt15AspectRatioModeE@Qt_5 5.0.2
 _ZNK6QState10errorStateEv@Qt_5 5.0.2
 _ZNK6QState10metaObjectEv@Qt_5 5.0.2
 _ZNK6QState11transitionsEv@Qt_5 5.0.2
 _ZNK6QState12initialStateEv@Qt_5 5.0.2
 _ZNK6QState9childModeEv@Qt_5 5.0.2
 _ZNK6QTimer10metaObjectEv@Qt_5 5.0.2
 _ZNK6QTimer13remainingTimeEv@Qt_5 5.0.2
 _ZNK7QBuffer10metaObjectEv@Qt_5 5.0.2
 _ZNK7QBuffer11canReadLineEv@Qt_5 5.0.2
 _ZNK7QBuffer3posEv@Qt_5 5.0.2
 _ZNK7QBuffer4dataEv@Qt_5 5.0.2
 _ZNK7QBuffer4sizeEv@Qt_5 5.0.2
 _ZNK7QBuffer5atEndEv@Qt_5 5.0.2
 _ZNK7QBuffer6bufferEv@Qt_5 5.0.2
 _ZNK7QLocale10dateFormatENS_10FormatTypeE@Qt_5 5.0.2
 _ZNK7QLocale10timeFormatENS_10FormatTypeE@Qt_5 5.0.2
 _ZNK7QLocale10toDateTimeERK7QStringNS_10FormatTypeE@Qt_5 5.0.2
 _ZNK7QLocale10toDateTimeERK7QStringS2_@Qt_5 5.0.2
 _ZNK7QLocale10toLongLongERK10QStringRefPb@Qt_5 5.1.0
 _ZNK7QLocale10toLongLongERK7QStringPb@Qt_5 5.0.2
 _ZNK7QLocale11exponentialEv@Qt_5 5.0.2
 _ZNK7QLocale11quoteStringERK10QStringRefNS_14QuotationStyleE@Qt_5 5.0.2
 _ZNK7QLocale11quoteStringERK7QStringNS_14QuotationStyleE@Qt_5 5.0.2
 _ZNK7QLocale11toULongLongERK10QStringRefPb@Qt_5 5.1.0
 _ZNK7QLocale11toULongLongERK7QStringPb@Qt_5 5.0.2
 _ZNK7QLocale11uiLanguagesEv@Qt_5 5.0.2
 _ZNK7QLocale12decimalPointEv@Qt_5 5.0.2
 _ZNK7QLocale12negativeSignEv@Qt_5 5.0.2
 _ZNK7QLocale12positiveSignEv@Qt_5 5.0.2
 _ZNK7QLocale13numberOptionsEv@Qt_5 5.0.2
 _ZNK7QLocale13textDirectionEv@Qt_5 5.0.2
 _ZNK7QLocale14currencySymbolENS_20CurrencySymbolFormatE@Qt_5 5.0.2
 _ZNK7QLocale14dateTimeFormatENS_10FormatTypeE@Qt_5 5.0.2
 _ZNK7QLocale14firstDayOfWeekEv@Qt_5 5.0.2
 _ZNK7QLocale14groupSeparatorEv@Qt_5 5.0.2
 _ZNK7QLocale16toCurrencyStringEdRK7QString@Qt_5 5.0.2
 _ZNK7QLocale16toCurrencyStringEdRK7QStringi@Qt_5 5.7.0
 _ZNK7QLocale16toCurrencyStringExRK7QString@Qt_5 5.0.2
 _ZNK7QLocale16toCurrencyStringEyRK7QString@Qt_5 5.0.2
 _ZNK7QLocale17measurementSystemEv@Qt_5 5.0.2
 _ZNK7QLocale17nativeCountryNameEv@Qt_5 5.0.2
 _ZNK7QLocale17standaloneDayNameEiNS_10FormatTypeE@Qt_5 5.0.2
 _ZNK7QLocale18nativeLanguageNameEv@Qt_5 5.0.2
 _ZNK7QLocale19createSeparatedListERK11QStringList@Qt_5 5.0.2
 _ZNK7QLocale19standaloneMonthNameEiNS_10FormatTypeE@Qt_5 5.0.2
 _ZNK7QLocale4nameEv@Qt_5 5.0.2
 _ZNK7QLocale5toIntERK10QStringRefPb@Qt_5 5.1.0
 _ZNK7QLocale5toIntERK7QStringPb@Qt_5 5.0.2
 _ZNK7QLocale6amTextEv@Qt_5 5.0.2
 _ZNK7QLocale6pmTextEv@Qt_5 5.0.2
 _ZNK7QLocale6scriptEv@Qt_5 5.0.2
 _ZNK7QLocale6toDateERK7QStringNS_10FormatTypeE@Qt_5 5.0.2
 _ZNK7QLocale6toDateERK7QStringS2_@Qt_5 5.0.2
 _ZNK7QLocale6toTimeERK7QStringNS_10FormatTypeE@Qt_5 5.0.2
 _ZNK7QLocale6toTimeERK7QStringS2_@Qt_5 5.0.2
 _ZNK7QLocale6toUIntERK10QStringRefPb@Qt_5 5.1.0
 _ZNK7QLocale6toUIntERK7QStringPb@Qt_5 5.0.2
 _ZNK7QLocale7countryEv@Qt_5 5.0.2
 _ZNK7QLocale7dayNameEiNS_10FormatTypeE@Qt_5 5.0.2
 _ZNK7QLocale7percentEv@Qt_5 5.0.2
 _ZNK7QLocale7toFloatERK10QStringRefPb@Qt_5 5.1.0
 _ZNK7QLocale7toFloatERK7QStringPb@Qt_5 5.0.2
 _ZNK7QLocale7toLowerERK7QString@Qt_5 5.0.2
 _ZNK7QLocale7toShortERK10QStringRefPb@Qt_5 5.1.0
 _ZNK7QLocale7toShortERK7QStringPb@Qt_5 5.0.2
 _ZNK7QLocale7toUpperERK7QString@Qt_5 5.0.2
 _ZNK7QLocale8languageEv@Qt_5 5.0.2
 _ZNK7QLocale8toDoubleERK10QStringRefPb@Qt_5 5.1.0
 _ZNK7QLocale8toDoubleERK7QStringPb@Qt_5 5.0.2
 _ZNK7QLocale8toStringERK5QDateNS_10FormatTypeE@Qt_5 5.0.2
 _ZNK7QLocale8toStringERK5QDateRK7QString@Qt_5 5.0.2
 _ZNK7QLocale8toStringERK5QTimeNS_10FormatTypeE@Qt_5 5.0.2
 _ZNK7QLocale8toStringERK5QTimeRK7QString@Qt_5 5.0.2
 _ZNK7QLocale8toStringERK9QDateTimeNS_10FormatTypeE@Qt_5 5.0.2
 _ZNK7QLocale8toStringERK9QDateTimeRK7QString@Qt_5 5.0.2
 _ZNK7QLocale8toStringEdci@Qt_5 5.0.2
 _ZNK7QLocale8toStringEx@Qt_5 5.0.2
 _ZNK7QLocale8toStringEy@Qt_5 5.0.2
 _ZNK7QLocale8toUShortERK10QStringRefPb@Qt_5 5.1.0
 _ZNK7QLocale8toUShortERK7QStringPb@Qt_5 5.0.2
 _ZNK7QLocale8weekdaysEv@Qt_5 5.0.2
 _ZNK7QLocale9bcp47NameEv@Qt_5 5.0.2
 _ZNK7QLocale9monthNameEiNS_10FormatTypeE@Qt_5 5.0.2
 _ZNK7QLocale9zeroDigitEv@Qt_5 5.0.2
 _ZNK7QLocaleeqERKS_@Qt_5 5.0.2
 _ZNK7QLocaleneERKS_@Qt_5 5.0.2
 _ZNK7QObject10metaObjectEv@Qt_5 5.0.2
 _ZNK7QObject10objectNameEv@Qt_5 5.0.2
 _ZNK7QObject17isSignalConnectedERK11QMetaMethod@Qt_5 5.0.2
 _ZNK7QObject17senderSignalIndexEv@Qt_5 5.0.2
 _ZNK7QObject20dynamicPropertyNamesEv@Qt_5 5.0.2
 _ZNK7QObject6senderEv@Qt_5 5.0.2
 _ZNK7QObject6threadEv@Qt_5 5.0.2
 _ZNK7QObject8propertyEPKc@Qt_5 5.0.2
 _ZNK7QObject8userDataEj@Qt_5 5.0.2
 _ZNK7QObject9receiversEPKc@Qt_5 5.0.2
 _ZNK7QRegExp10exactMatchERK7QString@Qt_5 5.0.2
 _ZNK7QRegExp11errorStringEv@Qt_5 5.0.2
 _ZNK7QRegExp11lastIndexInERK7QStringiNS_9CaretModeE@Qt_5 5.0.2
 _ZNK7QRegExp12captureCountEv@Qt_5 5.0.2
 _ZNK7QRegExp13capturedTextsEv@Qt_5 5.0.2
 _ZNK7QRegExp13matchedLengthEv@Qt_5 5.0.2
 _ZNK7QRegExp13patternSyntaxEv@Qt_5 5.0.2
 _ZNK7QRegExp15caseSensitivityEv@Qt_5 5.0.2
 _ZNK7QRegExp3capEi@Qt_5 5.0.2
 _ZNK7QRegExp3posEi@Qt_5 5.0.2
 _ZNK7QRegExp7indexInERK7QStringiNS_9CaretModeE@Qt_5 5.0.2
 _ZNK7QRegExp7isEmptyEv@Qt_5 5.0.2
 _ZNK7QRegExp7isValidEv@Qt_5 5.0.2
 _ZNK7QRegExp7patternEv@Qt_5 5.0.2
 _ZNK7QRegExp9isMinimalEv@Qt_5 5.0.2
 _ZNK7QRegExpeqERKS_@Qt_5 5.0.2
 _ZNK7QString10normalizedENS_17NormalizationFormEN5QChar14UnicodeVersionE@Qt_5 5.0.2
 _ZNK7QString10simplifiedEv@Qt_5 5.0.2
 _ZNK7QString10startsWithE13QLatin1StringN2Qt15CaseSensitivityE@Qt_5 5.0.2
 _ZNK7QString10startsWithE5QCharN2Qt15CaseSensitivityE@Qt_5 5.0.2
 _ZNK7QString10startsWithERK10QStringRefN2Qt15CaseSensitivityE@Qt_5 5.0.2
 _ZNK7QString10startsWithERKS_N2Qt15CaseSensitivityE@Qt_5 5.0.2
 _ZNK7QString10toLongLongEPbi@Qt_5 5.0.2
 _ZNK7QString11lastIndexOfE13QLatin1StringiN2Qt15CaseSensitivityE@Qt_5 5.0.2
 _ZNK7QString11lastIndexOfE5QChariN2Qt15CaseSensitivityE@Qt_5 5.0.2
 _ZNK7QString11lastIndexOfER7QRegExpi@Qt_5 5.0.2
 _ZNK7QString11lastIndexOfERK10QStringRefiN2Qt15CaseSensitivityE@Qt_5 5.0.2
 _ZNK7QString11lastIndexOfERK18QRegularExpressioni@Qt_5 5.0.2
 _ZNK7QString11lastIndexOfERK18QRegularExpressioniP23QRegularExpressionMatch@Qt_5 5.5.0
 _ZNK7QString11lastIndexOfERK7QRegExpi@Qt_5 5.0.2
 _ZNK7QString11lastIndexOfERKS_iN2Qt15CaseSensitivityE@Qt_5 5.0.2
 _ZNK7QString11toLocal8BitEv@Qt_5 5.0.2
 _ZNK7QString11toULongLongEPbi@Qt_5 5.0.2
 _ZNK7QString12isSimpleTextEv@Qt_5 5.0.2
 _ZNK7QString12toCaseFoldedEv@Qt_5 5.0.2
 _ZNK7QString13isRightToLeftEv@Qt_5 5.0.2
 _ZNK7QString13leftJustifiedEi5QCharb@Qt_5 5.0.2
 _ZNK7QString13toHtmlEscapedEv@Qt_5 5.0.2
 _ZNK7QString14rightJustifiedEi5QCharb@Qt_5 5.0.2
 _ZNK7QString18localeAwareCompareERKS_@Qt_5 5.0.2
 _ZNK7QString3argE5QChariS0_@Qt_5 5.0.2
 _ZNK7QString3argERKS_i5QChar@Qt_5 5.0.2
 _ZNK7QString3argEci5QChar@Qt_5 5.0.2
 _ZNK7QString3argEdici5QChar@Qt_5 5.0.2
 _ZNK7QString3argExii5QChar@Qt_5 5.0.2
 _ZNK7QString3argEyii5QChar@Qt_5 5.0.2
 _ZNK7QString3midEii@Qt_5 5.0.2
 _ZNK7QString4leftEi@Qt_5 5.0.2
 _ZNK7QString5countE5QCharN2Qt15CaseSensitivityE@Qt_5 5.0.2
 _ZNK7QString5countERK10QStringRefN2Qt15CaseSensitivityE@Qt_5 5.0.2
 _ZNK7QString5countERK18QRegularExpression@Qt_5 5.0.2
 _ZNK7QString5countERK7QRegExp@Qt_5 5.0.2
 _ZNK7QString5countERKS_N2Qt15CaseSensitivityE@Qt_5 5.0.2
 _ZNK7QString5rightEi@Qt_5 5.0.2
 _ZNK7QString5splitE5QCharNS_13SplitBehaviorEN2Qt15CaseSensitivityE@Qt_5 5.0.2
 _ZNK7QString5splitERK18QRegularExpressionNS_13SplitBehaviorE@Qt_5 5.0.2
 _ZNK7QString5splitERK7QRegExpNS_13SplitBehaviorE@Qt_5 5.0.2
 _ZNK7QString5splitERKS_NS_13SplitBehaviorEN2Qt15CaseSensitivityE@Qt_5 5.0.2
 _ZNK7QString5toIntEPbi@Qt_5 5.0.2
 _ZNK7QString5utf16Ev@Qt_5 5.0.2
 _ZNK7QString6midRefEii@Qt_5 5.0.2
 _ZNK7QString6toLongEPbi@Qt_5 5.0.2
 _ZNK7QString6toUIntEPbi@Qt_5 5.0.2
 _ZNK7QString6toUcs4Ev@Qt_5 5.0.2
 _ZNK7QString6toUtf8Ev@Qt_5 5.0.2
 _ZNK7QString7compareE13QLatin1StringN2Qt15CaseSensitivityE@Qt_5 5.0.2
 _ZNK7QString7compareERKS_N2Qt15CaseSensitivityE@Qt_5 5.0.2
 _ZNK7QString7indexOfE13QLatin1StringiN2Qt15CaseSensitivityE@Qt_5 5.0.2
 _ZNK7QString7indexOfE5QChariN2Qt15CaseSensitivityE@Qt_5 5.0.2
 _ZNK7QString7indexOfER7QRegExpi@Qt_5 5.0.2
 _ZNK7QString7indexOfERK10QStringRefiN2Qt15CaseSensitivityE@Qt_5 5.0.2
 _ZNK7QString7indexOfERK18QRegularExpressioni@Qt_5 5.0.2
 _ZNK7QString7indexOfERK18QRegularExpressioniP23QRegularExpressionMatch@Qt_5 5.5.0
 _ZNK7QString7indexOfERK7QRegExpi@Qt_5 5.0.2
 _ZNK7QString7indexOfERKS_iN2Qt15CaseSensitivityE@Qt_5 5.0.2
 _ZNK7QString7leftRefEi@Qt_5 5.0.2
 _ZNK7QString7sectionERK18QRegularExpressionii6QFlagsINS_11SectionFlagEE@Qt_5 5.0.2
 _ZNK7QString7sectionERK7QRegExpii6QFlagsINS_11SectionFlagEE@Qt_5 5.0.2
 _ZNK7QString7sectionERKS_ii6QFlagsINS_11SectionFlagEE@Qt_5 5.0.2
 _ZNK7QString7toFloatEPb@Qt_5 5.0.2
 _ZNK7QString7toLowerEv@Qt_5 5.0.2
 _ZNK7QString7toShortEPbi@Qt_5 5.0.2
 _ZNK7QString7toULongEPbi@Qt_5 5.0.2
 _ZNK7QString7toUpperEv@Qt_5 5.0.2
 _ZNK7QString7trimmedEv@Qt_5 5.0.2
 _ZNK7QString8containsERK18QRegularExpression@Qt_5 5.0.2
 _ZNK7QString8containsERK18QRegularExpressionP23QRegularExpressionMatch@Qt_5 5.1.0
 _ZNK7QString8endsWithE13QLatin1StringN2Qt15CaseSensitivityE@Qt_5 5.0.2
 _ZNK7QString8endsWithE5QCharN2Qt15CaseSensitivityE@Qt_5 5.0.2
 _ZNK7QString8endsWithERK10QStringRefN2Qt15CaseSensitivityE@Qt_5 5.0.2
 _ZNK7QString8endsWithERKS_N2Qt15CaseSensitivityE@Qt_5 5.0.2
 _ZNK7QString8multiArgEiPPKS_@Qt_5 5.0.2
 _ZNK7QString8repeatedEi@Qt_5 5.0.2
 _ZNK7QString8rightRefEi@Qt_5 5.0.2
 _ZNK7QString8splitRefE5QCharNS_13SplitBehaviorEN2Qt15CaseSensitivityE@Qt_5 5.4.0
 _ZNK7QString8splitRefERK18QRegularExpressionNS_13SplitBehaviorE@Qt_5 5.4.0
 _ZNK7QString8splitRefERK7QRegExpNS_13SplitBehaviorE@Qt_5 5.4.0
 _ZNK7QString8splitRefERKS_NS_13SplitBehaviorEN2Qt15CaseSensitivityE@Qt_5 5.4.0
 _ZNK7QString8toDoubleEPb@Qt_5 5.0.2
 _ZNK7QString8toLatin1Ev@Qt_5 5.0.2
 _ZNK7QString8toUShortEPbi@Qt_5 5.0.2
 _ZNK7QStringeqE13QLatin1String@Qt_5 5.0.2
 _ZNK7QStringgtE13QLatin1String@Qt_5 5.0.2
 _ZNK7QStringltE13QLatin1String@Qt_5 5.0.2
 _ZNK7QThread10isFinishedEv@Qt_5 5.0.2
 _ZNK7QThread10metaObjectEv@Qt_5 5.0.2
 _ZNK7QThread15eventDispatcherEv@Qt_5 5.0.2
 _ZNK7QThread23isInterruptionRequestedEv@Qt_5 5.2.0~alpha1
 _ZNK7QThread8priorityEv@Qt_5 5.0.2
 _ZNK7QThread9isRunningEv@Qt_5 5.0.2
 _ZNK7QThread9loopLevelEv@Qt_5 5.5.0
 _ZNK7QThread9stackSizeEv@Qt_5 5.0.2
 _ZNK8QLibrary10metaObjectEv@Qt_5 5.0.2
 _ZNK8QLibrary11errorStringEv@Qt_5 5.0.2
 _ZNK8QLibrary8fileNameEv@Qt_5 5.0.2
 _ZNK8QLibrary8isLoadedEv@Qt_5 5.0.2
 _ZNK8QLibrary9loadHintsEv@Qt_5 5.0.2
 _ZNK8QProcess10exitStatusEv@Qt_5 5.0.2
 _ZNK8QProcess10metaObjectEv@Qt_5 5.0.2
 _ZNK8QProcess11canReadLineEv@Qt_5 5.0.2
 _ZNK8QProcess11environmentEv@Qt_5 5.0.2
 _ZNK8QProcess11readChannelEv@Qt_5 5.0.2
 _ZNK8QProcess12bytesToWriteEv@Qt_5 5.0.2
 _ZNK8QProcess12isSequentialEv@Qt_5 5.0.2
 _ZNK8QProcess14bytesAvailableEv@Qt_5 5.0.2
 _ZNK8QProcess15readChannelModeEv@Qt_5 5.0.2
 _ZNK8QProcess16inputChannelModeEv@Qt_5 5.2.0~alpha1
 _ZNK8QProcess16workingDirectoryEv@Qt_5 5.0.2
 _ZNK8QProcess18processChannelModeEv@Qt_5 5.0.2
 _ZNK8QProcess18processEnvironmentEv@Qt_5 5.0.2
 _ZNK8QProcess3pidEv@Qt_5 5.0.2
 _ZNK8QProcess5atEndEv@Qt_5 5.0.2
 _ZNK8QProcess5errorEv@Qt_5 5.0.2
 _ZNK8QProcess5stateEv@Qt_5 5.0.2
 _ZNK8QProcess7programEv@Qt_5 5.0.2
 _ZNK8QProcess8exitCodeEv@Qt_5 5.0.2
 _ZNK8QProcess9argumentsEv@Qt_5 5.0.2
 _ZNK8QProcess9processIdEv@Qt_5 5.3.0
 _ZNK8QVariant10canConvertEi@Qt_5 5.0.2
 _ZNK8QVariant10toBitArrayEv@Qt_5 5.0.2
 _ZNK8QVariant10toDateTimeEv@Qt_5 5.0.2
 _ZNK8QVariant10toLongLongEPb@Qt_5 5.0.2
 _ZNK8QVariant11toByteArrayEv@Qt_5 5.0.2
 _ZNK8QVariant11toJsonArrayEv@Qt_5 5.0.2
 _ZNK8QVariant11toJsonValueEv@Qt_5 5.0.2
 _ZNK8QVariant11toULongLongEPb@Qt_5 5.0.2
 _ZNK8QVariant12toJsonObjectEv@Qt_5 5.0.2
 _ZNK8QVariant12toModelIndexEv@Qt_5 5.0.2
 _ZNK8QVariant12toStringListEv@Qt_5 5.0.2
 _ZNK8QVariant13toEasingCurveEv@Qt_5 5.0.2
 _ZNK8QVariant14toJsonDocumentEv@Qt_5 5.0.2
 _ZNK8QVariant19toRegularExpressionEv@Qt_5 5.0.2
 _ZNK8QVariant22toPersistentModelIndexEv@Qt_5 5.5.0
 _ZNK8QVariant3cmpERKS_@Qt_5 5.0.2
 _ZNK8QVariant4saveER11QDataStream@Qt_5 5.0.2
 _ZNK8QVariant4typeEv@Qt_5 5.0.2
 _ZNK8QVariant5toIntEPb@Qt_5 5.0.2
 _ZNK8QVariant5toMapEv@Qt_5 5.0.2
 _ZNK8QVariant5toUrlEv@Qt_5 5.0.2
 _ZNK8QVariant6isNullEv@Qt_5 5.0.2
 _ZNK8QVariant6toBoolEv@Qt_5 5.0.2
 _ZNK8QVariant6toCharEv@Qt_5 5.0.2
 _ZNK8QVariant6toDateEv@Qt_5 5.0.2
 _ZNK8QVariant6toHashEv@Qt_5 5.0.2
 _ZNK8QVariant6toLineEv@Qt_5 5.0.2
 _ZNK8QVariant6toListEv@Qt_5 5.0.2
 _ZNK8QVariant6toRealEPb@Qt_5 5.0.2
 _ZNK8QVariant6toRectEv@Qt_5 5.0.2
 _ZNK8QVariant6toSizeEv@Qt_5 5.0.2
 _ZNK8QVariant6toTimeEv@Qt_5 5.0.2
 _ZNK8QVariant6toUIntEPb@Qt_5 5.0.2
 _ZNK8QVariant6toUuidEv@Qt_5 5.0.2
 _ZNK8QVariant7compareERKS_@Qt_5 5.2.0~alpha1
 _ZNK8QVariant7convertEiPv@Qt_5 5.0.2
 _ZNK8QVariant7toFloatEPb@Qt_5 5.0.2
 _ZNK8QVariant7toLineFEv@Qt_5 5.0.2
 _ZNK8QVariant7toPointEv@Qt_5 5.0.2
 _ZNK8QVariant7toRectFEv@Qt_5 5.0.2
 _ZNK8QVariant7toSizeFEv@Qt_5 5.0.2
 _ZNK8QVariant8toDoubleEPb@Qt_5 5.0.2
 _ZNK8QVariant8toLocaleEv@Qt_5 5.0.2
 _ZNK8QVariant8toPointFEv@Qt_5 5.0.2
 _ZNK8QVariant8toRegExpEv@Qt_5 5.0.2
 _ZNK8QVariant8toStringEv@Qt_5 5.0.2
 _ZNK8QVariant8typeNameEv@Qt_5 5.0.2
 _ZNK8QVariant8userTypeEv@Qt_5 5.0.2
 _ZNK8QVariant9constDataEv@Qt_5 5.0.2
 _ZNK9QBitArray5countEb@Qt_5 5.0.2
 _ZNK9QBitArraycoEv@Qt_5 5.0.2
 _ZNK9QCollator11numericModeEv@Qt_5 5.0.2
 _ZNK9QCollator15caseSensitivityEv@Qt_5 5.2.0~alpha1
 _ZNK9QCollator17ignorePunctuationEv@Qt_5 5.0.2
 _ZNK9QCollator6localeEv@Qt_5 5.0.2
 _ZNK9QCollator7compareEPK5QChariS2_i@Qt_5 5.0.2
 _ZNK9QCollator7compareERK10QStringRefS2_@Qt_5 5.0.2
 _ZNK9QCollator7compareERK7QStringS2_@Qt_5 5.0.2
 _ZNK9QCollator7sortKeyERK7QString@Qt_5 5.0.2
 _ZNK9QDateTime10toTimeSpecEN2Qt8TimeSpecE@Qt_5 5.0.2
 _ZNK9QDateTime10toTimeZoneERK9QTimeZone@Qt_5 5.2.0~alpha1
 _ZNK9QDateTime13offsetFromUtcEv@Qt_5 5.2.0~alpha1
 _ZNK9QDateTime14isDaylightTimeEv@Qt_5 5.2.0~alpha1
 _ZNK9QDateTime15toOffsetFromUtcEi@Qt_5 5.2.0~alpha1
 _ZNK9QDateTime17toMSecsSinceEpochEv@Qt_5 5.0.2
 _ZNK9QDateTime20timeZoneAbbreviationEv@Qt_5 5.2.0~alpha1
 _ZNK9QDateTime4dateEv@Qt_5 5.0.2
 _ZNK9QDateTime4timeEv@Qt_5 5.0.2
 _ZNK9QDateTime6daysToERKS_@Qt_5 5.0.2
 _ZNK9QDateTime6isNullEv@Qt_5 5.0.2
 _ZNK9QDateTime6secsToERKS_@Qt_5 5.0.2
 _ZNK9QDateTime7addDaysEx@Qt_5 5.0.2
 _ZNK9QDateTime7addSecsEx@Qt_5 5.0.2
 _ZNK9QDateTime7isValidEv@Qt_5 5.0.2
 _ZNK9QDateTime7msecsToERKS_@Qt_5 5.0.2
 _ZNK9QDateTime8addMSecsEx@Qt_5 5.0.2
 _ZNK9QDateTime8addYearsEi@Qt_5 5.0.2
 _ZNK9QDateTime8timeSpecEv@Qt_5 5.0.2
 _ZNK9QDateTime8timeZoneEv@Qt_5 5.2.0~alpha1
 _ZNK9QDateTime8toStringEN2Qt10DateFormatE@Qt_5 5.0.2
 _ZNK9QDateTime8toStringERK7QString@Qt_5 5.0.2
 _ZNK9QDateTime8toTime_tEv@Qt_5 5.0.2
 _ZNK9QDateTime9addMonthsEi@Qt_5 5.0.2
 _ZNK9QDateTime9utcOffsetEv@Qt_5 5.0.2
 _ZNK9QDateTimeeqERKS_@Qt_5 5.0.2
 _ZNK9QDateTimeltERKS_@Qt_5 5.0.2
 _ZNK9QFileInfo10bundleNameEv@Qt_5 5.0.2
 _ZNK9QFileInfo10isReadableEv@Qt_5 5.0.2
 _ZNK9QFileInfo10isRelativeEv@Qt_5 5.0.2
 _ZNK9QFileInfo10isWritableEv@Qt_5 5.0.2
 _ZNK9QFileInfo10permissionE6QFlagsIN11QFileDevice10PermissionEE@Qt_5 5.0.2
 _ZNK9QFileInfo11absoluteDirEv@Qt_5 5.0.2
 _ZNK9QFileInfo11permissionsEv@Qt_5 5.0.2
 _ZNK9QFileInfo12absolutePathEv@Qt_5 5.0.2
 _ZNK9QFileInfo12isExecutableEv@Qt_5 5.0.2
 _ZNK9QFileInfo12isNativePathEv@Qt_5 5.0.2
 _ZNK9QFileInfo12lastModifiedEv@Qt_5 5.0.2
 _ZNK9QFileInfo13canonicalPathEv@Qt_5 5.0.2
 _ZNK9QFileInfo14completeSuffixEv@Qt_5 5.0.2
 _ZNK9QFileInfo16absoluteFilePathEv@Qt_5 5.0.2
 _ZNK9QFileInfo16completeBaseNameEv@Qt_5 5.0.2
 _ZNK9QFileInfo17canonicalFilePathEv@Qt_5 5.0.2
 _ZNK9QFileInfo3dirEv@Qt_5 5.0.2
 _ZNK9QFileInfo4pathEv@Qt_5 5.0.2
 _ZNK9QFileInfo4sizeEv@Qt_5 5.0.2
 _ZNK9QFileInfo5groupEv@Qt_5 5.0.2
 _ZNK9QFileInfo5isDirEv@Qt_5 5.0.2
 _ZNK9QFileInfo5ownerEv@Qt_5 5.0.2
 _ZNK9QFileInfo6existsEv@Qt_5 5.0.2
 _ZNK9QFileInfo6isFileEv@Qt_5 5.0.2
 _ZNK9QFileInfo6isRootEv@Qt_5 5.0.2
 _ZNK9QFileInfo6suffixEv@Qt_5 5.0.2
 _ZNK9QFileInfo7cachingEv@Qt_5 5.0.2
 _ZNK9QFileInfo7createdEv@Qt_5 5.0.2
 _ZNK9QFileInfo7groupIdEv@Qt_5 5.0.2
 _ZNK9QFileInfo7ownerIdEv@Qt_5 5.0.2
 _ZNK9QFileInfo8baseNameEv@Qt_5 5.0.2
 _ZNK9QFileInfo8fileNameEv@Qt_5 5.0.2
 _ZNK9QFileInfo8filePathEv@Qt_5 5.0.2
 _ZNK9QFileInfo8isBundleEv@Qt_5 5.0.2
 _ZNK9QFileInfo8isHiddenEv@Qt_5 5.0.2
 _ZNK9QFileInfo8lastReadEv@Qt_5 5.0.2
 _ZNK9QFileInfo8readLinkEv@Qt_5 5.0.2
 _ZNK9QFileInfo9isSymLinkEv@Qt_5 5.0.2
 _ZNK9QFileInfoeqERKS_@Qt_5 5.0.2
 _ZNK9QIODevice10isReadableEv@Qt_5 5.0.2
 _ZNK9QIODevice10isWritableEv@Qt_5 5.0.2
 _ZNK9QIODevice10metaObjectEv@Qt_5 5.0.2
 _ZNK9QIODevice11canReadLineEv@Qt_5 5.0.2
 _ZNK9QIODevice11errorStringEv@Qt_5 5.0.2
 _ZNK9QIODevice12bytesToWriteEv@Qt_5 5.0.2
 _ZNK9QIODevice12isSequentialEv@Qt_5 5.0.2
 _ZNK9QIODevice14bytesAvailableEv@Qt_5 5.0.2
 _ZNK9QIODevice16readChannelCountEv@Qt_5 5.7.0
 _ZNK9QIODevice17isTextModeEnabledEv@Qt_5 5.0.2
 _ZNK9QIODevice17writeChannelCountEv@Qt_5 5.7.0
 _ZNK9QIODevice18currentReadChannelEv@Qt_5 5.7.0
 _ZNK9QIODevice19currentWriteChannelEv@Qt_5 5.7.0
 _ZNK9QIODevice20isTransactionStartedEv@Qt_5 5.7.0
 _ZNK9QIODevice3posEv@Qt_5 5.0.2
 _ZNK9QIODevice4sizeEv@Qt_5 5.0.2
 _ZNK9QIODevice5atEndEv@Qt_5 5.0.2
 _ZNK9QIODevice6isOpenEv@Qt_5 5.0.2
 _ZNK9QIODevice8openModeEv@Qt_5 5.0.2
 _ZNK9QLockFile11getLockInfoEPxP7QStringS2_@Qt_5 5.1.0
 _ZNK9QLockFile13staleLockTimeEv@Qt_5 5.1.0
 _ZNK9QLockFile5errorEv@Qt_5 5.1.0
 _ZNK9QLockFile8isLockedEv@Qt_5 5.1.0
 _ZNK9QMetaEnum10keyToValueEPKcPb@Qt_5 5.0.2
 _ZNK9QMetaEnum10valueToKeyEi@Qt_5 5.0.2
 _ZNK9QMetaEnum11keysToValueEPKcPb@Qt_5 5.0.2
 _ZNK9QMetaEnum11valueToKeysEi@Qt_5 5.0.2
 _ZNK9QMetaEnum3keyEi@Qt_5 5.0.2
 _ZNK9QMetaEnum4nameEv@Qt_5 5.0.2
 _ZNK9QMetaEnum5scopeEv@Qt_5 5.0.2
 _ZNK9QMetaEnum5valueEi@Qt_5 5.0.2
 _ZNK9QMetaEnum6isFlagEv@Qt_5 5.0.2
 _ZNK9QMetaEnum8keyCountEv@Qt_5 5.0.2
 _ZNK9QMetaType12sizeExtendedEv@Qt_5 5.0.2
 _ZNK9QMetaType13flagsExtendedEv@Qt_5 5.0.2
 _ZNK9QMetaType14createExtendedEPKv@Qt_5 5.0.2
 _ZNK9QMetaType15destroyExtendedEPv@Qt_5 5.0.2
 _ZNK9QMetaType16destructExtendedEPv@Qt_5 5.0.2
 _ZNK9QMetaType17constructExtendedEPvPKv@Qt_5 5.0.2
 _ZNK9QMetaType18metaObjectExtendedEv@Qt_5 5.0.2
 _ZNK9QMimeData10metaObjectEv@Qt_5 5.0.2
 _ZNK9QMimeData12retrieveDataERK7QStringN8QVariant4TypeE@Qt_5 5.0.2
 _ZNK9QMimeData4dataERK7QString@Qt_5 5.0.2
 _ZNK9QMimeData4htmlEv@Qt_5 5.0.2
 _ZNK9QMimeData4textEv@Qt_5 5.0.2
 _ZNK9QMimeData4urlsEv@Qt_5 5.0.2
 _ZNK9QMimeData7formatsEv@Qt_5 5.0.2
 _ZNK9QMimeData7hasHtmlEv@Qt_5 5.0.2
 _ZNK9QMimeData7hasTextEv@Qt_5 5.0.2
 _ZNK9QMimeData7hasUrlsEv@Qt_5 5.0.2
 _ZNK9QMimeData8hasColorEv@Qt_5 5.0.2
 _ZNK9QMimeData8hasImageEv@Qt_5 5.0.2
 _ZNK9QMimeData9colorDataEv@Qt_5 5.0.2
 _ZNK9QMimeData9hasFormatERK7QString@Qt_5 5.0.2
 _ZNK9QMimeData9imageDataEv@Qt_5 5.0.2
 _ZNK9QMimeType12allAncestorsEv@Qt_5 5.0.2
 _ZNK9QMimeType12filterStringEv@Qt_5 5.0.2
 _ZNK9QMimeType12globPatternsEv@Qt_5 5.0.2
 _ZNK9QMimeType15genericIconNameEv@Qt_5 5.0.2
 _ZNK9QMimeType15parentMimeTypesEv@Qt_5 5.0.2
 _ZNK9QMimeType15preferredSuffixEv@Qt_5 5.0.2
 _ZNK9QMimeType4nameEv@Qt_5 5.0.2
 _ZNK9QMimeType7aliasesEv@Qt_5 5.0.2
 _ZNK9QMimeType7commentEv@Qt_5 5.0.2
 _ZNK9QMimeType7isValidEv@Qt_5 5.0.2
 _ZNK9QMimeType8iconNameEv@Qt_5 5.0.2
 _ZNK9QMimeType8inheritsERK7QString@Qt_5 5.0.2
 _ZNK9QMimeType8suffixesEv@Qt_5 5.0.2
 _ZNK9QMimeType9isDefaultEv@Qt_5 5.0.2
 _ZNK9QMimeTypeeqERKS_@Qt_5 5.0.2
 _ZNK9QResource12isCompressedEv@Qt_5 5.0.2
 _ZNK9QResource16absoluteFilePathEv@Qt_5 5.0.2
 _ZNK9QResource4dataEv@Qt_5 5.0.2
 _ZNK9QResource4sizeEv@Qt_5 5.0.2
 _ZNK9QResource5isDirEv@Qt_5 5.0.2
 _ZNK9QResource6localeEv@Qt_5 5.0.2
 _ZNK9QResource7isValidEv@Qt_5 5.0.2
 _ZNK9QResource8childrenEv@Qt_5 5.0.2
 _ZNK9QResource8fileNameEv@Qt_5 5.0.2
 _ZNK9QSaveFile10metaObjectEv@Qt_5 5.1.0
 _ZNK9QSaveFile19directWriteFallbackEv@Qt_5 5.1.0
 _ZNK9QSaveFile8fileNameEv@Qt_5 5.1.0
 _ZNK9QSettings10isWritableEv@Qt_5 5.0.2
 _ZNK9QSettings10metaObjectEv@Qt_5 5.0.2
 _ZNK9QSettings11childGroupsEv@Qt_5 5.0.2
 _ZNK9QSettings15applicationNameEv@Qt_5 5.0.2
 _ZNK9QSettings16fallbacksEnabledEv@Qt_5 5.0.2
 _ZNK9QSettings16organizationNameEv@Qt_5 5.0.2
 _ZNK9QSettings5groupEv@Qt_5 5.0.2
 _ZNK9QSettings5scopeEv@Qt_5 5.0.2
 _ZNK9QSettings5valueERK7QStringRK8QVariant@Qt_5 5.0.2
 _ZNK9QSettings6formatEv@Qt_5 5.0.2
 _ZNK9QSettings6statusEv@Qt_5 5.0.2
 _ZNK9QSettings7allKeysEv@Qt_5 5.0.2
 _ZNK9QSettings8containsERK7QString@Qt_5 5.0.2
 _ZNK9QSettings8fileNameEv@Qt_5 5.0.2
 _ZNK9QSettings8iniCodecEv@Qt_5 5.0.2
 _ZNK9QSettings9childKeysEv@Qt_5 5.0.2
 _ZNK9QTimeLine10curveShapeEv@Qt_5 5.0.2
 _ZNK9QTimeLine10metaObjectEv@Qt_5 5.0.2
 _ZNK9QTimeLine10startFrameEv@Qt_5 5.0.2
 _ZNK9QTimeLine11currentTimeEv@Qt_5 5.0.2
 _ZNK9QTimeLine11easingCurveEv@Qt_5 5.0.2
 _ZNK9QTimeLine12currentFrameEv@Qt_5 5.0.2
 _ZNK9QTimeLine12currentValueEv@Qt_5 5.0.2
 _ZNK9QTimeLine12frameForTimeEi@Qt_5 5.0.2
 _ZNK9QTimeLine12valueForTimeEi@Qt_5 5.0.2
 _ZNK9QTimeLine14updateIntervalEv@Qt_5 5.0.2
 _ZNK9QTimeLine5stateEv@Qt_5 5.0.2
 _ZNK9QTimeLine8durationEv@Qt_5 5.0.2
 _ZNK9QTimeLine8endFrameEv@Qt_5 5.0.2
 _ZNK9QTimeLine9directionEv@Qt_5 5.0.2
 _ZNK9QTimeLine9loopCountEv@Qt_5 5.0.2
 _ZNK9QTimeZone10offsetDataERK9QDateTime@Qt_5 5.2.0~alpha1
 _ZNK9QTimeZone11displayNameENS_8TimeTypeENS_8NameTypeERK7QLocale@Qt_5 5.2.0~alpha1
 _ZNK9QTimeZone11displayNameERK9QDateTimeNS_8NameTypeERK7QLocale@Qt_5 5.2.0~alpha1
 _ZNK9QTimeZone11transitionsERK9QDateTimeS2_@Qt_5 5.2.0~alpha1
 _ZNK9QTimeZone12abbreviationERK9QDateTime@Qt_5 5.2.0~alpha1
 _ZNK9QTimeZone13offsetFromUtcERK9QDateTime@Qt_5 5.2.0~alpha1
 _ZNK9QTimeZone14hasTransitionsEv@Qt_5 5.2.0~alpha1
 _ZNK9QTimeZone14isDaylightTimeERK9QDateTime@Qt_5 5.2.0~alpha1
 _ZNK9QTimeZone14nextTransitionERK9QDateTime@Qt_5 5.2.0~alpha1
 _ZNK9QTimeZone15hasDaylightTimeEv@Qt_5 5.2.0~alpha1
 _ZNK9QTimeZone18daylightTimeOffsetERK9QDateTime@Qt_5 5.2.0~alpha1
 _ZNK9QTimeZone18previousTransitionERK9QDateTime@Qt_5 5.2.0~alpha1
 _ZNK9QTimeZone18standardTimeOffsetERK9QDateTime@Qt_5 5.2.0~alpha1
 _ZNK9QTimeZone2idEv@Qt_5 5.2.0~alpha1
 _ZNK9QTimeZone7commentEv@Qt_5 5.2.0~alpha1
 _ZNK9QTimeZone7countryEv@Qt_5 5.2.0~alpha1
 _ZNK9QTimeZone7isValidEv@Qt_5 5.2.0~alpha1
 _ZNK9QTimeZoneeqERKS_@Qt_5 5.2.0~alpha1
 _ZNK9QTimeZoneneERKS_@Qt_5 5.2.0~alpha1
 _ZNK9QUrlQuery10isDetachedEv@Qt_5 5.0.2
 _ZNK9QUrlQuery10queryItemsE6QFlagsIN4QUrl25ComponentFormattingOptionEE@Qt_5 5.0.2
 _ZNK9QUrlQuery12hasQueryItemERK7QString@Qt_5 5.0.2
 _ZNK9QUrlQuery14queryItemValueERK7QString6QFlagsIN4QUrl25ComponentFormattingOptionEE@Qt_5 5.0.2
 _ZNK9QUrlQuery18allQueryItemValuesERK7QString6QFlagsIN4QUrl25ComponentFormattingOptionEE@Qt_5 5.0.2
 _ZNK9QUrlQuery18queryPairDelimiterEv@Qt_5 5.0.2
 _ZNK9QUrlQuery19queryValueDelimiterEv@Qt_5 5.0.2
 _ZNK9QUrlQuery5queryE6QFlagsIN4QUrl25ComponentFormattingOptionEE@Qt_5 5.0.2
 _ZNK9QUrlQuery7isEmptyEv@Qt_5 5.0.2
 _ZNK9QUrlQueryeqERKS_@Qt_5 5.0.2
 _ZNK9QtPrivate14ExceptionStore12hasExceptionEv@Qt_5 5.0.2
 _ZNK9QtPrivate14ExceptionStore9hasThrownEv@Qt_5 5.0.2
 _ZNK9QtPrivate15ExceptionHolder9exceptionEv@Qt_5 5.0.2
 _ZNK9QtPrivate15ResultStoreBase10filterModeEv@Qt_5 5.0.2
 _ZNK9QtPrivate15ResultStoreBase13hasNextResultEv@Qt_5 5.0.2
 _ZNK9QtPrivate15ResultStoreBase3endEv@Qt_5 5.0.2
 _ZNK9QtPrivate15ResultStoreBase5beginEv@Qt_5 5.0.2
 _ZNK9QtPrivate15ResultStoreBase5countEv@Qt_5 5.0.2
 _ZNK9QtPrivate15ResultStoreBase8containsEi@Qt_5 5.0.2
 _ZNK9QtPrivate15ResultStoreBase8resultAtEi@Qt_5 5.0.2
 _ZNK9QtPrivate18ResultIteratorBase11resultIndexEv@Qt_5 5.0.2
 _ZNK9QtPrivate18ResultIteratorBase11vectorIndexEv@Qt_5 5.0.2
 _ZNK9QtPrivate18ResultIteratorBase23canIncrementVectorIndexEv@Qt_5 5.0.2
 _ZNK9QtPrivate18ResultIteratorBase8isVectorEv@Qt_5 5.0.2
 _ZNK9QtPrivate18ResultIteratorBase9batchSizeEv@Qt_5 5.0.2
 _ZNK9QtPrivate18ResultIteratorBaseeqERKS0_@Qt_5 5.0.2
 _ZNK9QtPrivate18ResultIteratorBaseneERKS0_@Qt_5 5.0.2
 (optional=templinst)_ZNSt3_V28__rotateIP21QPersistentModelIndexEET_S3_S3_S3_St26random_access_iterator_tag@Qt_5 5.5.0
 (optional=templinst)_ZNSt3_V28__rotateIPiEET_S2_S2_S2_St26random_access_iterator_tag@Qt_5 5.5.0
 (optional=templinst)_ZSt13move_backwardIPiS0_ET0_T_S2_S1_@Qt_5 5.5.0
 (optional=templinst|subst)_ZSt17__rotate_adaptiveIP21QPersistentModelIndexS1_{ssize_t}ET_S2_S2_S2_T1_S3_T0_S3_@Qt_5 5.0.2
 (optional=templinst|subst)_ZSt17__rotate_adaptiveIPiS0_{ssize_t}ET_S1_S1_S1_T1_S2_T0_S2_@Qt_5 5.0.2
 (optional=templinst|arch=armel armhf hurd-i386 i386 kfreebsd-i386 m68k mips mipsel powerpc powerpcspe)_ZSt4swapIN8QVariant7PrivateEENSt9enable_ifIXsrSt6__and_IJSt21is_move_constructibleIT_ESt18is_move_assignableIS5_EEE5valueEvE4typeERS5_SC_@Qt_5 5.7.1
 _ZTI10QEventLoop@Qt_5 5.0.2
 _ZTI10QException@Qt_5 5.0.2
 _ZTI10QTextCodec@Qt_5 5.0.2
 _ZTI11QChildEvent@Qt_5 5.0.2
 _ZTI11QFileDevice@Qt_5 5.0.2
 _ZTI11QFinalState@Qt_5 5.0.2
 _ZTI11QMetaObject@Qt_5 5.6.0~beta
 _ZTI11QObjectData@Qt_5 5.0.2
 _ZTI11QSharedData@Qt_5 5.2.0~alpha1
 _ZTI11QTextStream@Qt_5 5.0.2
 _ZTI11QThreadPool@Qt_5 5.0.2
 _ZTI11QTimerEvent@Qt_5 5.0.2
 _ZTI11QTranslator@Qt_5 5.0.2
 _ZTI13QDaemonThread@Qt_5_PRIVATE_API 5.6.0~beta 1
 _ZTI13QFSFileEngine@Qt_5_PRIVATE_API 5.4.0 1
 _ZTI13QFileSelector@Qt_5 5.2.0~alpha1
 _ZTI13QHistoryState@Qt_5 5.0.2
 _ZTI13QPluginLoader@Qt_5 5.0.2
 _ZTI13QSharedMemory@Qt_5 5.0.2
 _ZTI13QSignalMapper@Qt_5 5.0.2
 _ZTI13QStateMachine@Qt_5 5.0.2
 _ZTI13QStatePrivate@Qt_5_PRIVATE_API 5.6.0~rc 1
 _ZTI13QSystemLocale@Qt_5_PRIVATE_API 5.2.0~alpha1 1
 _ZTI13QUnifiedTimer@Qt_5_PRIVATE_API 5.0.2 1
 _ZTI14QAbstractState@Qt_5 5.0.2
 _ZTI14QFactoryLoader@Qt_5_PRIVATE_API 5.0.2 1
 _ZTI14QMetaCallEvent@Qt_5_PRIVATE_API 5.0.2 1
 _ZTI14QObjectPrivate@Qt_5_PRIVATE_API 5.0.2 1
 _ZTI14QTemporaryFile@Qt_5 5.0.2
 _ZTI15QAnimationGroup@Qt_5 5.0.2
 _ZTI15QDateTimeParser@Qt_5_PRIVATE_API 5.0.2 1
 _ZTI15QObjectUserData@Qt_5 5.0.2
 _ZTI15QPauseAnimation@Qt_5 5.0.2
 _ZTI15QSocketNotifier@Qt_5 5.0.2
 _ZTI16QAnimationDriver@Qt_5 5.0.2
 _ZTI16QCoreApplication@Qt_5 5.0.2
 _ZTI16QEventTransition@Qt_5 5.0.2
 _ZTI16QIODevicePrivate@Qt_5_PRIVATE_API 5.0.2 1
 _ZTI16QStringListModel@Qt_5 5.0.2
 _ZTI16QTimeZonePrivate@Qt_5_PRIVATE_API 5.2.0~alpha1 1
 _ZTI17QFactoryInterface@Qt_5 5.6.0~beta
 _ZTI17QSignalTransition@Qt_5 5.0.2
 _ZTI17QVariantAnimation@Qt_5 5.0.2
 _ZTI18QAbstractAnimation@Qt_5 5.0.2
 _ZTI18QAbstractItemModel@Qt_5 5.0.2
 _ZTI18QAbstractListModel@Qt_5 5.0.2
 _ZTI18QFileSystemWatcher@Qt_5 5.0.2
 _ZTI18QFinalStatePrivate@Qt_5_PRIVATE_API 5.6.0~rc 1
 _ZTI18QFutureWatcherBase@Qt_5 5.0.2
 _ZTI18QMetaObjectBuilder@Qt_5_PRIVATE_API 5.0.2 1
 _ZTI18QPropertyAnimation@Qt_5 5.0.2
 _ZTI18QThreadPoolPrivate@Qt_5_PRIVATE_API 5.0.2 1
 _ZTI19QAbstractFileEngine@Qt_5_PRIVATE_API 5.1.0 1
 _ZTI19QAbstractProxyModel@Qt_5 5.0.2
 _ZTI19QAbstractTableModel@Qt_5 5.0.2
 _ZTI19QAbstractTransition@Qt_5 5.0.2
 _ZTI19QIdentityProxyModel@Qt_5 5.0.2
 _ZTI19QItemSelectionModel@Qt_5 5.0.2
 _ZTI19QUnhandledException@Qt_5 5.0.2
 _ZTI20QDeferredDeleteEvent@Qt_5 5.0.2
 _ZTI20QEventDispatcherGlib@Qt_5_PRIVATE_API 5.0.2 1
 _ZTI20QEventDispatcherUNIX@Qt_5_PRIVATE_API 5.0.2 1
 _ZTI20QFileSelectorPrivate@Qt_5_PRIVATE_API 5.2.0~alpha1 1
 _ZTI20QFutureInterfaceBase@Qt_5 5.0.2
 _ZTI20QStateMachinePrivate@Qt_5_PRIVATE_API 5.0.2 1
 _ZTI21QObjectCleanupHandler@Qt_5 5.0.2
 _ZTI21QSortFilterProxyModel@Qt_5 5.0.2
 _ZTI22QDynamicMetaObjectData@Qt_5_PRIVATE_API 5.6.0~beta 1
 _ZTI23QAbstractAnimationTimer@Qt_5_PRIVATE_API 5.0.2 1
 _ZTI23QAnimationDriverPrivate@Qt_5_PRIVATE_API 5.0.2 1
 _ZTI23QCoreApplicationPrivate@Qt_5_PRIVATE_API 5.0.2 1
 _ZTI23QEventTransitionPrivate@Qt_5_PRIVATE_API 5.0.2 1
 _ZTI23QParallelAnimationGroup@Qt_5 5.0.2
 _ZTI24QAbstractEventDispatcher@Qt_5 5.0.2
 _ZTI24QNonContiguousByteDevice@Qt_5_PRIVATE_API 5.0.2 1
 _ZTI24QXmlStreamEntityResolver@Qt_5 5.0.2
 _ZTI25QAbstractItemModelPrivate@Qt_5_PRIVATE_API 5.0.2 1
 _ZTI25QSequentialAnimationGroup@Qt_5 5.0.2
 _ZTI26QAbstractDynamicMetaObject@Qt_5_PRIVATE_API 5.6.0~beta 1
 _ZTI26QAbstractFileEngineHandler@Qt_5_PRIVATE_API 5.1.0 1
 _ZTI26QAbstractNativeEventFilter@Qt_5 5.0.2
 _ZTI26QAbstractProxyModelPrivate@Qt_5_PRIVATE_API 5.0.2 1
 _ZTI26QAbstractTransitionPrivate@Qt_5_PRIVATE_API 5.0.2 1
 _ZTI27QAbstractFileEngineIterator@Qt_5_PRIVATE_API 5.1.0 1
 _ZTI27QDynamicPropertyChangeEvent@Qt_5 5.0.2
 _ZTI27QEventDispatcherGlibPrivate@Qt_5_PRIVATE_API 5.0.2 1
 _ZTI27QEventDispatcherUNIXPrivate@Qt_5_PRIVATE_API 5.0.2 1
 _ZTI31QAbstractEventDispatcherPrivate@Qt_5_PRIVATE_API 5.0.2 1
 _ZTI5QFile@Qt_5 5.0.2
 _ZTI6QEvent@Qt_5 5.0.2
 _ZTI6QState@Qt_5 5.0.2
 _ZTI6QTimer@Qt_5 5.0.2
 _ZTI7QBuffer@Qt_5 5.0.2
 _ZTI7QObject@Qt_5 5.0.2
 _ZTI7QThread@Qt_5 5.0.2
 _ZTI8QLibrary@Qt_5 5.0.2
 _ZTI8QProcess@Qt_5 5.0.2
 _ZTI9QIODevice@Qt_5 5.0.2
 _ZTI9QMimeData@Qt_5 5.0.2
 _ZTI9QRunnable@Qt_5 5.6.0~beta
 _ZTI9QSaveFile@Qt_5 5.1.0
 _ZTI9QSettings@Qt_5 5.0.2
 _ZTI9QTimeLine@Qt_5 5.0.2
 _ZTIN13QStateMachine11SignalEventE@Qt_5 5.0.2
 _ZTIN13QStateMachine12WrappedEventE@Qt_5 5.0.2
 _ZTIN9QtPrivate15ResultStoreBaseE@Qt_5 5.0.2
 _ZTS10QEventLoop@Qt_5 5.0.2
 _ZTS10QException@Qt_5 5.0.2
 _ZTS10QTextCodec@Qt_5 5.0.2
 _ZTS11QChildEvent@Qt_5 5.0.2
 _ZTS11QFileDevice@Qt_5 5.0.2
 _ZTS11QFinalState@Qt_5 5.0.2
 _ZTS11QMetaObject@Qt_5 5.6.0~beta
 _ZTS11QObjectData@Qt_5 5.0.2
 _ZTS11QSharedData@Qt_5 5.2.0~alpha1
 _ZTS11QTextStream@Qt_5 5.0.2
 _ZTS11QThreadPool@Qt_5 5.0.2
 _ZTS11QTimerEvent@Qt_5 5.0.2
 _ZTS11QTranslator@Qt_5 5.0.2
 _ZTS13QDaemonThread@Qt_5_PRIVATE_API 5.6.0~beta 1
 _ZTS13QFSFileEngine@Qt_5_PRIVATE_API 5.4.0 1
 _ZTS13QFileSelector@Qt_5 5.2.0~alpha1
 _ZTS13QHistoryState@Qt_5 5.0.2
 _ZTS13QPluginLoader@Qt_5 5.0.2
 _ZTS13QSharedMemory@Qt_5 5.0.2
 _ZTS13QSignalMapper@Qt_5 5.0.2
 _ZTS13QStateMachine@Qt_5 5.0.2
 _ZTS13QStatePrivate@Qt_5_PRIVATE_API 5.6.0~rc 1
 _ZTS13QSystemLocale@Qt_5_PRIVATE_API 5.2.0~alpha1 1
 _ZTS13QUnifiedTimer@Qt_5_PRIVATE_API 5.0.2 1
 _ZTS14QAbstractState@Qt_5 5.0.2
 _ZTS14QFactoryLoader@Qt_5_PRIVATE_API 5.0.2 1
 _ZTS14QMetaCallEvent@Qt_5_PRIVATE_API 5.0.2 1
 _ZTS14QObjectPrivate@Qt_5_PRIVATE_API 5.0.2 1
 _ZTS14QTemporaryFile@Qt_5 5.0.2
 _ZTS15QAnimationGroup@Qt_5 5.0.2
 _ZTS15QDateTimeParser@Qt_5_PRIVATE_API 5.0.2 1
 _ZTS15QObjectUserData@Qt_5 5.0.2
 _ZTS15QPauseAnimation@Qt_5 5.0.2
 _ZTS15QSocketNotifier@Qt_5 5.0.2
 _ZTS16QAnimationDriver@Qt_5 5.0.2
 _ZTS16QCoreApplication@Qt_5 5.0.2
 _ZTS16QEventTransition@Qt_5 5.0.2
 _ZTS16QIODevicePrivate@Qt_5_PRIVATE_API 5.0.2 1
 _ZTS16QStringListModel@Qt_5 5.0.2
 _ZTS16QTimeZonePrivate@Qt_5_PRIVATE_API 5.2.0~alpha1 1
 _ZTS17QFactoryInterface@Qt_5 5.6.0~beta
 _ZTS17QSignalTransition@Qt_5 5.0.2
 _ZTS17QVariantAnimation@Qt_5 5.0.2
 _ZTS18QAbstractAnimation@Qt_5 5.0.2
 _ZTS18QAbstractItemModel@Qt_5 5.0.2
 _ZTS18QAbstractListModel@Qt_5 5.0.2
 _ZTS18QFileSystemWatcher@Qt_5 5.0.2
 _ZTS18QFinalStatePrivate@Qt_5_PRIVATE_API 5.6.0~rc 1
 _ZTS18QFutureWatcherBase@Qt_5 5.0.2
 _ZTS18QMetaObjectBuilder@Qt_5_PRIVATE_API 5.0.2 1
 _ZTS18QPropertyAnimation@Qt_5 5.0.2
 _ZTS18QThreadPoolPrivate@Qt_5_PRIVATE_API 5.0.2 1
 _ZTS19QAbstractFileEngine@Qt_5_PRIVATE_API 5.1.0 1
 _ZTS19QAbstractProxyModel@Qt_5 5.0.2
 _ZTS19QAbstractTableModel@Qt_5 5.0.2
 _ZTS19QAbstractTransition@Qt_5 5.0.2
 _ZTS19QIdentityProxyModel@Qt_5 5.0.2
 _ZTS19QItemSelectionModel@Qt_5 5.0.2
 _ZTS19QUnhandledException@Qt_5 5.0.2
 _ZTS20QDeferredDeleteEvent@Qt_5 5.0.2
 _ZTS20QEventDispatcherGlib@Qt_5_PRIVATE_API 5.0.2 1
 _ZTS20QEventDispatcherUNIX@Qt_5_PRIVATE_API 5.0.2 1
 _ZTS20QFileSelectorPrivate@Qt_5_PRIVATE_API 5.2.0~alpha1 1
 _ZTS20QFutureInterfaceBase@Qt_5 5.0.2
 _ZTS20QStateMachinePrivate@Qt_5_PRIVATE_API 5.0.2 1
 _ZTS21QObjectCleanupHandler@Qt_5 5.0.2
 _ZTS21QSortFilterProxyModel@Qt_5 5.0.2
 _ZTS22QDynamicMetaObjectData@Qt_5_PRIVATE_API 5.6.0~beta 1
 _ZTS23QAbstractAnimationTimer@Qt_5_PRIVATE_API 5.0.2 1
 _ZTS23QAnimationDriverPrivate@Qt_5_PRIVATE_API 5.0.2 1
 _ZTS23QCoreApplicationPrivate@Qt_5_PRIVATE_API 5.0.2 1
 _ZTS23QEventTransitionPrivate@Qt_5_PRIVATE_API 5.0.2 1
 _ZTS23QParallelAnimationGroup@Qt_5 5.0.2
 _ZTS24QAbstractEventDispatcher@Qt_5 5.0.2
 _ZTS24QNonContiguousByteDevice@Qt_5_PRIVATE_API 5.0.2 1
 _ZTS24QXmlStreamEntityResolver@Qt_5 5.0.2
 _ZTS25QAbstractItemModelPrivate@Qt_5_PRIVATE_API 5.0.2 1
 _ZTS25QSequentialAnimationGroup@Qt_5 5.0.2
 _ZTS26QAbstractDynamicMetaObject@Qt_5_PRIVATE_API 5.6.0~beta 1
 _ZTS26QAbstractFileEngineHandler@Qt_5_PRIVATE_API 5.1.0 1
 _ZTS26QAbstractNativeEventFilter@Qt_5 5.0.2
 _ZTS26QAbstractProxyModelPrivate@Qt_5_PRIVATE_API 5.0.2 1
 _ZTS26QAbstractTransitionPrivate@Qt_5_PRIVATE_API 5.0.2 1
 _ZTS27QAbstractFileEngineIterator@Qt_5_PRIVATE_API 5.1.0 1
 _ZTS27QDynamicPropertyChangeEvent@Qt_5 5.0.2
 _ZTS27QEventDispatcherGlibPrivate@Qt_5_PRIVATE_API 5.0.2 1
 _ZTS27QEventDispatcherUNIXPrivate@Qt_5_PRIVATE_API 5.0.2 1
 _ZTS31QAbstractEventDispatcherPrivate@Qt_5_PRIVATE_API 5.0.2 1
 _ZTS5QFile@Qt_5 5.0.2
 _ZTS6QEvent@Qt_5 5.0.2
 _ZTS6QState@Qt_5 5.0.2
 _ZTS6QTimer@Qt_5 5.0.2
 _ZTS7QBuffer@Qt_5 5.0.2
 _ZTS7QObject@Qt_5 5.0.2
 _ZTS7QThread@Qt_5 5.0.2
 _ZTS8QLibrary@Qt_5 5.0.2
 _ZTS8QProcess@Qt_5 5.0.2
 _ZTS9QIODevice@Qt_5 5.0.2
 _ZTS9QMimeData@Qt_5 5.0.2
 _ZTS9QRunnable@Qt_5 5.6.0~beta
 _ZTS9QSaveFile@Qt_5 5.1.0
 _ZTS9QSettings@Qt_5 5.0.2
 _ZTS9QTimeLine@Qt_5 5.0.2
 _ZTSN13QStateMachine11SignalEventE@Qt_5 5.0.2
 _ZTSN13QStateMachine12WrappedEventE@Qt_5 5.0.2
 _ZTSN9QtPrivate15ResultStoreBaseE@Qt_5 5.0.2
 _ZTV10QEventLoop@Qt_5 5.0.2
 _ZTV10QException@Qt_5 5.0.2
 _ZTV10QTextCodec@Qt_5 5.0.2
 _ZTV11QChildEvent@Qt_5 5.0.2
 _ZTV11QFileDevice@Qt_5 5.0.2
 _ZTV11QFinalState@Qt_5 5.0.2
 _ZTV11QObjectData@Qt_5 5.0.2
 _ZTV11QTextStream@Qt_5 5.0.2
 _ZTV11QThreadPool@Qt_5 5.0.2
 _ZTV11QTimerEvent@Qt_5 5.0.2
 _ZTV11QTranslator@Qt_5 5.0.2
 _ZTV13QDaemonThread@Qt_5_PRIVATE_API 5.6.0~beta 1
 _ZTV13QFSFileEngine@Qt_5_PRIVATE_API 5.4.0 1
 _ZTV13QFileSelector@Qt_5 5.2.0~alpha1
 _ZTV13QHistoryState@Qt_5 5.0.2
 _ZTV13QPluginLoader@Qt_5 5.0.2
 _ZTV13QSharedMemory@Qt_5 5.0.2
 _ZTV13QSignalMapper@Qt_5 5.0.2
 _ZTV13QStateMachine@Qt_5 5.0.2
 _ZTV13QStatePrivate@Qt_5_PRIVATE_API 5.6.0~rc 1
 _ZTV13QSystemLocale@Qt_5_PRIVATE_API 5.2.0~alpha1 1
 _ZTV13QUnifiedTimer@Qt_5_PRIVATE_API 5.0.2 1
 _ZTV14QAbstractState@Qt_5 5.0.2
 _ZTV14QFactoryLoader@Qt_5_PRIVATE_API 5.0.2 1
 _ZTV14QMetaCallEvent@Qt_5_PRIVATE_API 5.0.2 1
 _ZTV14QObjectPrivate@Qt_5_PRIVATE_API 5.0.2 1
 _ZTV14QTemporaryFile@Qt_5 5.0.2
 _ZTV15QAnimationGroup@Qt_5 5.0.2
 _ZTV15QDateTimeParser@Qt_5_PRIVATE_API 5.0.2 1
 _ZTV15QObjectUserData@Qt_5 5.0.2
 _ZTV15QPauseAnimation@Qt_5 5.0.2
 _ZTV15QSocketNotifier@Qt_5 5.0.2
 _ZTV16QAnimationDriver@Qt_5 5.0.2
 _ZTV16QCoreApplication@Qt_5 5.0.2
 _ZTV16QEventTransition@Qt_5 5.0.2
 _ZTV16QIODevicePrivate@Qt_5_PRIVATE_API 5.0.2 1
 _ZTV16QStringListModel@Qt_5 5.0.2
 _ZTV16QTimeZonePrivate@Qt_5_PRIVATE_API 5.2.0~alpha1 1
 _ZTV17QFactoryInterface@Qt_5 5.6.0~beta
 _ZTV17QSignalTransition@Qt_5 5.0.2
 _ZTV17QVariantAnimation@Qt_5 5.0.2
 _ZTV18QAbstractAnimation@Qt_5 5.0.2
 _ZTV18QAbstractItemModel@Qt_5 5.0.2
 _ZTV18QAbstractListModel@Qt_5 5.0.2
 _ZTV18QFileSystemWatcher@Qt_5 5.0.2
 _ZTV18QFinalStatePrivate@Qt_5_PRIVATE_API 5.6.0~rc 1
 _ZTV18QFutureWatcherBase@Qt_5 5.0.2
 _ZTV18QMetaObjectBuilder@Qt_5_PRIVATE_API 5.0.2 1
 _ZTV18QPropertyAnimation@Qt_5 5.0.2
 _ZTV18QThreadPoolPrivate@Qt_5_PRIVATE_API 5.0.2 1
 _ZTV19QAbstractFileEngine@Qt_5_PRIVATE_API 5.1.0 1
 _ZTV19QAbstractProxyModel@Qt_5 5.0.2
 _ZTV19QAbstractTableModel@Qt_5 5.0.2
 _ZTV19QAbstractTransition@Qt_5 5.0.2
 _ZTV19QIdentityProxyModel@Qt_5 5.0.2
 _ZTV19QItemSelectionModel@Qt_5 5.0.2
 _ZTV19QUnhandledException@Qt_5 5.0.2
 _ZTV20QDeferredDeleteEvent@Qt_5 5.0.2
 _ZTV20QEventDispatcherGlib@Qt_5_PRIVATE_API 5.0.2 1
 _ZTV20QEventDispatcherUNIX@Qt_5_PRIVATE_API 5.0.2 1
 _ZTV20QFileSelectorPrivate@Qt_5_PRIVATE_API 5.2.0~alpha1 1
 _ZTV20QFutureInterfaceBase@Qt_5 5.0.2
 _ZTV20QStateMachinePrivate@Qt_5_PRIVATE_API 5.0.2 1
 _ZTV21QObjectCleanupHandler@Qt_5 5.0.2
 _ZTV21QSortFilterProxyModel@Qt_5 5.0.2
 _ZTV22QDynamicMetaObjectData@Qt_5_PRIVATE_API 5.6.0~beta 1
 _ZTV23QAbstractAnimationTimer@Qt_5_PRIVATE_API 5.0.2 1
 _ZTV23QAnimationDriverPrivate@Qt_5_PRIVATE_API 5.0.2 1
 _ZTV23QCoreApplicationPrivate@Qt_5_PRIVATE_API 5.0.2 1
 _ZTV23QEventTransitionPrivate@Qt_5_PRIVATE_API 5.0.2 1
 _ZTV23QParallelAnimationGroup@Qt_5 5.0.2
 _ZTV24QAbstractEventDispatcher@Qt_5 5.0.2
 _ZTV24QNonContiguousByteDevice@Qt_5_PRIVATE_API 5.0.2 1
 _ZTV24QXmlStreamEntityResolver@Qt_5 5.0.2
 _ZTV25QAbstractItemModelPrivate@Qt_5_PRIVATE_API 5.0.2 1
 _ZTV25QSequentialAnimationGroup@Qt_5 5.0.2
 _ZTV26QAbstractDynamicMetaObject@Qt_5_PRIVATE_API 5.6.0~beta 1
 _ZTV26QAbstractFileEngineHandler@Qt_5_PRIVATE_API 5.1.0 1
 _ZTV26QAbstractNativeEventFilter@Qt_5 5.0.2
 _ZTV26QAbstractProxyModelPrivate@Qt_5_PRIVATE_API 5.0.2 1
 _ZTV26QAbstractTransitionPrivate@Qt_5_PRIVATE_API 5.0.2 1
 _ZTV27QAbstractFileEngineIterator@Qt_5_PRIVATE_API 5.1.0 1
 _ZTV27QDynamicPropertyChangeEvent@Qt_5 5.0.2
 _ZTV27QEventDispatcherGlibPrivate@Qt_5_PRIVATE_API 5.0.2 1
 _ZTV27QEventDispatcherUNIXPrivate@Qt_5_PRIVATE_API 5.0.2 1
 _ZTV31QAbstractEventDispatcherPrivate@Qt_5_PRIVATE_API 5.0.2 1
 _ZTV5QFile@Qt_5 5.0.2
 _ZTV6QEvent@Qt_5 5.0.2
 _ZTV6QState@Qt_5 5.0.2
 _ZTV6QTimer@Qt_5 5.0.2
 _ZTV7QBuffer@Qt_5 5.0.2
 _ZTV7QObject@Qt_5 5.0.2
 _ZTV7QThread@Qt_5 5.0.2
 _ZTV8QLibrary@Qt_5 5.0.2
 _ZTV8QProcess@Qt_5 5.0.2
 _ZTV9QIODevice@Qt_5 5.0.2
 _ZTV9QMimeData@Qt_5 5.0.2
 _ZTV9QRunnable@Qt_5 5.6.0~beta
 _ZTV9QSaveFile@Qt_5 5.1.0
 _ZTV9QSettings@Qt_5 5.0.2
 _ZTV9QTimeLine@Qt_5 5.0.2
 _ZTVN13QStateMachine11SignalEventE@Qt_5 5.0.2
 _ZTVN13QStateMachine12WrappedEventE@Qt_5 5.0.2
 _ZTVN9QtPrivate15ResultStoreBaseE@Qt_5 5.0.2
 _ZZZN16QTimeZonePrivate10utcQStringEvENKUlvE_clEvE15qstring_literal@Qt_5_PRIVATE_API 5.4.0 1
 _ZZZN16QTimeZonePrivate13utcQByteArrayEvENKUlvE_clEvE18qbytearray_literal@Qt_5_PRIVATE_API 5.4.0 1
 _ZanRK9QBitArrayS1_@Qt_5 5.0.2
 _ZeoRK9QBitArrayS1_@Qt_5 5.0.2
 _Zeq13QLatin1StringRK10QStringRef@Qt_5 5.0.2
 _ZeqRK10QStringRefS1_@Qt_5 5.0.2
 _ZeqRK7QStringRK10QStringRef@Qt_5 5.0.2
 _ZeqRK7QStringS1_@Qt_5 5.0.2
 _ZeqRKN15QDateTimeParser11SectionNodeES2_@Qt_5_PRIVATE_API 5.0.2 1
 _Zls6QDebug6QFlagsIN18QRegularExpression13PatternOptionEE@Qt_5 5.0.2
 _Zls6QDebug6QFlagsIN4QDir6FilterEE@Qt_5 5.0.2
 _Zls6QDebug6QFlagsIN9QIODevice12OpenModeFlagEE@Qt_5 5.0.2
 _Zls6QDebugN8QVariant4TypeE@Qt_5 5.0.2
 _Zls6QDebugPK7QObject@Qt_5 5.0.2
 _Zls6QDebugRK10QJsonArray@Qt_5 5.0.2
 _Zls6QDebugRK10QJsonValue@Qt_5 5.0.2
 _Zls6QDebugRK11QJsonObject@Qt_5 5.0.2
 _Zls6QDebugRK11QModelIndex@Qt_5 5.0.2
 _Zls6QDebugRK12QEasingCurve@Qt_5 5.0.2
 _Zls6QDebugRK13QJsonDocument@Qt_5 5.0.2
 _Zls6QDebugRK14QVersionNumber@Qt_5 5.4.0
 _Zls6QDebugRK18QRegularExpression@Qt_5 5.0.2
 _Zls6QDebugRK19QItemSelectionRange@Qt_5 5.0.2
 _Zls6QDebugRK21QPersistentModelIndex@Qt_5 5.0.2
 _Zls6QDebugRK23QRegularExpressionMatch@Qt_5 5.0.2
 _Zls6QDebugRK4QDir@Qt_5 5.0.2
 _Zls6QDebugRK4QUrl@Qt_5 5.0.2
 _Zls6QDebugRK5QDate@Qt_5 5.0.2
 _Zls6QDebugRK5QLine@Qt_5 5.0.2
 _Zls6QDebugRK5QRect@Qt_5 5.0.2
 _Zls6QDebugRK5QSize@Qt_5 5.0.2
 _Zls6QDebugRK5QTime@Qt_5 5.0.2
 _Zls6QDebugRK5QUuid@Qt_5 5.0.2
 _Zls6QDebugRK6QLineF@Qt_5 5.0.2
 _Zls6QDebugRK6QPoint@Qt_5 5.0.2
 _Zls6QDebugRK6QRectF@Qt_5 5.0.2
 _Zls6QDebugRK6QSizeF@Qt_5 5.0.2
 _Zls6QDebugRK7QLocale@Qt_5 5.0.2
 _Zls6QDebugRK7QPointF@Qt_5 5.0.2
 _Zls6QDebugRK7QRegExp@Qt_5 5.0.2
 _Zls6QDebugRK8QMargins@Qt_5 5.0.2
 _Zls6QDebugRK8QVariant@Qt_5 5.0.2
 _Zls6QDebugRK9QBitArray@Qt_5 5.0.2
 _Zls6QDebugRK9QDateTime@Qt_5 5.0.2
 _Zls6QDebugRK9QMarginsF@Qt_5 5.3.0
 _Zls6QDebugRK9QMimeType@Qt_5 5.4.0
 _Zls6QDebugRK9QTimeZone@Qt_5 5.2.0~alpha1
 _ZlsR11QDataStream5QChar@Qt_5 5.0.2
 _ZlsR11QDataStreamN8QVariant4TypeE@Qt_5 5.0.2
 _ZlsR11QDataStreamRK10QByteArray@Qt_5 5.0.2
 _ZlsR11QDataStreamRK12QEasingCurve@Qt_5 5.0.2
 _ZlsR11QDataStreamRK14QVersionNumber@Qt_5 5.4.0
 _ZlsR11QDataStreamRK18QRegularExpression@Qt_5 5.0.2
 _ZlsR11QDataStreamRK4QUrl@Qt_5 5.0.2
 _ZlsR11QDataStreamRK5QDate@Qt_5 5.0.2
 _ZlsR11QDataStreamRK5QLine@Qt_5 5.0.2
 _ZlsR11QDataStreamRK5QRect@Qt_5 5.0.2
 _ZlsR11QDataStreamRK5QSize@Qt_5 5.0.2
 _ZlsR11QDataStreamRK5QTime@Qt_5 5.0.2
 _ZlsR11QDataStreamRK5QUuid@Qt_5 5.0.2
 _ZlsR11QDataStreamRK6QLineF@Qt_5 5.0.2
 _ZlsR11QDataStreamRK6QPoint@Qt_5 5.0.2
 _ZlsR11QDataStreamRK6QRectF@Qt_5 5.0.2
 _ZlsR11QDataStreamRK6QSizeF@Qt_5 5.0.2
 _ZlsR11QDataStreamRK7QLocale@Qt_5 5.0.2
 _ZlsR11QDataStreamRK7QPointF@Qt_5 5.0.2
 _ZlsR11QDataStreamRK7QRegExp@Qt_5 5.0.2
 _ZlsR11QDataStreamRK7QString@Qt_5 5.0.2
 _ZlsR11QDataStreamRK8QMargins@Qt_5 5.0.2
 _ZlsR11QDataStreamRK8QVariant@Qt_5 5.0.2
 _ZlsR11QDataStreamRK9QBitArray@Qt_5 5.0.2
 _ZlsR11QDataStreamRK9QDateTime@Qt_5 5.0.2
 _ZlsR11QDataStreamRK9QMarginsF@Qt_5 5.3.0
 _ZlsR11QDataStreamRK9QTimeZone@Qt_5 5.2.0~alpha1
 _ZltRK10QStringRefS1_@Qt_5 5.0.2
 _ZltRK13QElapsedTimerS1_@Qt_5 5.0.2
 _ZltRK7QStringS1_@Qt_5 5.0.2
 _ZorRK9QBitArrayS1_@Qt_5 5.0.2
 _ZrsR11QDataStreamR10QByteArray@Qt_5 5.0.2
 _ZrsR11QDataStreamR12QEasingCurve@Qt_5 5.0.2
 _ZrsR11QDataStreamR14QVersionNumber@Qt_5 5.4.0
 _ZrsR11QDataStreamR18QRegularExpression@Qt_5 5.0.2
 _ZrsR11QDataStreamR4QUrl@Qt_5 5.0.2
 _ZrsR11QDataStreamR5QChar@Qt_5 5.0.2
 _ZrsR11QDataStreamR5QDate@Qt_5 5.0.2
 _ZrsR11QDataStreamR5QLine@Qt_5 5.0.2
 _ZrsR11QDataStreamR5QRect@Qt_5 5.0.2
 _ZrsR11QDataStreamR5QSize@Qt_5 5.0.2
 _ZrsR11QDataStreamR5QTime@Qt_5 5.0.2
 _ZrsR11QDataStreamR5QUuid@Qt_5 5.0.2
 _ZrsR11QDataStreamR6QLineF@Qt_5 5.0.2
 _ZrsR11QDataStreamR6QPoint@Qt_5 5.0.2
 _ZrsR11QDataStreamR6QRectF@Qt_5 5.0.2
 _ZrsR11QDataStreamR6QSizeF@Qt_5 5.0.2
 _ZrsR11QDataStreamR7QLocale@Qt_5 5.0.2
 _ZrsR11QDataStreamR7QPointF@Qt_5 5.0.2
 _ZrsR11QDataStreamR7QRegExp@Qt_5 5.0.2
 _ZrsR11QDataStreamR7QString@Qt_5 5.0.2
 _ZrsR11QDataStreamR8QMargins@Qt_5 5.0.2
 _ZrsR11QDataStreamR8QVariant@Qt_5 5.0.2
 _ZrsR11QDataStreamR9QBitArray@Qt_5 5.0.2
 _ZrsR11QDataStreamR9QDateTime@Qt_5 5.0.2
 _ZrsR11QDataStreamR9QMarginsF@Qt_5 5.3.0
 _ZrsR11QDataStreamR9QTimeZone@Qt_5 5.2.0~alpha1
 _ZrsR11QDataStreamRN8QVariant4TypeE@Qt_5 5.0.2
 qMetaObjectWidgetsHelper@Qt_5 5.0.2
 qMetaTypeGuiHelper@Qt_5 5.0.2
 qMetaTypeWidgetsHelper@Qt_5 5.0.2
 qVersion@Qt_5 5.0.2
 qmime_secondsBetweenChecks@Qt_5 5.0.2
 qtHookData@Qt_5 5.4.0
 qt_addObject@Qt_5 5.0.2
 qt_cpu_features@Qt_5 5.0.2
 qt_disable_lowpriority_timers@Qt_5 5.0.2
 qt_qhash_seed@Qt_5 5.0.2
 qt_removeObject@Qt_5 5.0.2
 qt_signal_spy_callback_set@Qt_5 5.0.2
 qt_sine_table@Qt_5 5.0.2
 qt_startup_hook@Qt_5 5.0.2
 qt_version_tag@Qt_5.0 5.6.0~beta
 qt_version_tag@Qt_5.1 5.6.0~beta
 qt_version_tag@Qt_5.2 5.6.0~beta
 qt_version_tag@Qt_5.3 5.6.0~beta
 qt_version_tag@Qt_5.4 5.6.0~beta
 qt_version_tag@Qt_5.5 5.6.0~beta
 qt_version_tag@Qt_5.6 5.6.0~beta
 qt_version_tag@Qt_5.7 5.7.0
 qt_version_tag_5_0@Qt_5 5.6.0~beta
 qt_version_tag_5_1@Qt_5 5.6.0~beta
 qt_version_tag_5_2@Qt_5 5.6.0~beta
 qt_version_tag_5_3@Qt_5 5.6.0~beta
 qt_version_tag_5_4@Qt_5 5.6.0~beta
 qt_version_tag_5_5@Qt_5 5.6.0~beta
 qt_version_tag_5_6@Qt_5 5.6.0~beta
 qt_version_tag_5_7@Qt_5 5.7.0
