# SymbolsHelper-Confirmed: 5.7.0 amd64
libQt5Concurrent.so.5 libqt5concurrent5 #MINVER#
| libqt5concurrent5 #MINVER#, qtbase-abi-5-7-1
* Build-Depends-Package: qtbase5-dev
 Qt_5.0@Qt_5.0 5.6.0~beta
 Qt_5.1@Qt_5.1 5.6.0~beta
 Qt_5.2@Qt_5.2 5.6.0~beta
 Qt_5.3@Qt_5.3 5.6.0~beta
 Qt_5.4@Qt_5.4 5.6.0~beta
 Qt_5.5@Qt_5.5 5.6.0~beta
 Qt_5.6@Qt_5.6 5.6.0~beta
 Qt_5.7@Qt_5.7 5.7.0
 Qt_5@Qt_5 5.6.0~beta
 Qt_5_PRIVATE_API@Qt_5_PRIVATE_API 5.6.0~beta 1
 _ZN12QtConcurrent16BlockSizeManager13timeAfterUserEv@Qt_5 5.0.2
 _ZN12QtConcurrent16BlockSizeManager14timeBeforeUserEv@Qt_5 5.0.2
 _ZN12QtConcurrent16BlockSizeManager9blockSizeEv@Qt_5 5.0.2
 _ZN12QtConcurrent16BlockSizeManagerC1Ei@Qt_5 5.0.2
 _ZN12QtConcurrent16BlockSizeManagerC2Ei@Qt_5 5.0.2
 _ZN12QtConcurrent16ThreadEngineBase10isCanceledEv@Qt_5 5.0.2
 _ZN12QtConcurrent16ThreadEngineBase10threadExitEv@Qt_5 5.0.2
 _ZN12QtConcurrent16ThreadEngineBase11startThreadEv@Qt_5 5.0.2
 _ZN12QtConcurrent16ThreadEngineBase12startThreadsEv@Qt_5 5.0.2
 _ZN12QtConcurrent16ThreadEngineBase13startBlockingEv@Qt_5 5.0.2
 _ZN12QtConcurrent16ThreadEngineBase13waitForResumeEv@Qt_5 5.0.2
 _ZN12QtConcurrent16ThreadEngineBase15handleExceptionERK10QException@Qt_5 5.0.2
 _ZN12QtConcurrent16ThreadEngineBase16setProgressRangeEii@Qt_5 5.0.2
 _ZN12QtConcurrent16ThreadEngineBase16setProgressValueEi@Qt_5 5.0.2
 _ZN12QtConcurrent16ThreadEngineBase18threadThrottleExitEv@Qt_5 5.0.2
 _ZN12QtConcurrent16ThreadEngineBase19startSingleThreadedEv@Qt_5 5.0.2
 _ZN12QtConcurrent16ThreadEngineBase19startThreadInternalEv@Qt_5 5.0.2
 _ZN12QtConcurrent16ThreadEngineBase23acquireBarrierSemaphoreEv@Qt_5 5.0.2
 _ZN12QtConcurrent16ThreadEngineBase26isProgressReportingEnabledEv@Qt_5 5.0.2
 _ZN12QtConcurrent16ThreadEngineBase3runEv@Qt_5 5.0.2
 _ZN12QtConcurrent16ThreadEngineBaseC1Ev@Qt_5 5.0.2
 _ZN12QtConcurrent16ThreadEngineBaseC2Ev@Qt_5 5.0.2
 _ZN12QtConcurrent16ThreadEngineBaseD0Ev@Qt_5 5.0.2
 _ZN12QtConcurrent16ThreadEngineBaseD1Ev@Qt_5 5.0.2
 _ZN12QtConcurrent16ThreadEngineBaseD2Ev@Qt_5 5.0.2
 _ZN12QtConcurrent18BlockSizeManagerV213timeAfterUserEv@Qt_5 5.6.0~rc
 _ZN12QtConcurrent18BlockSizeManagerV214timeBeforeUserEv@Qt_5 5.6.0~rc
 _ZN12QtConcurrent18BlockSizeManagerV29blockSizeEv@Qt_5 5.6.0~rc
 _ZN12QtConcurrent18BlockSizeManagerV2C1Ei@Qt_5 5.6.0~rc
 _ZN12QtConcurrent18BlockSizeManagerV2C2Ei@Qt_5 5.6.0~rc
 _ZTIN12QtConcurrent16ThreadEngineBaseE@Qt_5 5.0.2
 _ZTSN12QtConcurrent16ThreadEngineBaseE@Qt_5 5.0.2
 _ZTVN12QtConcurrent16ThreadEngineBaseE@Qt_5 5.0.2
