liblightdm-qt-3.so.0 liblightdm-qt-3-0 #MINVER#
 _ZN10QByteArrayD1Ev@Base 1.8.7
 _ZN10QByteArrayD2Ev@Base 1.8.7
 _ZN10QDBusErrorD1Ev@Base 1.8.7
 _ZN10QDBusErrorD2Ev@Base 1.8.7
 _ZN10QDBusReplyI7QStringED1Ev@Base 1.8.7
 _ZN10QDBusReplyI7QStringED2Ev@Base 1.8.7
 _ZN11SessionItemD1Ev@Base 1.8.7
 _ZN11SessionItemD2Ev@Base 1.8.7
 _ZN20SessionsModelPrivate12loadSessionsEN8QLightDM13SessionsModel11SessionTypeE@Base 1.8.7
 _ZN20SessionsModelPrivateC1EPN8QLightDM13SessionsModelE@Base 1.8.7
 _ZN20SessionsModelPrivateC2EPN8QLightDM13SessionsModelE@Base 1.8.7
 _ZN5QHashIi10QByteArrayE11deleteNode2EPN9QHashData4NodeE@Base 1.8.7
 _ZN5QHashIi10QByteArrayE13detach_helperEv@Base 1.8.7
 _ZN5QHashIi10QByteArrayE13duplicateNodeEPN9QHashData4NodeEPv@Base 1.8.7
 _ZN5QHashIi10QByteArrayED1Ev@Base 1.8.7
 _ZN5QHashIi10QByteArrayED2Ev@Base 1.8.7
 _ZN5QListI11SessionItemE18detach_helper_growEii@Base 1.8.7
 _ZN5QListI11SessionItemE6appendERKS0_@Base 1.8.7
 _ZN5QListI8UserItemE13detach_helperEi@Base 1.8.7
 _ZN5QListI8UserItemE18detach_helper_growEii@Base 1.8.7
 _ZN5QListI8UserItemE6appendERKS0_@Base 1.8.7
 _ZN5QListI8UserItemED1Ev@Base 1.8.7
 _ZN5QListI8UserItemED2Ev@Base 1.8.7
 _ZN6QDebugD1Ev@Base 1.8.7
 _ZN6QDebugD2Ev@Base 1.8.7
 _ZN7QStringD1Ev@Base 1.8.7
 _ZN7QStringD2Ev@Base 1.8.7
 _ZN8QLightDM10UsersModel11qt_metacallEN11QMetaObject4CallEiPPv@Base 1.8.7
 _ZN8QLightDM10UsersModel11qt_metacastEPKc@Base 1.8.7
 _ZN8QLightDM10UsersModel16staticMetaObjectE@Base 1.8.7
 _ZN8QLightDM10UsersModelC1EP7QObject@Base 1.8.7
 _ZN8QLightDM10UsersModelC2EP7QObject@Base 1.8.7
 _ZN8QLightDM10UsersModelD0Ev@Base 1.8.7
 _ZN8QLightDM10UsersModelD1Ev@Base 1.8.7
 _ZN8QLightDM10UsersModelD2Ev@Base 1.8.7
 _ZN8QLightDM13SessionsModel11qt_metacallEN11QMetaObject4CallEiPPv@Base 1.8.7
 _ZN8QLightDM13SessionsModel11qt_metacastEPKc@Base 1.8.7
 _ZN8QLightDM13SessionsModel16staticMetaObjectE@Base 1.8.7
 _ZN8QLightDM13SessionsModelC1ENS0_11SessionTypeEP7QObject@Base 1.8.7
 _ZN8QLightDM13SessionsModelC1EP7QObject@Base 1.8.7
 _ZN8QLightDM13SessionsModelC2ENS0_11SessionTypeEP7QObject@Base 1.8.7
 _ZN8QLightDM13SessionsModelC2EP7QObject@Base 1.8.7
 _ZN8QLightDM13SessionsModelD0Ev@Base 1.8.7
 _ZN8QLightDM13SessionsModelD1Ev@Base 1.8.7
 _ZN8QLightDM13SessionsModelD2Ev@Base 1.8.7
 _ZN8QLightDM14GreeterPrivate13cb_showPromptEP14LightDMGreeterPKc17LightDMPromptTypePv@Base 1.8.7
 _ZN8QLightDM14GreeterPrivate14cb_showMessageEP14LightDMGreeterPKc18LightDMMessageTypePv@Base 1.8.7
 _ZN8QLightDM14GreeterPrivate19cb_autoLoginExpiredEP14LightDMGreeterPv@Base 1.8.7
 _ZN8QLightDM14GreeterPrivate25cb_authenticationCompleteEP14LightDMGreeterPv@Base 1.8.7
 _ZN8QLightDM14GreeterPrivateC1EPNS_7GreeterE@Base 1.8.7
 _ZN8QLightDM14GreeterPrivateC2EPNS_7GreeterE@Base 1.8.7
 _ZN8QLightDM14PowerInterface10canRestartEv@Base 1.8.7
 _ZN8QLightDM14PowerInterface10canSuspendEv@Base 1.8.7
 _ZN8QLightDM14PowerInterface11canShutdownEv@Base 1.8.7
 _ZN8QLightDM14PowerInterface11qt_metacallEN11QMetaObject4CallEiPPv@Base 1.8.7
 _ZN8QLightDM14PowerInterface11qt_metacastEPKc@Base 1.8.7
 _ZN8QLightDM14PowerInterface12canHibernateEv@Base 1.8.7
 _ZN8QLightDM14PowerInterface16staticMetaObjectE@Base 1.8.7
 _ZN8QLightDM14PowerInterface21PowerInterfacePrivateC1Ev@Base 1.8.7
 _ZN8QLightDM14PowerInterface21PowerInterfacePrivateC2Ev@Base 1.8.7
 _ZN8QLightDM14PowerInterface7restartEv@Base 1.8.7
 _ZN8QLightDM14PowerInterface7suspendEv@Base 1.8.7
 _ZN8QLightDM14PowerInterface8shutdownEv@Base 1.8.7
 _ZN8QLightDM14PowerInterface9hibernateEv@Base 1.8.7
 _ZN8QLightDM14PowerInterfaceC1EP7QObject@Base 1.8.7
 _ZN8QLightDM14PowerInterfaceC2EP7QObject@Base 1.8.7
 _ZN8QLightDM14PowerInterfaceD0Ev@Base 1.8.7
 _ZN8QLightDM14PowerInterfaceD1Ev@Base 1.8.7
 _ZN8QLightDM14PowerInterfaceD2Ev@Base 1.8.7
 _ZN8QLightDM17UsersModelPrivate12cb_userAddedEP15LightDMUserListP11LightDMUserPv@Base 1.8.7
 _ZN8QLightDM17UsersModelPrivate14cb_userChangedEP15LightDMUserListP11LightDMUserPv@Base 1.8.7
 _ZN8QLightDM17UsersModelPrivate14cb_userRemovedEP15LightDMUserListP11LightDMUserPv@Base 1.8.7
 _ZN8QLightDM17UsersModelPrivate9loadUsersEv@Base 1.8.7
 _ZN8QLightDM17UsersModelPrivateC1EPNS_10UsersModelE@Base 1.8.7
 _ZN8QLightDM17UsersModelPrivateC2EPNS_10UsersModelE@Base 1.8.7
 _ZN8QLightDM17UsersModelPrivateD0Ev@Base 1.8.7
 _ZN8QLightDM17UsersModelPrivateD1Ev@Base 1.8.7
 _ZN8QLightDM17UsersModelPrivateD2Ev@Base 1.8.7
 _ZN8QLightDM7Greeter10showPromptE7QStringNS0_10PromptTypeE@Base 1.8.7
 _ZN8QLightDM7Greeter11connectSyncEv@Base 1.8.7
 _ZN8QLightDM7Greeter11qt_metacallEN11QMetaObject4CallEiPPv@Base 1.8.7
 _ZN8QLightDM7Greeter11qt_metacastEPKc@Base 1.8.7
 _ZN8QLightDM7Greeter11setLanguageERK7QString@Base 1.8.7
 _ZN8QLightDM7Greeter11showMessageE7QStringNS0_11MessageTypeE@Base 1.8.7
 _ZN8QLightDM7Greeter12authenticateERK7QString@Base 1.8.7
 _ZN8QLightDM7Greeter16startSessionSyncERK7QString@Base 1.8.7
 _ZN8QLightDM7Greeter16staticMetaObjectE@Base 1.8.7
 _ZN8QLightDM7Greeter18authenticateRemoteERK7QStringS3_@Base 1.8.7
 _ZN8QLightDM7Greeter19authenticateAsGuestEv@Base 1.8.7
 _ZN8QLightDM7Greeter20cancelAuthenticationEv@Base 1.8.7
 _ZN8QLightDM7Greeter21authenticateAutologinEv@Base 1.8.7
 _ZN8QLightDM7Greeter21autologinTimerExpiredEv@Base 1.8.7
 _ZN8QLightDM7Greeter22authenticationCompleteEv@Base 1.8.7
 _ZN8QLightDM7Greeter23ensureSharedDataDirSyncERK7QString@Base 1.9.8
 _ZN8QLightDM7Greeter7respondERK7QString@Base 1.8.7
 _ZN8QLightDM7GreeterC1EP7QObject@Base 1.8.7
 _ZN8QLightDM7GreeterC2EP7QObject@Base 1.8.7
 _ZN8QLightDM7GreeterD0Ev@Base 1.8.7
 _ZN8QLightDM7GreeterD1Ev@Base 1.8.7
 _ZN8QLightDM7GreeterD2Ev@Base 1.8.7
 _ZN8UserItemD1Ev@Base 1.8.7
 _ZN8UserItemD2Ev@Base 1.8.7
 _ZNK5QHashIi10QByteArrayE8findNodeERKiPj@Base 1.8.7
 _ZNK8QLightDM10UsersModel10metaObjectEv@Base 1.8.7
 _ZNK8QLightDM10UsersModel4dataERK11QModelIndexi@Base 1.8.7
 _ZNK8QLightDM10UsersModel8rowCountERK11QModelIndex@Base 1.8.7
 _ZNK8QLightDM13SessionsModel10metaObjectEv@Base 1.8.7
 _ZNK8QLightDM13SessionsModel4dataERK11QModelIndexi@Base 1.8.7
 _ZNK8QLightDM13SessionsModel8rowCountERK11QModelIndex@Base 1.8.7
 _ZNK8QLightDM14PowerInterface10metaObjectEv@Base 1.8.7
 _ZNK8QLightDM7Greeter10metaObjectEv@Base 1.8.7
 _ZNK8QLightDM7Greeter13hideUsersHintEv@Base 1.8.7
 _ZNK8QLightDM7Greeter14selectUserHintEv@Base 1.8.7
 _ZNK8QLightDM7Greeter15isAuthenticatedEv@Base 1.8.7
 _ZNK8QLightDM7Greeter15selectGuestHintEv@Base 1.8.7
 _ZNK8QLightDM7Greeter16inAuthenticationEv@Base 1.8.7
 _ZNK8QLightDM7Greeter17autologinUserHintEv@Base 1.8.7
 _ZNK8QLightDM7Greeter18authenticationUserEv@Base 1.8.7
 _ZNK8QLightDM7Greeter18autologinGuestHintEv@Base 1.8.7
 _ZNK8QLightDM7Greeter18defaultSessionHintEv@Base 1.8.7
 _ZNK8QLightDM7Greeter19hasGuestAccountHintEv@Base 1.8.7
 _ZNK8QLightDM7Greeter19showManualLoginHintEv@Base 1.8.7
 _ZNK8QLightDM7Greeter19showRemoteLoginHintEv@Base 1.8.7
 _ZNK8QLightDM7Greeter20autologinTimeoutHintEv@Base 1.8.7
 _ZNK8QLightDM7Greeter7getHintERK7QString@Base 1.8.7
 _ZNK8QLightDM7Greeter8hostnameEv@Base 1.8.7
 _ZNK8QLightDM7Greeter8lockHintEv@Base 1.8.7
 _ZNK8UserItem11displayNameEv@Base 1.8.7
 _ZTIN8QLightDM10UsersModelE@Base 1.8.7
 _ZTIN8QLightDM13SessionsModelE@Base 1.8.7
 _ZTIN8QLightDM14PowerInterfaceE@Base 1.8.7
 _ZTIN8QLightDM17UsersModelPrivateE@Base 1.8.7
 _ZTIN8QLightDM7GreeterE@Base 1.8.7
 _ZTSN8QLightDM10UsersModelE@Base 1.8.7
 _ZTSN8QLightDM13SessionsModelE@Base 1.8.7
 _ZTSN8QLightDM14PowerInterfaceE@Base 1.8.7
 _ZTSN8QLightDM17UsersModelPrivateE@Base 1.8.7
 _ZTSN8QLightDM7GreeterE@Base 1.8.7
 _ZTVN8QLightDM10UsersModelE@Base 1.8.7
 _ZTVN8QLightDM13SessionsModelE@Base 1.8.7
 _ZTVN8QLightDM14PowerInterfaceE@Base 1.8.7
 _ZTVN8QLightDM17UsersModelPrivateE@Base 1.8.7
 _ZTVN8QLightDM7GreeterE@Base 1.8.7
