# SymbolsHelper-Confirmed: 1.3.1 i386
libqbscore.so.1 libqbscore1 #MINVER#
 _ZN3qbs10InstallJob11qt_metacallEN11QMetaObject4CallEiPPv@Base 1.2.1
 _ZN3qbs10InstallJob11qt_metacastEPKc@Base 1.2.1
 _ZN3qbs10InstallJob16staticMetaObjectE@Base 1.2.1
 _ZN3qbs10InstallJob7installERK14QSharedPointerINS_8Internal15TopLevelProjectEERK5QListIS1_INS2_15ResolvedProductEEERKNS_14InstallOptionsE@Base 1.2.1
 _ZN3qbs10InstallJobC1ERKNS_8Internal6LoggerEP7QObject@Base 1.2.1
 _ZN3qbs10InstallJobC2ERKNS_8Internal6LoggerEP7QObject@Base 1.2.1
 (optional=gccinternal)_ZN3qbs10InstallJobD0Ev@Base 1.2.1
 (optional=gccinternal)_ZN3qbs10InstallJobD1Ev@Base 1.2.1
 (optional=gccinternal)_ZN3qbs10InstallJobD2Ev@Base 1.2.1
 _ZN3qbs11AbstractJob11lockProjectERK14QSharedPointerINS_8Internal15TopLevelProjectEE@Base 1.3.1
 _ZN3qbs11AbstractJob11qt_metacallEN11QMetaObject4CallEiPPv@Base 1.2.1
 _ZN3qbs11AbstractJob11qt_metacastEPKc@Base 1.2.1
 _ZN3qbs11AbstractJob11taskStartedERK7QStringiPS0_@Base 1.2.1
 _ZN3qbs11AbstractJob12taskProgressEiPS0_@Base 1.2.1
 _ZN3qbs11AbstractJob13unlockProjectEv@Base 1.3.1
 _ZN3qbs11AbstractJob14handleFinishedEv@Base 1.2.1
 _ZN3qbs11AbstractJob16staticMetaObjectE@Base 1.2.1
 _ZN3qbs11AbstractJob17handleTaskStartedERK7QStringi@Base 1.2.1
 _ZN3qbs11AbstractJob18handleTaskProgressEi@Base 1.2.1
 _ZN3qbs11AbstractJob18totalEffortChangedEiPS0_@Base 1.2.1
 _ZN3qbs11AbstractJob24handleTotalEffortChangedEi@Base 1.2.1
 _ZN3qbs11AbstractJob6cancelEv@Base 1.2.1
 _ZN3qbs11AbstractJob8finishedEbPS0_@Base 1.2.1
 _ZN3qbs11AbstractJobC1EPNS_8Internal11InternalJobEP7QObject@Base 1.2.1
 _ZN3qbs11AbstractJobC2EPNS_8Internal11InternalJobEP7QObject@Base 1.2.1
 _ZN3qbs11AbstractJobD0Ev@Base 1.2.1
 _ZN3qbs11AbstractJobD1Ev@Base 1.2.1
 _ZN3qbs11AbstractJobD2Ev@Base 1.2.1
 _ZN3qbs11PreferencesC1EPNS_8SettingsERK7QString@Base 1.2.1
 _ZN3qbs11PreferencesC2EPNS_8SettingsERK7QString@Base 1.2.1
 _ZN3qbs11ProductDataC1ERKS0_@Base 1.2.1
 _ZN3qbs11ProductDataC1Ev@Base 1.2.1
 _ZN3qbs11ProductDataC2ERKS0_@Base 1.2.1
 _ZN3qbs11ProductDataC2Ev@Base 1.2.1
 _ZN3qbs11ProductDataD1Ev@Base 1.2.1
 _ZN3qbs11ProductDataD2Ev@Base 1.2.1
 _ZN3qbs11ProductDataaSERKS0_@Base 1.2.1
 _ZN3qbs11ProjectDataC1ERKS0_@Base 1.2.1
 _ZN3qbs11ProjectDataC1Ev@Base 1.2.1
 _ZN3qbs11ProjectDataC2ERKS0_@Base 1.2.1
 _ZN3qbs11ProjectDataC2Ev@Base 1.2.1
 _ZN3qbs11ProjectDataD1Ev@Base 1.2.1
 _ZN3qbs11ProjectDataD2Ev@Base 1.2.1
 _ZN3qbs11ProjectDataaSERKS0_@Base 1.2.1
 _ZN3qbs11PropertyMapC1ERKS0_@Base 1.2.1
 _ZN3qbs11PropertyMapC1Ev@Base 1.2.1
 _ZN3qbs11PropertyMapC2ERKS0_@Base 1.2.1
 _ZN3qbs11PropertyMapC2Ev@Base 1.2.1
 _ZN3qbs11PropertyMapD1Ev@Base 1.2.1
 _ZN3qbs11PropertyMapD2Ev@Base 1.2.1
 _ZN3qbs11PropertyMapaSERKS0_@Base 1.2.1
 _ZN3qbs11RuleCommandC1ERKS0_@Base 1.3.3
 _ZN3qbs11RuleCommandC1Ev@Base 1.3.3
 _ZN3qbs11RuleCommandC2ERKS0_@Base 1.3.3
 _ZN3qbs11RuleCommandC2Ev@Base 1.3.3
 _ZN3qbs11RuleCommandD1Ev@Base 1.3.3
 _ZN3qbs11RuleCommandD2Ev@Base 1.3.3
 _ZN3qbs11RuleCommandaSERKS0_@Base 1.3.3
 _ZN3qbs11logLevelTagENS_11LoggerLevelE@Base 1.2.1
 _ZN3qbs11toJSLiteralERK11QStringList@Base 1.3.1
 _ZN3qbs11toJSLiteralERK7QString@Base 1.3.1
 _ZN3qbs11toJSLiteralERK8QVariant@Base 1.3.1
 _ZN3qbs11toJSLiteralEb@Base 1.3.1
 _ZN3qbs12BuildOptions12setKeepGoingEb@Base 1.2.1
 _ZN3qbs12BuildOptions14setMaxJobCountEi@Base 1.2.1
 _ZN3qbs12BuildOptions15setChangedFilesERK11QStringList@Base 1.2.1
 _ZN3qbs12BuildOptions17setActiveFileTagsERK11QStringList@Base 1.2.1
 _ZN3qbs12BuildOptions17setLogElapsedTimeEb@Base 1.2.1
 _ZN3qbs12BuildOptions18defaultMaxJobCountEv@Base 1.2.1
 _ZN3qbs12BuildOptions18setFilesToConsiderERK11QStringList@Base 1.2.1
 _ZN3qbs12BuildOptions22setForceTimestampCheckEb@Base 1.2.1
 _ZN3qbs12BuildOptions9setDryRunEb@Base 1.2.1
 _ZN3qbs12BuildOptionsC1ERKS0_@Base 1.2.1
 _ZN3qbs12BuildOptionsC1Ev@Base 1.2.1
 _ZN3qbs12BuildOptionsC2ERKS0_@Base 1.2.1
 _ZN3qbs12BuildOptionsC2Ev@Base 1.2.1
 _ZN3qbs12BuildOptionsD1Ev@Base 1.2.1
 _ZN3qbs12BuildOptionsD2Ev@Base 1.2.1
 _ZN3qbs12BuildOptionsaSERKS0_@Base 1.2.1
 _ZN3qbs12CleanOptions12setCleanTypeENS0_9CleanTypeE@Base 1.2.1
 _ZN3qbs12CleanOptions12setKeepGoingEb@Base 1.2.1
 _ZN3qbs12CleanOptions17setLogElapsedTimeEb@Base 1.2.1
 _ZN3qbs12CleanOptions9setDryRunEb@Base 1.2.1
 _ZN3qbs12CleanOptionsC1ERKS0_@Base 1.2.1
 _ZN3qbs12CleanOptionsC1Ev@Base 1.2.1
 _ZN3qbs12CleanOptionsC2ERKS0_@Base 1.2.1
 _ZN3qbs12CleanOptionsC2Ev@Base 1.2.1
 _ZN3qbs12CleanOptionsD1Ev@Base 1.2.1
 _ZN3qbs12CleanOptionsD2Ev@Base 1.2.1
 _ZN3qbs12CleanOptionsaSERKS0_@Base 1.2.1
 _ZN3qbs12CodeLocationC1ERK7QStringii@Base 1.2.1
 _ZN3qbs12CodeLocationC1ERKS0_@Base 1.2.1
 _ZN3qbs12CodeLocationC1Ev@Base 1.2.1
 _ZN3qbs12CodeLocationC2ERK7QStringii@Base 1.2.1
 _ZN3qbs12CodeLocationC2ERKS0_@Base 1.2.1
 _ZN3qbs12CodeLocationC2Ev@Base 1.2.1
 _ZN3qbs12CodeLocationD1Ev@Base 1.2.1
 _ZN3qbs12CodeLocationD2Ev@Base 1.2.1
 _ZN3qbs12CodeLocationaSERKS0_@Base 1.2.1
 _ZN3qbs12LanguageInfo11qmlTypeInfoEv@Base 1.2.1
 _ZN3qbs12LanguageInfoC1Ev@Base 1.2.1
 _ZN3qbs12LanguageInfoC2Ev@Base 1.2.1
 _ZN3qbs12logLevelNameENS_11LoggerLevelE@Base 1.2.1
 _ZN3qbs13ProcessResultC1ERKS0_@Base 1.2.1
 _ZN3qbs13ProcessResultC1Ev@Base 1.2.1
 _ZN3qbs13ProcessResultC2ERKS0_@Base 1.2.1
 _ZN3qbs13ProcessResultC2Ev@Base 1.2.1
 _ZN3qbs13ProcessResultD1Ev@Base 1.2.1
 _ZN3qbs13ProcessResultD2Ev@Base 1.2.1
 _ZN3qbs13ProcessResultaSERKS0_@Base 1.2.1
 _ZN3qbs14InstallOptions12setKeepGoingEb@Base 1.2.1
 _ZN3qbs14InstallOptions14setInstallRootERK7QString@Base 1.2.1
 _ZN3qbs14InstallOptions17setLogElapsedTimeEb@Base 1.2.1
 _ZN3qbs14InstallOptions18defaultInstallRootEv@Base 1.2.1
 _ZN3qbs14InstallOptions21setInstallIntoSysrootEb@Base 1.2.1
 _ZN3qbs14InstallOptions29setRemoveExistingInstallationEb@Base 1.2.1
 _ZN3qbs14InstallOptions9setDryRunEb@Base 1.2.1
 _ZN3qbs14InstallOptionsC1ERKS0_@Base 1.2.1
 _ZN3qbs14InstallOptionsC1Ev@Base 1.2.1
 _ZN3qbs14InstallOptionsC2ERKS0_@Base 1.2.1
 _ZN3qbs14InstallOptionsC2Ev@Base 1.2.1
 _ZN3qbs14InstallOptionsD1Ev@Base 1.2.1
 _ZN3qbs14InstallOptionsD2Ev@Base 1.2.1
 _ZN3qbs14InstallOptionsaSERKS0_@Base 1.2.1
 _ZN3qbs14RunEnvironment8runShellEv@Base 1.2.1
 _ZN3qbs14RunEnvironment9runTargetERK7QStringRK11QStringList@Base 1.2.1
 _ZN3qbs14RunEnvironmentC1ERK14QSharedPointerINS_8Internal15ResolvedProductEERKNS_14InstallOptionsERK19QProcessEnvironmentPNS_8SettingsERKNS2_6LoggerE@Base 1.3.1
 _ZN3qbs14RunEnvironmentC2ERK14QSharedPointerINS_8Internal15ResolvedProductEERKNS_14InstallOptionsERK19QProcessEnvironmentPNS_8SettingsERKNS2_6LoggerE@Base 1.3.1
 _ZN3qbs14RunEnvironmentD1Ev@Base 1.2.1
 _ZN3qbs14RunEnvironmentD2Ev@Base 1.2.1
 _ZN3qbs14TargetArtifactC1ERKS0_@Base 1.2.1
 _ZN3qbs14TargetArtifactC1Ev@Base 1.2.1
 _ZN3qbs14TargetArtifactC2ERKS0_@Base 1.2.1
 _ZN3qbs14TargetArtifactC2Ev@Base 1.2.1
 _ZN3qbs14TargetArtifactD1Ev@Base 1.2.1
 _ZN3qbs14TargetArtifactD2Ev@Base 1.2.1
 _ZN3qbs14TargetArtifactaSERKS0_@Base 1.2.1
 _ZN3qbs15InstallableFileC1ERKS0_@Base 1.2.1
 _ZN3qbs15InstallableFileC1Ev@Base 1.2.1
 _ZN3qbs15InstallableFileC2ERKS0_@Base 1.2.1
 _ZN3qbs15InstallableFileC2Ev@Base 1.2.1
 _ZN3qbs15InstallableFileD1Ev@Base 1.2.1
 _ZN3qbs15InstallableFileD2Ev@Base 1.2.1
 _ZN3qbs15InstallableFileaSERKS0_@Base 1.2.1
 _ZN3qbs15SetupProjectJob11qt_metacallEN11QMetaObject4CallEiPPv@Base 1.2.1
 _ZN3qbs15SetupProjectJob11qt_metacastEPKc@Base 1.2.1
 _ZN3qbs15SetupProjectJob11reportErrorERKNS_9ErrorInfoE@Base 1.2.1
 _ZN3qbs15SetupProjectJob16staticMetaObjectE@Base 1.2.1
 _ZN3qbs15SetupProjectJob6finishEv@Base 1.3.1
 _ZN3qbs15SetupProjectJob7resolveERKNS_7ProjectERKNS_22SetupProjectParametersE@Base 1.3.1
 _ZN3qbs15SetupProjectJobC1ERKNS_8Internal6LoggerEP7QObject@Base 1.2.1
 _ZN3qbs15SetupProjectJobC2ERKNS_8Internal6LoggerEP7QObject@Base 1.2.1
 (optional=gccinternal)_ZN3qbs15SetupProjectJobD0Ev@Base 1.2.1
 (optional=gccinternal)_ZN3qbs15SetupProjectJobD1Ev@Base 1.2.1
 (optional=gccinternal)_ZN3qbs15SetupProjectJobD2Ev@Base 1.2.1
 _ZN3qbs21canonicalArchitectureERK7QString@Base 1.3.2
 _ZN3qbs22SetupProjectParameters12setBuildRootERK7QString@Base 1.2.1
 _ZN3qbs22SetupProjectParameters14setEnvironmentERK19QProcessEnvironment@Base 1.2.1
 _ZN3qbs22SetupProjectParameters14setPluginPathsERK11QStringList@Base 1.2.1
 _ZN3qbs22SetupProjectParameters14setSearchPathsERK11QStringList@Base 1.2.1
 _ZN3qbs22SetupProjectParameters15setBuildVariantERK7QString@Base 1.3.1
 _ZN3qbs22SetupProjectParameters17setLogElapsedTimeEb@Base 1.2.1
 _ZN3qbs22SetupProjectParameters18setProjectFilePathERK7QString@Base 1.2.1
 _ZN3qbs22SetupProjectParameters18setRestoreBehaviorENS0_15RestoreBehaviorE@Base 1.2.1
 _ZN3qbs22SetupProjectParameters18setTopLevelProfileERK7QString@Base 1.3.1
 _ZN3qbs22SetupProjectParameters19setOverriddenValuesERK4QMapI7QString8QVariantE@Base 1.2.1
 _ZN3qbs22SetupProjectParameters20setSettingsDirectoryERK7QString@Base 1.3.1
 _ZN3qbs22SetupProjectParameters24expandBuildConfigurationEv@Base 1.3.1
 _ZN3qbs22SetupProjectParameters26expandedBuildConfigurationERK7QStringS3_S3_PNS_9ErrorInfoE@Base 1.3.1
 _ZN3qbs22SetupProjectParameters27finalBuildConfigurationTreeERK4QMapI7QString8QVariantES6_@Base 1.3.1
 _ZN3qbs22SetupProjectParameters33setIgnoreDifferentProjectFilePathEb@Base 1.2.1
 _ZN3qbs22SetupProjectParameters9setDryRunEb@Base 1.2.1
 _ZN3qbs22SetupProjectParametersC1ERKS0_@Base 1.2.1
 _ZN3qbs22SetupProjectParametersC1Ev@Base 1.2.1
 _ZN3qbs22SetupProjectParametersC2ERKS0_@Base 1.2.1
 _ZN3qbs22SetupProjectParametersC2Ev@Base 1.2.1
 _ZN3qbs22SetupProjectParametersD1Ev@Base 1.2.1
 _ZN3qbs22SetupProjectParametersD2Ev@Base 1.2.1
 _ZN3qbs22SetupProjectParametersaSERKS0_@Base 1.2.1
 _ZN3qbs7Profile13removeProfileEv@Base 1.2.1
 _ZN3qbs7Profile14baseProfileKeyEv@Base 1.2.1
 _ZN3qbs7Profile14setBaseProfileERK7QString@Base 1.2.1
 _ZN3qbs7Profile17removeBaseProfileEv@Base 1.2.1
 _ZN3qbs7Profile6removeERK7QString@Base 1.2.1
 _ZN3qbs7Profile8setValueERK7QStringRK8QVariant@Base 1.2.1
 _ZN3qbs7Profile9cleanNameERK7QString@Base 1.2.1
 _ZN3qbs7ProfileC1ERK7QStringPNS_8SettingsE@Base 1.2.1
 _ZN3qbs7ProfileC2ERK7QStringPNS_8SettingsE@Base 1.2.1
 _ZN3qbs7Project11removeFilesERKNS_11ProductDataERKNS_9GroupDataERK11QStringList@Base 1.3.1
 _ZN3qbs7Project11removeGroupERKNS_11ProductDataERKNS_9GroupDataE@Base 1.3.1
 _ZN3qbs7Project12setupProjectERKNS_22SetupProjectParametersEPNS_8ILogSinkEP7QObject@Base 1.2.1
 _ZN3qbs7Project16updateTimestampsERK5QListINS_11ProductDataEE@Base 1.2.1
 _ZN3qbs7Project8addFilesERKNS_11ProductDataERKNS_9GroupDataERK11QStringList@Base 1.3.1
 _ZN3qbs7Project8addGroupERKNS_11ProductDataERK7QString@Base 1.3.1
 _ZN3qbs7ProjectC1ERK14QSharedPointerINS_8Internal15TopLevelProjectEERKNS2_6LoggerE@Base 1.2.1
 _ZN3qbs7ProjectC1ERKS0_@Base 1.2.1
 _ZN3qbs7ProjectC1Ev@Base 1.2.1
 _ZN3qbs7ProjectC2ERK14QSharedPointerINS_8Internal15TopLevelProjectEERKNS2_6LoggerE@Base 1.2.1
 _ZN3qbs7ProjectC2ERKS0_@Base 1.2.1
 _ZN3qbs7ProjectC2Ev@Base 1.2.1
 _ZN3qbs7ProjectD1Ev@Base 1.2.1
 _ZN3qbs7ProjectD2Ev@Base 1.2.1
 _ZN3qbs7ProjectaSERKS0_@Base 1.2.1
 _ZN3qbs8BuildJob11qt_metacallEN11QMetaObject4CallEiPPv@Base 1.2.1
 _ZN3qbs8BuildJob11qt_metacastEPKc@Base 1.2.1
 _ZN3qbs8BuildJob16staticMetaObjectE@Base 1.2.1
 _ZN3qbs8BuildJob19reportProcessResultERKNS_13ProcessResultE@Base 1.2.1
 _ZN3qbs8BuildJob24reportCommandDescriptionERK7QStringS3_@Base 1.2.1
 _ZN3qbs8BuildJob5buildERK14QSharedPointerINS_8Internal15TopLevelProjectEERK5QListIS1_INS2_15ResolvedProductEEERKNS_12BuildOptionsE@Base 1.2.1
 _ZN3qbs8BuildJobC1ERKNS_8Internal6LoggerEP7QObject@Base 1.2.1
 _ZN3qbs8BuildJobC2ERKNS_8Internal6LoggerEP7QObject@Base 1.2.1
 (optional=gccinternal)_ZN3qbs8BuildJobD0Ev@Base 1.2.1
 (optional=gccinternal)_ZN3qbs8BuildJobD1Ev@Base 1.2.1
 (optional=gccinternal)_ZN3qbs8BuildJobD2Ev@Base 1.2.1
 _ZN3qbs8CleanJob11qt_metacallEN11QMetaObject4CallEiPPv@Base 1.2.1
 _ZN3qbs8CleanJob11qt_metacastEPKc@Base 1.2.1
 _ZN3qbs8CleanJob16staticMetaObjectE@Base 1.2.1
 _ZN3qbs8CleanJob5cleanERK14QSharedPointerINS_8Internal15TopLevelProjectEERK5QListIS1_INS2_15ResolvedProductEEERKNS_12CleanOptionsE@Base 1.2.1
 _ZN3qbs8CleanJobC1ERKNS_8Internal6LoggerEP7QObject@Base 1.2.1
 _ZN3qbs8CleanJobC2ERKNS_8Internal6LoggerEP7QObject@Base 1.2.1
 (optional=gccinternal)_ZN3qbs8CleanJobD0Ev@Base 1.2.1
 (optional=gccinternal)_ZN3qbs8CleanJobD1Ev@Base 1.2.1
 (optional=gccinternal)_ZN3qbs8CleanJobD2Ev@Base 1.2.1
 _ZN3qbs8ILogSink11setLogLevelENS_11LoggerLevelE@Base 1.2.1
 _ZN3qbs8ILogSink12printMessageENS_11LoggerLevelERK7QStringS4_b@Base 1.2.1
 _ZN3qbs8ILogSink12printWarningERKNS_9ErrorInfoE@Base 1.2.1
 _ZN3qbs8ILogSink14doPrintWarningERKNS_9ErrorInfoE@Base 1.2.1
 _ZN3qbs8ILogSinkC1Ev@Base 1.2.1
 _ZN3qbs8ILogSinkC2Ev@Base 1.2.1
 _ZN3qbs8ILogSinkD0Ev@Base 1.2.1
 _ZN3qbs8ILogSinkD1Ev@Base 1.2.1
 _ZN3qbs8ILogSinkD2Ev@Base 1.2.1
 _ZN3qbs8Internal13shellQuoteWinERK7QString@Base 1.3.1
 _ZN3qbs8Internal14shellQuoteUnixERK7QString@Base 1.3.1
 _ZN3qbs8Internal17copyFileRecursionERK7QStringS3_bPS1_@Base 1.2.1
 _ZN3qbs8Internal19throwAssertLocationEPKcS2_i@Base 1.2.1
 _ZN3qbs8Internal19writeAssertLocationEPKcS2_i@Base 1.2.1
 _ZN3qbs8Internal27removeDirectoryWithContentsERK7QStringPS1_@Base 1.2.1
 _ZN3qbs8Internal6LoggerC1EPNS_8ILogSinkE@Base 1.2.1
 _ZN3qbs8Internal6LoggerC2EPNS_8ILogSinkE@Base 1.2.1
 _ZN3qbs8Internal7Version13setPatchLevelEi@Base 1.3.1
 _ZN3qbs8Internal7Version14setBuildNumberEi@Base 1.3.1
 _ZN3qbs8Internal7Version15setMajorVersionEi@Base 1.3.1
 _ZN3qbs8Internal7Version15setMinorVersionEi@Base 1.3.1
 _ZN3qbs8Internal7VersionC1Eiiii@Base 1.3.1
 _ZN3qbs8Internal7VersionC2Eiiii@Base 1.3.1
 _ZN3qbs8Internal7compareERKNS0_7VersionES3_@Base 1.3.3
 _ZN3qbs8Internal9LogWriter13setMessageTagERK7QString@Base 1.2.1
 _ZN3qbs8Internal9LogWriter5writeEPKc@Base 1.2.1
 _ZN3qbs8Internal9LogWriter5writeERK5QChar@Base 1.2.1
 _ZN3qbs8Internal9LogWriter5writeERK7QString@Base 1.2.1
 _ZN3qbs8Internal9LogWriter5writeEc@Base 1.2.1
 _ZN3qbs8Internal9LogWriterC1EPNS_8ILogSinkENS_11LoggerLevelEb@Base 1.2.1
 _ZN3qbs8Internal9LogWriterC1ERKS1_@Base 1.2.1
 _ZN3qbs8Internal9LogWriterC2EPNS_8ILogSinkENS_11LoggerLevelEb@Base 1.2.1
 _ZN3qbs8Internal9LogWriterC2ERKS1_@Base 1.2.1
 _ZN3qbs8Internal9LogWriterD1Ev@Base 1.2.1
 _ZN3qbs8Internal9LogWriterD2Ev@Base 1.2.1
 _ZN3qbs8Internal9LogWriteraSERKS1_@Base 1.2.1
 _ZN3qbs8InternallsENS0_9LogWriterEPKc@Base 1.2.1
 _ZN3qbs8InternallsENS0_9LogWriterERK10QByteArray@Base 1.2.1
 _ZN3qbs8InternallsENS0_9LogWriterERK11QStringList@Base 1.2.1
 _ZN3qbs8InternallsENS0_9LogWriterERK4QSetI7QStringE@Base 1.2.1
 _ZN3qbs8InternallsENS0_9LogWriterERK7QString@Base 1.2.1
 _ZN3qbs8InternallsENS0_9LogWriterERK8QVariant@Base 1.2.1
 _ZN3qbs8InternallsENS0_9LogWriterERKNS0_10MessageTagE@Base 1.2.1
 _ZN3qbs8InternallsENS0_9LogWriterEb@Base 1.2.1
 _ZN3qbs8InternallsENS0_9LogWriterEi@Base 1.2.1
 _ZN3qbs8InternallsENS0_9LogWriterEx@Base 1.2.1
 _ZN3qbs8Settings14directChildrenERK7QString@Base 1.2.1
 _ZN3qbs8Settings4syncEv@Base 1.3.1
 _ZN3qbs8Settings5clearEv@Base 1.2.1
 _ZN3qbs8Settings6removeERK7QString@Base 1.2.1
 _ZN3qbs8Settings8setValueERK7QStringRK8QVariant@Base 1.2.1
 _ZN3qbs8SettingsC1ERK7QString@Base 1.2.1
 _ZN3qbs8SettingsC2ERK7QString@Base 1.2.1
 _ZN3qbs8SettingsD1Ev@Base 1.2.1
 _ZN3qbs8SettingsD2Ev@Base 1.2.1
 _ZN3qbs9ErrorInfo5clearEv@Base 1.2.1
 _ZN3qbs9ErrorInfo6appendERK7QStringRKNS_12CodeLocationE@Base 1.2.1
 _ZN3qbs9ErrorInfo7prependERK7QStringRKNS_12CodeLocationE@Base 1.2.1
 _ZN3qbs9ErrorInfoC1ERK7QStringRKNS_12CodeLocationEb@Base 1.2.1
 _ZN3qbs9ErrorInfoC1ERKS0_@Base 1.2.1
 _ZN3qbs9ErrorInfoC1Ev@Base 1.2.1
 _ZN3qbs9ErrorInfoC2ERK7QStringRKNS_12CodeLocationEb@Base 1.2.1
 _ZN3qbs9ErrorInfoC2ERKS0_@Base 1.2.1
 _ZN3qbs9ErrorInfoC2Ev@Base 1.2.1
 _ZN3qbs9ErrorInfoD1Ev@Base 1.2.1
 _ZN3qbs9ErrorInfoD2Ev@Base 1.2.1
 _ZN3qbs9ErrorInfoaSERKS0_@Base 1.2.1
 _ZN3qbs9ErrorItemC1ERK7QStringRKNS_12CodeLocationE@Base 1.2.1
 _ZN3qbs9ErrorItemC1ERKS0_@Base 1.2.1
 _ZN3qbs9ErrorItemC1Ev@Base 1.2.1
 _ZN3qbs9ErrorItemC2ERK7QStringRKNS_12CodeLocationE@Base 1.2.1
 _ZN3qbs9ErrorItemC2ERKS0_@Base 1.2.1
 _ZN3qbs9ErrorItemC2Ev@Base 1.2.1
 _ZN3qbs9ErrorItemD1Ev@Base 1.2.1
 _ZN3qbs9ErrorItemD2Ev@Base 1.2.1
 _ZN3qbs9ErrorItemaSERKS0_@Base 1.2.1
 _ZN3qbs9GroupDataC1ERKS0_@Base 1.2.1
 _ZN3qbs9GroupDataC1Ev@Base 1.2.1
 _ZN3qbs9GroupDataC2ERKS0_@Base 1.2.1
 _ZN3qbs9GroupDataC2Ev@Base 1.2.1
 _ZN3qbs9GroupDataD1Ev@Base 1.2.1
 _ZN3qbs9GroupDataD2Ev@Base 1.2.1
 _ZN3qbs9GroupDataaSERKS0_@Base 1.2.1
 _ZN3qbseqERKNS_11ProductDataES2_@Base 1.2.1
 _ZN3qbseqERKNS_11ProjectDataES2_@Base 1.2.1
 _ZN3qbseqERKNS_12CodeLocationES2_@Base 1.2.1
 _ZN3qbseqERKNS_14TargetArtifactES2_@Base 1.2.1
 _ZN3qbseqERKNS_15InstallableFileES2_@Base 1.2.1
 _ZN3qbseqERKNS_9GroupDataES2_@Base 1.2.1
 _ZN3qbsltERKNS_11ProductDataES2_@Base 1.2.1
 _ZN3qbsltERKNS_11ProjectDataES2_@Base 1.2.1
 _ZN3qbsltERKNS_14TargetArtifactES2_@Base 1.2.1
 _ZN3qbsltERKNS_15InstallableFileES2_@Base 1.2.1
 _ZN3qbsltERKNS_9GroupDataES2_@Base 1.2.1
 _ZN3qbsneERKNS_11ProductDataES2_@Base 1.2.1
 _ZN3qbsneERKNS_11ProjectDataES2_@Base 1.2.1
 _ZN3qbsneERKNS_12CodeLocationES2_@Base 1.2.1
 _ZN3qbsneERKNS_14TargetArtifactES2_@Base 1.2.1
 _ZN3qbsneERKNS_15InstallableFileES2_@Base 1.2.1
 _ZN3qbsneERKNS_9GroupDataES2_@Base 1.2.1
 _ZNK3qbs10InstallJob10metaObjectEv@Base 1.2.1
 _ZNK3qbs11AbstractJob10metaObjectEv@Base 1.2.1
 _ZNK3qbs11AbstractJob5errorEv@Base 1.2.1
 _ZNK3qbs11Preferences11pluginPathsERK7QString@Base 1.2.1
 _ZNK3qbs11Preferences11searchPathsERK7QString@Base 1.2.1
 _ZNK3qbs11Preferences13getPreferenceERK7QStringRK8QVariant@Base 1.2.1
 _ZNK3qbs11Preferences16useColoredOutputEv@Base 1.2.1
 _ZNK3qbs11Preferences21defaultBuildDirectoryEv@Base 1.2.1
 _ZNK3qbs11Preferences4jobsEv@Base 1.2.1
 _ZNK3qbs11Preferences5shellEv@Base 1.2.1
 _ZNK3qbs11Preferences8pathListERK7QStringS3_@Base 1.2.1
 _ZNK3qbs11ProductData10isRunnableEv@Base 1.3.1
 _ZNK3qbs11ProductData10propertiesEv@Base 1.3.3
 _ZNK3qbs11ProductData10targetNameEv@Base 1.3.1
 _ZNK3qbs11ProductData12dependenciesEv@Base 1.3.1
 _ZNK3qbs11ProductData15targetArtifactsEv@Base 1.2.1
 _ZNK3qbs11ProductData4nameEv@Base 1.2.1
 _ZNK3qbs11ProductData4typeEv@Base 1.3.1
 _ZNK3qbs11ProductData6groupsEv@Base 1.2.1
 _ZNK3qbs11ProductData7isValidEv@Base 1.2.1
 _ZNK3qbs11ProductData7profileEv@Base 1.3.1
 _ZNK3qbs11ProductData7versionEv@Base 1.3.1
 _ZNK3qbs11ProductData8locationEv@Base 1.2.1
 _ZNK3qbs11ProductData9isEnabledEv@Base 1.2.1
 _ZNK3qbs11ProjectData11allProductsEv@Base 1.2.1
 _ZNK3qbs11ProjectData11subProjectsEv@Base 1.2.1
 _ZNK3qbs11ProjectData14buildDirectoryEv@Base 1.2.1
 _ZNK3qbs11ProjectData4nameEv@Base 1.2.1
 _ZNK3qbs11ProjectData7isValidEv@Base 1.2.1
 _ZNK3qbs11ProjectData8locationEv@Base 1.2.1
 _ZNK3qbs11ProjectData8productsEv@Base 1.2.1
 _ZNK3qbs11ProjectData9isEnabledEv@Base 1.2.1
 _ZNK3qbs11PropertyMap11getPropertyERK7QString@Base 1.2.1
 _ZNK3qbs11PropertyMap13allPropertiesEv@Base 1.2.1
 _ZNK3qbs11PropertyMap17getModulePropertyERK7QStringS3_@Base 1.2.1
 _ZNK3qbs11PropertyMap19getModulePropertiesERK7QStringS3_@Base 1.2.1
 _ZNK3qbs11PropertyMap31getModulePropertiesAsStringListERK7QStringS3_@Base 1.2.1
 _ZNK3qbs11PropertyMap8toStringEv@Base 1.2.1
 _ZNK3qbs11RuleCommand10executableEv@Base 1.3.3
 _ZNK3qbs11RuleCommand10sourceCodeEv@Base 1.3.3
 _ZNK3qbs11RuleCommand11descriptionEv@Base 1.3.3
 _ZNK3qbs11RuleCommand11environmentEv@Base 1.3.3
 _ZNK3qbs11RuleCommand16workingDirectoryEv@Base 1.3.3
 _ZNK3qbs11RuleCommand4typeEv@Base 1.3.3
 _ZNK3qbs11RuleCommand9argumentsEv@Base 1.3.3
 _ZNK3qbs12BuildOptions11maxJobCountEv@Base 1.2.1
 _ZNK3qbs12BuildOptions12changedFilesEv@Base 1.2.1
 _ZNK3qbs12BuildOptions14activeFileTagsEv@Base 1.2.1
 _ZNK3qbs12BuildOptions14logElapsedTimeEv@Base 1.2.1
 _ZNK3qbs12BuildOptions15filesToConsiderEv@Base 1.2.1
 _ZNK3qbs12BuildOptions19forceTimestampCheckEv@Base 1.2.1
 _ZNK3qbs12BuildOptions6dryRunEv@Base 1.2.1
 _ZNK3qbs12BuildOptions9keepGoingEv@Base 1.2.1
 _ZNK3qbs12CleanOptions14logElapsedTimeEv@Base 1.2.1
 _ZNK3qbs12CleanOptions6dryRunEv@Base 1.2.1
 _ZNK3qbs12CleanOptions9cleanTypeEv@Base 1.2.1
 _ZNK3qbs12CleanOptions9keepGoingEv@Base 1.2.1
 _ZNK3qbs12CodeLocation4lineEv@Base 1.2.1
 _ZNK3qbs12CodeLocation6columnEv@Base 1.2.1
 _ZNK3qbs12CodeLocation7isValidEv@Base 1.2.1
 _ZNK3qbs12CodeLocation8fileNameEv@Base 1.2.1
 _ZNK3qbs12CodeLocation8toStringEv@Base 1.2.1
 _ZNK3qbs13ProcessResult10exitStatusEv@Base 1.2.1
 _ZNK3qbs13ProcessResult16workingDirectoryEv@Base 1.2.1
 _ZNK3qbs13ProcessResult18executableFilePathEv@Base 1.2.1
 _ZNK3qbs13ProcessResult6stdErrEv@Base 1.2.1
 _ZNK3qbs13ProcessResult6stdOutEv@Base 1.2.1
 _ZNK3qbs13ProcessResult7successEv@Base 1.2.1
 _ZNK3qbs13ProcessResult8exitCodeEv@Base 1.2.1
 _ZNK3qbs13ProcessResult9argumentsEv@Base 1.2.1
 _ZNK3qbs14InstallOptions11installRootEv@Base 1.2.1
 _ZNK3qbs14InstallOptions14logElapsedTimeEv@Base 1.2.1
 _ZNK3qbs14InstallOptions18installIntoSysrootEv@Base 1.2.1
 _ZNK3qbs14InstallOptions26removeExistingInstallationEv@Base 1.2.1
 _ZNK3qbs14InstallOptions6dryRunEv@Base 1.2.1
 _ZNK3qbs14InstallOptions9keepGoingEv@Base 1.2.1
 _ZNK3qbs14RunEnvironment14runEnvironmentEv@Base 1.3.1
 _ZNK3qbs14RunEnvironment16buildEnvironmentEv@Base 1.3.1
 _ZNK3qbs14TargetArtifact10propertiesEv@Base 1.2.1
 _ZNK3qbs14TargetArtifact12isExecutableEv@Base 1.2.1
 _ZNK3qbs14TargetArtifact7isValidEv@Base 1.2.1
 _ZNK3qbs14TargetArtifact8filePathEv@Base 1.2.1
 _ZNK3qbs14TargetArtifact8fileTagsEv@Base 1.2.1
 _ZNK3qbs15InstallableFile12isExecutableEv@Base 1.2.1
 _ZNK3qbs15InstallableFile14sourceFilePathEv@Base 1.2.1
 _ZNK3qbs15InstallableFile14targetFilePathEv@Base 1.2.1
 _ZNK3qbs15InstallableFile15targetDirectoryEv@Base 1.2.1
 _ZNK3qbs15InstallableFile7isValidEv@Base 1.2.1
 _ZNK3qbs15InstallableFile8fileTagsEv@Base 1.2.1
 _ZNK3qbs15SetupProjectJob10metaObjectEv@Base 1.2.1
 _ZNK3qbs15SetupProjectJob7projectEv@Base 1.2.1
 _ZNK3qbs22SetupProjectParameters11environmentEv@Base 1.2.1
 _ZNK3qbs22SetupProjectParameters11pluginPathsEv@Base 1.2.1
 _ZNK3qbs22SetupProjectParameters11searchPathsEv@Base 1.2.1
 _ZNK3qbs22SetupProjectParameters12buildVariantEv@Base 1.3.1
 _ZNK3qbs22SetupProjectParameters14logElapsedTimeEv@Base 1.2.1
 _ZNK3qbs22SetupProjectParameters15projectFilePathEv@Base 1.2.1
 _ZNK3qbs22SetupProjectParameters15restoreBehaviorEv@Base 1.2.1
 _ZNK3qbs22SetupProjectParameters15topLevelProfileEv@Base 1.3.1
 _ZNK3qbs22SetupProjectParameters16overriddenValuesEv@Base 1.2.1
 _ZNK3qbs22SetupProjectParameters17settingsDirectoryEv@Base 1.3.1
 _ZNK3qbs22SetupProjectParameters18buildConfigurationEv@Base 1.2.1
 _ZNK3qbs22SetupProjectParameters19adjustedEnvironmentEv@Base 1.3.1
 _ZNK3qbs22SetupProjectParameters20overriddenValuesTreeEv@Base 1.2.1
 _ZNK3qbs22SetupProjectParameters22buildConfigurationTreeEv@Base 1.2.1
 _ZNK3qbs22SetupProjectParameters27finalBuildConfigurationTreeEv@Base 1.2.1
 _ZNK3qbs22SetupProjectParameters30ignoreDifferentProjectFilePathEv@Base 1.2.1
 _ZNK3qbs22SetupProjectParameters6dryRunEv@Base 1.2.1
 _ZNK3qbs22SetupProjectParameters9buildRootEv@Base 1.2.1
 _ZNK3qbs7Profile10localValueERK7QString@Base 1.2.1
 _ZNK3qbs7Profile10profileKeyEv@Base 1.2.1
 _ZNK3qbs7Profile11baseProfileEv@Base 1.2.1
 _ZNK3qbs7Profile15allKeysInternalENS0_12KeySelectionE11QStringList@Base 1.2.1
 _ZNK3qbs7Profile17fullyQualifiedKeyERK7QString@Base 1.2.1
 _ZNK3qbs7Profile22possiblyInheritedValueERK7QStringRK8QVariant11QStringList@Base 1.2.1
 _ZNK3qbs7Profile25checkBaseProfileExistenceERKS0_@Base 1.2.1
 _ZNK3qbs7Profile26extendAndCheckProfileChainER11QStringList@Base 1.2.1
 _ZNK3qbs7Profile4nameEv@Base 1.2.1
 _ZNK3qbs7Profile5valueERK7QStringRK8QVariantPNS_9ErrorInfoE@Base 1.2.1
 _ZNK3qbs7Profile6existsEv@Base 1.2.1
 _ZNK3qbs7Profile7allKeysENS0_12KeySelectionEPNS_9ErrorInfoE@Base 1.2.1
 _ZNK3qbs7Project11projectDataEv@Base 1.2.1
 _ZNK3qbs7Project12ruleCommandsERKNS_11ProductDataERK7QStringS6_PNS_9ErrorInfoE@Base 1.3.3
 _ZNK3qbs7Project14generatedFilesERKNS_11ProductDataERK7QStringRK11QStringList@Base 1.2.1
 _ZNK3qbs7Project15buildOneProductERKNS_11ProductDataERKNS_12BuildOptionsEP7QObject@Base 1.2.1
 _ZNK3qbs7Project15cleanOneProductERKNS_11ProductDataERKNS_12CleanOptionsEP7QObject@Base 1.2.1
 _ZNK3qbs7Project15usedEnvironmentEv@Base 1.2.1
 _ZNK3qbs7Project16buildAllProductsERKNS_12BuildOptionsEP7QObject@Base 1.2.1
 _ZNK3qbs7Project16buildSystemFilesEv@Base 1.2.1
 _ZNK3qbs7Project16cleanAllProductsERKNS_12CleanOptionsEP7QObject@Base 1.2.1
 _ZNK3qbs7Project16targetExecutableERKNS_11ProductDataERKNS_14InstallOptionsE@Base 1.2.1
 _ZNK3qbs7Project17buildSomeProductsERK5QListINS_11ProductDataEERKNS_12BuildOptionsEP7QObject@Base 1.2.1
 _ZNK3qbs7Project17cleanSomeProductsERK5QListINS_11ProductDataEERKNS_12CleanOptionsEP7QObject@Base 1.2.1
 _ZNK3qbs7Project17getRunEnvironmentERKNS_11ProductDataERKNS_14InstallOptionsERK19QProcessEnvironmentPNS_8SettingsE@Base 1.3.1
 _ZNK3qbs7Project17installOneProductERKNS_11ProductDataERKNS_14InstallOptionsEP7QObject@Base 1.2.1
 _ZNK3qbs7Project18installAllProductsERKNS_14InstallOptionsEP7QObject@Base 1.2.1
 _ZNK3qbs7Project19installSomeProductsERK5QListINS_11ProductDataEERKNS_14InstallOptionsEP7QObject@Base 1.2.1
 _ZNK3qbs7Project20projectConfigurationEv@Base 1.2.1
 _ZNK3qbs7Project26installableFilesForProductERKNS_11ProductDataERKNS_14InstallOptionsE@Base 1.2.1
 _ZNK3qbs7Project26installableFilesForProjectERKNS_11ProjectDataERKNS_14InstallOptionsE@Base 1.2.1
 _ZNK3qbs7Project7isValidEv@Base 1.2.1
 _ZNK3qbs7Project7profileEv@Base 1.3.1
 _ZNK3qbs8BuildJob10metaObjectEv@Base 1.2.1
 _ZNK3qbs8CleanJob10metaObjectEv@Base 1.2.1
 _ZNK3qbs8ILogSink8logLevelEv@Base 1.2.1
 _ZNK3qbs8Internal6Logger12debugEnabledEv@Base 1.2.1
 _ZNK3qbs8Internal6Logger12traceEnabledEv@Base 1.2.1
 _ZNK3qbs8Internal6Logger6qbsLogENS_11LoggerLevelEb@Base 1.2.1
 _ZNK3qbs8Internal7Version10patchLevelEv@Base 1.3.1
 _ZNK3qbs8Internal7Version11buildNumberEv@Base 1.3.1
 _ZNK3qbs8Internal7Version12majorVersionEv@Base 1.3.1
 _ZNK3qbs8Internal7Version12minorVersionEv@Base 1.3.1
 _ZNK3qbs8Internal7Version8toStringEv@Base 1.3.1
 _ZNK3qbs8Settings14defaultProfileEv@Base 1.2.1
 _ZNK3qbs8Settings17allKeysWithPrefixERK7QString@Base 1.2.1
 _ZNK3qbs8Settings22externalRepresentationERK7QString@Base 1.2.1
 _ZNK3qbs8Settings22internalRepresentationERK7QString@Base 1.2.1
 _ZNK3qbs8Settings5valueERK7QStringRK8QVariant@Base 1.2.1
 _ZNK3qbs8Settings7allKeysEv@Base 1.2.1
 _ZNK3qbs8Settings8fileNameEv@Base 1.2.1
 _ZNK3qbs8Settings8profilesEv@Base 1.2.1
 _ZNK3qbs8Settings9fixupKeysER11QStringList@Base 1.2.1
 _ZNK3qbs9ErrorInfo15isInternalErrorEv@Base 1.2.1
 _ZNK3qbs9ErrorInfo5itemsEv@Base 1.2.1
 _ZNK3qbs9ErrorInfo8toStringEv@Base 1.2.1
 _ZNK3qbs9ErrorItem11descriptionEv@Base 1.2.1
 _ZNK3qbs9ErrorItem12codeLocationEv@Base 1.2.1
 _ZNK3qbs9ErrorItem8toStringEv@Base 1.2.1
 _ZNK3qbs9GroupData10propertiesEv@Base 1.2.1
 _ZNK3qbs9GroupData12allFilePathsEv@Base 1.2.1
 _ZNK3qbs9GroupData17expandedWildcardsEv@Base 1.2.1
 _ZNK3qbs9GroupData4nameEv@Base 1.2.1
 _ZNK3qbs9GroupData7isValidEv@Base 1.2.1
 _ZNK3qbs9GroupData8locationEv@Base 1.2.1
 _ZNK3qbs9GroupData9filePathsEv@Base 1.2.1
 _ZNK3qbs9GroupData9isEnabledEv@Base 1.2.1
 _ZTI11QScriptable@Base 1.2.1
 _ZTIN3qbs10InstallJobE@Base 1.2.1
 _ZTIN3qbs11AbstractJobE@Base 1.2.1
 _ZTIN3qbs15SetupProjectJobE@Base 1.2.1
 _ZTIN3qbs8BuildJobE@Base 1.2.1
 _ZTIN3qbs8CleanJobE@Base 1.2.1
 _ZTIN3qbs8ILogSinkE@Base 1.2.1
 _ZTIN3qbs9ErrorInfoE@Base 1.2.1
 _ZTS11QScriptable@Base 1.2.1
 _ZTSN3qbs10InstallJobE@Base 1.2.1
 _ZTSN3qbs11AbstractJobE@Base 1.2.1
 _ZTSN3qbs15SetupProjectJobE@Base 1.2.1
 _ZTSN3qbs8BuildJobE@Base 1.2.1
 _ZTSN3qbs8CleanJobE@Base 1.2.1
 _ZTSN3qbs8ILogSinkE@Base 1.2.1
 _ZTSN3qbs9ErrorInfoE@Base 1.2.1
 _ZTVN3qbs10InstallJobE@Base 1.2.1
 _ZTVN3qbs11AbstractJobE@Base 1.2.1
 _ZTVN3qbs15SetupProjectJobE@Base 1.2.1
 _ZTVN3qbs8BuildJobE@Base 1.2.1
 _ZTVN3qbs8CleanJobE@Base 1.2.1
 _ZTVN3qbs8ILogSinkE@Base 1.2.1
