# SymbolsHelper-Confirmed: 5.4.0 amd64
libQt5Sensors.so.5 libqt5sensors5 #MINVER#
 _ZN10QAltimeter11qt_metacallEN11QMetaObject4CallEiPPv@Base 5.1.1
 _ZN10QAltimeter11qt_metacastEPKc@Base 5.1.1
 _ZN10QAltimeter16staticMetaObjectE@Base 5.1.1
 _ZN10QAltimeter4typeE@Base 5.1.1
 _ZN10QAltimeterC1EP7QObject@Base 5.1.1
 _ZN10QAltimeterC2EP7QObject@Base 5.1.1
 _ZN10QAltimeterD0Ev@Base 5.1.1
 _ZN10QAltimeterD1Ev@Base 5.1.1
 _ZN10QAltimeterD2Ev@Base 5.1.1
 _ZN10QGyroscope11qt_metacallEN11QMetaObject4CallEiPPv@Base 5.1.1
 _ZN10QGyroscope11qt_metacastEPKc@Base 5.1.1
 _ZN10QGyroscope16staticMetaObjectE@Base 5.1.1
 _ZN10QGyroscope4typeE@Base 5.1.1
 _ZN10QGyroscopeC1EP7QObject@Base 5.1.1
 _ZN10QGyroscopeC2EP7QObject@Base 5.1.1
 _ZN10QGyroscopeD0Ev@Base 5.1.1
 _ZN10QGyroscopeD1Ev@Base 5.1.1
 _ZN10QGyroscopeD2Ev@Base 5.1.1
 _ZN10QTapFilter6filterEP14QSensorReading@Base 5.1.1
 _ZN10QTapSensor11qt_metacallEN11QMetaObject4CallEiPPv@Base 5.1.1
 _ZN10QTapSensor11qt_metacastEPKc@Base 5.1.1
 _ZN10QTapSensor16staticMetaObjectE@Base 5.1.1
 _ZN10QTapSensor24setReturnDoubleTapEventsEb@Base 5.1.1
 _ZN10QTapSensor28returnDoubleTapEventsChangedEb@Base 5.1.1
 _ZN10QTapSensor4typeE@Base 5.1.1
 _ZN10QTapSensorC1EP7QObject@Base 5.1.1
 _ZN10QTapSensorC2EP7QObject@Base 5.1.1
 _ZN10QTapSensorD0Ev@Base 5.1.1
 _ZN10QTapSensorD1Ev@Base 5.1.1
 _ZN10QTapSensorD2Ev@Base 5.1.1
 _ZN11QTapReading11qt_metacallEN11QMetaObject4CallEiPPv@Base 5.1.1
 _ZN11QTapReading11qt_metacastEPKc@Base 5.1.1
 _ZN11QTapReading12setDoubleTapEb@Base 5.1.1
 _ZN11QTapReading14copyValuesFromEP14QSensorReading@Base 5.1.1
 _ZN11QTapReading15setTapDirectionENS_12TapDirectionE@Base 5.1.1
 _ZN11QTapReading16staticMetaObjectE@Base 5.1.1
 _ZN11QTapReadingC1EP7QObject@Base 5.1.1
 _ZN11QTapReadingC2EP7QObject@Base 5.1.1
 _ZN11QTapReadingD0Ev@Base 5.1.1
 _ZN11QTapReadingD1Ev@Base 5.1.1
 _ZN11QTapReadingD2Ev@Base 5.1.1
 _ZN11QTiltFilter6filterEP14QSensorReading@Base 5.1.1
 _ZN11QTiltSensor11qt_metacallEN11QMetaObject4CallEiPPv@Base 5.1.1
 _ZN11QTiltSensor11qt_metacastEPKc@Base 5.1.1
 _ZN11QTiltSensor16staticMetaObjectE@Base 5.1.1
 _ZN11QTiltSensor4typeE@Base 5.1.1
 _ZN11QTiltSensor9calibrateEv@Base 5.1.1
 _ZN11QTiltSensorC1EP7QObject@Base 5.1.1
 _ZN11QTiltSensorC2EP7QObject@Base 5.1.1
 _ZN11QTiltSensorD0Ev@Base 5.1.1
 _ZN11QTiltSensorD1Ev@Base 5.1.1
 _ZN11QTiltSensorD2Ev@Base 5.1.1
 _ZN12QLightFilter6filterEP14QSensorReading@Base 5.1.1
 _ZN12QLightSensor11qt_metacallEN11QMetaObject4CallEiPPv@Base 5.1.1
 _ZN12QLightSensor11qt_metacastEPKc@Base 5.1.1
 _ZN12QLightSensor14setFieldOfViewEd@Base 5.2.0
 _ZN12QLightSensor16staticMetaObjectE@Base 5.1.1
 _ZN12QLightSensor18fieldOfViewChangedEd@Base 5.2.0
 _ZN12QLightSensor4typeE@Base 5.1.1
 _ZN12QLightSensorC1EP7QObject@Base 5.1.1
 _ZN12QLightSensorC2EP7QObject@Base 5.1.1
 _ZN12QLightSensorD0Ev@Base 5.1.1
 _ZN12QLightSensorD1Ev@Base 5.1.1
 _ZN12QLightSensorD2Ev@Base 5.1.1
 _ZN12QTiltReading11qt_metacallEN11QMetaObject4CallEiPPv@Base 5.1.1
 _ZN12QTiltReading11qt_metacastEPKc@Base 5.1.1
 _ZN12QTiltReading12setXRotationEd@Base 5.2.0
 _ZN12QTiltReading12setYRotationEd@Base 5.2.0
 _ZN12QTiltReading14copyValuesFromEP14QSensorReading@Base 5.1.1
 _ZN12QTiltReading16staticMetaObjectE@Base 5.1.1
 _ZN12QTiltReadingC1EP7QObject@Base 5.1.1
 _ZN12QTiltReadingC2EP7QObject@Base 5.1.1
 _ZN12QTiltReadingD0Ev@Base 5.1.1
 _ZN12QTiltReadingD1Ev@Base 5.1.1
 _ZN12QTiltReadingD2Ev@Base 5.1.1
 _ZN13QLightReading11qt_metacallEN11QMetaObject4CallEiPPv@Base 5.1.1
 _ZN13QLightReading11qt_metacastEPKc@Base 5.1.1
 _ZN13QLightReading14copyValuesFromEP14QSensorReading@Base 5.1.1
 _ZN13QLightReading16staticMetaObjectE@Base 5.1.1
 _ZN13QLightReading6setLuxEd@Base 5.2.0
 _ZN13QLightReadingC1EP7QObject@Base 5.1.1
 _ZN13QLightReadingC2EP7QObject@Base 5.1.1
 _ZN13QLightReadingD0Ev@Base 5.1.1
 _ZN13QLightReadingD1Ev@Base 5.1.1
 _ZN13QLightReadingD2Ev@Base 5.1.1
 _ZN13QMagnetometer11qt_metacallEN11QMetaObject4CallEiPPv@Base 5.1.1
 _ZN13QMagnetometer11qt_metacastEPKc@Base 5.1.1
 _ZN13QMagnetometer16staticMetaObjectE@Base 5.1.1
 _ZN13QMagnetometer18setReturnGeoValuesEb@Base 5.1.1
 _ZN13QMagnetometer22returnGeoValuesChangedEb@Base 5.1.1
 _ZN13QMagnetometer4typeE@Base 5.1.1
 _ZN13QMagnetometerC1EP7QObject@Base 5.1.1
 _ZN13QMagnetometerC2EP7QObject@Base 5.1.1
 _ZN13QMagnetometerD0Ev@Base 5.1.1
 _ZN13QMagnetometerD1Ev@Base 5.1.1
 _ZN13QMagnetometerD2Ev@Base 5.1.1
 _ZN13QSensorFilter9setSensorEP7QSensor@Base 5.1.1
 _ZN13QSensorFilterC1Ev@Base 5.1.1
 _ZN13QSensorFilterC2Ev@Base 5.1.1
 _ZN13QSensorFilterD0Ev@Base 5.1.1
 _ZN13QSensorFilterD1Ev@Base 5.1.1
 _ZN13QSensorFilterD2Ev@Base 5.1.1
 _ZN14QAccelerometer11qt_metacallEN11QMetaObject4CallEiPPv@Base 5.1.1
 _ZN14QAccelerometer11qt_metacastEPKc@Base 5.1.1
 _ZN14QAccelerometer16staticMetaObjectE@Base 5.1.1
 _ZN14QAccelerometer19setAccelerationModeENS_16AccelerationModeE@Base 5.1.1
 _ZN14QAccelerometer23accelerationModeChangedENS_16AccelerationModeE@Base 5.1.1
 _ZN14QAccelerometer4typeE@Base 5.1.1
 _ZN14QAccelerometerC1EP7QObject@Base 5.1.1
 _ZN14QAccelerometerC2EP7QObject@Base 5.1.1
 _ZN14QAccelerometerD0Ev@Base 5.1.1
 _ZN14QAccelerometerD1Ev@Base 5.1.1
 _ZN14QAccelerometerD2Ev@Base 5.1.1
 _ZN14QCompassFilter6filterEP14QSensorReading@Base 5.1.1
 _ZN14QHolsterFilter6filterEP14QSensorReading@Base 5.1.1
 _ZN14QHolsterSensor11qt_metacallEN11QMetaObject4CallEiPPv@Base 5.1.1
 _ZN14QHolsterSensor11qt_metacastEPKc@Base 5.1.1
 _ZN14QHolsterSensor16staticMetaObjectE@Base 5.1.1
 _ZN14QHolsterSensor4typeE@Base 5.1.1
 _ZN14QHolsterSensorC1EP7QObject@Base 5.1.1
 _ZN14QHolsterSensorC2EP7QObject@Base 5.1.1
 _ZN14QHolsterSensorD0Ev@Base 5.1.1
 _ZN14QHolsterSensorD1Ev@Base 5.1.1
 _ZN14QHolsterSensorD2Ev@Base 5.1.1
 _ZN14QSensorBackend10sensorBusyEv@Base 5.1.1
 _ZN14QSensorBackend11addDataRateEdd@Base 5.2.0
 _ZN14QSensorBackend11qt_metacallEN11QMetaObject4CallEiPPv@Base 5.1.1
 _ZN14QSensorBackend11qt_metacastEPKc@Base 5.1.1
 _ZN14QSensorBackend11sensorErrorEi@Base 5.1.1
 _ZN14QSensorBackend11setReadingsEP14QSensorReadingS1_S1_@Base 5.1.1
 _ZN14QSensorBackend12setDataRatesEPK7QSensor@Base 5.1.1
 _ZN14QSensorBackend13sensorStoppedEv@Base 5.1.1
 _ZN14QSensorBackend14addOutputRangeEddd@Base 5.2.0
 _ZN14QSensorBackend14setDescriptionERK7QString@Base 5.1.1
 _ZN14QSensorBackend16staticMetaObjectE@Base 5.1.1
 _ZN14QSensorBackend19newReadingAvailableEv@Base 5.1.1
 _ZN14QSensorBackendC1EP7QSensorP7QObject@Base 5.1.1
 _ZN14QSensorBackendC2EP7QSensorP7QObject@Base 5.1.1
 _ZN14QSensorBackendD0Ev@Base 5.1.1
 _ZN14QSensorBackendD1Ev@Base 5.1.1
 _ZN14QSensorBackendD2Ev@Base 5.1.1
 _ZN14QSensorGesture11qt_metacallEN11QMetaObject4CallEiPPv@Base 5.1.1
 _ZN14QSensorGesture13stopDetectionEv@Base 5.1.1
 _ZN14QSensorGesture14startDetectionEv@Base 5.1.1
 _ZN14QSensorGesture8isActiveEv@Base 5.1.1
 _ZN14QSensorGestureC1ERK11QStringListP7QObject@Base 5.1.1
 _ZN14QSensorGestureC2ERK11QStringListP7QObject@Base 5.1.1
 _ZN14QSensorGestureD0Ev@Base 5.1.1
 _ZN14QSensorGestureD1Ev@Base 5.1.1
 _ZN14QSensorGestureD2Ev@Base 5.1.1
 _ZN14QSensorManager13createBackendEP7QSensor@Base 5.1.1
 _ZN14QSensorManager15registerBackendERK10QByteArrayS2_P21QSensorBackendFactory@Base 5.1.1
 _ZN14QSensorManager17setDefaultBackendERK10QByteArrayS2_@Base 5.1.1
 _ZN14QSensorManager17unregisterBackendERK10QByteArrayS2_@Base 5.1.1
 _ZN14QSensorManager19isBackendRegisteredERK10QByteArrayS2_@Base 5.1.1
 _ZN14QSensorReading11qt_metacallEN11QMetaObject4CallEiPPv@Base 5.1.1
 _ZN14QSensorReading11qt_metacastEPKc@Base 5.1.1
 _ZN14QSensorReading12setTimestampEy@Base 5.1.1
 _ZN14QSensorReading14copyValuesFromEPS_@Base 5.1.1
 _ZN14QSensorReading16staticMetaObjectE@Base 5.1.1
 _ZN14QSensorReadingC1EP7QObjectP21QSensorReadingPrivate@Base 5.1.1
 _ZN14QSensorReadingC2EP7QObjectP21QSensorReadingPrivate@Base 5.1.1
 _ZN14QSensorReadingD0Ev@Base 5.1.1
 _ZN14QSensorReadingD1Ev@Base 5.1.1
 _ZN14QSensorReadingD2Ev@Base 5.1.1
 _ZN15QCompassReading10setAzimuthEd@Base 5.2.0
 _ZN15QCompassReading11qt_metacallEN11QMetaObject4CallEiPPv@Base 5.1.1
 _ZN15QCompassReading11qt_metacastEPKc@Base 5.1.1
 _ZN15QCompassReading14copyValuesFromEP14QSensorReading@Base 5.1.1
 _ZN15QCompassReading16staticMetaObjectE@Base 5.1.1
 _ZN15QCompassReading19setCalibrationLevelEd@Base 5.2.0
 _ZN15QCompassReadingC1EP7QObject@Base 5.1.1
 _ZN15QCompassReadingC2EP7QObject@Base 5.1.1
 _ZN15QCompassReadingD0Ev@Base 5.1.1
 _ZN15QCompassReadingD1Ev@Base 5.1.1
 _ZN15QCompassReadingD2Ev@Base 5.1.1
 _ZN15QDistanceFilter6filterEP14QSensorReading@Base 5.4.0
 _ZN15QDistanceSensor11qt_metacallEN11QMetaObject4CallEiPPv@Base 5.4.0
 _ZN15QDistanceSensor11qt_metacastEPKc@Base 5.4.0
 _ZN15QDistanceSensor16staticMetaObjectE@Base 5.4.0
 _ZN15QDistanceSensor4typeE@Base 5.4.0
 _ZN15QDistanceSensorC1EP7QObject@Base 5.4.0
 _ZN15QDistanceSensorC2EP7QObject@Base 5.4.0
 _ZN15QDistanceSensorD0Ev@Base 5.4.0
 _ZN15QDistanceSensorD1Ev@Base 5.4.0
 _ZN15QDistanceSensorD2Ev@Base 5.4.0
 _ZN15QHolsterReading11qt_metacallEN11QMetaObject4CallEiPPv@Base 5.1.1
 _ZN15QHolsterReading11qt_metacastEPKc@Base 5.1.1
 _ZN15QHolsterReading12setHolsteredEb@Base 5.1.1
 _ZN15QHolsterReading14copyValuesFromEP14QSensorReading@Base 5.1.1
 _ZN15QHolsterReading16staticMetaObjectE@Base 5.1.1
 _ZN15QHolsterReadingC1EP7QObject@Base 5.1.1
 _ZN15QHolsterReadingC2EP7QObject@Base 5.1.1
 _ZN15QHolsterReadingD0Ev@Base 5.1.1
 _ZN15QHolsterReadingD1Ev@Base 5.1.1
 _ZN15QHolsterReadingD2Ev@Base 5.1.1
 _ZN15QPressureFilter6filterEP14QSensorReading@Base 5.1.1
 _ZN15QPressureSensor11qt_metacallEN11QMetaObject4CallEiPPv@Base 5.1.1
 _ZN15QPressureSensor11qt_metacastEPKc@Base 5.1.1
 _ZN15QPressureSensor16staticMetaObjectE@Base 5.1.1
 _ZN15QPressureSensor4typeE@Base 5.1.1
 _ZN15QPressureSensorC1EP7QObject@Base 5.1.1
 _ZN15QPressureSensorC2EP7QObject@Base 5.1.1
 _ZN15QPressureSensorD0Ev@Base 5.1.1
 _ZN15QPressureSensorD1Ev@Base 5.1.1
 _ZN15QPressureSensorD2Ev@Base 5.1.1
 _ZN15QRotationFilter6filterEP14QSensorReading@Base 5.1.1
 _ZN15QRotationSensor11hasZChangedEb@Base 5.1.1
 _ZN15QRotationSensor11qt_metacallEN11QMetaObject4CallEiPPv@Base 5.1.1
 _ZN15QRotationSensor11qt_metacastEPKc@Base 5.1.1
 _ZN15QRotationSensor16staticMetaObjectE@Base 5.1.1
 _ZN15QRotationSensor4typeE@Base 5.1.1
 _ZN15QRotationSensor7setHasZEb@Base 5.1.1
 _ZN15QRotationSensorC1EP7QObject@Base 5.1.1
 _ZN15QRotationSensorC2EP7QObject@Base 5.1.1
 _ZN15QRotationSensorD0Ev@Base 5.1.1
 _ZN15QRotationSensorD1Ev@Base 5.1.1
 _ZN15QRotationSensorD2Ev@Base 5.1.1
 _ZN16QAltimeterFilter6filterEP14QSensorReading@Base 5.1.1
 _ZN16QDistanceReading11qt_metacallEN11QMetaObject4CallEiPPv@Base 5.4.0
 _ZN16QDistanceReading11qt_metacastEPKc@Base 5.4.0
 _ZN16QDistanceReading11setDistanceEd@Base 5.4.0
 _ZN16QDistanceReading14copyValuesFromEP14QSensorReading@Base 5.4.0
 _ZN16QDistanceReading16staticMetaObjectE@Base 5.4.0
 _ZN16QDistanceReadingC1EP7QObject@Base 5.4.0
 _ZN16QDistanceReadingC2EP7QObject@Base 5.4.0
 _ZN16QDistanceReadingD0Ev@Base 5.4.0
 _ZN16QDistanceReadingD1Ev@Base 5.4.0
 _ZN16QDistanceReadingD2Ev@Base 5.4.0
 _ZN16QGyroscopeFilter6filterEP14QSensorReading@Base 5.1.1
 _ZN16QPressureReading11qt_metacallEN11QMetaObject4CallEiPPv@Base 5.1.1
 _ZN16QPressureReading11qt_metacastEPKc@Base 5.1.1
 _ZN16QPressureReading11setPressureEd@Base 5.2.0
 _ZN16QPressureReading14copyValuesFromEP14QSensorReading@Base 5.1.1
 _ZN16QPressureReading14setTemperatureEd@Base 5.2.0~beta1
 _ZN16QPressureReading16staticMetaObjectE@Base 5.1.1
 _ZN16QPressureReadingC1EP7QObject@Base 5.1.1
 _ZN16QPressureReadingC2EP7QObject@Base 5.1.1
 _ZN16QPressureReadingD0Ev@Base 5.1.1
 _ZN16QPressureReadingD1Ev@Base 5.1.1
 _ZN16QPressureReadingD2Ev@Base 5.1.1
 _ZN16QProximityFilter6filterEP14QSensorReading@Base 5.1.1
 _ZN16QProximitySensor11qt_metacallEN11QMetaObject4CallEiPPv@Base 5.1.1
 _ZN16QProximitySensor11qt_metacastEPKc@Base 5.1.1
 _ZN16QProximitySensor16staticMetaObjectE@Base 5.1.1
 _ZN16QProximitySensor4typeE@Base 5.1.1
 _ZN16QProximitySensorC1EP7QObject@Base 5.1.1
 _ZN16QProximitySensorC2EP7QObject@Base 5.1.1
 _ZN16QProximitySensorD0Ev@Base 5.1.1
 _ZN16QProximitySensorD1Ev@Base 5.1.1
 _ZN16QProximitySensorD2Ev@Base 5.1.1
 _ZN16QRotationReading11qt_metacallEN11QMetaObject4CallEiPPv@Base 5.1.1
 _ZN16QRotationReading11qt_metacastEPKc@Base 5.1.1
 _ZN16QRotationReading12setFromEulerEddd@Base 5.2.0
 _ZN16QRotationReading14copyValuesFromEP14QSensorReading@Base 5.1.1
 _ZN16QRotationReading16staticMetaObjectE@Base 5.1.1
 _ZN16QRotationReadingC1EP7QObject@Base 5.1.1
 _ZN16QRotationReadingC2EP7QObject@Base 5.1.1
 _ZN16QRotationReadingD0Ev@Base 5.1.1
 _ZN16QRotationReadingD1Ev@Base 5.1.1
 _ZN16QRotationReadingD2Ev@Base 5.1.1
 _ZN17QAltimeterReading11qt_metacallEN11QMetaObject4CallEiPPv@Base 5.1.1
 _ZN17QAltimeterReading11qt_metacastEPKc@Base 5.1.1
 _ZN17QAltimeterReading11setAltitudeEd@Base 5.2.0
 _ZN17QAltimeterReading14copyValuesFromEP14QSensorReading@Base 5.1.1
 _ZN17QAltimeterReading16staticMetaObjectE@Base 5.1.1
 _ZN17QAltimeterReadingC1EP7QObject@Base 5.1.1
 _ZN17QAltimeterReadingC2EP7QObject@Base 5.1.1
 _ZN17QAltimeterReadingD0Ev@Base 5.1.1
 _ZN17QAltimeterReadingD1Ev@Base 5.1.1
 _ZN17QAltimeterReadingD2Ev@Base 5.1.1
 _ZN17QGyroscopeReading11qt_metacallEN11QMetaObject4CallEiPPv@Base 5.1.1
 _ZN17QGyroscopeReading11qt_metacastEPKc@Base 5.1.1
 _ZN17QGyroscopeReading14copyValuesFromEP14QSensorReading@Base 5.1.1
 _ZN17QGyroscopeReading16staticMetaObjectE@Base 5.1.1
 _ZN17QGyroscopeReading4setXEd@Base 5.2.0
 _ZN17QGyroscopeReading4setYEd@Base 5.2.0
 _ZN17QGyroscopeReading4setZEd@Base 5.2.0
 _ZN17QGyroscopeReadingC1EP7QObject@Base 5.1.1
 _ZN17QGyroscopeReadingC2EP7QObject@Base 5.1.1
 _ZN17QGyroscopeReadingD0Ev@Base 5.1.1
 _ZN17QGyroscopeReadingD1Ev@Base 5.1.1
 _ZN17QGyroscopeReadingD2Ev@Base 5.1.1
 _ZN17QProximityReading11qt_metacallEN11QMetaObject4CallEiPPv@Base 5.1.1
 _ZN17QProximityReading11qt_metacastEPKc@Base 5.1.1
 _ZN17QProximityReading14copyValuesFromEP14QSensorReading@Base 5.1.1
 _ZN17QProximityReading16staticMetaObjectE@Base 5.1.1
 _ZN17QProximityReading8setCloseEb@Base 5.1.1
 _ZN17QProximityReadingC1EP7QObject@Base 5.1.1
 _ZN17QProximityReadingC2EP7QObject@Base 5.1.1
 _ZN17QProximityReadingD0Ev@Base 5.1.1
 _ZN17QProximityReadingD1Ev@Base 5.1.1
 _ZN17QProximityReadingD2Ev@Base 5.1.1
 _ZN18QIRProximityFilter6filterEP14QSensorReading@Base 5.1.1
 _ZN18QIRProximitySensor11qt_metacallEN11QMetaObject4CallEiPPv@Base 5.1.1
 _ZN18QIRProximitySensor11qt_metacastEPKc@Base 5.1.1
 _ZN18QIRProximitySensor16staticMetaObjectE@Base 5.1.1
 _ZN18QIRProximitySensor4typeE@Base 5.1.1
 _ZN18QIRProximitySensorC1EP7QObject@Base 5.1.1
 _ZN18QIRProximitySensorC2EP7QObject@Base 5.1.1
 _ZN18QIRProximitySensorD0Ev@Base 5.1.1
 _ZN18QIRProximitySensorD1Ev@Base 5.1.1
 _ZN18QIRProximitySensorD2Ev@Base 5.1.1
 _ZN18QOrientationFilter6filterEP14QSensorReading@Base 5.1.1
 _ZN18QOrientationSensor11qt_metacallEN11QMetaObject4CallEiPPv@Base 5.1.1
 _ZN18QOrientationSensor11qt_metacastEPKc@Base 5.1.1
 _ZN18QOrientationSensor16staticMetaObjectE@Base 5.1.1
 _ZN18QOrientationSensor4typeE@Base 5.1.1
 _ZN18QOrientationSensorC1EP7QObject@Base 5.1.1
 _ZN18QOrientationSensorC2EP7QObject@Base 5.1.1
 _ZN18QOrientationSensorD0Ev@Base 5.1.1
 _ZN18QOrientationSensorD1Ev@Base 5.1.1
 _ZN18QOrientationSensorD2Ev@Base 5.1.1
 _ZN19QAmbientLightFilter6filterEP14QSensorReading@Base 5.1.1
 _ZN19QAmbientLightSensor11qt_metacallEN11QMetaObject4CallEiPPv@Base 5.1.1
 _ZN19QAmbientLightSensor11qt_metacastEPKc@Base 5.1.1
 _ZN19QAmbientLightSensor16staticMetaObjectE@Base 5.1.1
 _ZN19QAmbientLightSensor4typeE@Base 5.1.1
 _ZN19QAmbientLightSensorC1EP7QObject@Base 5.1.1
 _ZN19QAmbientLightSensorC2EP7QObject@Base 5.1.1
 _ZN19QAmbientLightSensorD0Ev@Base 5.1.1
 _ZN19QAmbientLightSensorD1Ev@Base 5.1.1
 _ZN19QAmbientLightSensorD2Ev@Base 5.1.1
 _ZN19QIRProximityReading11qt_metacallEN11QMetaObject4CallEiPPv@Base 5.1.1
 _ZN19QIRProximityReading11qt_metacastEPKc@Base 5.1.1
 _ZN19QIRProximityReading14copyValuesFromEP14QSensorReading@Base 5.1.1
 _ZN19QIRProximityReading14setReflectanceEd@Base 5.2.0
 _ZN19QIRProximityReading16staticMetaObjectE@Base 5.1.1
 _ZN19QIRProximityReadingC1EP7QObject@Base 5.1.1
 _ZN19QIRProximityReadingC2EP7QObject@Base 5.1.1
 _ZN19QIRProximityReadingD0Ev@Base 5.1.1
 _ZN19QIRProximityReadingD1Ev@Base 5.1.1
 _ZN19QIRProximityReadingD2Ev@Base 5.1.1
 _ZN19QMagnetometerFilter6filterEP14QSensorReading@Base 5.1.1
 _ZN19QOrientationReading11qt_metacallEN11QMetaObject4CallEiPPv@Base 5.1.1
 _ZN19QOrientationReading11qt_metacastEPKc@Base 5.1.1
 _ZN19QOrientationReading14copyValuesFromEP14QSensorReading@Base 5.1.1
 _ZN19QOrientationReading14setOrientationENS_11OrientationE@Base 5.1.1
 _ZN19QOrientationReading16staticMetaObjectE@Base 5.1.1
 _ZN19QOrientationReadingC1EP7QObject@Base 5.1.1
 _ZN19QOrientationReadingC2EP7QObject@Base 5.1.1
 _ZN19QOrientationReadingD0Ev@Base 5.1.1
 _ZN19QOrientationReadingD1Ev@Base 5.1.1
 _ZN19QOrientationReadingD2Ev@Base 5.1.1
 _ZN20QAccelerometerFilter6filterEP14QSensorReading@Base 5.1.1
 _ZN20QAmbientLightReading11qt_metacallEN11QMetaObject4CallEiPPv@Base 5.1.1
 _ZN20QAmbientLightReading11qt_metacastEPKc@Base 5.1.1
 _ZN20QAmbientLightReading13setLightLevelENS_10LightLevelE@Base 5.1.1
 _ZN20QAmbientLightReading14copyValuesFromEP14QSensorReading@Base 5.1.1
 _ZN20QAmbientLightReading16staticMetaObjectE@Base 5.1.1
 _ZN20QAmbientLightReadingC1EP7QObject@Base 5.1.1
 _ZN20QAmbientLightReadingC2EP7QObject@Base 5.1.1
 _ZN20QAmbientLightReadingD0Ev@Base 5.1.1
 _ZN20QAmbientLightReadingD1Ev@Base 5.1.1
 _ZN20QAmbientLightReadingD2Ev@Base 5.1.1
 _ZN20QMagnetometerReading11qt_metacallEN11QMetaObject4CallEiPPv@Base 5.1.1
 _ZN20QMagnetometerReading11qt_metacastEPKc@Base 5.1.1
 _ZN20QMagnetometerReading14copyValuesFromEP14QSensorReading@Base 5.1.1
 _ZN20QMagnetometerReading16staticMetaObjectE@Base 5.1.1
 _ZN20QMagnetometerReading19setCalibrationLevelEd@Base 5.2.0
 _ZN20QMagnetometerReading4setXEd@Base 5.2.0
 _ZN20QMagnetometerReading4setYEd@Base 5.2.0
 _ZN20QMagnetometerReading4setZEd@Base 5.2.0
 _ZN20QMagnetometerReadingC1EP7QObject@Base 5.1.1
 _ZN20QMagnetometerReadingC2EP7QObject@Base 5.1.1
 _ZN20QMagnetometerReadingD0Ev@Base 5.1.1
 _ZN20QMagnetometerReadingD1Ev@Base 5.1.1
 _ZN20QMagnetometerReadingD2Ev@Base 5.1.1
 _ZN21QAccelerometerReading11qt_metacallEN11QMetaObject4CallEiPPv@Base 5.1.1
 _ZN21QAccelerometerReading11qt_metacastEPKc@Base 5.1.1
 _ZN21QAccelerometerReading14copyValuesFromEP14QSensorReading@Base 5.1.1
 _ZN21QAccelerometerReading16staticMetaObjectE@Base 5.1.1
 _ZN21QAccelerometerReading4setXEd@Base 5.2.0
 _ZN21QAccelerometerReading4setYEd@Base 5.2.0
 _ZN21QAccelerometerReading4setZEd@Base 5.2.0
 _ZN21QAccelerometerReadingC1EP7QObject@Base 5.1.1
 _ZN21QAccelerometerReadingC2EP7QObject@Base 5.1.1
 _ZN21QAccelerometerReadingD0Ev@Base 5.1.1
 _ZN21QAccelerometerReadingD1Ev@Base 5.1.1
 _ZN21QAccelerometerReadingD2Ev@Base 5.1.1
 _ZN21QSensorBackendFactoryD0Ev@Base 5.1.1
 _ZN21QSensorBackendFactoryD1Ev@Base 5.1.1
 _ZN21QSensorBackendFactoryD2Ev@Base 5.1.1
 _ZN21QSensorGestureManager11qt_metacallEN11QMetaObject4CallEiPPv@Base 5.1.1
 _ZN21QSensorGestureManager11qt_metacastEPKc@Base 5.1.1
 _ZN21QSensorGestureManager16staticMetaObjectE@Base 5.1.1
 _ZN21QSensorGestureManager23sensorGestureRecognizerERK7QString@Base 5.1.1
 _ZN21QSensorGestureManager25newSensorGestureAvailableEv@Base 5.1.1
 _ZN21QSensorGestureManager31registerSensorGestureRecognizerEP24QSensorGestureRecognizer@Base 5.1.1
 _ZN21QSensorGestureManagerC1EP7QObject@Base 5.1.1
 _ZN21QSensorGestureManagerC2EP7QObject@Base 5.1.1
 _ZN21QSensorGestureManagerD0Ev@Base 5.1.1
 _ZN21QSensorGestureManagerD1Ev@Base 5.1.1
 _ZN21QSensorGestureManagerD2Ev@Base 5.1.1
 _ZN22QSensorPluginInterfaceD0Ev@Base 5.1.1
 _ZN22QSensorPluginInterfaceD1Ev@Base 5.1.1
 _ZN22QSensorPluginInterfaceD2Ev@Base 5.1.1
 _ZN23QSensorChangesInterfaceD0Ev@Base 5.1.1
 _ZN23QSensorChangesInterfaceD1Ev@Base 5.1.1
 _ZN23QSensorChangesInterfaceD2Ev@Base 5.1.1
 _ZN24QSensorGestureRecognizer11qt_metacallEN11QMetaObject4CallEiPPv@Base 5.1.1
 _ZN24QSensorGestureRecognizer11qt_metacastEPKc@Base 5.1.1
 _ZN24QSensorGestureRecognizer11stopBackendEv@Base 5.1.1
 _ZN24QSensorGestureRecognizer12startBackendEv@Base 5.1.1
 _ZN24QSensorGestureRecognizer13createBackendEv@Base 5.1.1
 _ZN24QSensorGestureRecognizer16staticMetaObjectE@Base 5.1.1
 _ZN24QSensorGestureRecognizer8detectedERK7QString@Base 5.1.1
 _ZN24QSensorGestureRecognizerC1EP7QObject@Base 5.1.1
 _ZN24QSensorGestureRecognizerC2EP7QObject@Base 5.1.1
 _ZN24QSensorGestureRecognizerD0Ev@Base 5.1.1
 _ZN24QSensorGestureRecognizerD1Ev@Base 5.1.1
 _ZN24QSensorGestureRecognizerD2Ev@Base 5.1.1
 _ZN25QAmbientTemperatureFilter6filterEP14QSensorReading@Base 5.1.1
 _ZN25QAmbientTemperatureSensor11qt_metacallEN11QMetaObject4CallEiPPv@Base 5.1.1
 _ZN25QAmbientTemperatureSensor11qt_metacastEPKc@Base 5.1.1
 _ZN25QAmbientTemperatureSensor16staticMetaObjectE@Base 5.1.1
 _ZN25QAmbientTemperatureSensor4typeE@Base 5.1.1
 _ZN25QAmbientTemperatureSensorC1EP7QObject@Base 5.1.1
 _ZN25QAmbientTemperatureSensorC2EP7QObject@Base 5.1.1
 _ZN25QAmbientTemperatureSensorD0Ev@Base 5.1.1
 _ZN25QAmbientTemperatureSensorD1Ev@Base 5.1.1
 _ZN25QAmbientTemperatureSensorD2Ev@Base 5.1.1
 _ZN26QAmbientTemperatureReading11qt_metacallEN11QMetaObject4CallEiPPv@Base 5.1.1
 _ZN26QAmbientTemperatureReading11qt_metacastEPKc@Base 5.1.1
 _ZN26QAmbientTemperatureReading14copyValuesFromEP14QSensorReading@Base 5.1.1
 _ZN26QAmbientTemperatureReading14setTemperatureEd@Base 5.2.0
 _ZN26QAmbientTemperatureReading16staticMetaObjectE@Base 5.1.1
 _ZN26QAmbientTemperatureReadingC1EP7QObject@Base 5.1.1
 _ZN26QAmbientTemperatureReadingC2EP7QObject@Base 5.1.1
 _ZN26QAmbientTemperatureReadingD0Ev@Base 5.1.1
 _ZN26QAmbientTemperatureReadingD1Ev@Base 5.1.1
 _ZN26QAmbientTemperatureReadingD2Ev@Base 5.1.1
 _ZN29QSensorGesturePluginInterfaceC1Ev@Base 5.1.1
 _ZN29QSensorGesturePluginInterfaceC2Ev@Base 5.1.1
 _ZN29QSensorGesturePluginInterfaceD0Ev@Base 5.1.1
 _ZN29QSensorGesturePluginInterfaceD1Ev@Base 5.1.1
 _ZN29QSensorGesturePluginInterfaceD2Ev@Base 5.1.1
 _ZN7QSensor11busyChangedEv@Base 5.1.1
 _ZN7QSensor11qt_metacallEN11QMetaObject4CallEiPPv@Base 5.1.1
 _ZN7QSensor11qt_metacastEPKc@Base 5.1.1
 _ZN7QSensor11sensorErrorEi@Base 5.1.1
 _ZN7QSensor11sensorTypesEv@Base 5.1.1
 _ZN7QSensor11setAlwaysOnEb@Base 5.1.1
 _ZN7QSensor11setDataRateEi@Base 5.1.1
 _ZN7QSensor12removeFilterEP13QSensorFilter@Base 5.1.1
 _ZN7QSensor13activeChangedEv@Base 5.1.1
 _ZN7QSensor13setBufferSizeEi@Base 5.1.1
 _ZN7QSensor13setIdentifierERK10QByteArray@Base 5.1.1
 _ZN7QSensor14readingChangedEv@Base 5.1.1
 _ZN7QSensor14sensorsForTypeERK10QByteArray@Base 5.1.1
 _ZN7QSensor14setOutputRangeEi@Base 5.1.1
 _ZN7QSensor15alwaysOnChangedEv@Base 5.1.1
 _ZN7QSensor15dataRateChangedEv@Base 5.1.1
 _ZN7QSensor16connectToBackendEv@Base 5.1.1
 _ZN7QSensor16registerInstanceEv@Base 5.1.1
 _ZN7QSensor16setMaxBufferSizeEi@Base 5.1.1
 _ZN7QSensor16staticMetaObjectE@Base 5.1.1
 _ZN7QSensor17bufferSizeChangedEi@Base 5.1.1
 _ZN7QSensor17setSkipDuplicatesEb@Base 5.1.1
 _ZN7QSensor18setUserOrientationEi@Base 5.1.1
 _ZN7QSensor20defaultSensorForTypeERK10QByteArray@Base 5.1.1
 _ZN7QSensor20maxBufferSizeChangedEi@Base 5.1.1
 _ZN7QSensor21setCurrentOrientationEi@Base 5.1.1
 _ZN7QSensor21skipDuplicatesChangedEb@Base 5.1.1
 _ZN7QSensor22setAxesOrientationModeENS_19AxesOrientationModeE@Base 5.1.1
 _ZN7QSensor22setEfficientBufferSizeEi@Base 5.1.1
 _ZN7QSensor22userOrientationChangedEi@Base 5.1.1
 _ZN7QSensor23availableSensorsChangedEv@Base 5.1.1
 _ZN7QSensor25currentOrientationChangedEi@Base 5.1.1
 _ZN7QSensor26axesOrientationModeChangedENS_19AxesOrientationModeE@Base 5.1.1
 _ZN7QSensor26efficientBufferSizeChangedEi@Base 5.1.1
 _ZN7QSensor4stopEv@Base 5.1.1
 _ZN7QSensor5startEv@Base 5.1.1
 _ZN7QSensor9addFilterEP13QSensorFilter@Base 5.1.1
 _ZN7QSensor9setActiveEb@Base 5.1.1
 _ZN7QSensorC1ERK10QByteArrayP7QObject@Base 5.1.1
 _ZN7QSensorC1ERK10QByteArrayR14QSensorPrivateP7QObject@Base 5.1.1
 _ZN7QSensorC2ERK10QByteArrayP7QObject@Base 5.1.1
 _ZN7QSensorC2ERK10QByteArrayR14QSensorPrivateP7QObject@Base 5.1.1
 _ZN7QSensorD0Ev@Base 5.1.1
 _ZN7QSensorD1Ev@Base 5.1.1
 _ZN7QSensorD2Ev@Base 5.1.1
 _ZN8QCompass11qt_metacallEN11QMetaObject4CallEiPPv@Base 5.1.1
 _ZN8QCompass11qt_metacastEPKc@Base 5.1.1
 _ZN8QCompass16staticMetaObjectE@Base 5.1.1
 _ZN8QCompass4typeE@Base 5.1.1
 _ZN8QCompassC1EP7QObject@Base 5.1.1
 _ZN8QCompassC2EP7QObject@Base 5.1.1
 _ZN8QCompassD0Ev@Base 5.1.1
 _ZN8QCompassD1Ev@Base 5.1.1
 _ZN8QCompassD2Ev@Base 5.1.1
 _ZNK10QAltimeter10metaObjectEv@Base 5.1.1
 _ZNK10QAltimeter7readingEv@Base 5.1.1
 _ZNK10QGyroscope10metaObjectEv@Base 5.1.1
 _ZNK10QGyroscope7readingEv@Base 5.1.1
 _ZNK10QTapSensor10metaObjectEv@Base 5.1.1
 _ZNK10QTapSensor21returnDoubleTapEventsEv@Base 5.1.1
 _ZNK10QTapSensor7readingEv@Base 5.1.1
 _ZNK11QTapReading10metaObjectEv@Base 5.1.1
 _ZNK11QTapReading11isDoubleTapEv@Base 5.1.1
 _ZNK11QTapReading12tapDirectionEv@Base 5.1.1
 _ZNK11QTiltSensor10metaObjectEv@Base 5.1.1
 _ZNK11QTiltSensor7readingEv@Base 5.1.1
 _ZNK12QLightSensor10metaObjectEv@Base 5.1.1
 _ZNK12QLightSensor11fieldOfViewEv@Base 5.1.1
 _ZNK12QLightSensor7readingEv@Base 5.1.1
 _ZNK12QTiltReading10metaObjectEv@Base 5.1.1
 _ZNK12QTiltReading9xRotationEv@Base 5.1.1
 _ZNK12QTiltReading9yRotationEv@Base 5.1.1
 _ZNK13QLightReading10metaObjectEv@Base 5.1.1
 _ZNK13QLightReading3luxEv@Base 5.1.1
 _ZNK13QMagnetometer10metaObjectEv@Base 5.1.1
 _ZNK13QMagnetometer15returnGeoValuesEv@Base 5.1.1
 _ZNK13QMagnetometer7readingEv@Base 5.1.1
 _ZNK14QAccelerometer10metaObjectEv@Base 5.1.1
 _ZNK14QAccelerometer16accelerationModeEv@Base 5.1.1
 _ZNK14QAccelerometer7readingEv@Base 5.1.1
 _ZNK14QHolsterSensor10metaObjectEv@Base 5.1.1
 _ZNK14QHolsterSensor7readingEv@Base 5.1.1
 _ZNK14QSensorBackend10metaObjectEv@Base 5.1.1
 _ZNK14QSensorBackend18isFeatureSupportedEN7QSensor7FeatureE@Base 5.1.1
 _ZNK14QSensorBackend6sensorEv@Base 5.1.1
 _ZNK14QSensorBackend7readingEv@Base 5.1.1
 _ZNK14QSensorGesture10invalidIdsEv@Base 5.1.1
 _ZNK14QSensorGesture10metaObjectEv@Base 5.1.1
 _ZNK14QSensorGesture14gestureSignalsEv@Base 5.1.1
 _ZNK14QSensorGesture8validIdsEv@Base 5.1.1
 _ZNK14QSensorReading10metaObjectEv@Base 5.1.1
 _ZNK14QSensorReading10valueCountEv@Base 5.1.1
 _ZNK14QSensorReading5valueEi@Base 5.1.1
 _ZNK14QSensorReading9timestampEv@Base 5.1.1
 _ZNK15QCompassReading10metaObjectEv@Base 5.1.1
 _ZNK15QCompassReading16calibrationLevelEv@Base 5.1.1
 _ZNK15QCompassReading7azimuthEv@Base 5.1.1
 _ZNK15QDistanceSensor10metaObjectEv@Base 5.4.0
 _ZNK15QDistanceSensor7readingEv@Base 5.4.0
 _ZNK15QHolsterReading10metaObjectEv@Base 5.1.1
 _ZNK15QHolsterReading9holsteredEv@Base 5.1.1
 _ZNK15QPressureSensor10metaObjectEv@Base 5.1.1
 _ZNK15QPressureSensor7readingEv@Base 5.1.1
 _ZNK15QRotationSensor10metaObjectEv@Base 5.1.1
 _ZNK15QRotationSensor4hasZEv@Base 5.1.1
 _ZNK15QRotationSensor7readingEv@Base 5.1.1
 _ZNK16QDistanceReading10metaObjectEv@Base 5.4.0
 _ZNK16QDistanceReading8distanceEv@Base 5.4.0
 _ZNK16QPressureReading10metaObjectEv@Base 5.1.1
 _ZNK16QPressureReading11temperatureEv@Base 5.2.0~beta1
 _ZNK16QPressureReading8pressureEv@Base 5.1.1
 _ZNK16QProximitySensor10metaObjectEv@Base 5.1.1
 _ZNK16QProximitySensor7readingEv@Base 5.1.1
 _ZNK16QRotationReading10metaObjectEv@Base 5.1.1
 _ZNK16QRotationReading1xEv@Base 5.1.1
 _ZNK16QRotationReading1yEv@Base 5.1.1
 _ZNK16QRotationReading1zEv@Base 5.1.1
 _ZNK17QAltimeterReading10metaObjectEv@Base 5.1.1
 _ZNK17QAltimeterReading8altitudeEv@Base 5.1.1
 _ZNK17QGyroscopeReading10metaObjectEv@Base 5.1.1
 _ZNK17QGyroscopeReading1xEv@Base 5.1.1
 _ZNK17QGyroscopeReading1yEv@Base 5.1.1
 _ZNK17QGyroscopeReading1zEv@Base 5.1.1
 _ZNK17QProximityReading10metaObjectEv@Base 5.1.1
 _ZNK17QProximityReading5closeEv@Base 5.1.1
 _ZNK18QIRProximitySensor10metaObjectEv@Base 5.1.1
 _ZNK18QIRProximitySensor7readingEv@Base 5.1.1
 _ZNK18QOrientationSensor10metaObjectEv@Base 5.1.1
 _ZNK18QOrientationSensor7readingEv@Base 5.1.1
 _ZNK19QAmbientLightSensor10metaObjectEv@Base 5.1.1
 _ZNK19QAmbientLightSensor7readingEv@Base 5.1.1
 _ZNK19QIRProximityReading10metaObjectEv@Base 5.1.1
 _ZNK19QIRProximityReading11reflectanceEv@Base 5.1.1
 _ZNK19QOrientationReading10metaObjectEv@Base 5.1.1
 _ZNK19QOrientationReading11orientationEv@Base 5.1.1
 _ZNK20QAmbientLightReading10lightLevelEv@Base 5.1.1
 _ZNK20QAmbientLightReading10metaObjectEv@Base 5.1.1
 _ZNK20QMagnetometerReading10metaObjectEv@Base 5.1.1
 _ZNK20QMagnetometerReading16calibrationLevelEv@Base 5.1.1
 _ZNK20QMagnetometerReading1xEv@Base 5.1.1
 _ZNK20QMagnetometerReading1yEv@Base 5.1.1
 _ZNK20QMagnetometerReading1zEv@Base 5.1.1
 _ZNK21QAccelerometerReading10metaObjectEv@Base 5.1.1
 _ZNK21QAccelerometerReading1xEv@Base 5.1.1
 _ZNK21QAccelerometerReading1yEv@Base 5.1.1
 _ZNK21QAccelerometerReading1zEv@Base 5.1.1
 _ZNK21QSensorGestureManager10gestureIdsEv@Base 5.1.1
 _ZNK21QSensorGestureManager10metaObjectEv@Base 5.1.1
 _ZNK21QSensorGestureManager17recognizerSignalsERK7QString@Base 5.1.1
 _ZNK24QSensorGestureRecognizer10metaObjectEv@Base 5.1.1
 _ZNK24QSensorGestureRecognizer14gestureSignalsEv@Base 5.1.1
 _ZNK25QAmbientTemperatureSensor10metaObjectEv@Base 5.1.1
 _ZNK25QAmbientTemperatureSensor7readingEv@Base 5.1.1
 _ZNK26QAmbientTemperatureReading10metaObjectEv@Base 5.1.1
 _ZNK26QAmbientTemperatureReading11temperatureEv@Base 5.1.1
 _ZNK7QSensor10bufferSizeEv@Base 5.1.1
 _ZNK7QSensor10identifierEv@Base 5.1.1
 _ZNK7QSensor10isAlwaysOnEv@Base 5.1.1
 _ZNK7QSensor10metaObjectEv@Base 5.1.1
 _ZNK7QSensor11descriptionEv@Base 5.1.1
 _ZNK7QSensor11outputRangeEv@Base 5.1.1
 _ZNK7QSensor12outputRangesEv@Base 5.1.1
 _ZNK7QSensor13maxBufferSizeEv@Base 5.1.1
 _ZNK7QSensor14skipDuplicatesEv@Base 5.1.1
 _ZNK7QSensor15userOrientationEv@Base 5.1.1
 _ZNK7QSensor18availableDataRatesEv@Base 5.1.1
 _ZNK7QSensor18currentOrientationEv@Base 5.1.1
 _ZNK7QSensor18isFeatureSupportedENS_7FeatureE@Base 5.1.1
 _ZNK7QSensor19axesOrientationModeEv@Base 5.1.1
 _ZNK7QSensor19efficientBufferSizeEv@Base 5.1.1
 _ZNK7QSensor20isConnectedToBackendEv@Base 5.1.1
 _ZNK7QSensor4typeEv@Base 5.1.1
 _ZNK7QSensor5errorEv@Base 5.1.1
 _ZNK7QSensor6isBusyEv@Base 5.1.1
 _ZNK7QSensor7backendEv@Base 5.1.1
 _ZNK7QSensor7filtersEv@Base 5.1.1
 _ZNK7QSensor7readingEv@Base 5.1.1
 _ZNK7QSensor8dataRateEv@Base 5.1.1
 _ZNK7QSensor8isActiveEv@Base 5.1.1
 _ZNK8QCompass10metaObjectEv@Base 5.1.1
 _ZNK8QCompass7readingEv@Base 5.1.1
 _ZTI10QAltimeter@Base 5.1.1
 _ZTI10QGyroscope@Base 5.1.1
 _ZTI10QTapFilter@Base 5.1.1
 _ZTI10QTapSensor@Base 5.1.1
 _ZTI11QTapReading@Base 5.1.1
 _ZTI11QTiltFilter@Base 5.1.1
 _ZTI11QTiltSensor@Base 5.1.1
 _ZTI12QLightFilter@Base 5.1.1
 _ZTI12QLightSensor@Base 5.1.1
 _ZTI12QTiltReading@Base 5.1.1
 _ZTI13QLightReading@Base 5.1.1
 _ZTI13QMagnetometer@Base 5.1.1
 _ZTI13QSensorFilter@Base 5.1.1
 _ZTI14QAccelerometer@Base 5.1.1
 _ZTI14QCompassFilter@Base 5.1.1
 _ZTI14QHolsterFilter@Base 5.1.1
 _ZTI14QHolsterSensor@Base 5.1.1
 _ZTI14QSensorBackend@Base 5.1.1
 _ZTI14QSensorGesture@Base 5.1.1
 _ZTI14QSensorReading@Base 5.1.1
 _ZTI15QCompassReading@Base 5.1.1
 _ZTI15QDistanceFilter@Base 5.4.0
 _ZTI15QDistanceSensor@Base 5.4.0
 _ZTI15QHolsterReading@Base 5.1.1
 _ZTI15QPressureFilter@Base 5.1.1
 _ZTI15QPressureSensor@Base 5.1.1
 _ZTI15QRotationFilter@Base 5.1.1
 _ZTI15QRotationSensor@Base 5.1.1
 _ZTI16QAltimeterFilter@Base 5.1.1
 _ZTI16QDistanceReading@Base 5.4.0
 _ZTI16QGyroscopeFilter@Base 5.1.1
 _ZTI16QPressureReading@Base 5.1.1
 _ZTI16QProximityFilter@Base 5.1.1
 _ZTI16QProximitySensor@Base 5.1.1
 _ZTI16QRotationReading@Base 5.1.1
 _ZTI17QAltimeterReading@Base 5.1.1
 _ZTI17QGyroscopeReading@Base 5.1.1
 _ZTI17QProximityReading@Base 5.1.1
 _ZTI18QIRProximityFilter@Base 5.1.1
 _ZTI18QIRProximitySensor@Base 5.1.1
 _ZTI18QOrientationFilter@Base 5.1.1
 _ZTI18QOrientationSensor@Base 5.1.1
 _ZTI19QAmbientLightFilter@Base 5.1.1
 _ZTI19QAmbientLightSensor@Base 5.1.1
 _ZTI19QIRProximityReading@Base 5.1.1
 _ZTI19QMagnetometerFilter@Base 5.1.1
 _ZTI19QOrientationReading@Base 5.1.1
 _ZTI20QAccelerometerFilter@Base 5.1.1
 _ZTI20QAmbientLightReading@Base 5.1.1
 _ZTI20QMagnetometerReading@Base 5.1.1
 _ZTI21QAccelerometerReading@Base 5.1.1
 _ZTI21QSensorBackendFactory@Base 5.1.1
 _ZTI21QSensorGestureManager@Base 5.1.1
 _ZTI22QSensorPluginInterface@Base 5.1.1
 _ZTI23QSensorChangesInterface@Base 5.1.1
 _ZTI24QSensorGestureRecognizer@Base 5.1.1
 _ZTI25QAmbientTemperatureFilter@Base 5.1.1
 _ZTI25QAmbientTemperatureSensor@Base 5.1.1
 _ZTI26QAmbientTemperatureReading@Base 5.1.1
 _ZTI29QSensorGesturePluginInterface@Base 5.1.1
 _ZTI7QSensor@Base 5.1.1
 _ZTI8QCompass@Base 5.1.1
 _ZTS10QAltimeter@Base 5.1.1
 _ZTS10QGyroscope@Base 5.1.1
 _ZTS10QTapFilter@Base 5.1.1
 _ZTS10QTapSensor@Base 5.1.1
 _ZTS11QTapReading@Base 5.1.1
 _ZTS11QTiltFilter@Base 5.1.1
 _ZTS11QTiltSensor@Base 5.1.1
 _ZTS12QLightFilter@Base 5.1.1
 _ZTS12QLightSensor@Base 5.1.1
 _ZTS12QTiltReading@Base 5.1.1
 _ZTS13QLightReading@Base 5.1.1
 _ZTS13QMagnetometer@Base 5.1.1
 _ZTS13QSensorFilter@Base 5.1.1
 _ZTS14QAccelerometer@Base 5.1.1
 _ZTS14QCompassFilter@Base 5.1.1
 _ZTS14QHolsterFilter@Base 5.1.1
 _ZTS14QHolsterSensor@Base 5.1.1
 _ZTS14QSensorBackend@Base 5.1.1
 _ZTS14QSensorGesture@Base 5.1.1
 _ZTS14QSensorReading@Base 5.1.1
 _ZTS15QCompassReading@Base 5.1.1
 _ZTS15QDistanceFilter@Base 5.4.0
 _ZTS15QDistanceSensor@Base 5.4.0
 _ZTS15QHolsterReading@Base 5.1.1
 _ZTS15QPressureFilter@Base 5.1.1
 _ZTS15QPressureSensor@Base 5.1.1
 _ZTS15QRotationFilter@Base 5.1.1
 _ZTS15QRotationSensor@Base 5.1.1
 _ZTS16QAltimeterFilter@Base 5.1.1
 _ZTS16QDistanceReading@Base 5.4.0
 _ZTS16QGyroscopeFilter@Base 5.1.1
 _ZTS16QPressureReading@Base 5.1.1
 _ZTS16QProximityFilter@Base 5.1.1
 _ZTS16QProximitySensor@Base 5.1.1
 _ZTS16QRotationReading@Base 5.1.1
 _ZTS17QAltimeterReading@Base 5.1.1
 _ZTS17QGyroscopeReading@Base 5.1.1
 _ZTS17QProximityReading@Base 5.1.1
 _ZTS18QIRProximityFilter@Base 5.1.1
 _ZTS18QIRProximitySensor@Base 5.1.1
 _ZTS18QOrientationFilter@Base 5.1.1
 _ZTS18QOrientationSensor@Base 5.1.1
 _ZTS19QAmbientLightFilter@Base 5.1.1
 _ZTS19QAmbientLightSensor@Base 5.1.1
 _ZTS19QIRProximityReading@Base 5.1.1
 _ZTS19QMagnetometerFilter@Base 5.1.1
 _ZTS19QOrientationReading@Base 5.1.1
 _ZTS20QAccelerometerFilter@Base 5.1.1
 _ZTS20QAmbientLightReading@Base 5.1.1
 _ZTS20QMagnetometerReading@Base 5.1.1
 _ZTS21QAccelerometerReading@Base 5.1.1
 _ZTS21QSensorBackendFactory@Base 5.1.1
 _ZTS21QSensorGestureManager@Base 5.1.1
 _ZTS22QSensorPluginInterface@Base 5.1.1
 _ZTS23QSensorChangesInterface@Base 5.1.1
 _ZTS24QSensorGestureRecognizer@Base 5.1.1
 _ZTS25QAmbientTemperatureFilter@Base 5.1.1
 _ZTS25QAmbientTemperatureSensor@Base 5.1.1
 _ZTS26QAmbientTemperatureReading@Base 5.1.1
 _ZTS29QSensorGesturePluginInterface@Base 5.1.1
 _ZTS7QSensor@Base 5.1.1
 _ZTS8QCompass@Base 5.1.1
 _ZTV10QAltimeter@Base 5.1.1
 _ZTV10QGyroscope@Base 5.1.1
 _ZTV10QTapFilter@Base 5.1.1
 _ZTV10QTapSensor@Base 5.1.1
 _ZTV11QTapReading@Base 5.1.1
 _ZTV11QTiltFilter@Base 5.1.1
 _ZTV11QTiltSensor@Base 5.1.1
 _ZTV12QLightFilter@Base 5.1.1
 _ZTV12QLightSensor@Base 5.1.1
 _ZTV12QTiltReading@Base 5.1.1
 _ZTV13QLightReading@Base 5.1.1
 _ZTV13QMagnetometer@Base 5.1.1
 _ZTV13QSensorFilter@Base 5.1.1
 _ZTV14QAccelerometer@Base 5.1.1
 _ZTV14QCompassFilter@Base 5.1.1
 _ZTV14QHolsterFilter@Base 5.1.1
 _ZTV14QHolsterSensor@Base 5.1.1
 _ZTV14QSensorBackend@Base 5.1.1
 _ZTV14QSensorGesture@Base 5.1.1
 _ZTV14QSensorReading@Base 5.1.1
 _ZTV15QCompassReading@Base 5.1.1
 _ZTV15QDistanceFilter@Base 5.4.0
 _ZTV15QDistanceSensor@Base 5.4.0
 _ZTV15QHolsterReading@Base 5.1.1
 _ZTV15QPressureFilter@Base 5.1.1
 _ZTV15QPressureSensor@Base 5.1.1
 _ZTV15QRotationFilter@Base 5.1.1
 _ZTV15QRotationSensor@Base 5.1.1
 _ZTV16QAltimeterFilter@Base 5.1.1
 _ZTV16QDistanceReading@Base 5.4.0
 _ZTV16QGyroscopeFilter@Base 5.1.1
 _ZTV16QPressureReading@Base 5.1.1
 _ZTV16QProximityFilter@Base 5.1.1
 _ZTV16QProximitySensor@Base 5.1.1
 _ZTV16QRotationReading@Base 5.1.1
 _ZTV17QAltimeterReading@Base 5.1.1
 _ZTV17QGyroscopeReading@Base 5.1.1
 _ZTV17QProximityReading@Base 5.1.1
 _ZTV18QIRProximityFilter@Base 5.1.1
 _ZTV18QIRProximitySensor@Base 5.1.1
 _ZTV18QOrientationFilter@Base 5.1.1
 _ZTV18QOrientationSensor@Base 5.1.1
 _ZTV19QAmbientLightFilter@Base 5.1.1
 _ZTV19QAmbientLightSensor@Base 5.1.1
 _ZTV19QIRProximityReading@Base 5.1.1
 _ZTV19QMagnetometerFilter@Base 5.1.1
 _ZTV19QOrientationReading@Base 5.1.1
 _ZTV20QAccelerometerFilter@Base 5.1.1
 _ZTV20QAmbientLightReading@Base 5.1.1
 _ZTV20QMagnetometerReading@Base 5.1.1
 _ZTV21QAccelerometerReading@Base 5.1.1
 _ZTV21QSensorBackendFactory@Base 5.1.1
 _ZTV21QSensorGestureManager@Base 5.1.1
 _ZTV22QSensorPluginInterface@Base 5.1.1
 _ZTV23QSensorChangesInterface@Base 5.1.1
 _ZTV24QSensorGestureRecognizer@Base 5.1.1
 _ZTV25QAmbientTemperatureFilter@Base 5.1.1
 _ZTV25QAmbientTemperatureSensor@Base 5.1.1
 _ZTV26QAmbientTemperatureReading@Base 5.1.1
 _ZTV29QSensorGesturePluginInterface@Base 5.1.1
 _ZTV7QSensor@Base 5.1.1
 _ZTV8QCompass@Base 5.1.1
