# SymbolsHelper-Confirmed: 5.3.2 armhf powerpc
libQt5Declarative.so.5 libqt5declarative5 #MINVER#
| libqt5declarative5 #MINVER#, qtquick1-abi-5-2-1
 _Z10qmlContextPK7QObject@Base 5.0.2
 _Z18qmlExecuteDeferredP7QObject@Base 5.0.2
 _Z27qmlAttachedPropertiesObjectPiPK7QObjectPK11QMetaObjectb@Base 5.0.2
 _Z31qmlAttachedPropertiesObjectByIdiPK7QObjectb@Base 5.0.2
 _Z7qmlInfoPK7QObject@Base 5.0.2
 _Z7qmlInfoPK7QObjectRK17QDeclarativeError@Base 5.0.2
 _Z7qmlInfoPK7QObjectRK5QListI17QDeclarativeErrorE@Base 5.0.2
 _Z9qmlEnginePK7QObject@Base 5.0.2
 (optional=inline|arch=alpha arm64 armel hppa powerpc ppc64 ppc64el s390x sparc64)_ZN10QByteArray7reserveEi@Base 5.3.0
 _ZN13QtDeclarative10qmlContextEPK7QObject@Base 5.1.0
 _ZN13QtDeclarative18qmlExecuteDeferredEP7QObject@Base 5.1.0
 _ZN13QtDeclarative27qmlAttachedPropertiesObjectEPiPK7QObjectPK11QMetaObjectb@Base 5.1.0
 _ZN13QtDeclarative31qmlAttachedPropertiesObjectByIdEiPK7QObjectb@Base 5.1.0
 _ZN13QtDeclarative7qmlInfoEPK7QObject@Base 5.1.0
 _ZN13QtDeclarative7qmlInfoEPK7QObjectRK17QDeclarativeError@Base 5.1.0
 _ZN13QtDeclarative7qmlInfoEPK7QObjectRK5QListI17QDeclarativeErrorE@Base 5.1.0
 _ZN13QtDeclarative9qmlEngineEPK7QObject@Base 5.1.0
 _ZN15QDeclarativePen10penChangedEv@Base 5.0.2 1
 _ZN15QDeclarativePen11qt_metacallEN11QMetaObject4CallEiPPv@Base 5.0.2 1
 _ZN15QDeclarativePen11qt_metacastEPKc@Base 5.0.2 1
 _ZN15QDeclarativePen16staticMetaObjectE@Base 5.0.2 1
 _ZN15QDeclarativePen8setColorERK6QColor@Base 5.0.2 1
 _ZN15QDeclarativePen8setWidthEi@Base 5.0.2 1
 (optional=gccinternal)_ZN15QDeclarativePenD0Ev@Base 5.0.2 1
 (optional=gccinternal)_ZN15QDeclarativePenD1Ev@Base 5.0.2 1
 (optional=gccinternal)_ZN15QDeclarativePenD2Ev@Base 5.0.2 1
 _ZN15QPacketAutoSendC1EP15QPacketProtocol@Base 5.0.2 1
 _ZN15QPacketAutoSendC2EP15QPacketProtocol@Base 5.0.2 1
 _ZN15QPacketAutoSendD0Ev@Base 5.0.2 1
 _ZN15QPacketAutoSendD1Ev@Base 5.0.2 1
 _ZN15QPacketAutoSendD2Ev@Base 5.0.2 1
 _ZN15QPacketProtocol11qt_metacallEN11QMetaObject4CallEiPPv@Base 5.0.2 1
 _ZN15QPacketProtocol11qt_metacastEPKc@Base 5.0.2 1
 _ZN15QPacketProtocol13invalidPacketEv@Base 5.0.2 1
 _ZN15QPacketProtocol13packetWrittenEv@Base 5.0.2 1
 _ZN15QPacketProtocol16staticMetaObjectE@Base 5.0.2 1
 _ZN15QPacketProtocol16waitForReadyReadEi@Base 5.0.2 1
 _ZN15QPacketProtocol20setMaximumPacketSizeEi@Base 5.0.2 1
 _ZN15QPacketProtocol4readEv@Base 5.0.2 1
 _ZN15QPacketProtocol4sendERK7QPacket@Base 5.0.2 1
 _ZN15QPacketProtocol4sendEv@Base 5.0.2 1
 _ZN15QPacketProtocol5clearEv@Base 5.0.2 1
 _ZN15QPacketProtocol6deviceEv@Base 5.0.2 1
 _ZN15QPacketProtocol9readyReadEv@Base 5.0.2 1
 _ZN15QPacketProtocolC1EP9QIODeviceP7QObject@Base 5.0.2 1
 _ZN15QPacketProtocolC2EP9QIODeviceP7QObject@Base 5.0.2 1
 _ZN15QPacketProtocolD0Ev@Base 5.0.2 1
 _ZN15QPacketProtocolD1Ev@Base 5.0.2 1
 _ZN15QPacketProtocolD2Ev@Base 5.0.2 1
 _ZN16QDeclarativeInfoC1EP23QDeclarativeInfoPrivate@Base 5.0.2
 _ZN16QDeclarativeInfoC1ERKS_@Base 5.0.2
 _ZN16QDeclarativeInfoC2EP23QDeclarativeInfoPrivate@Base 5.0.2
 _ZN16QDeclarativeInfoC2ERKS_@Base 5.0.2
 _ZN16QDeclarativeInfoD1Ev@Base 5.0.2
 _ZN16QDeclarativeInfoD2Ev@Base 5.0.2
 _ZN16QDeclarativeItem10classBeginEv@Base 5.0.2
 _ZN16QDeclarativeItem10itemChangeEN13QGraphicsItem18GraphicsItemChangeERK8QVariant@Base 5.0.2
 _ZN16QDeclarativeItem10resetWidthEv@Base 5.0.2
 _ZN16QDeclarativeItem10sceneEventEP6QEvent@Base 5.0.2
 _ZN16QDeclarativeItem11clipChangedEb@Base 5.0.2
 _ZN16QDeclarativeItem11qt_metacallEN11QMetaObject4CallEiPPv@Base 5.0.2
 _ZN16QDeclarativeItem11qt_metacastEPKc@Base 5.0.2
 _ZN16QDeclarativeItem11resetHeightEv@Base 5.0.2
 _ZN16QDeclarativeItem12childrenRectEv@Base 5.0.2
 _ZN16QDeclarativeItem12focusChangedEb@Base 5.0.2
 _ZN16QDeclarativeItem12stateChangedERK7QString@Base 5.0.2
 _ZN16QDeclarativeItem13keyPressEventEP9QKeyEvent@Base 5.0.2
 _ZN16QDeclarativeItem13parentChangedEPS_@Base 5.0.2
 _ZN16QDeclarativeItem13setParentItemEPS_@Base 5.0.2
 _ZN16QDeclarativeItem13smoothChangedEb@Base 5.0.2
 _ZN16QDeclarativeItem15geometryChangedERK6QRectFS2_@Base 5.0.2
 _ZN16QDeclarativeItem15keyReleaseEventEP9QKeyEvent@Base 5.0.2
 _ZN16QDeclarativeItem16forceActiveFocusEv@Base 5.0.2
 _ZN16QDeclarativeItem16inputMethodEventEP17QInputMethodEvent@Base 5.0.2
 _ZN16QDeclarativeItem16setImplicitWidthEd@Base 5.2.0
 _ZN16QDeclarativeItem16setKeepMouseGrabEb@Base 5.0.2
 _ZN16QDeclarativeItem16staticMetaObjectE@Base 5.0.2
 _ZN16QDeclarativeItem17componentCompleteEv@Base 5.0.2
 _ZN16QDeclarativeItem17setBaselineOffsetEd@Base 5.2.0
 _ZN16QDeclarativeItem17setImplicitHeightEd@Base 5.2.0
 _ZN16QDeclarativeItem18activeFocusChangedEb@Base 5.0.2
 _ZN16QDeclarativeItem18keyPressPreHandlerEP9QKeyEvent@Base 5.0.2
 _ZN16QDeclarativeItem18setTransformOriginENS_15TransformOriginE@Base 5.0.2
 _ZN16QDeclarativeItem19childrenRectChangedERK6QRectF@Base 5.0.2
 _ZN16QDeclarativeItem20implicitWidthChangedEv@Base 5.0.2
 _ZN16QDeclarativeItem20keyReleasePreHandlerEP9QKeyEvent@Base 5.0.2
 _ZN16QDeclarativeItem21baselineOffsetChangedEd@Base 5.2.0
 _ZN16QDeclarativeItem21implicitHeightChangedEv@Base 5.0.2
 _ZN16QDeclarativeItem21inputMethodPreHandlerEP17QInputMethodEvent@Base 5.0.2
 _ZN16QDeclarativeItem22transformOriginChangedENS_15TransformOriginE@Base 5.0.2
 _ZN16QDeclarativeItem5eventEP6QEvent@Base 5.0.2
 _ZN16QDeclarativeItem5paintEP8QPainterPK24QStyleOptionGraphicsItemP7QWidget@Base 5.0.2
 _ZN16QDeclarativeItem7setClipEb@Base 5.0.2
 _ZN16QDeclarativeItem7setSizeERK6QSizeF@Base 5.0.2
 _ZN16QDeclarativeItem8setFocusEb@Base 5.0.2
 _ZN16QDeclarativeItem8setWidthEd@Base 5.2.0
 _ZN16QDeclarativeItem9setHeightEd@Base 5.2.0
 _ZN16QDeclarativeItem9setSmoothEb@Base 5.0.2
 _ZN16QDeclarativeItem9transformEv@Base 5.0.2
 _ZN16QDeclarativeItemC1EPS_@Base 5.0.2
 _ZN16QDeclarativeItemC1ER23QDeclarativeItemPrivatePS_@Base 5.0.2 1
 _ZN16QDeclarativeItemC2EPS_@Base 5.0.2
 _ZN16QDeclarativeItemC2ER23QDeclarativeItemPrivatePS_@Base 5.0.2 1
 _ZN16QDeclarativeItemD0Ev@Base 5.0.2
 _ZN16QDeclarativeItemD1Ev@Base 5.0.2
 _ZN16QDeclarativeItemD2Ev@Base 5.0.2
 _ZN16QDeclarativeText11fontChangedERK5QFont@Base 5.0.2 1
 _ZN16QDeclarativeText11qt_metacallEN11QMetaObject4CallEiPPv@Base 5.0.2 1
 _ZN16QDeclarativeText11qt_metacastEPKc@Base 5.0.2 1
 _ZN16QDeclarativeText11resetHAlignEv@Base 5.0.2 1
 _ZN16QDeclarativeText11setWrapModeENS_8WrapModeE@Base 5.0.2 1
 _ZN16QDeclarativeText11textChangedERK7QString@Base 5.0.2 1
 _ZN16QDeclarativeText12colorChangedERK6QColor@Base 5.0.2 1
 _ZN16QDeclarativeText12setElideModeENS_13TextElideModeE@Base 5.0.2 1
 _ZN16QDeclarativeText12styleChangedENS_9TextStyleE@Base 5.0.2 1
 _ZN16QDeclarativeText13linkActivatedERK7QString@Base 5.0.2 1
 _ZN16QDeclarativeText13setLineHeightEd@Base 5.2.0 1
 _ZN16QDeclarativeText13setStyleColorERK6QColor@Base 5.0.2 1
 _ZN16QDeclarativeText13setTextFormatENS_10TextFormatE@Base 5.0.2 1
 _ZN16QDeclarativeText15geometryChangedERK6QRectFS2_@Base 5.0.2 1
 _ZN16QDeclarativeText15mousePressEventEP24QGraphicsSceneMouseEvent@Base 5.0.2 1
 _ZN16QDeclarativeText15wrapModeChangedEv@Base 5.0.2 1
 _ZN16QDeclarativeText16elideModeChangedENS_13TextElideModeE@Base 5.0.2 1
 _ZN16QDeclarativeText16lineCountChangedEv@Base 5.0.2 1
 _ZN16QDeclarativeText16staticMetaObjectE@Base 5.0.2 1
 _ZN16QDeclarativeText16truncatedChangedEv@Base 5.0.2 1
 _ZN16QDeclarativeText17componentCompleteEv@Base 5.0.2 1
 _ZN16QDeclarativeText17lineHeightChangedEd@Base 5.2.0 1
 _ZN16QDeclarativeText17mouseReleaseEventEP24QGraphicsSceneMouseEvent@Base 5.0.2 1
 _ZN16QDeclarativeText17setLineHeightModeENS_14LineHeightModeE@Base 5.0.2 1
 _ZN16QDeclarativeText17styleColorChangedERK6QColor@Base 5.0.2 1
 _ZN16QDeclarativeText17textFormatChangedENS_10TextFormatE@Base 5.0.2 1
 _ZN16QDeclarativeText18paintedSizeChangedEv@Base 5.0.2 1
 _ZN16QDeclarativeText19setMaximumLineCountEi@Base 5.0.2 1
 _ZN16QDeclarativeText21lineHeightModeChangedENS_14LineHeightModeE@Base 5.0.2 1
 _ZN16QDeclarativeText21resetMaximumLineCountEv@Base 5.0.2 1
 _ZN16QDeclarativeText23maximumLineCountChangedEv@Base 5.0.2 1
 _ZN16QDeclarativeText24verticalAlignmentChangedENS_10VAlignmentE@Base 5.0.2 1
 _ZN16QDeclarativeText26horizontalAlignmentChangedENS_10HAlignmentE@Base 5.0.2 1
 _ZN16QDeclarativeText5paintEP8QPainterPK24QStyleOptionGraphicsItemP7QWidget@Base 5.0.2 1
 _ZN16QDeclarativeText7setFontERK5QFont@Base 5.0.2 1
 _ZN16QDeclarativeText7setTextERK7QString@Base 5.0.2 1
 _ZN16QDeclarativeText8setColorERK6QColor@Base 5.0.2 1
 _ZN16QDeclarativeText8setStyleENS_9TextStyleE@Base 5.0.2 1
 _ZN16QDeclarativeText9setHAlignENS_10HAlignmentE@Base 5.0.2 1
 _ZN16QDeclarativeText9setVAlignENS_10VAlignmentE@Base 5.0.2 1
 _ZN16QDeclarativeTextC1EP16QDeclarativeItem@Base 5.0.2 1
 _ZN16QDeclarativeTextC2EP16QDeclarativeItem@Base 5.0.2 1
 _ZN16QDeclarativeTextD0Ev@Base 5.0.2 1
 _ZN16QDeclarativeTextD1Ev@Base 5.0.2 1
 _ZN16QDeclarativeTextD2Ev@Base 5.0.2 1
 _ZN16QDeclarativeTypeC1EiRKN19QDeclarativePrivate12RegisterTypeE@Base 5.0.2 1
 _ZN16QDeclarativeTypeC1EiRKN19QDeclarativePrivate17RegisterInterfaceE@Base 5.0.2 1
 _ZN16QDeclarativeTypeC2EiRKN19QDeclarativePrivate12RegisterTypeE@Base 5.0.2 1
 _ZN16QDeclarativeTypeC2EiRKN19QDeclarativePrivate17RegisterInterfaceE@Base 5.0.2 1
 _ZN16QDeclarativeTypeD1Ev@Base 5.0.2 1
 _ZN16QDeclarativeTypeD2Ev@Base 5.0.2 1
 _ZN16QDeclarativeView10paintEventEP11QPaintEvent@Base 5.0.2
 _ZN16QDeclarativeView10timerEventEP11QTimerEvent@Base 5.0.2
 _ZN16QDeclarativeView11eventFilterEP7QObjectP6QEvent@Base 5.0.2
 _ZN16QDeclarativeView11qt_metacallEN11QMetaObject4CallEiPPv@Base 5.0.2
 _ZN16QDeclarativeView11qt_metacastEPKc@Base 5.0.2
 _ZN16QDeclarativeView11resizeEventEP12QResizeEvent@Base 5.0.2
 _ZN16QDeclarativeView12sceneResizedE5QSize@Base 5.0.2
 _ZN16QDeclarativeView13setResizeModeENS_10ResizeModeE@Base 5.0.2
 _ZN16QDeclarativeView13setRootObjectEP7QObject@Base 5.0.2
 _ZN16QDeclarativeView13statusChangedENS_6StatusE@Base 5.0.2
 _ZN16QDeclarativeView15continueExecuteEv@Base 5.0.2
 _ZN16QDeclarativeView16staticMetaObjectE@Base 5.0.2
 _ZN16QDeclarativeView9setSourceERK4QUrl@Base 5.0.2
 _ZN16QDeclarativeViewC1EP7QWidget@Base 5.0.2
 _ZN16QDeclarativeViewC1ERK4QUrlP7QWidget@Base 5.0.2
 _ZN16QDeclarativeViewC2EP7QWidget@Base 5.0.2
 _ZN16QDeclarativeViewC2ERK4QUrlP7QWidget@Base 5.0.2
 _ZN16QDeclarativeViewD0Ev@Base 5.0.2
 _ZN16QDeclarativeViewD1Ev@Base 5.0.2
 _ZN16QDeclarativeViewD2Ev@Base 5.0.2
 _ZN17QDeclarativeError14setDescriptionERK7QString@Base 5.0.2
 _ZN17QDeclarativeError6setUrlERK4QUrl@Base 5.0.2
 _ZN17QDeclarativeError7setLineEi@Base 5.0.2
 _ZN17QDeclarativeError9setColumnEi@Base 5.0.2
 _ZN17QDeclarativeErrorC1ERKS_@Base 5.0.2
 _ZN17QDeclarativeErrorC1Ev@Base 5.0.2
 _ZN17QDeclarativeErrorC2ERKS_@Base 5.0.2
 _ZN17QDeclarativeErrorC2Ev@Base 5.0.2
 _ZN17QDeclarativeErrorD1Ev@Base 5.0.2
 _ZN17QDeclarativeErrorD2Ev@Base 5.0.2
 _ZN17QDeclarativeErroraSERKS_@Base 5.0.2
 _ZN17QDeclarativeState10setExtendsERK7QString@Base 5.0.2 1
 _ZN17QDeclarativeState11qt_metacallEN11QMetaObject4CallEiPPv@Base 5.0.2 1
 _ZN17QDeclarativeState11qt_metacastEPKc@Base 5.0.2 1
 _ZN17QDeclarativeState13setStateGroupEP22QDeclarativeStateGroup@Base 5.0.2 1
 _ZN17QDeclarativeState16staticMetaObjectE@Base 5.0.2 1
 _ZN17QDeclarativeState20addEntryToRevertListERK18QDeclarativeAction@Base 5.0.2 1
 _ZN17QDeclarativeState22addEntriesToRevertListERK5QListI18QDeclarativeActionE@Base 5.0.2 1
 _ZN17QDeclarativeState23changeValueInRevertListEP7QObjectRK7QStringRK8QVariant@Base 5.0.2 1
 _ZN17QDeclarativeState25changeBindingInRevertListEP7QObjectRK7QStringP27QDeclarativeAbstractBinding@Base 5.0.2 1
 _ZN17QDeclarativeState25removeEntryFromRevertListEP7QObjectRK7QString@Base 5.0.2 1
 _ZN17QDeclarativeState30removeAllEntriesFromRevertListEP7QObject@Base 5.0.2 1
 _ZN17QDeclarativeState5applyEP22QDeclarativeStateGroupP22QDeclarativeTransitionPS_@Base 5.0.2 1
 _ZN17QDeclarativeState6cancelEv@Base 5.0.2 1
 _ZN17QDeclarativeState7changesEv@Base 5.0.2 1
 _ZN17QDeclarativeState7setNameERK7QString@Base 5.0.2 1
 _ZN17QDeclarativeState7setWhenEP19QDeclarativeBinding@Base 5.0.2 1
 _ZN17QDeclarativeState9completedEv@Base 5.0.2 1
 _ZN17QDeclarativeStateC1EP7QObject@Base 5.0.2 1
 _ZN17QDeclarativeStateC2EP7QObject@Base 5.0.2 1
 _ZN17QDeclarativeStateD0Ev@Base 5.0.2 1
 _ZN17QDeclarativeStateD1Ev@Base 5.0.2 1
 _ZN17QDeclarativeStateD2Ev@Base 5.0.2 1
 _ZN17QDeclarativeStatelsEP26QDeclarativeStateOperation@Base 5.0.2 1
 _ZN17QDeclarativeTimer10classBeginEv@Base 5.0.2 1
 _ZN17QDeclarativeTimer10setRunningEb@Base 5.0.2 1
 _ZN17QDeclarativeTimer11qt_metacallEN11QMetaObject4CallEiPPv@Base 5.0.2 1
 _ZN17QDeclarativeTimer11qt_metacastEPKc@Base 5.0.2 1
 _ZN17QDeclarativeTimer11setIntervalEi@Base 5.0.2 1
 _ZN17QDeclarativeTimer12setRepeatingEb@Base 5.0.2 1
 _ZN17QDeclarativeTimer13repeatChangedEv@Base 5.0.2 1
 _ZN17QDeclarativeTimer14runningChangedEv@Base 5.0.2 1
 _ZN17QDeclarativeTimer15intervalChangedEv@Base 5.0.2 1
 _ZN17QDeclarativeTimer16staticMetaObjectE@Base 5.0.2 1
 _ZN17QDeclarativeTimer17componentCompleteEv@Base 5.0.2 1
 _ZN17QDeclarativeTimer19setTriggeredOnStartEb@Base 5.0.2 1
 _ZN17QDeclarativeTimer23triggeredOnStartChangedEv@Base 5.0.2 1
 _ZN17QDeclarativeTimer4stopEv@Base 5.0.2 1
 _ZN17QDeclarativeTimer5startEv@Base 5.0.2 1
 _ZN17QDeclarativeTimer6tickedEv@Base 5.0.2 1
 _ZN17QDeclarativeTimer6updateEv@Base 5.0.2 1
 _ZN17QDeclarativeTimer7restartEv@Base 5.0.2 1
 _ZN17QDeclarativeTimer8finishedEv@Base 5.0.2 1
 _ZN17QDeclarativeTimer9triggeredEv@Base 5.0.2 1
 _ZN17QDeclarativeTimerC1EP7QObject@Base 5.0.2 1
 _ZN17QDeclarativeTimerC2EP7QObject@Base 5.0.2 1
 (optional=gccinternal)_ZN17QDeclarativeTimerD0Ev@Base 5.0.2 1
 (optional=gccinternal)_ZN17QDeclarativeTimerD1Ev@Base 5.0.2 1
 (optional=gccinternal)_ZN17QDeclarativeTimerD2Ev@Base 5.0.2 1
 _ZN18QDeclarativeAction17deleteFromBindingEv@Base 5.0.2 1
 _ZN18QDeclarativeActionC1EP7QObjectRK7QStringP19QDeclarativeContextRK8QVariant@Base 5.0.2 1
 _ZN18QDeclarativeActionC1EP7QObjectRK7QStringRK8QVariant@Base 5.0.2 1
 _ZN18QDeclarativeActionC1Ev@Base 5.0.2 1
 _ZN18QDeclarativeActionC2EP7QObjectRK7QStringP19QDeclarativeContextRK8QVariant@Base 5.0.2 1
 _ZN18QDeclarativeActionC2EP7QObjectRK7QStringRK8QVariant@Base 5.0.2 1
 _ZN18QDeclarativeActionC2Ev@Base 5.0.2 1
 _ZN18QDeclarativeEngine10setBaseUrlERK4QUrl@Base 5.0.2
 _ZN18QDeclarativeEngine11qt_metacallEN11QMetaObject4CallEiPPv@Base 5.0.2
 _ZN18QDeclarativeEngine11qt_metacastEPKc@Base 5.0.2
 _ZN18QDeclarativeEngine12importPluginERK7QStringS2_PS0_@Base 5.0.2
 _ZN18QDeclarativeEngine13addImportPathERK7QString@Base 5.0.2
 _ZN18QDeclarativeEngine13addPluginPathERK7QString@Base 5.0.2
 _ZN18QDeclarativeEngine15objectOwnershipEP7QObject@Base 5.0.2
 _ZN18QDeclarativeEngine16addImageProviderERK7QStringP25QDeclarativeImageProvider@Base 5.0.2
 _ZN18QDeclarativeEngine16contextForObjectEPK7QObject@Base 5.0.2
 _ZN18QDeclarativeEngine16staticMetaObjectE@Base 5.0.2
 _ZN18QDeclarativeEngine17setImportPathListERK11QStringList@Base 5.0.2
 _ZN18QDeclarativeEngine17setPluginPathListERK11QStringList@Base 5.0.2
 _ZN18QDeclarativeEngine18setObjectOwnershipEP7QObjectNS_15ObjectOwnershipE@Base 5.0.2
 _ZN18QDeclarativeEngine19clearComponentCacheEv@Base 5.0.2
 _ZN18QDeclarativeEngine19removeImageProviderERK7QString@Base 5.0.2
 _ZN18QDeclarativeEngine19setContextForObjectEP7QObjectP19QDeclarativeContext@Base 5.0.2
 _ZN18QDeclarativeEngine21setOfflineStoragePathERK7QString@Base 5.0.2
 _ZN18QDeclarativeEngine30setNetworkAccessManagerFactoryEP39QDeclarativeNetworkAccessManagerFactory@Base 5.0.2
 _ZN18QDeclarativeEngine32setOutputWarningsToStandardErrorEb@Base 5.0.2
 _ZN18QDeclarativeEngine4quitEv@Base 5.0.2
 _ZN18QDeclarativeEngine8warningsERK5QListI17QDeclarativeErrorE@Base 5.0.2
 _ZN18QDeclarativeEngineC1EP7QObject@Base 5.0.2
 _ZN18QDeclarativeEngineC2EP7QObject@Base 5.0.2
 _ZN18QDeclarativeEngineD0Ev@Base 5.0.2
 _ZN18QDeclarativeEngineD1Ev@Base 5.0.2
 _ZN18QDeclarativeEngineD2Ev@Base 5.0.2
 _ZN18QDeclarativeParser7VariantC1ERK7QString@Base 5.0.2 1
 _ZN18QDeclarativeParser7VariantC1ERK7QStringPN14QDeclarativeJS3AST4NodeE@Base 5.0.2 1
 _ZN18QDeclarativeParser7VariantC1ERKS0_@Base 5.0.2 1
 _ZN18QDeclarativeParser7VariantC1Eb@Base 5.0.2 1
 _ZN18QDeclarativeParser7VariantC1EdRK7QString@Base 5.0.2 1
 _ZN18QDeclarativeParser7VariantC1Ev@Base 5.0.2 1
 _ZN18QDeclarativeParser7VariantC2ERK7QString@Base 5.0.2 1
 _ZN18QDeclarativeParser7VariantC2ERK7QStringPN14QDeclarativeJS3AST4NodeE@Base 5.0.2 1
 _ZN18QDeclarativeParser7VariantC2ERKS0_@Base 5.0.2 1
 _ZN18QDeclarativeParser7VariantC2Eb@Base 5.0.2 1
 _ZN18QDeclarativeParser7VariantC2EdRK7QString@Base 5.0.2 1
 _ZN18QDeclarativeParser7VariantC2Ev@Base 5.0.2 1
 _ZN18QDeclarativeParser7VariantaSERKS0_@Base 5.0.2 1
 _ZN18QDeclarativePixmap10flushCacheEv@Base 5.0.2 1
 _ZN18QDeclarativePixmap15connectFinishedEP7QObjectPKc@Base 5.0.2 1
 _ZN18QDeclarativePixmap15connectFinishedEP7QObjecti@Base 5.0.2 1
 _ZN18QDeclarativePixmap23connectDownloadProgressEP7QObjectPKc@Base 5.0.2 1
 _ZN18QDeclarativePixmap23connectDownloadProgressEP7QObjecti@Base 5.0.2 1
 _ZN18QDeclarativePixmap4loadEP18QDeclarativeEngineRK4QUrl6QFlagsINS_6OptionEE@Base 5.0.2 1
 _ZN18QDeclarativePixmap4loadEP18QDeclarativeEngineRK4QUrl@Base 5.0.2 1
 _ZN18QDeclarativePixmap4loadEP18QDeclarativeEngineRK4QUrlRK5QSize6QFlagsINS_6OptionEE@Base 5.0.2 1
 _ZN18QDeclarativePixmap4loadEP18QDeclarativeEngineRK4QUrlRK5QSize@Base 5.0.2 1
 _ZN18QDeclarativePixmap5clearEP7QObject@Base 5.0.2 1
 _ZN18QDeclarativePixmap5clearEv@Base 5.0.2 1
 _ZN18QDeclarativePixmap9setPixmapERK7QPixmap@Base 5.0.2 1
 _ZN18QDeclarativePixmapC1EP18QDeclarativeEngineRK4QUrl@Base 5.0.2 1
 _ZN18QDeclarativePixmapC1EP18QDeclarativeEngineRK4QUrlRK5QSize@Base 5.0.2 1
 _ZN18QDeclarativePixmapC1Ev@Base 5.0.2 1
 _ZN18QDeclarativePixmapC2EP18QDeclarativeEngineRK4QUrl@Base 5.0.2 1
 _ZN18QDeclarativePixmapC2EP18QDeclarativeEngineRK4QUrlRK5QSize@Base 5.0.2 1
 _ZN18QDeclarativePixmapC2Ev@Base 5.0.2 1
 _ZN18QDeclarativePixmapD1Ev@Base 5.0.2 1
 _ZN18QDeclarativePixmapD2Ev@Base 5.0.2 1
 _ZN19QDeclarativeAnchors10classBeginEv@Base 5.0.2 1
 _ZN19QDeclarativeAnchors10resetRightEv@Base 5.0.2 1
 _ZN19QDeclarativeAnchors10setMarginsEd@Base 5.2.0 1
 _ZN19QDeclarativeAnchors10topChangedEv@Base 5.0.2 1
 _ZN19QDeclarativeAnchors11fillChangedEv@Base 5.0.2 1
 _ZN19QDeclarativeAnchors11leftChangedEv@Base 5.0.2 1
 _ZN19QDeclarativeAnchors11qt_metacallEN11QMetaObject4CallEiPPv@Base 5.0.2 1
 _ZN19QDeclarativeAnchors11qt_metacastEPKc@Base 5.0.2 1
 _ZN19QDeclarativeAnchors11resetBottomEv@Base 5.0.2 1
 _ZN19QDeclarativeAnchors11setBaselineERK22QDeclarativeAnchorLine@Base 5.0.2 1
 _ZN19QDeclarativeAnchors11setCenterInEP15QGraphicsObject@Base 5.0.2 1
 _ZN19QDeclarativeAnchors12rightChangedEv@Base 5.0.2 1
 _ZN19QDeclarativeAnchors12setTopMarginEd@Base 5.2.0 1
 _ZN19QDeclarativeAnchors13bottomChangedEv@Base 5.0.2 1
 _ZN19QDeclarativeAnchors13resetBaselineEv@Base 5.0.2 1
 _ZN19QDeclarativeAnchors13resetCenterInEv@Base 5.0.2 1
 _ZN19QDeclarativeAnchors13setLeftMarginEd@Base 5.2.0 1
 _ZN19QDeclarativeAnchors14marginsChangedEv@Base 5.0.2 1
 _ZN19QDeclarativeAnchors14setRightMarginEd@Base 5.2.0 1
 _ZN19QDeclarativeAnchors15baselineChangedEv@Base 5.0.2 1
 _ZN19QDeclarativeAnchors15centerInChangedEv@Base 5.0.2 1
 _ZN19QDeclarativeAnchors15setBottomMarginEd@Base 5.2.0 1
 _ZN19QDeclarativeAnchors16staticMetaObjectE@Base 5.0.2 1
 _ZN19QDeclarativeAnchors16topMarginChangedEv@Base 5.0.2 1
 _ZN19QDeclarativeAnchors17componentCompleteEv@Base 5.0.2 1
 _ZN19QDeclarativeAnchors17leftMarginChangedEv@Base 5.0.2 1
 _ZN19QDeclarativeAnchors17setBaselineOffsetEd@Base 5.2.0 1
 _ZN19QDeclarativeAnchors17setVerticalCenterERK22QDeclarativeAnchorLine@Base 5.0.2 1
 _ZN19QDeclarativeAnchors18rightMarginChangedEv@Base 5.0.2 1
 _ZN19QDeclarativeAnchors19bottomMarginChangedEv@Base 5.0.2 1
 _ZN19QDeclarativeAnchors19resetVerticalCenterEv@Base 5.0.2 1
 _ZN19QDeclarativeAnchors19setHorizontalCenterERK22QDeclarativeAnchorLine@Base 5.0.2 1
 _ZN19QDeclarativeAnchors21baselineOffsetChangedEv@Base 5.0.2 1
 _ZN19QDeclarativeAnchors21resetHorizontalCenterEv@Base 5.0.2 1
 _ZN19QDeclarativeAnchors21verticalCenterChangedEv@Base 5.0.2 1
 _ZN19QDeclarativeAnchors23horizontalCenterChangedEv@Base 5.0.2 1
 _ZN19QDeclarativeAnchors23setVerticalCenterOffsetEd@Base 5.2.0 1
 _ZN19QDeclarativeAnchors25setHorizontalCenterOffsetEd@Base 5.2.0 1
 _ZN19QDeclarativeAnchors27verticalCenterOffsetChangedEv@Base 5.0.2 1
 _ZN19QDeclarativeAnchors29horizontalCenterOffsetChangedEv@Base 5.0.2 1
 _ZN19QDeclarativeAnchors6setTopERK22QDeclarativeAnchorLine@Base 5.0.2 1
 _ZN19QDeclarativeAnchors7setFillEP15QGraphicsObject@Base 5.0.2 1
 _ZN19QDeclarativeAnchors7setLeftERK22QDeclarativeAnchorLine@Base 5.0.2 1
 _ZN19QDeclarativeAnchors8mirroredEv@Base 5.0.2 1
 _ZN19QDeclarativeAnchors8resetTopEv@Base 5.0.2 1
 _ZN19QDeclarativeAnchors8setRightERK22QDeclarativeAnchorLine@Base 5.0.2 1
 _ZN19QDeclarativeAnchors9resetFillEv@Base 5.0.2 1
 _ZN19QDeclarativeAnchors9resetLeftEv@Base 5.0.2 1
 _ZN19QDeclarativeAnchors9setBottomERK22QDeclarativeAnchorLine@Base 5.0.2 1
 _ZN19QDeclarativeAnchorsC1EP15QGraphicsObjectP7QObject@Base 5.0.2 1
 _ZN19QDeclarativeAnchorsC1EP7QObject@Base 5.0.2 1
 _ZN19QDeclarativeAnchorsC2EP15QGraphicsObjectP7QObject@Base 5.0.2 1
 _ZN19QDeclarativeAnchorsC2EP7QObject@Base 5.0.2 1
 _ZN19QDeclarativeAnchorsD0Ev@Base 5.0.2 1
 _ZN19QDeclarativeAnchorsD1Ev@Base 5.0.2 1
 _ZN19QDeclarativeAnchorsD2Ev@Base 5.0.2 1
 _ZN19QDeclarativeBinding10setEnabledEb6QFlagsIN27QDeclarativePropertyPrivate9WriteFlagEE@Base 5.0.2 1
 _ZN19QDeclarativeBinding11qt_metacallEN11QMetaObject4CallEiPPv@Base 5.0.2 1
 _ZN19QDeclarativeBinding11qt_metacastEPKc@Base 5.0.2 1
 _ZN19QDeclarativeBinding13createBindingEiP7QObjectP19QDeclarativeContextRK7QStringiS1_@Base 5.0.2 1
 _ZN19QDeclarativeBinding16setEvaluateFlagsE6QFlagsINS_12EvaluateFlagEE@Base 5.0.2 1
 _ZN19QDeclarativeBinding16staticMetaObjectE@Base 5.0.2 1
 _ZN19QDeclarativeBinding6updateE6QFlagsIN27QDeclarativePropertyPrivate9WriteFlagEE@Base 5.0.2 1
 _ZN19QDeclarativeBinding7InvalidE@Base 5.0.2 1
 _ZN19QDeclarativeBinding9setTargetERK20QDeclarativeProperty@Base 5.0.2 1
 _ZN19QDeclarativeBindingC1EPvP20QDeclarativeRefCountP7QObjectP23QDeclarativeContextDataRK7QStringiS4_@Base 5.0.2 1
 _ZN19QDeclarativeBindingC1ERK12QScriptValueP7QObjectP23QDeclarativeContextDataS4_@Base 5.0.2 1
 _ZN19QDeclarativeBindingC1ERK7QStringP7QObjectP19QDeclarativeContextS4_@Base 5.0.2 1
 _ZN19QDeclarativeBindingC1ERK7QStringP7QObjectP23QDeclarativeContextDataS4_@Base 5.0.2 1
 _ZN19QDeclarativeBindingC2EPvP20QDeclarativeRefCountP7QObjectP23QDeclarativeContextDataRK7QStringiS4_@Base 5.0.2 1
 _ZN19QDeclarativeBindingC2ERK12QScriptValueP7QObjectP23QDeclarativeContextDataS4_@Base 5.0.2 1
 _ZN19QDeclarativeBindingC2ERK7QStringP7QObjectP19QDeclarativeContextS4_@Base 5.0.2 1
 _ZN19QDeclarativeBindingC2ERK7QStringP7QObjectP23QDeclarativeContextDataS4_@Base 5.0.2 1
 _ZN19QDeclarativeBindingD0Ev@Base 5.0.2 1
 _ZN19QDeclarativeBindingD1Ev@Base 5.0.2 1
 _ZN19QDeclarativeBindingD2Ev@Base 5.0.2 1
 _ZN19QDeclarativeContext10setBaseUrlERK4QUrl@Base 5.0.2
 _ZN19QDeclarativeContext11qt_metacallEN11QMetaObject4CallEiPPv@Base 5.0.2
 _ZN19QDeclarativeContext11qt_metacastEPKc@Base 5.0.2
 _ZN19QDeclarativeContext11resolvedUrlERK4QUrl@Base 5.0.2
 _ZN19QDeclarativeContext16setContextObjectEP7QObject@Base 5.0.2
 _ZN19QDeclarativeContext16staticMetaObjectE@Base 5.0.2
 _ZN19QDeclarativeContext18setContextPropertyERK7QStringP7QObject@Base 5.0.2
 _ZN19QDeclarativeContext18setContextPropertyERK7QStringRK8QVariant@Base 5.0.2
 _ZN19QDeclarativeContextC1EP18QDeclarativeEngineP7QObject@Base 5.0.2
 _ZN19QDeclarativeContextC1EP18QDeclarativeEngineb@Base 5.0.2
 _ZN19QDeclarativeContextC1EP23QDeclarativeContextData@Base 5.0.2 1
 _ZN19QDeclarativeContextC1EPS_P7QObject@Base 5.0.2
 _ZN19QDeclarativeContextC2EP18QDeclarativeEngineP7QObject@Base 5.0.2
 _ZN19QDeclarativeContextC2EP18QDeclarativeEngineb@Base 5.0.2
 _ZN19QDeclarativeContextC2EP23QDeclarativeContextData@Base 5.0.2 1
 _ZN19QDeclarativeContextC2EPS_P7QObject@Base 5.0.2
 _ZN19QDeclarativeContextD0Ev@Base 5.0.2
 _ZN19QDeclarativeContextD1Ev@Base 5.0.2
 _ZN19QDeclarativeContextD2Ev@Base 5.0.2
 _ZN19QDeclarativeDomListC1ERKS_@Base 5.0.2 1
 _ZN19QDeclarativeDomListC1Ev@Base 5.0.2 1
 _ZN19QDeclarativeDomListC2ERKS_@Base 5.0.2 1
 _ZN19QDeclarativeDomListC2Ev@Base 5.0.2 1
 _ZN19QDeclarativeDomListD1Ev@Base 5.0.2 1
 _ZN19QDeclarativeDomListD2Ev@Base 5.0.2 1
 _ZN19QDeclarativeDomListaSERKS_@Base 5.0.2 1
 _ZN19QDeclarativePrivate11qmlregisterENS_16RegistrationTypeEPv@Base 5.0.2
 _ZN19QDeclarativePrivate30qdeclarativeelement_destructorEP7QObject@Base 5.0.2
 _ZN19QListModelInterface10itemsMovedEiii@Base 5.0.2 1
 _ZN19QListModelInterface11qt_metacallEN11QMetaObject4CallEiPPv@Base 5.0.2 1
 _ZN19QListModelInterface11qt_metacastEPKc@Base 5.0.2 1
 _ZN19QListModelInterface12itemsChangedEiiRK5QListIiE@Base 5.0.2 1
 _ZN19QListModelInterface12itemsRemovedEii@Base 5.0.2 1
 _ZN19QListModelInterface13itemsInsertedEii@Base 5.0.2 1
 _ZN19QListModelInterface16staticMetaObjectE@Base 5.0.2 1
 _ZN20QDeclarativeBehavior10setEnabledEb@Base 5.0.2 1
 _ZN20QDeclarativeBehavior11qt_metacallEN11QMetaObject4CallEiPPv@Base 5.0.2 1
 _ZN20QDeclarativeBehavior11qt_metacastEPKc@Base 5.0.2 1
 _ZN20QDeclarativeBehavior12setAnimationEP29QDeclarativeAbstractAnimation@Base 5.0.2 1
 _ZN20QDeclarativeBehavior14enabledChangedEv@Base 5.0.2 1
 _ZN20QDeclarativeBehavior16staticMetaObjectE@Base 5.0.2 1
 _ZN20QDeclarativeBehavior18componentFinalizedEv@Base 5.0.2 1
 _ZN20QDeclarativeBehavior23qtAnimationStateChangedEN18QAbstractAnimation5StateES1_@Base 5.0.2 1
 _ZN20QDeclarativeBehavior5writeERK8QVariant@Base 5.0.2 1
 _ZN20QDeclarativeBehavior9animationEv@Base 5.0.2 1
 _ZN20QDeclarativeBehavior9setTargetERK20QDeclarativeProperty@Base 5.0.2 1
 _ZN20QDeclarativeBehaviorC1EP7QObject@Base 5.0.2 1
 _ZN20QDeclarativeBehaviorC2EP7QObject@Base 5.0.2 1
 _ZN20QDeclarativeBehaviorD0Ev@Base 5.0.2 1
 _ZN20QDeclarativeBehaviorD1Ev@Base 5.0.2 1
 _ZN20QDeclarativeBehaviorD2Ev@Base 5.0.2 1
 _ZN20QDeclarativeDomValueC1ERKS_@Base 5.0.2 1
 _ZN20QDeclarativeDomValueC1Ev@Base 5.0.2 1
 _ZN20QDeclarativeDomValueC2ERKS_@Base 5.0.2 1
 _ZN20QDeclarativeDomValueC2Ev@Base 5.0.2 1
 _ZN20QDeclarativeDomValueD1Ev@Base 5.0.2 1
 _ZN20QDeclarativeDomValueD2Ev@Base 5.0.2 1
 _ZN20QDeclarativeDomValueaSERKS_@Base 5.0.2 1
 _ZN20QDeclarativeKeyEvent11qt_metacallEN11QMetaObject4CallEiPPv@Base 5.0.2 1
 _ZN20QDeclarativeKeyEvent11qt_metacastEPKc@Base 5.0.2 1
 _ZN20QDeclarativeKeyEvent16staticMetaObjectE@Base 5.0.2 1
 (optional=gccinternal)_ZN20QDeclarativeKeyEventD0Ev@Base 5.0.2 1
 (optional=gccinternal)_ZN20QDeclarativeKeyEventD1Ev@Base 5.0.2 1
 (optional=gccinternal)_ZN20QDeclarativeKeyEventD2Ev@Base 5.0.2 1
 _ZN20QDeclarativeMetaType11isInterfaceEi@Base 5.0.2 1
 _ZN20QDeclarativeMetaType12interfaceIIdEi@Base 5.0.2 1
 _ZN20QDeclarativeMetaType12qmlTypeNamesEv@Base 5.0.2 1
 _ZN20QDeclarativeMetaType12typeCategoryEi@Base 5.0.2 1
 _ZN20QDeclarativeMetaType13defaultMethodEP7QObject@Base 5.0.2 1
 _ZN20QDeclarativeMetaType13defaultMethodEPK11QMetaObject@Base 5.0.2 1
 _ZN20QDeclarativeMetaType13qmlComponentsERK10QByteArrayii@Base 5.1.0 1
 _ZN20QDeclarativeMetaType15defaultPropertyEP7QObject@Base 5.0.2 1
 _ZN20QDeclarativeMetaType15defaultPropertyEPK11QMetaObject@Base 5.0.2 1
 _ZN20QDeclarativeMetaType15parentFunctionsEv@Base 5.0.2 1
 _ZN20QDeclarativeMetaType21customStringConverterEi@Base 5.0.2 1
 _ZN20QDeclarativeMetaType24attachedPropertiesFuncIdEPK11QMetaObject@Base 5.0.2 1
 _ZN20QDeclarativeMetaType26attachedPropertiesFuncByIdEi@Base 5.0.2 1
 _ZN20QDeclarativeMetaType29registerCustomStringConverterEiPF8QVariantRK7QStringE@Base 5.0.2 1
 _ZN20QDeclarativeMetaType4copyEiPvPKv@Base 5.0.2 1
 _ZN20QDeclarativeMetaType6isListEi@Base 5.0.2 1
 _ZN20QDeclarativeMetaType7canCopyEi@Base 5.0.2 1
 _ZN20QDeclarativeMetaType7qmlTypeEPK11QMetaObject@Base 5.0.2 1
 _ZN20QDeclarativeMetaType7qmlTypeEPK11QMetaObjectRK10QByteArrayii@Base 5.0.2 1
 _ZN20QDeclarativeMetaType7qmlTypeERK10QByteArrayii@Base 5.0.2 1
 _ZN20QDeclarativeMetaType7qmlTypeEi@Base 5.0.2 1
 _ZN20QDeclarativeMetaType8isModuleERK10QByteArrayii@Base 5.0.2 1
 _ZN20QDeclarativeMetaType8listTypeEi@Base 5.0.2 1
 _ZN20QDeclarativeMetaType8qmlTypesEv@Base 5.0.2 1
 _ZN20QDeclarativeMetaType9isQObjectEi@Base 5.0.2 1
 _ZN20QDeclarativeMetaType9toQObjectERK8QVariantPb@Base 5.0.2 1
 _ZN20QDeclarativeProperty4readEP7QObjectRK7QString@Base 5.0.2
 _ZN20QDeclarativeProperty4readEP7QObjectRK7QStringP18QDeclarativeEngine@Base 5.0.2
 _ZN20QDeclarativeProperty4readEP7QObjectRK7QStringP19QDeclarativeContext@Base 5.0.2
 _ZN20QDeclarativeProperty5writeEP7QObjectRK7QStringRK8QVariant@Base 5.0.2
 _ZN20QDeclarativeProperty5writeEP7QObjectRK7QStringRK8QVariantP18QDeclarativeEngine@Base 5.0.2
 _ZN20QDeclarativeProperty5writeEP7QObjectRK7QStringRK8QVariantP19QDeclarativeContext@Base 5.0.2
 _ZN20QDeclarativePropertyC1EP7QObject@Base 5.0.2
 _ZN20QDeclarativePropertyC1EP7QObjectP18QDeclarativeEngine@Base 5.0.2
 _ZN20QDeclarativePropertyC1EP7QObjectP19QDeclarativeContext@Base 5.0.2
 _ZN20QDeclarativePropertyC1EP7QObjectRK7QString@Base 5.0.2
 _ZN20QDeclarativePropertyC1EP7QObjectRK7QStringP18QDeclarativeEngine@Base 5.0.2
 _ZN20QDeclarativePropertyC1EP7QObjectRK7QStringP19QDeclarativeContext@Base 5.0.2
 _ZN20QDeclarativePropertyC1ERKS_@Base 5.0.2
 _ZN20QDeclarativePropertyC1Ev@Base 5.0.2
 _ZN20QDeclarativePropertyC2EP7QObject@Base 5.0.2
 _ZN20QDeclarativePropertyC2EP7QObjectP18QDeclarativeEngine@Base 5.0.2
 _ZN20QDeclarativePropertyC2EP7QObjectP19QDeclarativeContext@Base 5.0.2
 _ZN20QDeclarativePropertyC2EP7QObjectRK7QString@Base 5.0.2
 _ZN20QDeclarativePropertyC2EP7QObjectRK7QStringP18QDeclarativeEngine@Base 5.0.2
 _ZN20QDeclarativePropertyC2EP7QObjectRK7QStringP19QDeclarativeContext@Base 5.0.2
 _ZN20QDeclarativePropertyC2ERKS_@Base 5.0.2
 _ZN20QDeclarativePropertyC2Ev@Base 5.0.2
 _ZN20QDeclarativePropertyD1Ev@Base 5.0.2
 _ZN20QDeclarativePropertyD2Ev@Base 5.0.2
 _ZN20QDeclarativePropertyaSERKS_@Base 5.0.2
 _ZN20QDeclarativeRefCount6addrefEv@Base 5.0.2 1
 _ZN20QDeclarativeRefCount7releaseEv@Base 5.0.2 1
 _ZN20QDeclarativeRefCountC1Ev@Base 5.0.2 1
 _ZN20QDeclarativeRefCountC2Ev@Base 5.0.2 1
 _ZN20QDeclarativeRefCountD0Ev@Base 5.0.2 1
 _ZN20QDeclarativeRefCountD1Ev@Base 5.0.2 1
 _ZN20QDeclarativeRefCountD2Ev@Base 5.0.2 1
 (optional=gccinternal)_ZN20QGraphicsViewPrivateD0Ev@Base 5.0.2
 (optional=gccinternal)_ZN20QGraphicsViewPrivateD1Ev@Base 5.0.2
 (optional=gccinternal)_ZN20QGraphicsViewPrivateD2Ev@Base 5.0.2
 _ZN21QDeclarativeComponent11beginCreateEP19QDeclarativeContext@Base 5.0.2
 _ZN21QDeclarativeComponent11qt_metacallEN11QMetaObject4CallEiPPv@Base 5.0.2
 _ZN21QDeclarativeComponent11qt_metacastEPKc@Base 5.0.2
 _ZN21QDeclarativeComponent12createObjectEP7QObject@Base 5.0.2
 _ZN21QDeclarativeComponent12createObjectEP7QObjectRK12QScriptValue@Base 5.0.2
 _ZN21QDeclarativeComponent13statusChangedENS_6StatusE@Base 5.0.2
 _ZN21QDeclarativeComponent14completeCreateEv@Base 5.0.2
 _ZN21QDeclarativeComponent15progressChangedEd@Base 5.2.0
 _ZN21QDeclarativeComponent16staticMetaObjectE@Base 5.0.2
 _ZN21QDeclarativeComponent21qmlAttachedPropertiesEP7QObject@Base 5.0.2
 _ZN21QDeclarativeComponent6createEP19QDeclarativeContext@Base 5.0.2
 _ZN21QDeclarativeComponent7loadUrlERK4QUrl@Base 5.0.2
 _ZN21QDeclarativeComponent7setDataERK10QByteArrayRK4QUrl@Base 5.0.2
 _ZN21QDeclarativeComponentC1EP18QDeclarativeEngineP24QDeclarativeCompiledDataiiP7QObject@Base 5.0.2 1
 _ZN21QDeclarativeComponentC1EP18QDeclarativeEngineP7QObject@Base 5.0.2
 _ZN21QDeclarativeComponentC1EP18QDeclarativeEngineRK4QUrlP7QObject@Base 5.0.2
 _ZN21QDeclarativeComponentC1EP18QDeclarativeEngineRK7QStringP7QObject@Base 5.0.2
 _ZN21QDeclarativeComponentC1EP7QObject@Base 5.0.2
 _ZN21QDeclarativeComponentC1ER28QDeclarativeComponentPrivateP7QObject@Base 5.0.2 1
 _ZN21QDeclarativeComponentC2EP18QDeclarativeEngineP24QDeclarativeCompiledDataiiP7QObject@Base 5.0.2 1
 _ZN21QDeclarativeComponentC2EP18QDeclarativeEngineP7QObject@Base 5.0.2
 _ZN21QDeclarativeComponentC2EP18QDeclarativeEngineRK4QUrlP7QObject@Base 5.0.2
 _ZN21QDeclarativeComponentC2EP18QDeclarativeEngineRK7QStringP7QObject@Base 5.0.2
 _ZN21QDeclarativeComponentC2EP7QObject@Base 5.0.2
 _ZN21QDeclarativeComponentC2ER28QDeclarativeComponentPrivateP7QObject@Base 5.0.2 1
 _ZN21QDeclarativeComponentD0Ev@Base 5.0.2
 _ZN21QDeclarativeComponentD1Ev@Base 5.0.2
 _ZN21QDeclarativeComponentD2Ev@Base 5.0.2
 _ZN21QDeclarativeDomImportC1ERKS_@Base 5.0.2 1
 _ZN21QDeclarativeDomImportC1Ev@Base 5.0.2 1
 _ZN21QDeclarativeDomImportC2ERKS_@Base 5.0.2 1
 _ZN21QDeclarativeDomImportC2Ev@Base 5.0.2 1
 _ZN21QDeclarativeDomImportD1Ev@Base 5.0.2 1
 _ZN21QDeclarativeDomImportD2Ev@Base 5.0.2 1
 _ZN21QDeclarativeDomImportaSERKS_@Base 5.0.2 1
 _ZN21QDeclarativeDomObjectC1ERKS_@Base 5.0.2 1
 _ZN21QDeclarativeDomObjectC1Ev@Base 5.0.2 1
 _ZN21QDeclarativeDomObjectC2ERKS_@Base 5.0.2 1
 _ZN21QDeclarativeDomObjectC2Ev@Base 5.0.2 1
 _ZN21QDeclarativeDomObjectD1Ev@Base 5.0.2 1
 _ZN21QDeclarativeDomObjectD2Ev@Base 5.0.2 1
 _ZN21QDeclarativeDomObjectaSERKS_@Base 5.0.2 1
 _ZN21QDeclarativeListModel11qt_metacallEN11QMetaObject4CallEiPPv@Base 5.0.2 1
 _ZN21QDeclarativeListModel11qt_metacastEPKc@Base 5.0.2 1
 _ZN21QDeclarativeListModel11setPropertyEiRK7QStringRK8QVariant@Base 5.0.2 1
 _ZN21QDeclarativeListModel11setPropertyEiRK7QStringRK8QVariantP5QListIiE@Base 5.0.2 1
 _ZN21QDeclarativeListModel12countChangedEv@Base 5.0.2 1
 _ZN21QDeclarativeListModel16staticMetaObjectE@Base 5.0.2 1
 _ZN21QDeclarativeListModel3setEiRK12QScriptValue@Base 5.0.2 1
 _ZN21QDeclarativeListModel3setEiRK12QScriptValueP5QListIiE@Base 5.0.2 1
 _ZN21QDeclarativeListModel4moveEiii@Base 5.0.2 1
 _ZN21QDeclarativeListModel4syncEv@Base 5.0.2 1
 _ZN21QDeclarativeListModel5agentEv@Base 5.0.2 1
 _ZN21QDeclarativeListModel5clearEv@Base 5.0.2 1
 _ZN21QDeclarativeListModel6appendERK12QScriptValue@Base 5.0.2 1
 _ZN21QDeclarativeListModel6insertEiRK12QScriptValue@Base 5.0.2 1
 _ZN21QDeclarativeListModel6removeEi@Base 5.0.2 1
 _ZN21QDeclarativeListModel7flattenEv@Base 5.0.2 1
 _ZN21QDeclarativeListModelC1EP7QObject@Base 5.0.2 1
 _ZN21QDeclarativeListModelC1EPKS_P32QDeclarativeListModelWorkerAgent@Base 5.0.2 1
 _ZN21QDeclarativeListModelC2EP7QObject@Base 5.0.2 1
 _ZN21QDeclarativeListModelC2EPKS_P32QDeclarativeListModelWorkerAgent@Base 5.0.2 1
 _ZN21QDeclarativeListModelD0Ev@Base 5.0.2 1
 _ZN21QDeclarativeListModelD1Ev@Base 5.0.2 1
 _ZN21QDeclarativeListModelD2Ev@Base 5.0.2 1
 _ZN21QDeclarativeRectangle11qt_metacallEN11QMetaObject4CallEiPPv@Base 5.0.2 1
 _ZN21QDeclarativeRectangle11qt_metacastEPKc@Base 5.0.2 1
 _ZN21QDeclarativeRectangle11setGradientEP20QDeclarativeGradient@Base 5.0.2 1
 _ZN21QDeclarativeRectangle12colorChangedEv@Base 5.0.2 1
 _ZN21QDeclarativeRectangle13radiusChangedEv@Base 5.0.2 1
 _ZN21QDeclarativeRectangle16staticMetaObjectE@Base 5.0.2 1
 _ZN21QDeclarativeRectangle19generateRoundedRectEv@Base 5.0.2 1
 _ZN21QDeclarativeRectangle20generateBorderedRectEv@Base 5.0.2 1
 _ZN21QDeclarativeRectangle5paintEP8QPainterPK24QStyleOptionGraphicsItemP7QWidget@Base 5.0.2 1
 _ZN21QDeclarativeRectangle6borderEv@Base 5.0.2 1
 _ZN21QDeclarativeRectangle8doUpdateEv@Base 5.0.2 1
 _ZN21QDeclarativeRectangle8drawRectER8QPainter@Base 5.0.2 1
 _ZN21QDeclarativeRectangle8setColorERK6QColor@Base 5.0.2 1
 _ZN21QDeclarativeRectangle9setRadiusEd@Base 5.2.0 1
 _ZN21QDeclarativeRectangleC1EP16QDeclarativeItem@Base 5.0.2 1
 _ZN21QDeclarativeRectangleC2EP16QDeclarativeItem@Base 5.0.2 1
 (optional=gccinternal)_ZN21QDeclarativeRectangleD0Ev@Base 5.0.2 1
 (optional=gccinternal)_ZN21QDeclarativeRectangleD1Ev@Base 5.0.2 1
 (optional=gccinternal)_ZN21QDeclarativeRectangleD2Ev@Base 5.0.2 1
 _ZN21QDeclarativeScaleGrid11qt_metacallEN11QMetaObject4CallEiPPv@Base 5.0.2 1
 _ZN21QDeclarativeScaleGrid11qt_metacastEPKc@Base 5.0.2 1
 _ZN21QDeclarativeScaleGrid13borderChangedEv@Base 5.0.2 1
 _ZN21QDeclarativeScaleGrid16staticMetaObjectE@Base 5.0.2 1
 _ZN21QDeclarativeScaleGrid6setTopEi@Base 5.0.2 1
 _ZN21QDeclarativeScaleGrid7setLeftEi@Base 5.0.2 1
 _ZN21QDeclarativeScaleGrid8setRightEi@Base 5.0.2 1
 _ZN21QDeclarativeScaleGrid9setBottomEi@Base 5.0.2 1
 _ZN21QDeclarativeScaleGridC1EP7QObject@Base 5.0.2 1
 _ZN21QDeclarativeScaleGridC2EP7QObject@Base 5.0.2 1
 _ZN21QDeclarativeScaleGridD0Ev@Base 5.0.2 1
 _ZN21QDeclarativeScaleGridD1Ev@Base 5.0.2 1
 _ZN21QDeclarativeScaleGridD2Ev@Base 5.0.2 1
 _ZN21QDeclarativeValueType11qt_metacallEN11QMetaObject4CallEiPPv@Base 5.0.2 1
 _ZN21QDeclarativeValueType11qt_metacastEPKc@Base 5.0.2 1
 _ZN21QDeclarativeValueType16staticMetaObjectE@Base 5.0.2 1
 _ZN21QDeclarativeValueTypeC1EP7QObject@Base 5.0.2 1
 _ZN21QDeclarativeValueTypeC2EP7QObject@Base 5.0.2 1
 _ZN22QDeclarativeDebugQuery11qt_metacallEN11QMetaObject4CallEiPPv@Base 5.0.2 1
 _ZN22QDeclarativeDebugQuery11qt_metacastEPKc@Base 5.0.2 1
 _ZN22QDeclarativeDebugQuery12stateChangedENS_5StateE@Base 5.0.2 1
 _ZN22QDeclarativeDebugQuery16staticMetaObjectE@Base 5.0.2 1
 _ZN22QDeclarativeDebugQuery8setStateENS_5StateE@Base 5.0.2 1
 _ZN22QDeclarativeDebugQueryC1EP7QObject@Base 5.0.2 1
 _ZN22QDeclarativeDebugQueryC2EP7QObject@Base 5.0.2 1
 (optional=gccinternal)_ZN22QDeclarativeDebugQueryD0Ev@Base 5.0.2 1
 (optional=gccinternal)_ZN22QDeclarativeDebugQueryD1Ev@Base 5.0.2 1
 (optional=gccinternal)_ZN22QDeclarativeDebugQueryD2Ev@Base 5.0.2 1
 _ZN22QDeclarativeDebugTrace10startRangeENS_9RangeTypeE@Base 5.0.2 1
 _ZN22QDeclarativeDebugTrace12addEventImplENS_9EventTypeE@Base 5.0.2 1
 _ZN22QDeclarativeDebugTrace12endRangeImplENS_9RangeTypeE@Base 5.0.2 1
 _ZN22QDeclarativeDebugTrace12sendMessagesEv@Base 5.0.2 1
 _ZN22QDeclarativeDebugTrace13rangeDataImplENS_9RangeTypeERK4QUrl@Base 5.0.2 1
 _ZN22QDeclarativeDebugTrace13rangeDataImplENS_9RangeTypeERK7QString@Base 5.0.2 1
 _ZN22QDeclarativeDebugTrace13rangeLocationENS_9RangeTypeERK4QUrli@Base 5.0.2 1
 _ZN22QDeclarativeDebugTrace13rangeLocationENS_9RangeTypeERK7QStringi@Base 5.0.2 1
 _ZN22QDeclarativeDebugTrace14processMessageERK21QDeclarativeDebugData@Base 5.0.2 1
 _ZN22QDeclarativeDebugTrace14startRangeImplENS_9RangeTypeE@Base 5.0.2 1
 _ZN22QDeclarativeDebugTrace15messageReceivedERK10QByteArray@Base 5.0.2 1
 _ZN22QDeclarativeDebugTrace17rangeLocationImplENS_9RangeTypeERK4QUrli@Base 5.0.2 1
 _ZN22QDeclarativeDebugTrace17rangeLocationImplENS_9RangeTypeERK7QStringi@Base 5.0.2 1
 _ZN22QDeclarativeDebugTrace8addEventENS_9EventTypeE@Base 5.0.2 1
 _ZN22QDeclarativeDebugTrace8endRangeENS_9RangeTypeE@Base 5.0.2 1
 _ZN22QDeclarativeDebugTrace9rangeDataENS_9RangeTypeERK4QUrl@Base 5.0.2 1
 _ZN22QDeclarativeDebugTrace9rangeDataENS_9RangeTypeERK7QString@Base 5.0.2 1
 _ZN22QDeclarativeDebugTraceC1Ev@Base 5.0.2 1
 _ZN22QDeclarativeDebugTraceC2Ev@Base 5.0.2 1
 (optional=gccinternal)_ZN22QDeclarativeDebugTraceD0Ev@Base 5.0.2 1
 (optional=gccinternal)_ZN22QDeclarativeDebugTraceD1Ev@Base 5.0.2 1
 (optional=gccinternal)_ZN22QDeclarativeDebugTraceD2Ev@Base 5.0.2 1
 _ZN22QDeclarativeDebugWatch11qt_metacallEN11QMetaObject4CallEiPPv@Base 5.0.2 1
 _ZN22QDeclarativeDebugWatch11qt_metacastEPKc@Base 5.0.2 1
 _ZN22QDeclarativeDebugWatch12stateChangedENS_5StateE@Base 5.0.2 1
 _ZN22QDeclarativeDebugWatch12valueChangedERK10QByteArrayRK8QVariant@Base 5.0.2 1
 _ZN22QDeclarativeDebugWatch16staticMetaObjectE@Base 5.0.2 1
 _ZN22QDeclarativeDebugWatch8setStateENS_5StateE@Base 5.0.2 1
 _ZN22QDeclarativeDebugWatchC1EP7QObject@Base 5.0.2 1
 _ZN22QDeclarativeDebugWatchC2EP7QObject@Base 5.0.2 1
 _ZN22QDeclarativeDebugWatchD0Ev@Base 5.0.2 1
 _ZN22QDeclarativeDebugWatchD1Ev@Base 5.0.2 1
 _ZN22QDeclarativeDebugWatchD2Ev@Base 5.0.2 1
 _ZN22QDeclarativeExpression10clearErrorEv@Base 5.0.2
 _ZN22QDeclarativeExpression11qt_metacallEN11QMetaObject4CallEiPPv@Base 5.0.2
 _ZN22QDeclarativeExpression11qt_metacastEPKc@Base 5.0.2
 _ZN22QDeclarativeExpression12valueChangedEv@Base 5.0.2
 _ZN22QDeclarativeExpression13setExpressionERK7QString@Base 5.0.2
 _ZN22QDeclarativeExpression16staticMetaObjectE@Base 5.0.2
 _ZN22QDeclarativeExpression17setSourceLocationERK7QStringi@Base 5.0.2
 _ZN22QDeclarativeExpression23setNotifyOnValueChangedEb@Base 5.0.2
 _ZN22QDeclarativeExpression8evaluateEPb@Base 5.0.2
 _ZN22QDeclarativeExpressionC1EP19QDeclarativeContextP7QObjectRK7QStringS3_@Base 5.0.2
 _ZN22QDeclarativeExpressionC1EP23QDeclarativeContextDataP7QObjectRK12QScriptValueR29QDeclarativeExpressionPrivate@Base 5.0.2 1
 _ZN22QDeclarativeExpressionC1EP23QDeclarativeContextDataP7QObjectRK7QString@Base 5.0.2 1
 _ZN22QDeclarativeExpressionC1EP23QDeclarativeContextDataP7QObjectRK7QStringR29QDeclarativeExpressionPrivate@Base 5.0.2 1
 _ZN22QDeclarativeExpressionC1EP23QDeclarativeContextDataPvP20QDeclarativeRefCountP7QObjectRK7QStringiR29QDeclarativeExpressionPrivate@Base 5.0.2 1
 _ZN22QDeclarativeExpressionC1Ev@Base 5.0.2
 _ZN22QDeclarativeExpressionC2EP19QDeclarativeContextP7QObjectRK7QStringS3_@Base 5.0.2
 _ZN22QDeclarativeExpressionC2EP23QDeclarativeContextDataP7QObjectRK12QScriptValueR29QDeclarativeExpressionPrivate@Base 5.0.2 1
 _ZN22QDeclarativeExpressionC2EP23QDeclarativeContextDataP7QObjectRK7QString@Base 5.0.2 1
 _ZN22QDeclarativeExpressionC2EP23QDeclarativeContextDataP7QObjectRK7QStringR29QDeclarativeExpressionPrivate@Base 5.0.2 1
 _ZN22QDeclarativeExpressionC2EP23QDeclarativeContextDataPvP20QDeclarativeRefCountP7QObjectRK7QStringiR29QDeclarativeExpressionPrivate@Base 5.0.2 1
 _ZN22QDeclarativeExpressionC2Ev@Base 5.0.2
 _ZN22QDeclarativeExpressionD0Ev@Base 5.0.2
 _ZN22QDeclarativeExpressionD1Ev@Base 5.0.2
 _ZN22QDeclarativeExpressionD2Ev@Base 5.0.2
 _ZN22QDeclarativeMouseEvent11qt_metacallEN11QMetaObject4CallEiPPv@Base 5.0.2 1
 _ZN22QDeclarativeMouseEvent11qt_metacastEPKc@Base 5.0.2 1
 _ZN22QDeclarativeMouseEvent16staticMetaObjectE@Base 5.0.2 1
 (optional=gccinternal)_ZN22QDeclarativeMouseEventD0Ev@Base 5.0.2 1
 (optional=gccinternal)_ZN22QDeclarativeMouseEventD1Ev@Base 5.0.2 1
 (optional=gccinternal)_ZN22QDeclarativeMouseEventD2Ev@Base 5.0.2 1
 _ZN22QDeclarativeStateGroup10classBeginEv@Base 5.0.2 1
 _ZN22QDeclarativeStateGroup11qt_metacallEN11QMetaObject4CallEiPPv@Base 5.0.2 1
 _ZN22QDeclarativeStateGroup11qt_metacastEPKc@Base 5.0.2 1
 _ZN22QDeclarativeStateGroup11removeStateEP17QDeclarativeState@Base 5.0.2 1
 _ZN22QDeclarativeStateGroup12stateChangedERK7QString@Base 5.0.2 1
 _ZN22QDeclarativeStateGroup14statesPropertyEv@Base 5.0.2 1
 _ZN22QDeclarativeStateGroup15updateAutoStateEv@Base 5.0.2 1
 _ZN22QDeclarativeStateGroup16staticMetaObjectE@Base 5.0.2 1
 _ZN22QDeclarativeStateGroup17componentCompleteEv@Base 5.0.2 1
 _ZN22QDeclarativeStateGroup19transitionsPropertyEv@Base 5.0.2 1
 _ZN22QDeclarativeStateGroup8setStateERK7QString@Base 5.0.2 1
 _ZN22QDeclarativeStateGroupC1EP7QObject@Base 5.0.2 1
 _ZN22QDeclarativeStateGroupC2EP7QObject@Base 5.0.2 1
 _ZN22QDeclarativeStateGroupD0Ev@Base 5.0.2 1
 _ZN22QDeclarativeStateGroupD1Ev@Base 5.0.2 1
 _ZN22QDeclarativeStateGroupD2Ev@Base 5.0.2 1
 _ZN22QDeclarativeTransition10animationsEv@Base 5.0.2 1
 _ZN22QDeclarativeTransition10setToStateERK7QString@Base 5.0.2 1
 _ZN22QDeclarativeTransition11fromChangedEv@Base 5.0.2 1
 _ZN22QDeclarativeTransition11qt_metacallEN11QMetaObject4CallEiPPv@Base 5.0.2 1
 _ZN22QDeclarativeTransition11qt_metacastEPKc@Base 5.0.2 1
 _ZN22QDeclarativeTransition11setReversedEb@Base 5.0.2 1
 _ZN22QDeclarativeTransition12setFromStateERK7QString@Base 5.0.2 1
 _ZN22QDeclarativeTransition13setReversibleEb@Base 5.0.2 1
 _ZN22QDeclarativeTransition16staticMetaObjectE@Base 5.0.2 1
 _ZN22QDeclarativeTransition17reversibleChangedEv@Base 5.0.2 1
 _ZN22QDeclarativeTransition4stopEv@Base 5.0.2 1
 _ZN22QDeclarativeTransition7prepareER5QListI18QDeclarativeActionERS0_I20QDeclarativePropertyEP29QDeclarativeTransitionManager@Base 5.0.2 1
 _ZN22QDeclarativeTransition9toChangedEv@Base 5.0.2 1
 _ZN22QDeclarativeTransitionC1EP7QObject@Base 5.0.2 1
 _ZN22QDeclarativeTransitionC2EP7QObject@Base 5.0.2 1
 _ZN22QDeclarativeTransitionD0Ev@Base 5.0.2 1
 _ZN22QDeclarativeTransitionD1Ev@Base 5.0.2 1
 _ZN22QDeclarativeTransitionD2Ev@Base 5.0.2 1
 _ZN23QDeclarativeApplication11eventFilterEP7QObjectP6QEvent@Base 5.0.2 1
 _ZN23QDeclarativeApplication11qt_metacallEN11QMetaObject4CallEiPPv@Base 5.0.2 1
 _ZN23QDeclarativeApplication11qt_metacastEPKc@Base 5.0.2 1
 _ZN23QDeclarativeApplication13activeChangedEv@Base 5.0.2 1
 _ZN23QDeclarativeApplication16staticMetaObjectE@Base 5.0.2 1
 _ZN23QDeclarativeApplication22layoutDirectionChangedEv@Base 5.0.2 1
 _ZN23QDeclarativeApplicationC1EP7QObject@Base 5.0.2 1
 _ZN23QDeclarativeApplicationC2EP7QObject@Base 5.0.2 1
 _ZN23QDeclarativeApplicationD0Ev@Base 5.0.2 1
 _ZN23QDeclarativeApplicationD1Ev@Base 5.0.2 1
 _ZN23QDeclarativeApplicationD2Ev@Base 5.0.2 1
 _ZN23QDeclarativeDebugClient11qt_metacallEN11QMetaObject4CallEiPPv@Base 5.0.2 1
 _ZN23QDeclarativeDebugClient11qt_metacastEPKc@Base 5.0.2 1
 _ZN23QDeclarativeDebugClient11sendMessageERK10QByteArray@Base 5.0.2 1
 _ZN23QDeclarativeDebugClient13statusChangedENS_6StatusE@Base 5.0.2 1
 _ZN23QDeclarativeDebugClient15messageReceivedERK10QByteArray@Base 5.0.2 1
 _ZN23QDeclarativeDebugClient16staticMetaObjectE@Base 5.0.2 1
 _ZN23QDeclarativeDebugClientC1ERK7QStringP27QDeclarativeDebugConnection@Base 5.0.2 1
 _ZN23QDeclarativeDebugClientC2ERK7QStringP27QDeclarativeDebugConnection@Base 5.0.2 1
 _ZN23QDeclarativeDebugClientD0Ev@Base 5.0.2 1
 _ZN23QDeclarativeDebugClientD1Ev@Base 5.0.2 1
 _ZN23QDeclarativeDebugClientD2Ev@Base 5.0.2 1
 _ZN23QDeclarativeDebugHelper15enableDebuggingEv@Base 5.0.2 1
 _ZN23QDeclarativeDebugHelper15getScriptEngineEP18QDeclarativeEngine@Base 5.0.2 1
 _ZN23QDeclarativeDebugHelper26setAnimationSlowDownFactorEd@Base 5.2.0 1
 _ZN23QDeclarativeDebugServer10addServiceEP24QDeclarativeDebugService@Base 5.0.2 1
 _ZN23QDeclarativeDebugServer11qt_metacallEN11QMetaObject4CallEiPPv@Base 5.0.2 1
 _ZN23QDeclarativeDebugServer11qt_metacastEPKc@Base 5.0.2 1
 _ZN23QDeclarativeDebugServer11sendMessageEP24QDeclarativeDebugServiceRK10QByteArray@Base 5.0.2 1
 _ZN23QDeclarativeDebugServer13removeServiceEP24QDeclarativeDebugService@Base 5.0.2 1
 _ZN23QDeclarativeDebugServer14receiveMessageERK10QByteArray@Base 5.0.2 1
 _ZN23QDeclarativeDebugServer14waitForMessageEP24QDeclarativeDebugService@Base 5.0.2 1
 _ZN23QDeclarativeDebugServer16staticMetaObjectE@Base 5.0.2 1
 _ZN23QDeclarativeDebugServer8instanceEv@Base 5.0.2 1
 _ZN23QDeclarativeDebugServerC1Ev@Base 5.0.2 1
 _ZN23QDeclarativeDebugServerC2Ev@Base 5.0.2 1
 (optional=gccinternal)_ZN23QDeclarativeDebugServerD0Ev@Base 5.0.2 1
 (optional=gccinternal)_ZN23QDeclarativeDebugServerD1Ev@Base 5.0.2 1
 (optional=gccinternal)_ZN23QDeclarativeDebugServerD2Ev@Base 5.0.2 1
 _ZN23QDeclarativeDomDocument4loadEP18QDeclarativeEngineRK10QByteArrayRK4QUrl@Base 5.0.2 1
 _ZN23QDeclarativeDomDocumentC1ERKS_@Base 5.0.2 1
 _ZN23QDeclarativeDomDocumentC1Ev@Base 5.0.2 1
 _ZN23QDeclarativeDomDocumentC2ERKS_@Base 5.0.2 1
 _ZN23QDeclarativeDomDocumentC2Ev@Base 5.0.2 1
 _ZN23QDeclarativeDomDocumentD1Ev@Base 5.0.2 1
 _ZN23QDeclarativeDomDocumentD2Ev@Base 5.0.2 1
 _ZN23QDeclarativeDomDocumentaSERKS_@Base 5.0.2 1
 _ZN23QDeclarativeDomPropertyC1ERKS_@Base 5.0.2 1
 _ZN23QDeclarativeDomPropertyC1Ev@Base 5.0.2 1
 _ZN23QDeclarativeDomPropertyC2ERKS_@Base 5.0.2 1
 _ZN23QDeclarativeDomPropertyC2Ev@Base 5.0.2 1
 _ZN23QDeclarativeDomPropertyD1Ev@Base 5.0.2 1
 _ZN23QDeclarativeDomPropertyD2Ev@Base 5.0.2 1
 _ZN23QDeclarativeDomPropertyaSERKS_@Base 5.0.2 1
 _ZN23QDeclarativeEngineDebug10newObjectsEv@Base 5.0.2 1
 _ZN23QDeclarativeEngineDebug11qt_metacallEN11QMetaObject4CallEiPPv@Base 5.0.2 1
 _ZN23QDeclarativeEngineDebug11qt_metacastEPKc@Base 5.0.2 1
 _ZN23QDeclarativeEngineDebug11queryObjectERK32QDeclarativeDebugObjectReferenceP7QObject@Base 5.0.2 1
 _ZN23QDeclarativeEngineDebug11removeWatchEP22QDeclarativeDebugWatch@Base 5.0.2 1
 _ZN23QDeclarativeEngineDebug13setMethodBodyEiRK7QStringS2_@Base 5.0.2 1
 _ZN23QDeclarativeEngineDebug13statusChangedENS_6StatusE@Base 5.0.2 1
 _ZN23QDeclarativeEngineDebug16staticMetaObjectE@Base 5.0.2 1
 _ZN23QDeclarativeEngineDebug17queryRootContextsERK32QDeclarativeDebugEngineReferenceP7QObject@Base 5.0.2 1
 _ZN23QDeclarativeEngineDebug19setBindingForObjectEiRK7QStringRK8QVariantbS0_i@Base 5.0.2 1
 _ZN23QDeclarativeEngineDebug20queryObjectRecursiveERK32QDeclarativeDebugObjectReferenceP7QObject@Base 5.0.2 1
 _ZN23QDeclarativeEngineDebug21queryAvailableEnginesEP7QObject@Base 5.0.2 1
 _ZN23QDeclarativeEngineDebug21queryExpressionResultEiRK7QStringP7QObject@Base 5.0.2 1
 _ZN23QDeclarativeEngineDebug21resetBindingForObjectEiRK7QString@Base 5.0.2 1
 _ZN23QDeclarativeEngineDebug8addWatchERK30QDeclarativeDebugFileReferenceP7QObject@Base 5.0.2 1
 _ZN23QDeclarativeEngineDebug8addWatchERK32QDeclarativeDebugObjectReferenceP7QObject@Base 5.0.2 1
 _ZN23QDeclarativeEngineDebug8addWatchERK32QDeclarativeDebugObjectReferenceRK7QStringP7QObject@Base 5.0.2 1
 _ZN23QDeclarativeEngineDebug8addWatchERK33QDeclarativeDebugContextReferenceRK7QStringP7QObject@Base 5.0.2 1
 _ZN23QDeclarativeEngineDebug8addWatchERK34QDeclarativeDebugPropertyReferenceP7QObject@Base 5.0.2 1
 _ZN23QDeclarativeEngineDebugC1EP27QDeclarativeDebugConnectionP7QObject@Base 5.0.2 1
 _ZN23QDeclarativeEngineDebugC2EP27QDeclarativeDebugConnectionP7QObject@Base 5.0.2 1
 (optional=gccinternal)_ZN23QDeclarativeEngineDebugD0Ev@Base 5.0.2 1
 (optional=gccinternal)_ZN23QDeclarativeEngineDebugD1Ev@Base 5.0.2 1
 (optional=gccinternal)_ZN23QDeclarativeEngineDebugD2Ev@Base 5.0.2 1
 _ZN23QDeclarativeItemPrivate10data_clearEP24QDeclarativeListPropertyI7QObjectE@Base 5.0.2 1
 _ZN23QDeclarativeItemPrivate10data_countEP24QDeclarativeListPropertyI7QObjectE@Base 5.0.2 1
 _ZN23QDeclarativeItemPrivate10resetWidthEv@Base 5.0.2 1
 _ZN23QDeclarativeItemPrivate11AnchorLinesC1EP15QGraphicsObject@Base 5.0.2 1
 _ZN23QDeclarativeItemPrivate11AnchorLinesC2EP15QGraphicsObject@Base 5.0.2 1
 _ZN23QDeclarativeItemPrivate11data_appendEP24QDeclarativeListPropertyI7QObjectEPS1_@Base 5.0.2 1
 _ZN23QDeclarativeItemPrivate11resetHeightEv@Base 5.0.2 1
 _ZN23QDeclarativeItemPrivate11transitionsEv@Base 5.0.2 1
 _ZN23QDeclarativeItemPrivate12focusChangedEb@Base 5.0.2 1
 _ZN23QDeclarativeItemPrivate12resources_atEP24QDeclarativeListPropertyI7QObjectEi@Base 5.0.2 1
 _ZN23QDeclarativeItemPrivate12transform_atEP24QDeclarativeListPropertyI18QGraphicsTransformEi@Base 5.0.2 1
 _ZN23QDeclarativeItemPrivate14consistentTimeE@Base 5.0.2 1
 _ZN23QDeclarativeItemPrivate14parentPropertyEP7QObjectPvP28QDeclarativeNotifierEndpoint@Base 5.0.2 1
 _ZN23QDeclarativeItemPrivate15resources_clearEP24QDeclarativeListPropertyI7QObjectE@Base 5.0.2 1
 _ZN23QDeclarativeItemPrivate15resources_countEP24QDeclarativeListPropertyI7QObjectE@Base 5.0.2 1
 _ZN23QDeclarativeItemPrivate15setLayoutMirrorEb@Base 5.0.2 1
 _ZN23QDeclarativeItemPrivate15transform_clearEP24QDeclarativeListPropertyI18QGraphicsTransformE@Base 5.0.2 1
 _ZN23QDeclarativeItemPrivate15transform_countEP24QDeclarativeListPropertyI18QGraphicsTransformE@Base 5.0.2 1
 _ZN23QDeclarativeItemPrivate16resources_appendEP24QDeclarativeListPropertyI7QObjectEPS1_@Base 5.0.2 1
 _ZN23QDeclarativeItemPrivate16transformChangedEv@Base 5.0.2 1
 _ZN23QDeclarativeItemPrivate16transform_appendEP24QDeclarativeListPropertyI18QGraphicsTransformEPS1_@Base 5.0.2 1
 _ZN23QDeclarativeItemPrivate17setConsistentTimeEx@Base 5.0.2 1
 _ZN23QDeclarativeItemPrivate19resolveLayoutMirrorEv@Base 5.0.2 1
 _ZN23QDeclarativeItemPrivate20implicitWidthChangedEv@Base 5.0.2 1
 _ZN23QDeclarativeItemPrivate21implicitHeightChangedEv@Base 5.0.2 1
 _ZN23QDeclarativeItemPrivate23setImplicitLayoutMirrorEbb@Base 5.0.2 1
 _ZN23QDeclarativeItemPrivate24removeItemChangeListenerEP30QDeclarativeItemChangeListener6QFlagsINS_10ChangeTypeEE@Base 5.0.2 1
 _ZN23QDeclarativeItemPrivate4dataEv@Base 5.0.2 1
 _ZN23QDeclarativeItemPrivate5startER13QElapsedTimer@Base 5.0.2 1
 _ZN23QDeclarativeItemPrivate6statesEv@Base 5.0.2 1
 _ZN23QDeclarativeItemPrivate7_statesEv@Base 5.0.2 1
 _ZN23QDeclarativeItemPrivate7data_atEP24QDeclarativeListPropertyI7QObjectEi@Base 5.0.2 1
 _ZN23QDeclarativeItemPrivate7elapsedER13QElapsedTimer@Base 5.0.2 1
 _ZN23QDeclarativeItemPrivate7restartER13QElapsedTimer@Base 5.0.2 1
 _ZN23QDeclarativeItemPrivate8setStateERK7QString@Base 5.0.2 1
 _ZN23QDeclarativeItemPrivate8setWidthEd@Base 5.2.0 1
 _ZN23QDeclarativeItemPrivate9resourcesEv@Base 5.0.2 1
 _ZN23QDeclarativeItemPrivate9setHeightEd@Base 5.2.0 1
 (optional=gccinternal)_ZN23QDeclarativeItemPrivateD0Ev@Base 5.0.2 1
 (optional=gccinternal)_ZN23QDeclarativeItemPrivateD1Ev@Base 5.0.2 1
 (optional=gccinternal)_ZN23QDeclarativeItemPrivateD2Ev@Base 5.0.2 1
 _ZN23QDeclarativePropertyMap11qt_metacallEN11QMetaObject4CallEiPPv@Base 5.0.2
 _ZN23QDeclarativePropertyMap11qt_metacastEPKc@Base 5.0.2
 _ZN23QDeclarativePropertyMap12valueChangedERK7QStringRK8QVariant@Base 5.0.2
 _ZN23QDeclarativePropertyMap16staticMetaObjectE@Base 5.0.2
 _ZN23QDeclarativePropertyMap5clearERK7QString@Base 5.0.2
 _ZN23QDeclarativePropertyMap6insertERK7QStringRK8QVariant@Base 5.0.2
 _ZN23QDeclarativePropertyMapC1EP7QObject@Base 5.0.2
 _ZN23QDeclarativePropertyMapC2EP7QObject@Base 5.0.2
 _ZN23QDeclarativePropertyMapD0Ev@Base 5.0.2
 _ZN23QDeclarativePropertyMapD1Ev@Base 5.0.2
 _ZN23QDeclarativePropertyMapD2Ev@Base 5.0.2
 _ZN23QDeclarativePropertyMapixERK7QString@Base 5.0.2
 _ZN24QDeclarativeCustomParser11clearErrorsEv@Base 5.0.2 1
 _ZN24QDeclarativeCustomParser14rewriteBindingERK7QStringRK10QByteArray@Base 5.0.2 1
 _ZN24QDeclarativeCustomParser5errorERK28QDeclarativeCustomParserNodeRK7QString@Base 5.0.2 1
 _ZN24QDeclarativeCustomParser5errorERK32QDeclarativeCustomParserPropertyRK7QString@Base 5.0.2 1
 _ZN24QDeclarativeCustomParser5errorERK7QString@Base 5.0.2 1
 _ZN24QDeclarativeDebugService11idForObjectEP7QObject@Base 5.0.2 1
 _ZN24QDeclarativeDebugService11objectForIdEi@Base 5.0.2 1
 _ZN24QDeclarativeDebugService11qt_metacallEN11QMetaObject4CallEiPPv@Base 5.0.2 1
 _ZN24QDeclarativeDebugService11qt_metacastEPKc@Base 5.0.2 1
 _ZN24QDeclarativeDebugService11sendMessageERK10QByteArray@Base 5.0.2 1
 _ZN24QDeclarativeDebugService13statusChangedENS_6StatusE@Base 5.0.2 1
 _ZN24QDeclarativeDebugService14objectToStringEP7QObject@Base 5.0.2 1
 _ZN24QDeclarativeDebugService14waitForMessageEv@Base 5.0.2 1
 _ZN24QDeclarativeDebugService15messageReceivedERK10QByteArray@Base 5.0.2 1
 _ZN24QDeclarativeDebugService16staticMetaObjectE@Base 5.0.2 1
 _ZN24QDeclarativeDebugService18hasDebuggingClientEv@Base 5.0.2 1
 _ZN24QDeclarativeDebugService18isDebuggingEnabledEv@Base 5.0.2 1
 _ZN24QDeclarativeDebugServiceC1ERK7QStringP7QObject@Base 5.0.2 1
 _ZN24QDeclarativeDebugServiceC2ERK7QStringP7QObject@Base 5.0.2 1
 _ZN24QDeclarativeDebugServiceD0Ev@Base 5.0.2 1
 _ZN24QDeclarativeDebugServiceD1Ev@Base 5.0.2 1
 _ZN24QDeclarativeDebugServiceD2Ev@Base 5.0.2 1
 _ZN24QDeclarativeDomComponentC1ERKS_@Base 5.0.2 1
 _ZN24QDeclarativeDomComponentC1Ev@Base 5.0.2 1
 _ZN24QDeclarativeDomComponentC2ERKS_@Base 5.0.2 1
 _ZN24QDeclarativeDomComponentC2Ev@Base 5.0.2 1
 _ZN24QDeclarativeDomComponentD1Ev@Base 5.0.2 1
 _ZN24QDeclarativeDomComponentD2Ev@Base 5.0.2 1
 _ZN24QDeclarativeDomComponentaSERKS_@Base 5.0.2 1
 _ZN24QDeclarativeParentChange11qt_metacallEN11QMetaObject4CallEiPPv@Base 5.0.2 1
 _ZN24QDeclarativeParentChange11qt_metacastEPKc@Base 5.0.2 1
 _ZN24QDeclarativeParentChange11setRotationE24QDeclarativeScriptString@Base 5.0.2 1
 _ZN24QDeclarativeParentChange12isReversableEv@Base 5.0.2 1
 _ZN24QDeclarativeParentChange13saveOriginalsEv@Base 5.0.2 1
 _ZN24QDeclarativeParentChange16staticMetaObjectE@Base 5.0.2 1
 _ZN24QDeclarativeParentChange17saveCurrentValuesEv@Base 5.0.2 1
 _ZN24QDeclarativeParentChange4setXE24QDeclarativeScriptString@Base 5.0.2 1
 _ZN24QDeclarativeParentChange4setYE24QDeclarativeScriptString@Base 5.0.2 1
 _ZN24QDeclarativeParentChange6rewindEv@Base 5.0.2 1
 _ZN24QDeclarativeParentChange7actionsEv@Base 5.0.2 1
 _ZN24QDeclarativeParentChange7executeEN23QDeclarativeActionEvent6ReasonE@Base 5.0.2 1
 _ZN24QDeclarativeParentChange7reverseEN23QDeclarativeActionEvent6ReasonE@Base 5.0.2 1
 _ZN24QDeclarativeParentChange8overrideEP23QDeclarativeActionEvent@Base 5.0.2 1
 _ZN24QDeclarativeParentChange8setScaleE24QDeclarativeScriptString@Base 5.0.2 1
 _ZN24QDeclarativeParentChange8setWidthE24QDeclarativeScriptString@Base 5.0.2 1
 _ZN24QDeclarativeParentChange9setHeightE24QDeclarativeScriptString@Base 5.0.2 1
 _ZN24QDeclarativeParentChange9setObjectEP16QDeclarativeItem@Base 5.0.2 1
 _ZN24QDeclarativeParentChange9setParentEP16QDeclarativeItem@Base 5.0.2 1
 _ZN24QDeclarativeParentChangeC1EP7QObject@Base 5.0.2 1
 _ZN24QDeclarativeParentChangeC2EP7QObject@Base 5.0.2 1
 _ZN24QDeclarativeParentChangeD0Ev@Base 5.0.2 1
 _ZN24QDeclarativeParentChangeD1Ev@Base 5.0.2 1
 _ZN24QDeclarativeParentChangeD2Ev@Base 5.0.2 1
 _ZN24QDeclarativeParserStatusC1Ev@Base 5.0.2
 _ZN24QDeclarativeParserStatusC2Ev@Base 5.0.2
 _ZN24QDeclarativeParserStatusD0Ev@Base 5.0.2
 _ZN24QDeclarativeParserStatusD1Ev@Base 5.0.2
 _ZN24QDeclarativeParserStatusD2Ev@Base 5.0.2
 _ZN24QDeclarativeScriptAction10transitionER5QListI18QDeclarativeActionERS0_I20QDeclarativePropertyEN29QDeclarativeAbstractAnimation19TransitionDirectionE@Base 5.0.2 1
 _ZN24QDeclarativeScriptAction11qtAnimationEv@Base 5.0.2 1
 _ZN24QDeclarativeScriptAction11qt_metacallEN11QMetaObject4CallEiPPv@Base 5.0.2 1
 _ZN24QDeclarativeScriptAction11qt_metacastEPKc@Base 5.0.2 1
 _ZN24QDeclarativeScriptAction16staticMetaObjectE@Base 5.0.2 1
 _ZN24QDeclarativeScriptAction24setStateChangeScriptNameERK7QString@Base 5.0.2 1
 _ZN24QDeclarativeScriptAction9setScriptERK24QDeclarativeScriptString@Base 5.0.2 1
 _ZN24QDeclarativeScriptActionC1EP7QObject@Base 5.0.2 1
 _ZN24QDeclarativeScriptActionC2EP7QObject@Base 5.0.2 1
 _ZN24QDeclarativeScriptActionD0Ev@Base 5.0.2 1
 _ZN24QDeclarativeScriptActionD1Ev@Base 5.0.2 1
 _ZN24QDeclarativeScriptActionD2Ev@Base 5.0.2 1
 _ZN24QDeclarativeScriptString10setContextEP19QDeclarativeContext@Base 5.0.2
 _ZN24QDeclarativeScriptString14setScopeObjectEP7QObject@Base 5.0.2
 _ZN24QDeclarativeScriptString9setScriptERK7QString@Base 5.0.2
 _ZN24QDeclarativeScriptStringC1ERKS_@Base 5.0.2
 _ZN24QDeclarativeScriptStringC1Ev@Base 5.0.2
 _ZN24QDeclarativeScriptStringC2ERKS_@Base 5.0.2
 _ZN24QDeclarativeScriptStringC2Ev@Base 5.0.2
 _ZN24QDeclarativeScriptStringD1Ev@Base 5.0.2
 _ZN24QDeclarativeScriptStringD2Ev@Base 5.0.2
 _ZN24QDeclarativeScriptStringaSERKS_@Base 5.0.2
 _ZN25QDeclarativeAnchorChanges11qt_metacallEN11QMetaObject4CallEiPPv@Base 5.0.2 1
 _ZN25QDeclarativeAnchorChanges11qt_metacastEPKc@Base 5.0.2 1
 _ZN25QDeclarativeAnchorChanges12isReversableEv@Base 5.0.2 1
 _ZN25QDeclarativeAnchorChanges13clearBindingsEv@Base 5.0.2 1
 _ZN25QDeclarativeAnchorChanges13copyOriginalsEP23QDeclarativeActionEvent@Base 5.0.2 1
 _ZN25QDeclarativeAnchorChanges13saveOriginalsEv@Base 5.0.2 1
 _ZN25QDeclarativeAnchorChanges15changesBindingsEv@Base 5.0.2 1
 _ZN25QDeclarativeAnchorChanges16saveTargetValuesEv@Base 5.0.2 1
 _ZN25QDeclarativeAnchorChanges16staticMetaObjectE@Base 5.0.2 1
 _ZN25QDeclarativeAnchorChanges17additionalActionsEv@Base 5.0.2 1
 _ZN25QDeclarativeAnchorChanges17saveCurrentValuesEv@Base 5.0.2 1
 _ZN25QDeclarativeAnchorChanges6rewindEv@Base 5.0.2 1
 _ZN25QDeclarativeAnchorChanges7actionsEv@Base 5.0.2 1
 _ZN25QDeclarativeAnchorChanges7anchorsEv@Base 5.0.2 1
 _ZN25QDeclarativeAnchorChanges7executeEN23QDeclarativeActionEvent6ReasonE@Base 5.0.2 1
 _ZN25QDeclarativeAnchorChanges7reverseEN23QDeclarativeActionEvent6ReasonE@Base 5.0.2 1
 _ZN25QDeclarativeAnchorChanges8overrideEP23QDeclarativeActionEvent@Base 5.0.2 1
 _ZN25QDeclarativeAnchorChanges9setObjectEP16QDeclarativeItem@Base 5.0.2 1
 _ZN25QDeclarativeAnchorChangesC1EP7QObject@Base 5.0.2 1
 _ZN25QDeclarativeAnchorChangesC2EP7QObject@Base 5.0.2 1
 _ZN25QDeclarativeAnchorChangesD0Ev@Base 5.0.2 1
 _ZN25QDeclarativeAnchorChangesD1Ev@Base 5.0.2 1
 _ZN25QDeclarativeAnchorChangesD2Ev@Base 5.0.2 1
 _ZN25QDeclarativeImageProvider12requestImageERK7QStringP5QSizeRKS3_@Base 5.0.2
 _ZN25QDeclarativeImageProvider13requestPixmapERK7QStringP5QSizeRKS3_@Base 5.0.2
 _ZN25QDeclarativeImageProviderC1ENS_9ImageTypeE@Base 5.0.2
 _ZN25QDeclarativeImageProviderC2ENS_9ImageTypeE@Base 5.0.2
 _ZN25QDeclarativeImageProviderD0Ev@Base 5.0.2
 _ZN25QDeclarativeImageProviderD1Ev@Base 5.0.2
 _ZN25QDeclarativeImageProviderD2Ev@Base 5.0.2
 _ZN25QDeclarativeListReferenceC1EP7QObjectPKcP18QDeclarativeEngine@Base 5.0.2
 _ZN25QDeclarativeListReferenceC1ERKS_@Base 5.0.2
 _ZN25QDeclarativeListReferenceC1Ev@Base 5.0.2
 _ZN25QDeclarativeListReferenceC2EP7QObjectPKcP18QDeclarativeEngine@Base 5.0.2
 _ZN25QDeclarativeListReferenceC2ERKS_@Base 5.0.2
 _ZN25QDeclarativeListReferenceC2Ev@Base 5.0.2
 _ZN25QDeclarativeListReferenceD1Ev@Base 5.0.2
 _ZN25QDeclarativeListReferenceD2Ev@Base 5.0.2
 _ZN25QDeclarativeListReferenceaSERKS_@Base 5.0.2
 (optional=gccinternal)_ZN26QAbstractDynamicMetaObjectD0Ev@Base 5.0.2
 (optional=gccinternal)_ZN26QAbstractDynamicMetaObjectD1Ev@Base 5.0.2
 (optional=gccinternal)_ZN26QAbstractDynamicMetaObjectD2Ev@Base 5.0.2
 _ZN26QDeclarativeBasePositioner10addChangedEv@Base 5.0.2 1
 _ZN26QDeclarativeBasePositioner10itemChangeEN13QGraphicsItem18GraphicsItemChangeERK8QVariant@Base 5.0.2 1
 _ZN26QDeclarativeBasePositioner10setSpacingEi@Base 5.0.2 1
 _ZN26QDeclarativeBasePositioner11moveChangedEv@Base 5.0.2 1
 _ZN26QDeclarativeBasePositioner11qt_metacallEN11QMetaObject4CallEiPPv@Base 5.0.2 1
 _ZN26QDeclarativeBasePositioner11qt_metacastEPKc@Base 5.0.2 1
 _ZN26QDeclarativeBasePositioner14prePositioningEv@Base 5.0.2 1
 _ZN26QDeclarativeBasePositioner14spacingChangedEv@Base 5.0.2 1
 _ZN26QDeclarativeBasePositioner16staticMetaObjectE@Base 5.0.2 1
 _ZN26QDeclarativeBasePositioner17componentCompleteEv@Base 5.0.2 1
 _ZN26QDeclarativeBasePositioner22finishApplyTransitionsEv@Base 5.0.2 1
 _ZN26QDeclarativeBasePositioner29graphicsWidgetGeometryChangedEv@Base 5.0.2 1
 _ZN26QDeclarativeBasePositioner6setAddEP22QDeclarativeTransition@Base 5.0.2 1
 _ZN26QDeclarativeBasePositioner7setMoveEP22QDeclarativeTransition@Base 5.0.2 1
 _ZN26QDeclarativeBasePositioner9positionXEiRKNS_14PositionedItemE@Base 5.0.2 1
 _ZN26QDeclarativeBasePositioner9positionYEiRKNS_14PositionedItemE@Base 5.0.2 1
 _ZN26QDeclarativeBasePositionerC1ENS_14PositionerTypeEP16QDeclarativeItem@Base 5.0.2 1
 _ZN26QDeclarativeBasePositionerC1ER33QDeclarativeBasePositionerPrivateNS_14PositionerTypeEP16QDeclarativeItem@Base 5.0.2 1
 _ZN26QDeclarativeBasePositionerC2ENS_14PositionerTypeEP16QDeclarativeItem@Base 5.0.2 1
 _ZN26QDeclarativeBasePositionerC2ER33QDeclarativeBasePositionerPrivateNS_14PositionerTypeEP16QDeclarativeItem@Base 5.0.2 1
 _ZN26QDeclarativeBasePositionerD0Ev@Base 5.0.2 1
 _ZN26QDeclarativeBasePositionerD1Ev@Base 5.0.2 1
 _ZN26QDeclarativeBasePositionerD2Ev@Base 5.0.2 1
 _ZN26QDeclarativeDebuggerStatus16setSelectedStateEb@Base 5.0.2 1
 _ZN26QDeclarativeDebuggerStatusD0Ev@Base 5.0.2 1
 _ZN26QDeclarativeDebuggerStatusD1Ev@Base 5.0.2 1
 _ZN26QDeclarativeDebuggerStatusD2Ev@Base 5.0.2 1
 _ZN26QDeclarativeOpenMetaObject12initialValueEi@Base 5.0.2 1
 _ZN26QDeclarativeOpenMetaObject12propertyReadEi@Base 5.0.2 1
 _ZN26QDeclarativeOpenMetaObject13propertyWriteEi@Base 5.0.2 1
 _ZN26QDeclarativeOpenMetaObject14createPropertyEPKcS1_@Base 5.0.2 1
 _ZN26QDeclarativeOpenMetaObject15propertyCreatedEiR20QMetaPropertyBuilder@Base 5.0.2 1
 _ZN26QDeclarativeOpenMetaObject15propertyWrittenEi@Base 5.0.2 1
 _ZN26QDeclarativeOpenMetaObject8metaCallEN11QMetaObject4CallEiPPv@Base 5.0.2 1
 _ZN26QDeclarativeOpenMetaObject8setValueERK10QByteArrayRK8QVariant@Base 5.0.2 1
 _ZN26QDeclarativeOpenMetaObject8setValueEiRK8QVariant@Base 5.0.2 1
 _ZN26QDeclarativeOpenMetaObject9setCachedEb@Base 5.0.2 1
 _ZN26QDeclarativeOpenMetaObjectC1EP7QObjectP30QDeclarativeOpenMetaObjectTypeb@Base 5.0.2 1
 _ZN26QDeclarativeOpenMetaObjectC1EP7QObjectb@Base 5.0.2 1
 _ZN26QDeclarativeOpenMetaObjectC2EP7QObjectP30QDeclarativeOpenMetaObjectTypeb@Base 5.0.2 1
 _ZN26QDeclarativeOpenMetaObjectC2EP7QObjectb@Base 5.0.2 1
 _ZN26QDeclarativeOpenMetaObjectD0Ev@Base 5.0.2 1
 _ZN26QDeclarativeOpenMetaObjectD1Ev@Base 5.0.2 1
 _ZN26QDeclarativeOpenMetaObjectD2Ev@Base 5.0.2 1
 _ZN26QDeclarativeOpenMetaObjectixERK10QByteArray@Base 5.0.2 1
 _ZN26QDeclarativeOpenMetaObjectixEi@Base 5.0.2 1
 _ZN26QDeclarativeStateOperation11qt_metacallEN11QMetaObject4CallEiPPv@Base 5.0.2 1
 _ZN26QDeclarativeStateOperation11qt_metacastEPKc@Base 5.0.2 1
 _ZN26QDeclarativeStateOperation16staticMetaObjectE@Base 5.0.2 1
 _ZN26QDeclarativeStateOperation7actionsEv@Base 5.0.2 1
 _ZN26QDeclarativeStateOperation8setStateEP17QDeclarativeState@Base 5.0.2 1
 _ZN26QDeclarativeStateOperationC1ER14QObjectPrivateP7QObject@Base 5.0.2 1
 _ZN26QDeclarativeStateOperationC2ER14QObjectPrivateP7QObject@Base 5.0.2 1
 (optional=gccinternal)_ZN26QDeclarativeStateOperationD0Ev@Base 5.0.2 1
 (optional=gccinternal)_ZN26QDeclarativeStateOperationD1Ev@Base 5.0.2 1
 (optional=gccinternal)_ZN26QDeclarativeStateOperationD2Ev@Base 5.0.2 1
 _ZN27QDeclarativeAbstractBinding10setEnabledEb6QFlagsIN27QDeclarativePropertyPrivate9WriteFlagEE@Base 5.0.2 1
 _ZN27QDeclarativeAbstractBinding11addToObjectEP7QObjecti@Base 5.0.2 1
 _ZN27QDeclarativeAbstractBinding11weakPointerEv@Base 5.0.2 1
 _ZN27QDeclarativeAbstractBinding16removeFromObjectEv@Base 5.0.2 1
 _ZN27QDeclarativeAbstractBinding5clearEv@Base 5.0.2 1
 _ZN27QDeclarativeAbstractBinding7destroyEv@Base 5.0.2 1
 _ZN27QDeclarativeAbstractBindingC1Ev@Base 5.0.2 1
 _ZN27QDeclarativeAbstractBindingC2Ev@Base 5.0.2 1
 _ZN27QDeclarativeAbstractBindingD0Ev@Base 5.0.2 1
 _ZN27QDeclarativeAbstractBindingD1Ev@Base 5.0.2 1
 _ZN27QDeclarativeAbstractBindingD2Ev@Base 5.0.2 1
 _ZN27QDeclarativeDebugConnection11qt_metacallEN11QMetaObject4CallEiPPv@Base 5.0.2 1
 _ZN27QDeclarativeDebugConnection11qt_metacastEPKc@Base 5.0.2 1
 _ZN27QDeclarativeDebugConnection16staticMetaObjectE@Base 5.0.2 1
 _ZN27QDeclarativeDebugConnectionC1EP7QObject@Base 5.0.2 1
 _ZN27QDeclarativeDebugConnectionC2EP7QObject@Base 5.0.2 1
 _ZN27QDeclarativeDebugConnectionD0Ev@Base 5.0.2 1
 _ZN27QDeclarativeDebugConnectionD1Ev@Base 5.0.2 1
 _ZN27QDeclarativeDebugConnectionD2Ev@Base 5.0.2 1
 _ZN27QDeclarativeDomValueBindingC1ERKS_@Base 5.0.2 1
 _ZN27QDeclarativeDomValueBindingC1Ev@Base 5.0.2 1
 _ZN27QDeclarativeDomValueBindingC2ERKS_@Base 5.0.2 1
 _ZN27QDeclarativeDomValueBindingC2Ev@Base 5.0.2 1
 _ZN27QDeclarativeDomValueBindingD1Ev@Base 5.0.2 1
 _ZN27QDeclarativeDomValueBindingD2Ev@Base 5.0.2 1
 _ZN27QDeclarativeDomValueBindingaSERKS_@Base 5.0.2 1
 _ZN27QDeclarativeDomValueLiteralC1ERKS_@Base 5.0.2 1
 _ZN27QDeclarativeDomValueLiteralC1Ev@Base 5.0.2 1
 _ZN27QDeclarativeDomValueLiteralC2ERKS_@Base 5.0.2 1
 _ZN27QDeclarativeDomValueLiteralC2Ev@Base 5.0.2 1
 _ZN27QDeclarativeDomValueLiteralD1Ev@Base 5.0.2 1
 _ZN27QDeclarativeDomValueLiteralD2Ev@Base 5.0.2 1
 _ZN27QDeclarativeDomValueLiteralaSERKS_@Base 5.0.2 1
 _ZN27QDeclarativeExtensionPlugin11qt_metacallEN11QMetaObject4CallEiPPv@Base 5.0.2
 _ZN27QDeclarativeExtensionPlugin11qt_metacastEPKc@Base 5.0.2
 _ZN27QDeclarativeExtensionPlugin16initializeEngineEP18QDeclarativeEnginePKc@Base 5.0.2
 _ZN27QDeclarativeExtensionPlugin16staticMetaObjectE@Base 5.0.2
 _ZN27QDeclarativeExtensionPluginC1EP7QObject@Base 5.0.2
 _ZN27QDeclarativeExtensionPluginC2EP7QObject@Base 5.0.2
 _ZN27QDeclarativeExtensionPluginD0Ev@Base 5.0.2
 _ZN27QDeclarativeExtensionPluginD1Ev@Base 5.0.2
 _ZN27QDeclarativeExtensionPluginD2Ev@Base 5.0.2
 _ZN27QDeclarativeGridScaledImage12stringToRuleERK7QString@Base 5.0.2 1
 _ZN27QDeclarativeGridScaledImageC1EP9QIODevice@Base 5.0.2 1
 _ZN27QDeclarativeGridScaledImageC1ERKS_@Base 5.0.2 1
 _ZN27QDeclarativeGridScaledImageC1Ev@Base 5.0.2 1
 _ZN27QDeclarativeGridScaledImageC2EP9QIODevice@Base 5.0.2 1
 _ZN27QDeclarativeGridScaledImageC2ERKS_@Base 5.0.2 1
 _ZN27QDeclarativeGridScaledImageC2Ev@Base 5.0.2 1
 _ZN27QDeclarativeGridScaledImageaSERKS_@Base 5.0.2 1
 _ZN27QDeclarativePropertyChanges11changeValueERK7QStringRK8QVariant@Base 5.0.2 1
 _ZN27QDeclarativePropertyChanges11qt_metacallEN11QMetaObject4CallEiPPv@Base 5.0.2 1
 _ZN27QDeclarativePropertyChanges11qt_metacastEPKc@Base 5.0.2 1
 _ZN27QDeclarativePropertyChanges13attachToStateEv@Base 5.0.2 1
 _ZN27QDeclarativePropertyChanges13setIsExplicitEb@Base 5.0.2 1
 _ZN27QDeclarativePropertyChanges14removePropertyERK7QString@Base 5.0.2 1
 _ZN27QDeclarativePropertyChanges15detachFromStateEv@Base 5.0.2 1
 _ZN27QDeclarativePropertyChanges16changeExpressionERK7QStringS2_@Base 5.0.2 1
 _ZN27QDeclarativePropertyChanges16staticMetaObjectE@Base 5.0.2 1
 _ZN27QDeclarativePropertyChanges21setRestoreEntryValuesEb@Base 5.0.2 1
 _ZN27QDeclarativePropertyChanges7actionsEv@Base 5.0.2 1
 _ZN27QDeclarativePropertyChanges9setObjectEP7QObject@Base 5.0.2 1
 _ZN27QDeclarativePropertyChangesC1Ev@Base 5.0.2 1
 _ZN27QDeclarativePropertyChangesC2Ev@Base 5.0.2 1
 _ZN27QDeclarativePropertyChangesD0Ev@Base 5.0.2 1
 _ZN27QDeclarativePropertyChangesD1Ev@Base 5.0.2 1
 _ZN27QDeclarativePropertyChangesD2Ev@Base 5.0.2 1
 _ZN27QDeclarativePropertyPrivate10canConvertEPK11QMetaObjectS2_@Base 5.0.2 1
 _ZN27QDeclarativePropertyPrivate10setBindingEP7QObjectiiP27QDeclarativeAbstractBinding6QFlagsINS_9WriteFlagEE@Base 5.0.2 1
 _ZN27QDeclarativePropertyPrivate10setBindingERK20QDeclarativePropertyP27QDeclarativeAbstractBinding6QFlagsINS_9WriteFlagEE@Base 5.0.2 1
 _ZN27QDeclarativePropertyPrivate11initDefaultEP7QObject@Base 5.0.2 1
 _ZN27QDeclarativePropertyPrivate12bindingIndexERK20QDeclarativeProperty@Base 5.0.2 1
 _ZN27QDeclarativePropertyPrivate12initPropertyEP7QObjectRK7QString@Base 5.0.2 1
 _ZN27QDeclarativePropertyPrivate12savePropertyEPK11QMetaObjecti@Base 5.0.2 1
 _ZN27QDeclarativePropertyPrivate13saveValueTypeEPK11QMetaObjectiS2_i@Base 5.0.2 1
 _ZN27QDeclarativePropertyPrivate15findAliasTargetEP7QObjectiPS1_Pi@Base 5.0.2 1
 _ZN27QDeclarativePropertyPrivate16findSignalByNameEPK11QMetaObjectRK10QByteArray@Base 5.0.2 1
 _ZN27QDeclarativePropertyPrivate16signalExpressionERK20QDeclarativeProperty@Base 5.0.2 1
 _ZN27QDeclarativePropertyPrivate17readValuePropertyEv@Base 5.0.2 1
 _ZN27QDeclarativePropertyPrivate17writeEnumPropertyERK13QMetaPropertyiP7QObjectRK8QVarianti@Base 5.0.2 1
 _ZN27QDeclarativePropertyPrivate18setBindingNoEnableEP7QObjectiiP27QDeclarativeAbstractBinding@Base 5.0.2 1
 _ZN27QDeclarativePropertyPrivate18valueTypeCoreIndexERK20QDeclarativeProperty@Base 5.0.2 1
 _ZN27QDeclarativePropertyPrivate18writeValuePropertyERK8QVariant6QFlagsINS_9WriteFlagEE@Base 5.0.2 1
 _ZN27QDeclarativePropertyPrivate19setSignalExpressionERK20QDeclarativePropertyP22QDeclarativeExpression@Base 5.0.2 1
 _ZN27QDeclarativePropertyPrivate20rawMetaObjectForTypeEP25QDeclarativeEnginePrivatei@Base 5.0.2 1
 _ZN27QDeclarativePropertyPrivate21metaObjectForPropertyEPK11QMetaObjecti@Base 5.0.2 1
 _ZN27QDeclarativePropertyPrivate5equalEPK11QMetaObjectS2_@Base 5.0.2 1
 _ZN27QDeclarativePropertyPrivate5writeEP7QObjectRKN25QDeclarativePropertyCache4DataERK8QVariantP23QDeclarativeContextData6QFlagsINS_9WriteFlagEE@Base 5.0.2 1
 _ZN27QDeclarativePropertyPrivate5writeERK20QDeclarativePropertyRK8QVariant6QFlagsINS_9WriteFlagEE@Base 5.0.2 1
 _ZN27QDeclarativePropertyPrivate7bindingEP7QObjectii@Base 5.0.2 1
 _ZN27QDeclarativePropertyPrivate7bindingERK20QDeclarativeProperty@Base 5.0.2 1
 _ZN27QDeclarativePropertyPrivate7connectEPK7QObjectiS2_iiPi@Base 5.0.2 1
 _ZN27QDeclarativePropertyPrivate7restoreERK10QByteArrayP7QObjectP23QDeclarativeContextData@Base 5.0.2 1
 _ZN27QDeclarativePropertyPrivate7restoreERKN25QDeclarativePropertyCache4DataERKNS0_13ValueTypeDataEP7QObjectP23QDeclarativeContextData@Base 5.0.2 1
 (optional=gccinternal)_ZN27QDeclarativePropertyPrivateD0Ev@Base 5.0.2 1
 (optional=gccinternal)_ZN27QDeclarativePropertyPrivateD1Ev@Base 5.0.2 1
 (optional=gccinternal)_ZN27QDeclarativePropertyPrivateD2Ev@Base 5.0.2 1
 _ZN28QDeclarativeCustomParserNodeC1ERKS_@Base 5.0.2 1
 _ZN28QDeclarativeCustomParserNodeC1Ev@Base 5.0.2 1
 _ZN28QDeclarativeCustomParserNodeC2ERKS_@Base 5.0.2 1
 _ZN28QDeclarativeCustomParserNodeC2Ev@Base 5.0.2 1
 _ZN28QDeclarativeCustomParserNodeD1Ev@Base 5.0.2 1
 _ZN28QDeclarativeCustomParserNodeD2Ev@Base 5.0.2 1
 _ZN28QDeclarativeCustomParserNodeaSERKS_@Base 5.0.2 1
 _ZN28QDeclarativeDebugObjectQuery11qt_metacallEN11QMetaObject4CallEiPPv@Base 5.0.2 1
 _ZN28QDeclarativeDebugObjectQuery11qt_metacastEPKc@Base 5.0.2 1
 _ZN28QDeclarativeDebugObjectQuery16staticMetaObjectE@Base 5.0.2 1
 _ZN28QDeclarativeDebugObjectQueryC1EP7QObject@Base 5.0.2 1
 _ZN28QDeclarativeDebugObjectQueryC2EP7QObject@Base 5.0.2 1
 _ZN28QDeclarativeDebugObjectQueryD0Ev@Base 5.0.2 1
 _ZN28QDeclarativeDebugObjectQueryD1Ev@Base 5.0.2 1
 _ZN28QDeclarativeDebugObjectQueryD2Ev@Base 5.0.2 1
 _ZN28QDeclarativeDebuggingEnablerC1Ev@Base 5.0.2
 _ZN28QDeclarativeDebuggingEnablerC2Ev@Base 5.0.2
 _ZN28QDeclarativeInspectorService10gotMessageERK10QByteArray@Base 5.0.2 1
 _ZN28QDeclarativeInspectorService10removeViewEP16QDeclarativeView@Base 5.0.2 1
 _ZN28QDeclarativeInspectorService11qt_metacallEN11QMetaObject4CallEiPPv@Base 5.0.2 1
 _ZN28QDeclarativeInspectorService11qt_metacastEPKc@Base 5.0.2 1
 _ZN28QDeclarativeInspectorService11sendMessageERK10QByteArray@Base 5.0.2 1
 _ZN28QDeclarativeInspectorService12updateStatusEv@Base 5.0.2 1
 _ZN28QDeclarativeInspectorService13statusChangedEN24QDeclarativeDebugService6StatusE@Base 5.0.2 1
 _ZN28QDeclarativeInspectorService15messageReceivedERK10QByteArray@Base 5.0.2 1
 _ZN28QDeclarativeInspectorService16staticMetaObjectE@Base 5.0.2 1
 _ZN28QDeclarativeInspectorService19loadInspectorPluginEv@Base 5.0.2 1
 _ZN28QDeclarativeInspectorService7addViewEP16QDeclarativeView@Base 5.0.2 1
 _ZN28QDeclarativeInspectorService8instanceEv@Base 5.0.2 1
 _ZN28QDeclarativeInspectorServiceC1Ev@Base 5.0.2 1
 _ZN28QDeclarativeInspectorServiceC2Ev@Base 5.0.2 1
 (optional=gccinternal)_ZN28QDeclarativeInspectorServiceD0Ev@Base 5.0.2 1
 (optional=gccinternal)_ZN28QDeclarativeInspectorServiceD1Ev@Base 5.0.2 1
 (optional=gccinternal)_ZN28QDeclarativeInspectorServiceD2Ev@Base 5.0.2 1
 _ZN28QDeclarativeStringConverters14dateFromStringERK7QStringPb@Base 5.0.2
 _ZN28QDeclarativeStringConverters14timeFromStringERK7QStringPb@Base 5.0.2
 _ZN28QDeclarativeStringConverters15colorFromStringERK7QStringPb@Base 5.0.2
 _ZN28QDeclarativeStringConverters15rectFFromStringERK7QStringPb@Base 5.0.2
 _ZN28QDeclarativeStringConverters15sizeFFromStringERK7QStringPb@Base 5.0.2
 _ZN28QDeclarativeStringConverters16pointFFromStringERK7QStringPb@Base 5.0.2
 _ZN28QDeclarativeStringConverters17variantFromStringERK7QString@Base 5.0.2
 _ZN28QDeclarativeStringConverters17variantFromStringERK7QStringiPb@Base 5.0.2
 _ZN28QDeclarativeStringConverters18dateTimeFromStringERK7QStringPb@Base 5.0.2
 _ZN28QDeclarativeStringConverters18vector3DFromStringERK7QStringPb@Base 5.0.2
 _ZN28QDeclarativeValueTypeFactory11isValueTypeEi@Base 5.0.2 1
 _ZN28QDeclarativeValueTypeFactory18registerValueTypesEv@Base 5.0.2 1
 _ZN28QDeclarativeValueTypeFactory24registerValueTypesCompatEv@Base 5.0.2 1
 _ZN28QDeclarativeValueTypeFactory9valueTypeEi@Base 5.0.2 1
 _ZN28QDeclarativeValueTypeFactoryC1Ev@Base 5.0.2 1
 _ZN28QDeclarativeValueTypeFactoryC2Ev@Base 5.0.2 1
 _ZN28QDeclarativeValueTypeFactoryD1Ev@Base 5.0.2 1
 _ZN28QDeclarativeValueTypeFactoryD2Ev@Base 5.0.2 1
 _ZN29QDeclarativeAbstractAnimation10classBeginEv@Base 5.0.2 1
 _ZN29QDeclarativeAbstractAnimation10setRunningEb@Base 5.0.2 1
 _ZN29QDeclarativeAbstractAnimation10transitionER5QListI18QDeclarativeActionERS0_I20QDeclarativePropertyENS_19TransitionDirectionE@Base 5.0.2 1
 _ZN29QDeclarativeAbstractAnimation11currentTimeEv@Base 5.0.2 1
 _ZN29QDeclarativeAbstractAnimation11qt_metacallEN11QMetaObject4CallEiPPv@Base 5.0.2 1
 _ZN29QDeclarativeAbstractAnimation11qt_metacastEPKc@Base 5.0.2 1
 _ZN29QDeclarativeAbstractAnimation13pausedChangedEb@Base 5.0.2 1
 _ZN29QDeclarativeAbstractAnimation14runningChangedEb@Base 5.0.2 1
 _ZN29QDeclarativeAbstractAnimation14setCurrentTimeEi@Base 5.0.2 1
 _ZN29QDeclarativeAbstractAnimation16loopCountChangedEi@Base 5.0.2 1
 _ZN29QDeclarativeAbstractAnimation16setDefaultTargetERK20QDeclarativeProperty@Base 5.0.2 1
 _ZN29QDeclarativeAbstractAnimation16staticMetaObjectE@Base 5.0.2 1
 _ZN29QDeclarativeAbstractAnimation16timelineCompleteEv@Base 5.0.2 1
 _ZN29QDeclarativeAbstractAnimation17componentCompleteEv@Base 5.0.2 1
 _ZN29QDeclarativeAbstractAnimation17setAlwaysRunToEndEb@Base 5.0.2 1
 _ZN29QDeclarativeAbstractAnimation18componentFinalizedEv@Base 5.0.2 1
 _ZN29QDeclarativeAbstractAnimation20notifyRunningChangedEb@Base 5.0.2 1
 _ZN29QDeclarativeAbstractAnimation21alwaysRunToEndChangedEb@Base 5.0.2 1
 _ZN29QDeclarativeAbstractAnimation21setDisableUserControlEv@Base 5.0.2 1
 _ZN29QDeclarativeAbstractAnimation4stopEv@Base 5.0.2 1
 _ZN29QDeclarativeAbstractAnimation5pauseEv@Base 5.0.2 1
 _ZN29QDeclarativeAbstractAnimation5startEv@Base 5.0.2 1
 _ZN29QDeclarativeAbstractAnimation6resumeEv@Base 5.0.2 1
 _ZN29QDeclarativeAbstractAnimation7restartEv@Base 5.0.2 1
 _ZN29QDeclarativeAbstractAnimation7startedEv@Base 5.0.2 1
 _ZN29QDeclarativeAbstractAnimation8completeEv@Base 5.0.2 1
 _ZN29QDeclarativeAbstractAnimation8setGroupEP26QDeclarativeAnimationGroup@Base 5.0.2 1
 _ZN29QDeclarativeAbstractAnimation8setLoopsEi@Base 5.0.2 1
 _ZN29QDeclarativeAbstractAnimation9completedEv@Base 5.0.2 1
 _ZN29QDeclarativeAbstractAnimation9setPausedEb@Base 5.0.2 1
 _ZN29QDeclarativeAbstractAnimation9setTargetERK20QDeclarativeProperty@Base 5.0.2 1
 _ZN29QDeclarativeAbstractAnimationC1EP7QObject@Base 5.0.2 1
 _ZN29QDeclarativeAbstractAnimationC1ER36QDeclarativeAbstractAnimationPrivateP7QObject@Base 5.0.2 1
 _ZN29QDeclarativeAbstractAnimationC2EP7QObject@Base 5.0.2 1
 _ZN29QDeclarativeAbstractAnimationC2ER36QDeclarativeAbstractAnimationPrivateP7QObject@Base 5.0.2 1
 _ZN29QDeclarativeAbstractAnimationD0Ev@Base 5.0.2 1
 _ZN29QDeclarativeAbstractAnimationD1Ev@Base 5.0.2 1
 _ZN29QDeclarativeAbstractAnimationD2Ev@Base 5.0.2 1
 _ZN29QDeclarativeDebugEnginesQuery11qt_metacallEN11QMetaObject4CallEiPPv@Base 5.0.2 1
 _ZN29QDeclarativeDebugEnginesQuery11qt_metacastEPKc@Base 5.0.2 1
 _ZN29QDeclarativeDebugEnginesQuery16staticMetaObjectE@Base 5.0.2 1
 _ZN29QDeclarativeDebugEnginesQueryC1EP7QObject@Base 5.0.2 1
 _ZN29QDeclarativeDebugEnginesQueryC2EP7QObject@Base 5.0.2 1
 _ZN29QDeclarativeDebugEnginesQueryD0Ev@Base 5.0.2 1
 _ZN29QDeclarativeDebugEnginesQueryD1Ev@Base 5.0.2 1
 _ZN29QDeclarativeDebugEnginesQueryD2Ev@Base 5.0.2 1
 _ZN30QDeclarativeDebugFileReference13setLineNumberEi@Base 5.0.2 1
 _ZN30QDeclarativeDebugFileReference15setColumnNumberEi@Base 5.0.2 1
 _ZN30QDeclarativeDebugFileReference6setUrlERK4QUrl@Base 5.0.2 1
 _ZN30QDeclarativeDebugFileReferenceC1ERKS_@Base 5.0.2 1
 _ZN30QDeclarativeDebugFileReferenceC1Ev@Base 5.0.2 1
 _ZN30QDeclarativeDebugFileReferenceC2ERKS_@Base 5.0.2 1
 _ZN30QDeclarativeDebugFileReferenceC2Ev@Base 5.0.2 1
 _ZN30QDeclarativeDebugFileReferenceaSERKS_@Base 5.0.2 1
 _ZN30QDeclarativeDebugPropertyWatch11qt_metacallEN11QMetaObject4CallEiPPv@Base 5.0.2 1
 _ZN30QDeclarativeDebugPropertyWatch11qt_metacastEPKc@Base 5.0.2 1
 _ZN30QDeclarativeDebugPropertyWatch16staticMetaObjectE@Base 5.0.2 1
 _ZN30QDeclarativeDebugPropertyWatchC1EP7QObject@Base 5.0.2 1
 _ZN30QDeclarativeDebugPropertyWatchC2EP7QObject@Base 5.0.2 1
 (optional=gccinternal)_ZN30QDeclarativeDebugPropertyWatchD0Ev@Base 5.0.2 1
 (optional=gccinternal)_ZN30QDeclarativeDebugPropertyWatchD1Ev@Base 5.0.2 1
 (optional=gccinternal)_ZN30QDeclarativeDebugPropertyWatchD2Ev@Base 5.0.2 1
 _ZN30QDeclarativeDomDynamicPropertyC1ERKS_@Base 5.0.2 1
 _ZN30QDeclarativeDomDynamicPropertyC1Ev@Base 5.0.2 1
 _ZN30QDeclarativeDomDynamicPropertyC2ERKS_@Base 5.0.2 1
 _ZN30QDeclarativeDomDynamicPropertyC2Ev@Base 5.0.2 1
 _ZN30QDeclarativeDomDynamicPropertyD1Ev@Base 5.0.2 1
 _ZN30QDeclarativeDomDynamicPropertyD2Ev@Base 5.0.2 1
 _ZN30QDeclarativeDomDynamicPropertyaSERKS_@Base 5.0.2 1
 _ZN30QDeclarativeOpenMetaObjectType14createPropertyERK10QByteArray@Base 5.0.2 1
 _ZN30QDeclarativeOpenMetaObjectType15propertyCreatedEiR20QMetaPropertyBuilder@Base 5.0.2 1
 _ZN30QDeclarativeOpenMetaObjectTypeC1EPK11QMetaObjectP18QDeclarativeEngine@Base 5.0.2 1
 _ZN30QDeclarativeOpenMetaObjectTypeC2EPK11QMetaObjectP18QDeclarativeEngine@Base 5.0.2 1
 _ZN30QDeclarativeOpenMetaObjectTypeD0Ev@Base 5.0.2 1
 _ZN30QDeclarativeOpenMetaObjectTypeD1Ev@Base 5.0.2 1
 _ZN30QDeclarativeOpenMetaObjectTypeD2Ev@Base 5.0.2 1
 _ZN31QDeclarativeDomValueValueSourceC1ERKS_@Base 5.0.2 1
 _ZN31QDeclarativeDomValueValueSourceC1Ev@Base 5.0.2 1
 _ZN31QDeclarativeDomValueValueSourceC2ERKS_@Base 5.0.2 1
 _ZN31QDeclarativeDomValueValueSourceC2Ev@Base 5.0.2 1
 _ZN31QDeclarativeDomValueValueSourceD1Ev@Base 5.0.2 1
 _ZN31QDeclarativeDomValueValueSourceD2Ev@Base 5.0.2 1
 _ZN31QDeclarativeDomValueValueSourceaSERKS_@Base 5.0.2 1
 _ZN31QDeclarativePropertyValueSourceC1Ev@Base 5.0.2
 _ZN31QDeclarativePropertyValueSourceC2Ev@Base 5.0.2
 _ZN31QDeclarativePropertyValueSourceD0Ev@Base 5.0.2
 _ZN31QDeclarativePropertyValueSourceD1Ev@Base 5.0.2
 _ZN31QDeclarativePropertyValueSourceD2Ev@Base 5.0.2
 _ZN32QDeclarativeCustomParserPropertyC1ERKS_@Base 5.0.2 1
 _ZN32QDeclarativeCustomParserPropertyC1Ev@Base 5.0.2 1
 _ZN32QDeclarativeCustomParserPropertyC2ERKS_@Base 5.0.2 1
 _ZN32QDeclarativeCustomParserPropertyC2Ev@Base 5.0.2 1
 _ZN32QDeclarativeCustomParserPropertyD1Ev@Base 5.0.2 1
 _ZN32QDeclarativeCustomParserPropertyD2Ev@Base 5.0.2 1
 _ZN32QDeclarativeCustomParserPropertyaSERKS_@Base 5.0.2 1
 _ZN32QDeclarativeDebugEngineReferenceC1ERKS_@Base 5.0.2 1
 _ZN32QDeclarativeDebugEngineReferenceC1Ei@Base 5.0.2 1
 _ZN32QDeclarativeDebugEngineReferenceC1Ev@Base 5.0.2 1
 _ZN32QDeclarativeDebugEngineReferenceC2ERKS_@Base 5.0.2 1
 _ZN32QDeclarativeDebugEngineReferenceC2Ei@Base 5.0.2 1
 _ZN32QDeclarativeDebugEngineReferenceC2Ev@Base 5.0.2 1
 _ZN32QDeclarativeDebugEngineReferenceaSERKS_@Base 5.0.2 1
 _ZN32QDeclarativeDebugExpressionQuery11qt_metacallEN11QMetaObject4CallEiPPv@Base 5.0.2 1
 _ZN32QDeclarativeDebugExpressionQuery11qt_metacastEPKc@Base 5.0.2 1
 _ZN32QDeclarativeDebugExpressionQuery16staticMetaObjectE@Base 5.0.2 1
 _ZN32QDeclarativeDebugExpressionQueryC1EP7QObject@Base 5.0.2 1
 _ZN32QDeclarativeDebugExpressionQueryC2EP7QObject@Base 5.0.2 1
 _ZN32QDeclarativeDebugExpressionQueryD0Ev@Base 5.0.2 1
 _ZN32QDeclarativeDebugExpressionQueryD1Ev@Base 5.0.2 1
 _ZN32QDeclarativeDebugExpressionQueryD2Ev@Base 5.0.2 1
 _ZN32QDeclarativeDebugObjectReferenceC1ERKS_@Base 5.0.2 1
 _ZN32QDeclarativeDebugObjectReferenceC1Ei@Base 5.0.2 1
 _ZN32QDeclarativeDebugObjectReferenceC1Ev@Base 5.0.2 1
 _ZN32QDeclarativeDebugObjectReferenceC2ERKS_@Base 5.0.2 1
 _ZN32QDeclarativeDebugObjectReferenceC2Ei@Base 5.0.2 1
 _ZN32QDeclarativeDebugObjectReferenceC2Ev@Base 5.0.2 1
 _ZN32QDeclarativeDebugObjectReferenceaSERKS_@Base 5.0.2 1
 _ZN33QDeclarativeDebugContextReferenceC1ERKS_@Base 5.0.2 1
 _ZN33QDeclarativeDebugContextReferenceC1Ev@Base 5.0.2 1
 _ZN33QDeclarativeDebugContextReferenceC2ERKS_@Base 5.0.2 1
 _ZN33QDeclarativeDebugContextReferenceC2Ev@Base 5.0.2 1
 _ZN33QDeclarativeDebugContextReferenceaSERKS_@Base 5.0.2 1
 _ZN33QDeclarativeDebugRootContextQuery11qt_metacallEN11QMetaObject4CallEiPPv@Base 5.0.2 1
 _ZN33QDeclarativeDebugRootContextQuery11qt_metacastEPKc@Base 5.0.2 1
 _ZN33QDeclarativeDebugRootContextQuery16staticMetaObjectE@Base 5.0.2 1
 _ZN33QDeclarativeDebugRootContextQueryC1EP7QObject@Base 5.0.2 1
 _ZN33QDeclarativeDebugRootContextQueryC2EP7QObject@Base 5.0.2 1
 _ZN33QDeclarativeDebugRootContextQueryD0Ev@Base 5.0.2 1
 _ZN33QDeclarativeDebugRootContextQueryD1Ev@Base 5.0.2 1
 _ZN33QDeclarativeDebugRootContextQueryD2Ev@Base 5.0.2 1
 _ZN34QDeclarativeDebugPropertyReferenceC1ERKS_@Base 5.0.2 1
 _ZN34QDeclarativeDebugPropertyReferenceC1Ev@Base 5.0.2 1
 _ZN34QDeclarativeDebugPropertyReferenceC2ERKS_@Base 5.0.2 1
 _ZN34QDeclarativeDebugPropertyReferenceC2Ev@Base 5.0.2 1
 _ZN34QDeclarativeDebugPropertyReferenceaSERKS_@Base 5.0.2 1
 _ZN36QDeclarativeDomValueValueInterceptorC1ERKS_@Base 5.0.2 1
 _ZN36QDeclarativeDomValueValueInterceptorC1Ev@Base 5.0.2 1
 _ZN36QDeclarativeDomValueValueInterceptorC2ERKS_@Base 5.0.2 1
 _ZN36QDeclarativeDomValueValueInterceptorC2Ev@Base 5.0.2 1
 _ZN36QDeclarativeDomValueValueInterceptorD1Ev@Base 5.0.2 1
 _ZN36QDeclarativeDomValueValueInterceptorD2Ev@Base 5.0.2 1
 _ZN36QDeclarativeDomValueValueInterceptoraSERKS_@Base 5.0.2 1
 _ZN36QDeclarativePropertyValueInterceptorC1Ev@Base 5.0.2
 _ZN36QDeclarativePropertyValueInterceptorC2Ev@Base 5.0.2
 _ZN36QDeclarativePropertyValueInterceptorD0Ev@Base 5.0.2
 _ZN36QDeclarativePropertyValueInterceptorD1Ev@Base 5.0.2
 _ZN36QDeclarativePropertyValueInterceptorD2Ev@Base 5.0.2
 _ZN38QDeclarativeDebugObjectExpressionWatch11qt_metacallEN11QMetaObject4CallEiPPv@Base 5.0.2 1
 _ZN38QDeclarativeDebugObjectExpressionWatch11qt_metacastEPKc@Base 5.0.2 1
 _ZN38QDeclarativeDebugObjectExpressionWatch16staticMetaObjectE@Base 5.0.2 1
 _ZN38QDeclarativeDebugObjectExpressionWatchC1EP7QObject@Base 5.0.2 1
 _ZN38QDeclarativeDebugObjectExpressionWatchC2EP7QObject@Base 5.0.2 1
 (optional=gccinternal)_ZN38QDeclarativeDebugObjectExpressionWatchD0Ev@Base 5.0.2 1
 (optional=gccinternal)_ZN38QDeclarativeDebugObjectExpressionWatchD1Ev@Base 5.0.2 1
 (optional=gccinternal)_ZN38QDeclarativeDebugObjectExpressionWatchD2Ev@Base 5.0.2 1
 _ZN39QDeclarativeNetworkAccessManagerFactoryD0Ev@Base 5.0.2
 _ZN39QDeclarativeNetworkAccessManagerFactoryD1Ev@Base 5.0.2
 _ZN39QDeclarativeNetworkAccessManagerFactoryD2Ev@Base 5.0.2
 _ZN7QPacket5clearEv@Base 5.0.2 1
 _ZN7QPacketC1ERK10QByteArray@Base 5.0.2 1
 _ZN7QPacketC1ERKS_@Base 5.0.2 1
 _ZN7QPacketC1Ev@Base 5.0.2 1
 _ZN7QPacketC2ERK10QByteArray@Base 5.0.2 1
 _ZN7QPacketC2ERKS_@Base 5.0.2 1
 _ZN7QPacketC2Ev@Base 5.0.2 1
 _ZN7QPacketD0Ev@Base 5.0.2 1
 _ZN7QPacketD1Ev@Base 5.0.2 1
 _ZN7QPacketD2Ev@Base 5.0.2 1
 _ZNK12QPaintDevice7devTypeEv@Base 5.0.2
 _ZNK15QDeclarativePen10metaObjectEv@Base 5.0.2 1
 _ZNK15QPacketProtocol10metaObjectEv@Base 5.0.2 1
 _ZNK15QPacketProtocol16packetsAvailableEv@Base 5.0.2 1
 _ZNK15QPacketProtocol17maximumPacketSizeEv@Base 5.0.2 1
 _ZNK16QDeclarativeItem10metaObjectEv@Base 5.0.2
 _ZNK16QDeclarativeItem10parentItemEv@Base 5.0.2
 _ZNK16QDeclarativeItem10widthValidEv@Base 5.0.2
 _ZNK16QDeclarativeItem11heightValidEv@Base 5.0.2
 _ZNK16QDeclarativeItem11mapFromItemERK12QScriptValuedd@Base 5.2.0
 _ZNK16QDeclarativeItem12boundingRectEv@Base 5.0.2
 _ZNK16QDeclarativeItem13implicitWidthEv@Base 5.0.2
 _ZNK16QDeclarativeItem13keepMouseGrabEv@Base 5.0.2
 _ZNK16QDeclarativeItem14baselineOffsetEv@Base 5.0.2
 _ZNK16QDeclarativeItem14hasActiveFocusEv@Base 5.0.2
 _ZNK16QDeclarativeItem14implicitHeightEv@Base 5.0.2
 _ZNK16QDeclarativeItem15transformOriginEv@Base 5.0.2
 _ZNK16QDeclarativeItem16inputMethodQueryEN2Qt16InputMethodQueryE@Base 5.0.2
 _ZNK16QDeclarativeItem19isComponentCompleteEv@Base 5.0.2
 _ZNK16QDeclarativeItem4clipEv@Base 5.0.2
 _ZNK16QDeclarativeItem5widthEv@Base 5.0.2
 _ZNK16QDeclarativeItem6heightEv@Base 5.0.2
 _ZNK16QDeclarativeItem6smoothEv@Base 5.0.2
 _ZNK16QDeclarativeItem7childAtEdd@Base 5.2.0
 _ZNK16QDeclarativeItem8hasFocusEv@Base 5.0.2
 _ZNK16QDeclarativeItem9mapToItemERK12QScriptValuedd@Base 5.2.0
 _ZNK16QDeclarativeText10lineHeightEv@Base 5.0.2 1
 _ZNK16QDeclarativeText10metaObjectEv@Base 5.0.2 1
 _ZNK16QDeclarativeText10styleColorEv@Base 5.0.2 1
 _ZNK16QDeclarativeText10textFormatEv@Base 5.0.2 1
 _ZNK16QDeclarativeText12boundingRectEv@Base 5.0.2 1
 _ZNK16QDeclarativeText12paintedWidthEv@Base 5.0.2 1
 _ZNK16QDeclarativeText13paintedHeightEv@Base 5.0.2 1
 _ZNK16QDeclarativeText14lineHeightModeEv@Base 5.0.2 1
 _ZNK16QDeclarativeText15effectiveHAlignEv@Base 5.0.2 1
 _ZNK16QDeclarativeText16maximumLineCountEv@Base 5.0.2 1
 _ZNK16QDeclarativeText16resourcesLoadingEv@Base 5.0.2 1
 _ZNK16QDeclarativeText4fontEv@Base 5.0.2 1
 _ZNK16QDeclarativeText4textEv@Base 5.0.2 1
 _ZNK16QDeclarativeText5colorEv@Base 5.0.2 1
 _ZNK16QDeclarativeText5styleEv@Base 5.0.2 1
 _ZNK16QDeclarativeText6hAlignEv@Base 5.0.2 1
 _ZNK16QDeclarativeText6vAlignEv@Base 5.0.2 1
 _ZNK16QDeclarativeText8wrapModeEv@Base 5.0.2 1
 _ZNK16QDeclarativeText9elideModeEv@Base 5.0.2 1
 _ZNK16QDeclarativeText9lineCountEv@Base 5.0.2 1
 _ZNK16QDeclarativeText9truncatedEv@Base 5.0.2 1
 _ZNK16QDeclarativeType10createSizeEv@Base 5.0.2 1
 _ZNK16QDeclarativeType10metaObjectEv@Base 5.0.2 1
 _ZNK16QDeclarativeType11isCreatableEv@Base 5.0.2 1
 _ZNK16QDeclarativeType11isInterfaceEv@Base 5.0.2 1
 _ZNK16QDeclarativeType11qListTypeIdEv@Base 5.0.2 1
 _ZNK16QDeclarativeType11qmlTypeNameEv@Base 5.0.2 1
 _ZNK16QDeclarativeType12customParserEv@Base 5.0.2 1
 _ZNK16QDeclarativeType12interfaceIIdEv@Base 5.0.2 1
 _ZNK16QDeclarativeType12majorVersionEv@Base 5.0.2 1
 _ZNK16QDeclarativeType12minorVersionEv@Base 5.0.2 1
 _ZNK16QDeclarativeType14baseMetaObjectEv@Base 5.0.2 1
 _ZNK16QDeclarativeType14createFunctionEv@Base 5.0.2 1
 _ZNK16QDeclarativeType14isExtendedTypeEv@Base 5.0.2 1
 _ZNK16QDeclarativeType16noCreationReasonEv@Base 5.0.2 1
 _ZNK16QDeclarativeType16parserStatusCastEv@Base 5.0.2 1
 _ZNK16QDeclarativeType18availableInVersionERK10QByteArrayii@Base 5.0.2 1
 _ZNK16QDeclarativeType18availableInVersionEii@Base 5.0.2 1
 _ZNK16QDeclarativeType18metaObjectRevisionEv@Base 5.0.2 1
 _ZNK16QDeclarativeType20attachedPropertiesIdEv@Base 5.0.2 1
 _ZNK16QDeclarativeType22attachedPropertiesTypeEv@Base 5.0.2 1
 _ZNK16QDeclarativeType23propertyValueSourceCastEv@Base 5.0.2 1
 _ZNK16QDeclarativeType26attachedPropertiesFunctionEv@Base 5.0.2 1
 _ZNK16QDeclarativeType28containsRevisionedAttributesEv@Base 5.0.2 1
 _ZNK16QDeclarativeType28propertyValueInterceptorCastEv@Base 5.0.2 1
 _ZNK16QDeclarativeType5indexEv@Base 5.0.2 1
 (subst)_ZNK16QDeclarativeType6createEPP7QObjectPPv{size_t}@Base 5.0.2 1
 _ZNK16QDeclarativeType6createEv@Base 5.0.2 1
 _ZNK16QDeclarativeType6moduleEv@Base 5.0.2 1
 _ZNK16QDeclarativeType6typeIdEv@Base 5.0.2 1
 _ZNK16QDeclarativeType8typeNameEv@Base 5.0.2 1
 _ZNK16QDeclarativeType9superTypeEv@Base 5.0.2 1
 _ZNK16QDeclarativeView10metaObjectEv@Base 5.0.2
 _ZNK16QDeclarativeView10resizeModeEv@Base 5.0.2
 _ZNK16QDeclarativeView10rootObjectEv@Base 5.0.2
 _ZNK16QDeclarativeView11initialSizeEv@Base 5.0.2
 _ZNK16QDeclarativeView11rootContextEv@Base 5.0.2
 _ZNK16QDeclarativeView6engineEv@Base 5.0.2
 _ZNK16QDeclarativeView6errorsEv@Base 5.0.2
 _ZNK16QDeclarativeView6sourceEv@Base 5.0.2
 _ZNK16QDeclarativeView6statusEv@Base 5.0.2
 _ZNK16QDeclarativeView8sizeHintEv@Base 5.0.2
 _ZNK17QDeclarativeError11descriptionEv@Base 5.0.2
 _ZNK17QDeclarativeError3urlEv@Base 5.0.2
 _ZNK17QDeclarativeError4lineEv@Base 5.0.2
 _ZNK17QDeclarativeError6columnEv@Base 5.0.2
 _ZNK17QDeclarativeError7isValidEv@Base 5.0.2
 _ZNK17QDeclarativeError8toStringEv@Base 5.0.2
 _ZNK17QDeclarativeState10metaObjectEv@Base 5.0.2 1
 _ZNK17QDeclarativeState10stateGroupEv@Base 5.0.2 1
 _ZNK17QDeclarativeState11isWhenKnownEv@Base 5.0.2 1
 _ZNK17QDeclarativeState11operationAtEi@Base 5.0.2 1
 _ZNK17QDeclarativeState13isStateActiveEv@Base 5.0.2 1
 _ZNK17QDeclarativeState14operationCountEv@Base 5.0.2 1
 _ZNK17QDeclarativeState17valueInRevertListEP7QObjectRK7QString@Base 5.0.2 1
 _ZNK17QDeclarativeState19bindingInRevertListEP7QObjectRK7QString@Base 5.0.2 1
 _ZNK17QDeclarativeState28containsPropertyInRevertListEP7QObjectRK7QString@Base 5.0.2 1
 _ZNK17QDeclarativeState4nameEv@Base 5.0.2 1
 _ZNK17QDeclarativeState4whenEv@Base 5.0.2 1
 _ZNK17QDeclarativeState7extendsEv@Base 5.0.2 1
 _ZNK17QDeclarativeState7isNamedEv@Base 5.0.2 1
 _ZNK17QDeclarativeTimer10metaObjectEv@Base 5.0.2 1
 _ZNK17QDeclarativeTimer11isRepeatingEv@Base 5.0.2 1
 _ZNK17QDeclarativeTimer16triggeredOnStartEv@Base 5.0.2 1
 _ZNK17QDeclarativeTimer8intervalEv@Base 5.0.2 1
 _ZNK17QDeclarativeTimer9isRunningEv@Base 5.0.2 1
 _ZNK18QDeclarativeEngine10metaObjectEv@Base 5.0.2
 _ZNK18QDeclarativeEngine11rootContextEv@Base 5.0.2
 _ZNK18QDeclarativeEngine13imageProviderERK7QString@Base 5.0.2
 _ZNK18QDeclarativeEngine14importPathListEv@Base 5.0.2
 _ZNK18QDeclarativeEngine14pluginPathListEv@Base 5.0.2
 _ZNK18QDeclarativeEngine18offlineStoragePathEv@Base 5.0.2
 _ZNK18QDeclarativeEngine20networkAccessManagerEv@Base 5.0.2
 _ZNK18QDeclarativeEngine27networkAccessManagerFactoryEv@Base 5.0.2
 _ZNK18QDeclarativeEngine29outputWarningsToStandardErrorEv@Base 5.0.2
 _ZNK18QDeclarativeEngine7baseUrlEv@Base 5.0.2
 _ZNK18QDeclarativeParser7Variant12asStringListEv@Base 5.0.2 1
 _ZNK18QDeclarativeParser7Variant12isStringListEv@Base 5.0.2 1
 _ZNK18QDeclarativeParser7Variant4typeEv@Base 5.0.2 1
 _ZNK18QDeclarativeParser7Variant5asASTEv@Base 5.0.2 1
 _ZNK18QDeclarativeParser7Variant8asNumberEv@Base 5.0.2 1
 _ZNK18QDeclarativeParser7Variant8asScriptEv@Base 5.0.2 1
 _ZNK18QDeclarativeParser7Variant8asStringEv@Base 5.0.2 1
 _ZNK18QDeclarativeParser7Variant9asBooleanEv@Base 5.0.2 1
 _ZNK18QDeclarativePixmap11requestSizeEv@Base 5.0.2 1
 _ZNK18QDeclarativePixmap12implicitSizeEv@Base 5.0.2 1
 _ZNK18QDeclarativePixmap3urlEv@Base 5.0.2 1
 _ZNK18QDeclarativePixmap4rectEv@Base 5.0.2 1
 _ZNK18QDeclarativePixmap5errorEv@Base 5.0.2 1
 _ZNK18QDeclarativePixmap5widthEv@Base 5.0.2 1
 _ZNK18QDeclarativePixmap6heightEv@Base 5.0.2 1
 _ZNK18QDeclarativePixmap6isNullEv@Base 5.0.2 1
 _ZNK18QDeclarativePixmap6pixmapEv@Base 5.0.2 1
 _ZNK18QDeclarativePixmap6statusEv@Base 5.0.2 1
 _ZNK18QDeclarativePixmap7isErrorEv@Base 5.0.2 1
 _ZNK18QDeclarativePixmap7isReadyEv@Base 5.0.2 1
 _ZNK18QDeclarativePixmap9isLoadingEv@Base 5.0.2 1
 _ZNK19QDeclarativeAnchors10leftMarginEv@Base 5.0.2 1
 _ZNK19QDeclarativeAnchors10metaObjectEv@Base 5.0.2 1
 _ZNK19QDeclarativeAnchors11rightMarginEv@Base 5.0.2 1
 _ZNK19QDeclarativeAnchors11usedAnchorsEv@Base 5.0.2 1
 _ZNK19QDeclarativeAnchors12bottomMarginEv@Base 5.0.2 1
 _ZNK19QDeclarativeAnchors14baselineOffsetEv@Base 5.0.2 1
 _ZNK19QDeclarativeAnchors14verticalCenterEv@Base 5.0.2 1
 _ZNK19QDeclarativeAnchors16horizontalCenterEv@Base 5.0.2 1
 _ZNK19QDeclarativeAnchors20verticalCenterOffsetEv@Base 5.0.2 1
 _ZNK19QDeclarativeAnchors22horizontalCenterOffsetEv@Base 5.0.2 1
 _ZNK19QDeclarativeAnchors3topEv@Base 5.0.2 1
 _ZNK19QDeclarativeAnchors4fillEv@Base 5.0.2 1
 _ZNK19QDeclarativeAnchors4leftEv@Base 5.0.2 1
 _ZNK19QDeclarativeAnchors5rightEv@Base 5.0.2 1
 _ZNK19QDeclarativeAnchors6bottomEv@Base 5.0.2 1
 _ZNK19QDeclarativeAnchors7marginsEv@Base 5.0.2 1
 _ZNK19QDeclarativeAnchors8baselineEv@Base 5.0.2 1
 _ZNK19QDeclarativeAnchors8centerInEv@Base 5.0.2 1
 _ZNK19QDeclarativeAnchors9topMarginEv@Base 5.0.2 1
 _ZNK19QDeclarativeBinding10expressionEv@Base 5.0.2 1
 _ZNK19QDeclarativeBinding10metaObjectEv@Base 5.0.2 1
 _ZNK19QDeclarativeBinding13evaluateFlagsEv@Base 5.0.2 1
 _ZNK19QDeclarativeBinding7enabledEv@Base 5.0.2 1
 _ZNK19QDeclarativeBinding8propertyEv@Base 5.0.2 1
 _ZNK19QDeclarativeContext10metaObjectEv@Base 5.0.2
 _ZNK19QDeclarativeContext13contextObjectEv@Base 5.0.2
 _ZNK19QDeclarativeContext13parentContextEv@Base 5.0.2
 _ZNK19QDeclarativeContext15contextPropertyERK7QString@Base 5.0.2
 _ZNK19QDeclarativeContext6engineEv@Base 5.0.2
 _ZNK19QDeclarativeContext7baseUrlEv@Base 5.0.2
 _ZNK19QDeclarativeContext7isValidEv@Base 5.0.2
 _ZNK19QDeclarativeDomList14commaPositionsEv@Base 5.0.2 1
 _ZNK19QDeclarativeDomList6lengthEv@Base 5.0.2 1
 _ZNK19QDeclarativeDomList6valuesEv@Base 5.0.2 1
 _ZNK19QDeclarativeDomList8positionEv@Base 5.0.2 1
 _ZNK19QListModelInterface10metaObjectEv@Base 5.0.2 1
 _ZNK20QDeclarativeBehavior10metaObjectEv@Base 5.0.2 1
 _ZNK20QDeclarativeBehavior7enabledEv@Base 5.0.2 1
 _ZNK20QDeclarativeDomValue13isValueSourceEv@Base 5.0.2 1
 _ZNK20QDeclarativeDomValue13toValueSourceEv@Base 5.0.2 1
 _ZNK20QDeclarativeDomValue18isValueInterceptorEv@Base 5.0.2 1
 _ZNK20QDeclarativeDomValue18toValueInterceptorEv@Base 5.0.2 1
 _ZNK20QDeclarativeDomValue4typeEv@Base 5.0.2 1
 _ZNK20QDeclarativeDomValue6isListEv@Base 5.0.2 1
 _ZNK20QDeclarativeDomValue6lengthEv@Base 5.0.2 1
 _ZNK20QDeclarativeDomValue6toListEv@Base 5.0.2 1
 _ZNK20QDeclarativeDomValue8isObjectEv@Base 5.0.2 1
 _ZNK20QDeclarativeDomValue8positionEv@Base 5.0.2 1
 _ZNK20QDeclarativeDomValue8toObjectEv@Base 5.0.2 1
 _ZNK20QDeclarativeDomValue9isBindingEv@Base 5.0.2 1
 _ZNK20QDeclarativeDomValue9isInvalidEv@Base 5.0.2 1
 _ZNK20QDeclarativeDomValue9isLiteralEv@Base 5.0.2 1
 _ZNK20QDeclarativeDomValue9toBindingEv@Base 5.0.2 1
 _ZNK20QDeclarativeDomValue9toLiteralEv@Base 5.0.2 1
 _ZNK20QDeclarativeKeyEvent10metaObjectEv@Base 5.0.2 1
 _ZNK20QDeclarativeProperty10isPropertyEv@Base 5.0.2
 _ZNK20QDeclarativeProperty10isWritableEv@Base 5.0.2
 _ZNK20QDeclarativeProperty12isDesignableEv@Base 5.0.2
 _ZNK20QDeclarativeProperty12isResettableEv@Base 5.0.2
 _ZNK20QDeclarativeProperty12propertyTypeEv@Base 5.0.2
 _ZNK20QDeclarativeProperty15hasNotifySignalEv@Base 5.0.2
 _ZNK20QDeclarativeProperty16isSignalPropertyEv@Base 5.0.2
 _ZNK20QDeclarativeProperty16propertyTypeNameEv@Base 5.0.2
 _ZNK20QDeclarativeProperty17needsNotifySignalEv@Base 5.0.2
 _ZNK20QDeclarativeProperty19connectNotifySignalEP7QObjectPKc@Base 5.0.2
 _ZNK20QDeclarativeProperty19connectNotifySignalEP7QObjecti@Base 5.0.2
 _ZNK20QDeclarativeProperty20propertyTypeCategoryEv@Base 5.0.2
 _ZNK20QDeclarativeProperty4nameEv@Base 5.0.2
 _ZNK20QDeclarativeProperty4readEv@Base 5.0.2
 _ZNK20QDeclarativeProperty4typeEv@Base 5.0.2
 _ZNK20QDeclarativeProperty5indexEv@Base 5.0.2
 _ZNK20QDeclarativeProperty5resetEv@Base 5.0.2
 _ZNK20QDeclarativeProperty5writeERK8QVariant@Base 5.0.2
 _ZNK20QDeclarativeProperty6methodEv@Base 5.0.2
 _ZNK20QDeclarativeProperty6objectEv@Base 5.0.2
 _ZNK20QDeclarativeProperty7isValidEv@Base 5.0.2
 _ZNK20QDeclarativeProperty8propertyEv@Base 5.0.2
 _ZNK20QDeclarativePropertyeqERKS_@Base 5.0.2
 _ZNK21QDeclarativeComponent10metaObjectEv@Base 5.0.2
 _ZNK21QDeclarativeComponent11errorStringEv@Base 5.0.2
 _ZNK21QDeclarativeComponent15creationContextEv@Base 5.0.2
 _ZNK21QDeclarativeComponent3urlEv@Base 5.0.2
 _ZNK21QDeclarativeComponent6errorsEv@Base 5.0.2
 _ZNK21QDeclarativeComponent6isNullEv@Base 5.0.2
 _ZNK21QDeclarativeComponent6statusEv@Base 5.0.2
 _ZNK21QDeclarativeComponent7isErrorEv@Base 5.0.2
 _ZNK21QDeclarativeComponent7isReadyEv@Base 5.0.2
 _ZNK21QDeclarativeComponent8progressEv@Base 5.0.2
 _ZNK21QDeclarativeComponent9isLoadingEv@Base 5.0.2
 _ZNK21QDeclarativeDomImport3uriEv@Base 5.0.2 1
 _ZNK21QDeclarativeDomImport4typeEv@Base 5.0.2 1
 _ZNK21QDeclarativeDomImport7versionEv@Base 5.0.2 1
 _ZNK21QDeclarativeDomImport9qualifierEv@Base 5.0.2 1
 _ZNK21QDeclarativeDomObject10objectTypeEv@Base 5.0.2 1
 _ZNK21QDeclarativeDomObject10propertiesEv@Base 5.0.2 1
 _ZNK21QDeclarativeDomObject11isComponentEv@Base 5.0.2 1
 _ZNK21QDeclarativeDomObject11toComponentEv@Base 5.0.2 1
 _ZNK21QDeclarativeDomObject12isCustomTypeEv@Base 5.0.2 1
 _ZNK21QDeclarativeDomObject14customTypeDataEv@Base 5.0.2 1
 _ZNK21QDeclarativeDomObject15dynamicPropertyERK10QByteArray@Base 5.0.2 1
 _ZNK21QDeclarativeDomObject15objectClassNameEv@Base 5.0.2 1
 _ZNK21QDeclarativeDomObject17dynamicPropertiesEv@Base 5.0.2 1
 _ZNK21QDeclarativeDomObject22objectTypeMajorVersionEv@Base 5.0.2 1
 _ZNK21QDeclarativeDomObject22objectTypeMinorVersionEv@Base 5.0.2 1
 _ZNK21QDeclarativeDomObject3urlEv@Base 5.0.2 1
 _ZNK21QDeclarativeDomObject6lengthEv@Base 5.0.2 1
 _ZNK21QDeclarativeDomObject7isValidEv@Base 5.0.2 1
 _ZNK21QDeclarativeDomObject8objectIdEv@Base 5.0.2 1
 _ZNK21QDeclarativeDomObject8positionEv@Base 5.0.2 1
 _ZNK21QDeclarativeDomObject8propertyERK10QByteArray@Base 5.0.2 1
 _ZNK21QDeclarativeListModel10metaObjectEv@Base 5.0.2 1
 _ZNK21QDeclarativeListModel14inWorkerThreadEv@Base 5.0.2 1
 _ZNK21QDeclarativeListModel3getEi@Base 5.0.2 1
 _ZNK21QDeclarativeListModel4dataEii@Base 5.0.2 1
 _ZNK21QDeclarativeListModel5countEv@Base 5.0.2 1
 _ZNK21QDeclarativeListModel5rolesEv@Base 5.0.2 1
 _ZNK21QDeclarativeListModel8toStringEi@Base 5.0.2 1
 _ZNK21QDeclarativeRectangle10metaObjectEv@Base 5.0.2 1
 _ZNK21QDeclarativeRectangle12boundingRectEv@Base 5.0.2 1
 _ZNK21QDeclarativeRectangle5colorEv@Base 5.0.2 1
 _ZNK21QDeclarativeRectangle6radiusEv@Base 5.0.2 1
 _ZNK21QDeclarativeRectangle8gradientEv@Base 5.0.2 1
 _ZNK21QDeclarativeScaleGrid10metaObjectEv@Base 5.0.2 1
 _ZNK21QDeclarativeScaleGrid6isNullEv@Base 5.0.2 1
 _ZNK21QDeclarativeValueType10metaObjectEv@Base 5.0.2 1
 _ZNK22QDeclarativeDebugQuery10metaObjectEv@Base 5.0.2 1
 _ZNK22QDeclarativeDebugQuery5stateEv@Base 5.0.2 1
 _ZNK22QDeclarativeDebugQuery9isWaitingEv@Base 5.0.2 1
 _ZNK22QDeclarativeDebugWatch10metaObjectEv@Base 5.0.2 1
 _ZNK22QDeclarativeDebugWatch13objectDebugIdEv@Base 5.0.2 1
 _ZNK22QDeclarativeDebugWatch5stateEv@Base 5.0.2 1
 _ZNK22QDeclarativeDebugWatch7queryIdEv@Base 5.0.2 1
 _ZNK22QDeclarativeExpression10expressionEv@Base 5.0.2
 _ZNK22QDeclarativeExpression10lineNumberEv@Base 5.0.2
 _ZNK22QDeclarativeExpression10metaObjectEv@Base 5.0.2
 _ZNK22QDeclarativeExpression10sourceFileEv@Base 5.0.2
 _ZNK22QDeclarativeExpression11scopeObjectEv@Base 5.0.2
 _ZNK22QDeclarativeExpression20notifyOnValueChangedEv@Base 5.0.2
 _ZNK22QDeclarativeExpression5errorEv@Base 5.0.2
 _ZNK22QDeclarativeExpression6engineEv@Base 5.0.2
 _ZNK22QDeclarativeExpression7contextEv@Base 5.0.2
 _ZNK22QDeclarativeExpression8hasErrorEv@Base 5.0.2
 _ZNK22QDeclarativeMouseEvent10metaObjectEv@Base 5.0.2 1
 _ZNK22QDeclarativeStateGroup10metaObjectEv@Base 5.0.2 1
 _ZNK22QDeclarativeStateGroup5stateEv@Base 5.0.2 1
 _ZNK22QDeclarativeStateGroup6statesEv@Base 5.0.2 1
 _ZNK22QDeclarativeStateGroup9findStateERK7QString@Base 5.0.2 1
 _ZNK22QDeclarativeTransition10metaObjectEv@Base 5.0.2 1
 _ZNK22QDeclarativeTransition10reversibleEv@Base 5.0.2 1
 _ZNK22QDeclarativeTransition7toStateEv@Base 5.0.2 1
 _ZNK22QDeclarativeTransition9fromStateEv@Base 5.0.2 1
 _ZNK23QDeclarativeApplication10metaObjectEv@Base 5.0.2 1
 _ZNK23QDeclarativeApplication15layoutDirectionEv@Base 5.0.2 1
 _ZNK23QDeclarativeApplication6activeEv@Base 5.0.2 1
 _ZNK23QDeclarativeDebugClient10metaObjectEv@Base 5.0.2 1
 _ZNK23QDeclarativeDebugClient4nameEv@Base 5.0.2 1
 _ZNK23QDeclarativeDebugClient6statusEv@Base 5.0.2 1
 _ZNK23QDeclarativeDebugServer10metaObjectEv@Base 5.0.2 1
 _ZNK23QDeclarativeDebugServer12serviceNamesEv@Base 5.0.2 1
 _ZNK23QDeclarativeDebugServer18hasDebuggingClientEv@Base 5.0.2 1
 _ZNK23QDeclarativeDebugServer8servicesEv@Base 5.0.2 1
 _ZNK23QDeclarativeDomDocument10rootObjectEv@Base 5.0.2 1
 _ZNK23QDeclarativeDomDocument6errorsEv@Base 5.0.2 1
 _ZNK23QDeclarativeDomDocument7importsEv@Base 5.0.2 1
 _ZNK23QDeclarativeDomProperty12propertyNameEv@Base 5.0.2 1
 _ZNK23QDeclarativeDomProperty17isDefaultPropertyEv@Base 5.0.2 1
 _ZNK23QDeclarativeDomProperty17propertyNamePartsEv@Base 5.0.2 1
 _ZNK23QDeclarativeDomProperty5valueEv@Base 5.0.2 1
 _ZNK23QDeclarativeDomProperty6lengthEv@Base 5.0.2 1
 _ZNK23QDeclarativeDomProperty7isValidEv@Base 5.0.2 1
 _ZNK23QDeclarativeDomProperty8positionEv@Base 5.0.2 1
 _ZNK23QDeclarativeEngineDebug10metaObjectEv@Base 5.0.2 1
 _ZNK23QDeclarativeEngineDebug6statusEv@Base 5.0.2 1
 _ZNK23QDeclarativeItemPrivate13implicitWidthEv@Base 5.0.2 1
 _ZNK23QDeclarativeItemPrivate14implicitHeightEv@Base 5.0.2 1
 _ZNK23QDeclarativeItemPrivate14verticalCenterEv@Base 5.0.2 1
 _ZNK23QDeclarativeItemPrivate16horizontalCenterEv@Base 5.0.2 1
 _ZNK23QDeclarativeItemPrivate22computeTransformOriginEv@Base 5.0.2 1
 _ZNK23QDeclarativeItemPrivate3topEv@Base 5.0.2 1
 _ZNK23QDeclarativeItemPrivate4leftEv@Base 5.0.2 1
 _ZNK23QDeclarativeItemPrivate5rightEv@Base 5.0.2 1
 _ZNK23QDeclarativeItemPrivate5stateEv@Base 5.0.2 1
 _ZNK23QDeclarativeItemPrivate5widthEv@Base 5.0.2 1
 _ZNK23QDeclarativeItemPrivate6bottomEv@Base 5.0.2 1
 _ZNK23QDeclarativeItemPrivate6heightEv@Base 5.0.2 1
 _ZNK23QDeclarativeItemPrivate8baselineEv@Base 5.0.2 1
 _ZNK23QDeclarativePropertyMap10metaObjectEv@Base 5.0.2
 _ZNK23QDeclarativePropertyMap4keysEv@Base 5.0.2
 _ZNK23QDeclarativePropertyMap4sizeEv@Base 5.0.2
 _ZNK23QDeclarativePropertyMap5countEv@Base 5.0.2
 _ZNK23QDeclarativePropertyMap5valueERK7QString@Base 5.0.2
 _ZNK23QDeclarativePropertyMap7isEmptyEv@Base 5.0.2
 _ZNK23QDeclarativePropertyMap8containsERK7QString@Base 5.0.2
 _ZNK23QDeclarativePropertyMapixERK7QString@Base 5.0.2
 _ZNK24QDeclarativeCustomParser11resolveTypeERK10QByteArray@Base 5.0.2 1
 _ZNK24QDeclarativeCustomParser12evaluateEnumERK10QByteArray@Base 5.0.2 1
 _ZNK24QDeclarativeDebugService10metaObjectEv@Base 5.0.2 1
 _ZNK24QDeclarativeDebugService4nameEv@Base 5.0.2 1
 _ZNK24QDeclarativeDebugService6statusEv@Base 5.0.2 1
 _ZNK24QDeclarativeDomComponent13componentRootEv@Base 5.0.2 1
 _ZNK24QDeclarativeParentChange10metaObjectEv@Base 5.0.2 1
 _ZNK24QDeclarativeParentChange10scaleIsSetEv@Base 5.0.2 1
 _ZNK24QDeclarativeParentChange10widthIsSetEv@Base 5.0.2 1
 _ZNK24QDeclarativeParentChange11heightIsSetEv@Base 5.0.2 1
 _ZNK24QDeclarativeParentChange13rotationIsSetEv@Base 5.0.2 1
 _ZNK24QDeclarativeParentChange14originalParentEv@Base 5.0.2 1
 _ZNK24QDeclarativeParentChange1xEv@Base 5.0.2 1
 _ZNK24QDeclarativeParentChange1yEv@Base 5.0.2 1
 _ZNK24QDeclarativeParentChange5scaleEv@Base 5.0.2 1
 _ZNK24QDeclarativeParentChange5widthEv@Base 5.0.2 1
 _ZNK24QDeclarativeParentChange6heightEv@Base 5.0.2 1
 _ZNK24QDeclarativeParentChange6objectEv@Base 5.0.2 1
 _ZNK24QDeclarativeParentChange6parentEv@Base 5.0.2 1
 _ZNK24QDeclarativeParentChange6xIsSetEv@Base 5.0.2 1
 _ZNK24QDeclarativeParentChange6yIsSetEv@Base 5.0.2 1
 _ZNK24QDeclarativeParentChange8rotationEv@Base 5.0.2 1
 _ZNK24QDeclarativeParentChange8typeNameEv@Base 5.0.2 1
 _ZNK24QDeclarativeScriptAction10metaObjectEv@Base 5.0.2 1
 _ZNK24QDeclarativeScriptAction21stateChangeScriptNameEv@Base 5.0.2 1
 _ZNK24QDeclarativeScriptAction6scriptEv@Base 5.0.2 1
 _ZNK24QDeclarativeScriptString11scopeObjectEv@Base 5.0.2
 _ZNK24QDeclarativeScriptString6scriptEv@Base 5.0.2
 _ZNK24QDeclarativeScriptString7contextEv@Base 5.0.2
 _ZNK25QDeclarativeAnchorChanges10metaObjectEv@Base 5.0.2 1
 _ZNK25QDeclarativeAnchorChanges6objectEv@Base 5.0.2 1
 _ZNK25QDeclarativeAnchorChanges8typeNameEv@Base 5.0.2 1
 _ZNK25QDeclarativeImageProvider9imageTypeEv@Base 5.0.2
 _ZNK25QDeclarativeListReference15listElementTypeEv@Base 5.0.2
 _ZNK25QDeclarativeListReference2atEi@Base 5.0.2
 _ZNK25QDeclarativeListReference5canAtEv@Base 5.0.2
 _ZNK25QDeclarativeListReference5clearEv@Base 5.0.2
 _ZNK25QDeclarativeListReference5countEv@Base 5.0.2
 _ZNK25QDeclarativeListReference6appendEP7QObject@Base 5.0.2
 _ZNK25QDeclarativeListReference6objectEv@Base 5.0.2
 _ZNK25QDeclarativeListReference7isValidEv@Base 5.0.2
 _ZNK25QDeclarativeListReference8canClearEv@Base 5.0.2
 _ZNK25QDeclarativeListReference8canCountEv@Base 5.0.2
 _ZNK25QDeclarativeListReference9canAppendEv@Base 5.0.2
 _ZNK26QDeclarativeBasePositioner10metaObjectEv@Base 5.0.2 1
 _ZNK26QDeclarativeBasePositioner3addEv@Base 5.0.2 1
 _ZNK26QDeclarativeBasePositioner4moveEv@Base 5.0.2 1
 _ZNK26QDeclarativeBasePositioner7spacingEv@Base 5.0.2 1
 _ZNK26QDeclarativeOpenMetaObject4nameEi@Base 5.0.2 1
 _ZNK26QDeclarativeOpenMetaObject4typeEv@Base 5.0.2 1
 _ZNK26QDeclarativeOpenMetaObject5countEv@Base 5.0.2 1
 _ZNK26QDeclarativeOpenMetaObject5valueERK10QByteArray@Base 5.0.2 1
 _ZNK26QDeclarativeOpenMetaObject5valueEi@Base 5.0.2 1
 _ZNK26QDeclarativeOpenMetaObject6objectEv@Base 5.0.2 1
 _ZNK26QDeclarativeOpenMetaObject6parentEv@Base 5.0.2 1
 _ZNK26QDeclarativeOpenMetaObject8hasValueEi@Base 5.0.2 1
 _ZNK26QDeclarativeStateOperation10metaObjectEv@Base 5.0.2 1
 _ZNK26QDeclarativeStateOperation5stateEv@Base 5.0.2 1
 _ZNK27QDeclarativeAbstractBinding10expressionEv@Base 5.0.2 1
 _ZNK27QDeclarativeAbstractBinding13propertyIndexEv@Base 5.0.2 1
 _ZNK27QDeclarativeAbstractBinding6objectEv@Base 5.0.2 1
 _ZNK27QDeclarativeDebugConnection10metaObjectEv@Base 5.0.2 1
 _ZNK27QDeclarativeDebugConnection11isConnectedEv@Base 5.0.2 1
 _ZNK27QDeclarativeDomValueBinding7bindingEv@Base 5.0.2 1
 _ZNK27QDeclarativeDomValueLiteral7literalEv@Base 5.0.2 1
 _ZNK27QDeclarativeExtensionPlugin10metaObjectEv@Base 5.0.2
 _ZNK27QDeclarativeGridScaledImage10gridBottomEv@Base 5.0.2 1
 _ZNK27QDeclarativeGridScaledImage7gridTopEv@Base 5.0.2 1
 _ZNK27QDeclarativeGridScaledImage7isValidEv@Base 5.0.2 1
 _ZNK27QDeclarativeGridScaledImage8gridLeftEv@Base 5.0.2 1
 _ZNK27QDeclarativeGridScaledImage9gridRightEv@Base 5.0.2 1
 _ZNK27QDeclarativeGridScaledImage9pixmapUrlEv@Base 5.0.2 1
 _ZNK27QDeclarativePropertyChanges10expressionERK7QString@Base 5.0.2 1
 _ZNK27QDeclarativePropertyChanges10isExplicitEv@Base 5.0.2 1
 _ZNK27QDeclarativePropertyChanges10metaObjectEv@Base 5.0.2 1
 _ZNK27QDeclarativePropertyChanges13containsValueERK7QString@Base 5.0.2 1
 _ZNK27QDeclarativePropertyChanges16containsPropertyERK7QString@Base 5.0.2 1
 _ZNK27QDeclarativePropertyChanges18containsExpressionERK7QString@Base 5.0.2 1
 _ZNK27QDeclarativePropertyChanges18restoreEntryValuesEv@Base 5.0.2 1
 _ZNK27QDeclarativePropertyChanges5valueERK7QString@Base 5.0.2 1
 _ZNK27QDeclarativePropertyChanges6objectEv@Base 5.0.2 1
 _ZNK27QDeclarativePropertyChanges8propertyERK7QString@Base 5.0.2 1
 _ZNK27QDeclarativePropertyPrivate11isValueTypeEv@Base 5.0.2 1
 _ZNK27QDeclarativePropertyPrivate12propertyTypeEv@Base 5.0.2 1
 _ZNK27QDeclarativePropertyPrivate20propertyTypeCategoryEv@Base 5.0.2 1
 _ZNK27QDeclarativePropertyPrivate4typeEv@Base 5.0.2 1
 _ZNK28QDeclarativeCustomParserNode10propertiesEv@Base 5.0.2 1
 _ZNK28QDeclarativeCustomParserNode4nameEv@Base 5.0.2 1
 _ZNK28QDeclarativeCustomParserNode8locationEv@Base 5.0.2 1
 _ZNK28QDeclarativeDebugObjectQuery10metaObjectEv@Base 5.0.2 1
 _ZNK28QDeclarativeDebugObjectQuery6objectEv@Base 5.0.2 1
 _ZNK28QDeclarativeInspectorService10metaObjectEv@Base 5.0.2 1
 _ZNK29QDeclarativeAbstractAnimation10metaObjectEv@Base 5.0.2 1
 _ZNK29QDeclarativeAbstractAnimation14alwaysRunToEndEv@Base 5.0.2 1
 _ZNK29QDeclarativeAbstractAnimation5groupEv@Base 5.0.2 1
 _ZNK29QDeclarativeAbstractAnimation5loopsEv@Base 5.0.2 1
 _ZNK29QDeclarativeAbstractAnimation8isPausedEv@Base 5.0.2 1
 _ZNK29QDeclarativeAbstractAnimation9isRunningEv@Base 5.0.2 1
 _ZNK29QDeclarativeDebugEnginesQuery10metaObjectEv@Base 5.0.2 1
 _ZNK29QDeclarativeDebugEnginesQuery7enginesEv@Base 5.0.2 1
 _ZNK30QDeclarativeDebugFileReference10lineNumberEv@Base 5.0.2 1
 _ZNK30QDeclarativeDebugFileReference12columnNumberEv@Base 5.0.2 1
 _ZNK30QDeclarativeDebugFileReference3urlEv@Base 5.0.2 1
 _ZNK30QDeclarativeDebugPropertyWatch10metaObjectEv@Base 5.0.2 1
 _ZNK30QDeclarativeDebugPropertyWatch4nameEv@Base 5.0.2 1
 _ZNK30QDeclarativeDomDynamicProperty12defaultValueEv@Base 5.0.2 1
 _ZNK30QDeclarativeDomDynamicProperty12propertyNameEv@Base 5.0.2 1
 _ZNK30QDeclarativeDomDynamicProperty12propertyTypeEv@Base 5.0.2 1
 _ZNK30QDeclarativeDomDynamicProperty16propertyTypeNameEv@Base 5.0.2 1
 _ZNK30QDeclarativeDomDynamicProperty17isDefaultPropertyEv@Base 5.0.2 1
 _ZNK30QDeclarativeDomDynamicProperty6lengthEv@Base 5.0.2 1
 _ZNK30QDeclarativeDomDynamicProperty7isAliasEv@Base 5.0.2 1
 _ZNK30QDeclarativeDomDynamicProperty7isValidEv@Base 5.0.2 1
 _ZNK30QDeclarativeDomDynamicProperty8positionEv@Base 5.0.2 1
 _ZNK30QDeclarativeOpenMetaObjectType12signalOffsetEv@Base 5.0.2 1
 _ZNK30QDeclarativeOpenMetaObjectType14propertyOffsetEv@Base 5.0.2 1
 _ZNK31QDeclarativeDomValueValueSource6objectEv@Base 5.0.2 1
 _ZNK32QDeclarativeCustomParserProperty14assignedValuesEv@Base 5.0.2 1
 _ZNK32QDeclarativeCustomParserProperty4nameEv@Base 5.0.2 1
 _ZNK32QDeclarativeCustomParserProperty6isListEv@Base 5.0.2 1
 _ZNK32QDeclarativeCustomParserProperty8locationEv@Base 5.0.2 1
 _ZNK32QDeclarativeDebugEngineReference4nameEv@Base 5.0.2 1
 _ZNK32QDeclarativeDebugEngineReference7debugIdEv@Base 5.0.2 1
 _ZNK32QDeclarativeDebugExpressionQuery10expressionEv@Base 5.0.2 1
 _ZNK32QDeclarativeDebugExpressionQuery10metaObjectEv@Base 5.0.2 1
 _ZNK32QDeclarativeDebugExpressionQuery6resultEv@Base 5.0.2 1
 _ZNK32QDeclarativeDebugObjectReference10propertiesEv@Base 5.0.2 1
 _ZNK32QDeclarativeDebugObjectReference13needsMoreDataEv@Base 5.0.2 1
 _ZNK32QDeclarativeDebugObjectReference14contextDebugIdEv@Base 5.0.2 1
 _ZNK32QDeclarativeDebugObjectReference20findChildByClassNameERK7QStringS_@Base 5.0.2 1
 _ZNK32QDeclarativeDebugObjectReference4nameEv@Base 5.0.2 1
 _ZNK32QDeclarativeDebugObjectReference6sourceEv@Base 5.0.2 1
 _ZNK32QDeclarativeDebugObjectReference7debugIdEv@Base 5.0.2 1
 _ZNK32QDeclarativeDebugObjectReference8childrenEv@Base 5.0.2 1
 _ZNK32QDeclarativeDebugObjectReference8idStringEv@Base 5.0.2 1
 _ZNK32QDeclarativeDebugObjectReference8parentIdEv@Base 5.0.2 1
 _ZNK32QDeclarativeDebugObjectReference9classNameEv@Base 5.0.2 1
 _ZNK33QDeclarativeDebugContextReference4nameEv@Base 5.0.2 1
 _ZNK33QDeclarativeDebugContextReference7debugIdEv@Base 5.0.2 1
 _ZNK33QDeclarativeDebugContextReference7objectsEv@Base 5.0.2 1
 _ZNK33QDeclarativeDebugContextReference8contextsEv@Base 5.0.2 1
 _ZNK33QDeclarativeDebugRootContextQuery10metaObjectEv@Base 5.0.2 1
 _ZNK33QDeclarativeDebugRootContextQuery11rootContextEv@Base 5.0.2 1
 _ZNK34QDeclarativeDebugPropertyReference13objectDebugIdEv@Base 5.0.2 1
 _ZNK34QDeclarativeDebugPropertyReference13valueTypeNameEv@Base 5.0.2 1
 _ZNK34QDeclarativeDebugPropertyReference15hasNotifySignalEv@Base 5.0.2 1
 _ZNK34QDeclarativeDebugPropertyReference4nameEv@Base 5.0.2 1
 _ZNK34QDeclarativeDebugPropertyReference5valueEv@Base 5.0.2 1
 _ZNK34QDeclarativeDebugPropertyReference7bindingEv@Base 5.0.2 1
 _ZNK36QDeclarativeDomValueValueInterceptor6objectEv@Base 5.0.2 1
 _ZNK38QDeclarativeDebugObjectExpressionWatch10expressionEv@Base 5.0.2 1
 _ZNK38QDeclarativeDebugObjectExpressionWatch10metaObjectEv@Base 5.0.2 1
 _ZNK7QPacket4dataEv@Base 5.0.2 1
 _ZNK7QPacket7isEmptyEv@Base 5.0.2 1
 (optional=templinst|arch=sparc)_ZSt11__push_heapIN5QListI5QPairIi6UpdateEE8iteratorEiS3_EvT_T0_S7_T1_@Base 5.2.1
 (optional=templinst|arch=sparc)_ZSt13__adjust_heapIN5QListI5QPairIi6UpdateEE8iteratorEiS3_EvT_T0_S7_T1_@Base 5.2.1
 (optional=templinst|arch=sparc)_ZSt13__adjust_heapIN5QListI7QStringE8iteratorEiS1_PFbRKS1_S5_EEvT_T0_S9_T1_T2_@Base 5.2.1
 (optional=templinst|arch=sparc)_ZSt13__adjust_heapIN5QListIP13QGraphicsItemE8iteratorEiS2_PFbS2_S2_EEvT_T0_S8_T1_T2_@Base 5.2.1
 (optional=templinst|arch=sparc)_ZSt13__adjust_heapIN5QListIPN18QDeclarativeParser5ValueEE8iteratorEiS3_PFbPKS2_S7_EEvT_T0_SB_T1_T2_@Base 5.2.1
 (optional=templinst|arch=sparc)_ZSt13__heap_selectIN5QListIP13QGraphicsItemE8iteratorEPFbS2_S2_EEvT_S7_S7_T0_@Base 5.2.1
 (optional=templinst|arch=sparc)_ZSt13__heap_selectIN5QListIPN18QDeclarativeParser5ValueEE8iteratorEPFbPKS2_S7_EEvT_SA_SA_T0_@Base 5.2.1
 (optional=templinst|arch=sparc)_ZSt16__insertion_sortIN5QListI5QPairIi6UpdateEE8iteratorEEvT_S6_@Base 5.2.1
 (optional=templinst|arch=sparc)_ZSt16__insertion_sortIN5QListI7QStringE8iteratorEPFbRKS1_S5_EEvT_S8_T0_@Base 5.2.1
 (optional=templinst|arch=sparc)_ZSt16__insertion_sortIN5QListIP13QGraphicsItemE8iteratorEPFbS2_S2_EEvT_S7_T0_@Base 5.2.1
 (optional=templinst|arch=sparc)_ZSt16__insertion_sortIN5QListIPN18QDeclarativeParser5ValueEE8iteratorEPFbPKS2_S7_EEvT_SA_T0_@Base 5.2.1
 (optional=templinst|arch=sparc)_ZSt16__introsort_loopIN5QListI5QPairIi6UpdateEE8iteratorEiEvT_S6_T0_@Base 5.2.1
 (optional=templinst|arch=sparc)_ZSt16__introsort_loopIN5QListI7QStringE8iteratorEiPFbRKS1_S5_EEvT_S8_T0_T1_@Base 5.2.1
 (optional=templinst|arch=sparc)_ZSt16__introsort_loopIN5QListIP13QGraphicsItemE8iteratorEiPFbS2_S2_EEvT_S7_T0_T1_@Base 5.2.1
 (optional=templinst|arch=sparc)_ZSt16__introsort_loopIN5QListIPN18QDeclarativeParser5ValueEE8iteratorEiPFbPKS2_S7_EEvT_SA_T0_T1_@Base 5.2.1
 (optional=templinst|arch=sparc)_ZSt19__move_median_firstIN5QListI5QPairIi6UpdateEE8iteratorEEvT_S6_S6_@Base 5.2.1
 (optional=templinst|arch=sparc)_ZSt19__move_median_firstIN5QListI7QStringE8iteratorEPFbRKS1_S5_EEvT_S8_S8_T0_@Base 5.2.1
 (optional=templinst|arch=sparc)_ZSt19__move_median_firstIN5QListIP13QGraphicsItemE8iteratorEPFbS2_S2_EEvT_S7_S7_T0_@Base 5.2.1
 (optional=templinst|arch=sparc)_ZSt19__move_median_firstIN5QListIPN18QDeclarativeParser5ValueEE8iteratorEPFbPKS2_S7_EEvT_SA_SA_T0_@Base 5.2.1
 (optional=templinst|arch=sparc)_ZSt21__unguarded_partitionIN5QListI5QPairIi6UpdateEE8iteratorES3_ET_S6_S6_RKT0_@Base 5.2.1
 (optional=templinst|arch=sparc)_ZSt21__unguarded_partitionIN5QListI7QStringE8iteratorES1_PFbRKS1_S5_EET_S8_S8_RKT0_T1_@Base 5.2.1
 (optional=templinst|arch=sparc)_ZSt21__unguarded_partitionIN5QListIP13QGraphicsItemE8iteratorES2_PFbS2_S2_EET_S7_S7_RKT0_T1_@Base 5.2.1
 (optional=templinst|arch=sparc)_ZSt21__unguarded_partitionIN5QListIPN18QDeclarativeParser5ValueEE8iteratorES3_PFbPKS2_S7_EET_SA_SA_RKT0_T1_@Base 5.2.1
 (optional=templinst|arch=sparc)_ZSt22__final_insertion_sortIN5QListIP13QGraphicsItemE8iteratorEPFbS2_S2_EEvT_S7_T0_@Base 5.2.1
 (optional=templinst|arch=sparc)_ZSt22__final_insertion_sortIN5QListIPN18QDeclarativeParser5ValueEE8iteratorEPFbPKS2_S7_EEvT_SA_T0_@Base 5.2.1
 (optional=templinst|arch=sparc)_ZSt25__unguarded_linear_insertIN5QListI5QPairIi6UpdateEE8iteratorEEvT_@Base 5.2.1
 (optional=templinst|arch=sparc)_ZSt25__unguarded_linear_insertIN5QListI7QStringE8iteratorEPFbRKS1_S5_EEvT_T0_@Base 5.2.1
 (optional=templinst|arch=sparc)_ZSt9make_heapIN5QListI5QPairIi6UpdateEE8iteratorEEvT_S6_@Base 5.2.1
 (optional=templinst|arch=sparc)_ZSt9make_heapIN5QListI7QStringE8iteratorEPFbRKS1_S5_EEvT_S8_T0_@Base 5.2.1
 _ZTI11QDataStream@Base 5.0.2
 _ZTI11QMetaObject@Base 5.0.2
 _ZTI11QSharedData@Base 5.0.2
 _ZTI15QDeclarativePen@Base 5.0.2 1
 _ZTI15QPacketAutoSend@Base 5.0.2 1
 _ZTI15QPacketProtocol@Base 5.0.2 1
 _ZTI16QDeclarativeItem@Base 5.0.2
 _ZTI16QDeclarativeText@Base 5.0.2 1
 _ZTI16QDeclarativeView@Base 5.0.2
 _ZTI17QDeclarativeState@Base 5.0.2 1
 _ZTI17QDeclarativeTimer@Base 5.0.2 1
 _ZTI18QDeclarativeEngine@Base 5.0.2
 _ZTI19QDeclarativeAnchors@Base 5.0.2 1
 _ZTI19QDeclarativeBinding@Base 5.0.2 1
 _ZTI19QDeclarativeContext@Base 5.0.2
 _ZTI19QListModelInterface@Base 5.0.2 1
 _ZTI20QDeclarativeBehavior@Base 5.0.2 1
 _ZTI20QDeclarativeKeyEvent@Base 5.0.2 1
 _ZTI20QDeclarativeRefCount@Base 5.0.2 1
 _ZTI20QGraphicsViewPrivate@Base 5.0.2
 _ZTI21QDeclarativeComponent@Base 5.0.2
 _ZTI21QDeclarativeListModel@Base 5.0.2 1
 _ZTI21QDeclarativeRectangle@Base 5.0.2 1
 _ZTI21QDeclarativeScaleGrid@Base 5.0.2 1
 _ZTI21QDeclarativeValueType@Base 5.0.2 1
 _ZTI22QDeclarativeDebugQuery@Base 5.0.2 1
 _ZTI22QDeclarativeDebugTrace@Base 5.0.2 1
 _ZTI22QDeclarativeDebugWatch@Base 5.0.2 1
 _ZTI22QDeclarativeExpression@Base 5.0.2
 _ZTI22QDeclarativeMouseEvent@Base 5.0.2 1
 _ZTI22QDeclarativeStateGroup@Base 5.0.2 1
 _ZTI22QDeclarativeTransition@Base 5.0.2 1
 _ZTI22QDynamicMetaObjectData@Base 5.0.2
 _ZTI23QDeclarativeApplication@Base 5.0.2 1
 _ZTI23QDeclarativeDebugClient@Base 5.0.2 1
 _ZTI23QDeclarativeDebugServer@Base 5.0.2 1
 _ZTI23QDeclarativeEngineDebug@Base 5.0.2 1
 _ZTI23QDeclarativeItemPrivate@Base 5.0.2 1
 _ZTI23QDeclarativePropertyMap@Base 5.0.2
 _ZTI24QDeclarativeCustomParser@Base 5.0.2 1
 _ZTI24QDeclarativeDebugService@Base 5.0.2 1
 _ZTI24QDeclarativeParentChange@Base 5.0.2 1
 _ZTI24QDeclarativeParserStatus@Base 5.0.2
 _ZTI24QDeclarativeScriptAction@Base 5.0.2 1
 _ZTI25QDeclarativeAnchorChanges@Base 5.0.2 1
 _ZTI25QDeclarativeImageProvider@Base 5.0.2
 _ZTI26QAbstractDynamicMetaObject@Base 5.0.2
 _ZTI26QDeclarativeBasePositioner@Base 5.0.2 1
 _ZTI26QDeclarativeDebuggerStatus@Base 5.0.2 1
 _ZTI26QDeclarativeOpenMetaObject@Base 5.0.2 1
 _ZTI26QDeclarativeStateOperation@Base 5.0.2 1
 _ZTI27QDeclarativeAbstractBinding@Base 5.0.2 1
 _ZTI27QDeclarativeDebugConnection@Base 5.0.2 1
 _ZTI27QDeclarativeExtensionPlugin@Base 5.0.2
 _ZTI27QDeclarativePropertyChanges@Base 5.0.2 1
 _ZTI27QDeclarativePropertyPrivate@Base 5.0.2 1
 _ZTI28QDeclarativeDebugObjectQuery@Base 5.0.2 1
 _ZTI28QDeclarativeInspectorService@Base 5.0.2 1
 _ZTI29QDeclarativeAbstractAnimation@Base 5.0.2 1
 _ZTI29QDeclarativeDebugEnginesQuery@Base 5.0.2 1
 _ZTI30QDeclarativeDebugPropertyWatch@Base 5.0.2 1
 _ZTI30QDeclarativeExtensionInterface@Base 5.0.2
 _ZTI30QDeclarativeOpenMetaObjectType@Base 5.0.2 1
 _ZTI31QDeclarativePropertyValueSource@Base 5.0.2
 _ZTI32QDeclarativeDebugExpressionQuery@Base 5.0.2 1
 _ZTI33QDeclarativeDebugRootContextQuery@Base 5.0.2 1
 _ZTI36QDeclarativePropertyValueInterceptor@Base 5.0.2
 _ZTI38QDeclarativeDebugObjectExpressionWatch@Base 5.0.2 1
 _ZTI39QDeclarativeNetworkAccessManagerFactory@Base 5.0.2
 _ZTI7QPacket@Base 5.0.2 1
 _ZTIN23QScriptDeclarativeClass6ObjectE@Base 5.0.2
 _ZTS11QDataStream@Base 5.0.2
 _ZTS11QMetaObject@Base 5.0.2
 _ZTS11QSharedData@Base 5.0.2
 _ZTS15QDeclarativePen@Base 5.0.2 1
 _ZTS15QPacketAutoSend@Base 5.0.2 1
 _ZTS15QPacketProtocol@Base 5.0.2 1
 _ZTS16QDeclarativeItem@Base 5.0.2
 _ZTS16QDeclarativeText@Base 5.0.2 1
 _ZTS16QDeclarativeView@Base 5.0.2
 _ZTS17QDeclarativeState@Base 5.0.2 1
 _ZTS17QDeclarativeTimer@Base 5.0.2 1
 _ZTS18QDeclarativeEngine@Base 5.0.2
 _ZTS19QDeclarativeAnchors@Base 5.0.2 1
 _ZTS19QDeclarativeBinding@Base 5.0.2 1
 _ZTS19QDeclarativeContext@Base 5.0.2
 _ZTS19QListModelInterface@Base 5.0.2 1
 _ZTS20QDeclarativeBehavior@Base 5.0.2 1
 _ZTS20QDeclarativeKeyEvent@Base 5.0.2 1
 _ZTS20QDeclarativeRefCount@Base 5.0.2 1
 _ZTS20QGraphicsViewPrivate@Base 5.0.2
 _ZTS21QDeclarativeComponent@Base 5.0.2
 _ZTS21QDeclarativeListModel@Base 5.0.2 1
 _ZTS21QDeclarativeRectangle@Base 5.0.2 1
 _ZTS21QDeclarativeScaleGrid@Base 5.0.2 1
 _ZTS21QDeclarativeValueType@Base 5.0.2 1
 _ZTS22QDeclarativeDebugQuery@Base 5.0.2 1
 _ZTS22QDeclarativeDebugTrace@Base 5.0.2 1
 _ZTS22QDeclarativeDebugWatch@Base 5.0.2 1
 _ZTS22QDeclarativeExpression@Base 5.0.2
 _ZTS22QDeclarativeMouseEvent@Base 5.0.2 1
 _ZTS22QDeclarativeStateGroup@Base 5.0.2 1
 _ZTS22QDeclarativeTransition@Base 5.0.2 1
 _ZTS22QDynamicMetaObjectData@Base 5.0.2
 _ZTS23QDeclarativeApplication@Base 5.0.2 1
 _ZTS23QDeclarativeDebugClient@Base 5.0.2 1
 _ZTS23QDeclarativeDebugServer@Base 5.0.2 1
 _ZTS23QDeclarativeEngineDebug@Base 5.0.2 1
 _ZTS23QDeclarativeItemPrivate@Base 5.0.2 1
 _ZTS23QDeclarativePropertyMap@Base 5.0.2
 _ZTS24QDeclarativeCustomParser@Base 5.0.2 1
 _ZTS24QDeclarativeDebugService@Base 5.0.2 1
 _ZTS24QDeclarativeParentChange@Base 5.0.2 1
 _ZTS24QDeclarativeParserStatus@Base 5.0.2
 _ZTS24QDeclarativeScriptAction@Base 5.0.2 1
 _ZTS25QDeclarativeAnchorChanges@Base 5.0.2 1
 _ZTS25QDeclarativeImageProvider@Base 5.0.2
 _ZTS26QAbstractDynamicMetaObject@Base 5.0.2
 _ZTS26QDeclarativeBasePositioner@Base 5.0.2 1
 _ZTS26QDeclarativeDebuggerStatus@Base 5.0.2 1
 _ZTS26QDeclarativeOpenMetaObject@Base 5.0.2 1
 _ZTS26QDeclarativeStateOperation@Base 5.0.2 1
 _ZTS27QDeclarativeAbstractBinding@Base 5.0.2 1
 _ZTS27QDeclarativeDebugConnection@Base 5.0.2 1
 _ZTS27QDeclarativeExtensionPlugin@Base 5.0.2
 _ZTS27QDeclarativePropertyChanges@Base 5.0.2 1
 _ZTS27QDeclarativePropertyPrivate@Base 5.0.2 1
 _ZTS28QDeclarativeDebugObjectQuery@Base 5.0.2 1
 _ZTS28QDeclarativeInspectorService@Base 5.0.2 1
 _ZTS29QDeclarativeAbstractAnimation@Base 5.0.2 1
 _ZTS29QDeclarativeDebugEnginesQuery@Base 5.0.2 1
 _ZTS30QDeclarativeDebugPropertyWatch@Base 5.0.2 1
 _ZTS30QDeclarativeExtensionInterface@Base 5.0.2
 _ZTS30QDeclarativeOpenMetaObjectType@Base 5.0.2 1
 _ZTS31QDeclarativePropertyValueSource@Base 5.0.2
 _ZTS32QDeclarativeDebugExpressionQuery@Base 5.0.2 1
 _ZTS33QDeclarativeDebugRootContextQuery@Base 5.0.2 1
 _ZTS36QDeclarativePropertyValueInterceptor@Base 5.0.2
 _ZTS38QDeclarativeDebugObjectExpressionWatch@Base 5.0.2 1
 _ZTS39QDeclarativeNetworkAccessManagerFactory@Base 5.0.2
 _ZTS7QPacket@Base 5.0.2 1
 _ZTSN23QScriptDeclarativeClass6ObjectE@Base 5.0.2
 _ZTV15QDeclarativePen@Base 5.0.2 1
 _ZTV15QPacketAutoSend@Base 5.0.2 1
 _ZTV15QPacketProtocol@Base 5.0.2 1
 _ZTV16QDeclarativeItem@Base 5.0.2
 _ZTV16QDeclarativeText@Base 5.0.2 1
 _ZTV16QDeclarativeView@Base 5.0.2
 _ZTV17QDeclarativeState@Base 5.0.2 1
 _ZTV17QDeclarativeTimer@Base 5.0.2 1
 _ZTV18QDeclarativeEngine@Base 5.0.2
 _ZTV19QDeclarativeAnchors@Base 5.0.2 1
 _ZTV19QDeclarativeBinding@Base 5.0.2 1
 _ZTV19QDeclarativeContext@Base 5.0.2
 _ZTV19QListModelInterface@Base 5.0.2 1
 _ZTV20QDeclarativeBehavior@Base 5.0.2 1
 _ZTV20QDeclarativeKeyEvent@Base 5.0.2 1
 _ZTV20QDeclarativeRefCount@Base 5.0.2 1
 _ZTV20QGraphicsViewPrivate@Base 5.0.2
 _ZTV21QDeclarativeComponent@Base 5.0.2
 _ZTV21QDeclarativeListModel@Base 5.0.2 1
 _ZTV21QDeclarativeRectangle@Base 5.0.2 1
 _ZTV21QDeclarativeScaleGrid@Base 5.0.2 1
 _ZTV21QDeclarativeValueType@Base 5.0.2 1
 _ZTV22QDeclarativeDebugQuery@Base 5.0.2 1
 _ZTV22QDeclarativeDebugTrace@Base 5.0.2 1
 _ZTV22QDeclarativeDebugWatch@Base 5.0.2 1
 _ZTV22QDeclarativeExpression@Base 5.0.2
 _ZTV22QDeclarativeMouseEvent@Base 5.0.2 1
 _ZTV22QDeclarativeStateGroup@Base 5.0.2 1
 _ZTV22QDeclarativeTransition@Base 5.0.2 1
 _ZTV22QDynamicMetaObjectData@Base 5.0.2
 _ZTV23QDeclarativeApplication@Base 5.0.2 1
 _ZTV23QDeclarativeDebugClient@Base 5.0.2 1
 _ZTV23QDeclarativeDebugServer@Base 5.0.2 1
 _ZTV23QDeclarativeEngineDebug@Base 5.0.2 1
 _ZTV23QDeclarativeItemPrivate@Base 5.0.2 1
 _ZTV23QDeclarativePropertyMap@Base 5.0.2
 _ZTV24QDeclarativeCustomParser@Base 5.0.2 1
 _ZTV24QDeclarativeDebugService@Base 5.0.2 1
 _ZTV24QDeclarativeParentChange@Base 5.0.2 1
 _ZTV24QDeclarativeParserStatus@Base 5.0.2
 _ZTV24QDeclarativeScriptAction@Base 5.0.2 1
 _ZTV25QDeclarativeAnchorChanges@Base 5.0.2 1
 _ZTV25QDeclarativeImageProvider@Base 5.0.2
 _ZTV26QAbstractDynamicMetaObject@Base 5.0.2
 _ZTV26QDeclarativeBasePositioner@Base 5.0.2 1
 _ZTV26QDeclarativeDebuggerStatus@Base 5.0.2 1
 _ZTV26QDeclarativeOpenMetaObject@Base 5.0.2 1
 _ZTV26QDeclarativeStateOperation@Base 5.0.2 1
 _ZTV27QDeclarativeAbstractBinding@Base 5.0.2 1
 _ZTV27QDeclarativeDebugConnection@Base 5.0.2 1
 _ZTV27QDeclarativeExtensionPlugin@Base 5.0.2
 _ZTV27QDeclarativePropertyChanges@Base 5.0.2 1
 _ZTV27QDeclarativePropertyPrivate@Base 5.0.2 1
 _ZTV28QDeclarativeDebugObjectQuery@Base 5.0.2 1
 _ZTV28QDeclarativeInspectorService@Base 5.0.2 1
 _ZTV29QDeclarativeAbstractAnimation@Base 5.0.2 1
 _ZTV29QDeclarativeDebugEnginesQuery@Base 5.0.2 1
 _ZTV30QDeclarativeDebugPropertyWatch@Base 5.0.2 1
 _ZTV30QDeclarativeExtensionInterface@Base 5.0.2
 _ZTV30QDeclarativeOpenMetaObjectType@Base 5.0.2 1
 _ZTV31QDeclarativePropertyValueSource@Base 5.0.2
 _ZTV32QDeclarativeDebugExpressionQuery@Base 5.0.2 1
 _ZTV33QDeclarativeDebugRootContextQuery@Base 5.0.2 1
 _ZTV36QDeclarativePropertyValueInterceptor@Base 5.0.2
 _ZTV38QDeclarativeDebugObjectExpressionWatch@Base 5.0.2 1
 _ZTV39QDeclarativeNetworkAccessManagerFactory@Base 5.0.2
 _ZTV7QPacket@Base 5.0.2 1
 _ZTVN23QScriptDeclarativeClass6ObjectE@Base 5.0.2
 _Zls6QDebugP16QDeclarativeItem@Base 5.0.2
 _Zls6QDebugRK17QDeclarativeError@Base 5.0.2
 _ZlsR11QDataStreamRKN30QDeclarativeEngineDebugService22QDeclarativeObjectDataE@Base 5.0.2
 _ZlsR11QDataStreamRKN30QDeclarativeEngineDebugService26QDeclarativeObjectPropertyE@Base 5.0.2
 _ZrsR11QDataStreamRN30QDeclarativeEngineDebugService22QDeclarativeObjectDataE@Base 5.0.2
 _ZrsR11QDataStreamRN30QDeclarativeEngineDebugService26QDeclarativeObjectPropertyE@Base 5.0.2
 (c++)"non-virtual thunk to QDeclarativeAbstractAnimation::classBegin()@Base" 5.0.2
 (c++)"non-virtual thunk to QDeclarativeAbstractAnimation::componentComplete()@Base" 5.0.2
 (c++)"non-virtual thunk to QDeclarativeAbstractAnimation::setTarget(QDeclarativeProperty const&)@Base" 5.0.2
 (c++)"non-virtual thunk to QDeclarativeAbstractAnimation::~QDeclarativeAbstractAnimation()@Base" 5.0.2
 (c++)"non-virtual thunk to QDeclarativeAnchorChanges::changesBindings()@Base" 5.0.2
 (c++)"non-virtual thunk to QDeclarativeAnchorChanges::clearBindings()@Base" 5.0.2
 (c++)"non-virtual thunk to QDeclarativeAnchorChanges::copyOriginals(QDeclarativeActionEvent*)@Base" 5.0.2
 (c++)"non-virtual thunk to QDeclarativeAnchorChanges::execute(QDeclarativeActionEvent::Reason)@Base" 5.0.2
 (c++)"non-virtual thunk to QDeclarativeAnchorChanges::isReversable()@Base" 5.0.2
 (c++)"non-virtual thunk to QDeclarativeAnchorChanges::override(QDeclarativeActionEvent*)@Base" 5.0.2
 (c++)"non-virtual thunk to QDeclarativeAnchorChanges::reverse(QDeclarativeActionEvent::Reason)@Base" 5.0.2
 (c++)"non-virtual thunk to QDeclarativeAnchorChanges::rewind()@Base" 5.0.2
 (c++)"non-virtual thunk to QDeclarativeAnchorChanges::saveCurrentValues()@Base" 5.0.2
 (c++)"non-virtual thunk to QDeclarativeAnchorChanges::saveOriginals()@Base" 5.0.2
 (c++)"non-virtual thunk to QDeclarativeAnchorChanges::saveTargetValues()@Base" 5.0.2
 (c++)"non-virtual thunk to QDeclarativeAnchorChanges::typeName() const@Base" 5.0.2
 (c++)"non-virtual thunk to QDeclarativeAnchorChanges::~QDeclarativeAnchorChanges()@Base" 5.0.2
 (c++)"non-virtual thunk to QDeclarativeBasePositioner::componentComplete()@Base" 5.0.2
 (c++)"non-virtual thunk to QDeclarativeBasePositioner::itemChange(QGraphicsItem::GraphicsItemChange, QVariant const&)@Base" 5.0.2
 (c++)"non-virtual thunk to QDeclarativeBasePositioner::~QDeclarativeBasePositioner()@Base" 5.0.2
 (c++)"non-virtual thunk to QDeclarativeBehavior::setTarget(QDeclarativeProperty const&)@Base" 5.0.2
 (c++)"non-virtual thunk to QDeclarativeBehavior::write(QVariant const&)@Base" 5.0.2
 (c++)"non-virtual thunk to QDeclarativeBehavior::~QDeclarativeBehavior()@Base" 5.0.2
 (c++)"non-virtual thunk to QDeclarativeBinding::expression() const@Base" 5.0.2
 (c++)"non-virtual thunk to QDeclarativeBinding::setEnabled(bool, QFlags<QDeclarativePropertyPrivate::WriteFlag>)@Base" 5.0.2
 (c++)"non-virtual thunk to QDeclarativeBinding::update(QFlags<QDeclarativePropertyPrivate::WriteFlag>)@Base" 5.0.2
 (c++)"non-virtual thunk to QDeclarativeBinding::~QDeclarativeBinding()@Base" 5.0.2
 (c++)"non-virtual thunk to QDeclarativeExtensionPlugin::initializeEngine(QDeclarativeEngine*, char const*)@Base" 5.0.2
 (c++)"non-virtual thunk to QDeclarativeExtensionPlugin::~QDeclarativeExtensionPlugin()@Base" 5.0.2
 (c++)"non-virtual thunk to QDeclarativeItem::boundingRect() const@Base" 5.0.2
 (c++)"non-virtual thunk to QDeclarativeItem::classBegin()@Base" 5.0.2
 (c++)"non-virtual thunk to QDeclarativeItem::componentComplete()@Base" 5.0.2
 (c++)"non-virtual thunk to QDeclarativeItem::inputMethodEvent(QInputMethodEvent*)@Base" 5.0.2
 (c++)"non-virtual thunk to QDeclarativeItem::inputMethodQuery(Qt::InputMethodQuery) const@Base" 5.0.2
 (c++)"non-virtual thunk to QDeclarativeItem::itemChange(QGraphicsItem::GraphicsItemChange, QVariant const&)@Base" 5.0.2
 (c++)"non-virtual thunk to QDeclarativeItem::keyPressEvent(QKeyEvent*)@Base" 5.0.2
 (c++)"non-virtual thunk to QDeclarativeItem::keyReleaseEvent(QKeyEvent*)@Base" 5.0.2
 (c++)"non-virtual thunk to QDeclarativeItem::paint(QPainter*, QStyleOptionGraphicsItem const*, QWidget*)@Base" 5.0.2
 (c++)"non-virtual thunk to QDeclarativeItem::sceneEvent(QEvent*)@Base" 5.0.2
 (c++)"non-virtual thunk to QDeclarativeItem::~QDeclarativeItem()@Base" 5.0.2
 (c++)"non-virtual thunk to QDeclarativeParentChange::execute(QDeclarativeActionEvent::Reason)@Base" 5.0.2
 (c++)"non-virtual thunk to QDeclarativeParentChange::isReversable()@Base" 5.0.2
 (c++)"non-virtual thunk to QDeclarativeParentChange::override(QDeclarativeActionEvent*)@Base" 5.0.2
 (c++)"non-virtual thunk to QDeclarativeParentChange::reverse(QDeclarativeActionEvent::Reason)@Base" 5.0.2
 (c++)"non-virtual thunk to QDeclarativeParentChange::rewind()@Base" 5.0.2
 (c++)"non-virtual thunk to QDeclarativeParentChange::saveCurrentValues()@Base" 5.0.2
 (c++)"non-virtual thunk to QDeclarativeParentChange::saveOriginals()@Base" 5.0.2
 (c++)"non-virtual thunk to QDeclarativeParentChange::typeName() const@Base" 5.0.2
 (c++)"non-virtual thunk to QDeclarativeParentChange::~QDeclarativeParentChange()@Base" 5.0.2
 (c++)"non-virtual thunk to QDeclarativeRectangle::boundingRect() const@Base" 5.0.2
 (c++)"non-virtual thunk to QDeclarativeRectangle::paint(QPainter*, QStyleOptionGraphicsItem const*, QWidget*)@Base" 5.0.2
 (c++|optional=gccinternal)"non-virtual thunk to QDeclarativeRectangle::~QDeclarativeRectangle()@Base" 5.0.2
 (c++)"non-virtual thunk to QDeclarativeScriptAction::~QDeclarativeScriptAction()@Base" 5.0.2
 (c++)"non-virtual thunk to QDeclarativeStateGroup::classBegin()@Base" 5.0.2
 (c++)"non-virtual thunk to QDeclarativeStateGroup::componentComplete()@Base" 5.0.2
 (c++)"non-virtual thunk to QDeclarativeStateGroup::~QDeclarativeStateGroup()@Base" 5.0.2
 (c++)"non-virtual thunk to QDeclarativeText::boundingRect() const@Base" 5.0.2
 (c++)"non-virtual thunk to QDeclarativeText::componentComplete()@Base" 5.0.2
 (c++)"non-virtual thunk to QDeclarativeText::mousePressEvent(QGraphicsSceneMouseEvent*)@Base" 5.0.2
 (c++)"non-virtual thunk to QDeclarativeText::mouseReleaseEvent(QGraphicsSceneMouseEvent*)@Base" 5.0.2
 (c++)"non-virtual thunk to QDeclarativeText::paint(QPainter*, QStyleOptionGraphicsItem const*, QWidget*)@Base" 5.0.2
 (c++)"non-virtual thunk to QDeclarativeText::~QDeclarativeText()@Base" 5.0.2
 (c++)"non-virtual thunk to QDeclarativeTimer::classBegin()@Base" 5.0.2
 (c++)"non-virtual thunk to QDeclarativeTimer::componentComplete()@Base" 5.0.2
 (c++|optional=gccinternal)"non-virtual thunk to QDeclarativeTimer::~QDeclarativeTimer()@Base" 5.0.2
 (c++)"non-virtual thunk to QDeclarativeView::~QDeclarativeView()@Base" 5.0.2
