libsysstat-qt5.so.0 libsysstat-qt5-0 #MINVER#
 _ZN7SysStat7CpuStat11qt_metacallEN11QMetaObject4CallEiPPv@Base 0.1.0
 _ZN7SysStat7CpuStat11qt_metacastEPKc@Base 0.1.0
 _ZN7SysStat7CpuStat13setMonitoringENS0_10MonitoringE@Base 0.1.0
 _ZN7SysStat7CpuStat13updateSourcesEv@Base 0.1.0
 _ZN7SysStat7CpuStat16staticMetaObjectE@Base 0.1.0
 _ZN7SysStat7CpuStat17monitoringChangedENS0_10MonitoringE@Base 0.1.0
 _ZN7SysStat7CpuStat6updateEffff@Base 0.1.0
 _ZN7SysStat7CpuStat6updateEfffffj@Base 0.1.0
 _ZN7SysStat7CpuStat6updateEj@Base 0.1.0
 _ZN7SysStat7CpuStatC1EP7QObject@Base 0.1.0
 _ZN7SysStat7CpuStatC2EP7QObject@Base 0.1.0
 _ZN7SysStat7CpuStatD0Ev@Base 0.1.0
 _ZN7SysStat7CpuStatD1Ev@Base 0.1.0
 _ZN7SysStat7CpuStatD2Ev@Base 0.1.0
 _ZN7SysStat7MemStat10swapUpdateEf@Base 0.1.0
 _ZN7SysStat7MemStat11qt_metacallEN11QMetaObject4CallEiPPv@Base 0.1.0
 _ZN7SysStat7MemStat11qt_metacastEPKc@Base 0.1.0
 _ZN7SysStat7MemStat12memoryUpdateEfff@Base 0.1.0
 _ZN7SysStat7MemStat16staticMetaObjectE@Base 0.1.0
 _ZN7SysStat7MemStatC1EP7QObject@Base 0.1.0
 _ZN7SysStat7MemStatC2EP7QObject@Base 0.1.0
 _ZN7SysStat7MemStatD0Ev@Base 0.1.0
 _ZN7SysStat7MemStatD1Ev@Base 0.1.0
 _ZN7SysStat7MemStatD2Ev@Base 0.1.0
 _ZN7SysStat7NetStat11qt_metacallEN11QMetaObject4CallEiPPv@Base 0.1.0
 _ZN7SysStat7NetStat11qt_metacastEPKc@Base 0.1.0
 _ZN7SysStat7NetStat16staticMetaObjectE@Base 0.1.0
 _ZN7SysStat7NetStat6updateEjj@Base 0.1.0
 _ZN7SysStat7NetStatC1EP7QObject@Base 0.1.0
 _ZN7SysStat7NetStatC2EP7QObject@Base 0.1.0
 _ZN7SysStat7NetStatD0Ev@Base 0.1.0
 _ZN7SysStat7NetStatD1Ev@Base 0.1.0
 _ZN7SysStat7NetStatD2Ev@Base 0.1.0
 _ZN7SysStat8BaseStat11qt_metacallEN11QMetaObject4CallEiPPv@Base 0.1.0
 _ZN7SysStat8BaseStat11qt_metacastEPKc@Base 0.1.0
 _ZN7SysStat8BaseStat12stopUpdatingEv@Base 0.1.0
 _ZN7SysStat8BaseStat16staticMetaObjectE@Base 0.1.0
 _ZN7SysStat8BaseStat17setUpdateIntervalEi@Base 0.1.0
 _ZN7SysStat8BaseStat18setMonitoredSourceERK7QString@Base 0.1.0
 _ZN7SysStat8BaseStat20monitorDefaultSourceEv@Base 0.1.0
 _ZN7SysStat8BaseStat21updateIntervalChangedEi@Base 0.1.0
 _ZN7SysStat8BaseStat22monitoredSourceChangedE7QString@Base 0.1.0
 _ZN7SysStat8BaseStatC1EP7QObject@Base 0.1.0
 _ZN7SysStat8BaseStatC2EP7QObject@Base 0.1.0
 _ZN7SysStat8BaseStatD0Ev@Base 0.1.0
 _ZN7SysStat8BaseStatD1Ev@Base 0.1.0
 _ZN7SysStat8BaseStatD2Ev@Base 0.1.0
 _ZNK7SysStat7CpuStat10metaObjectEv@Base 0.1.0
 _ZNK7SysStat7CpuStat10monitoringEv@Base 0.1.0
 _ZNK7SysStat7MemStat10metaObjectEv@Base 0.1.0
 _ZNK7SysStat7NetStat10metaObjectEv@Base 0.1.0
 _ZNK7SysStat8BaseStat10metaObjectEv@Base 0.1.0
 _ZNK7SysStat8BaseStat14updateIntervalEv@Base 0.1.0
 _ZNK7SysStat8BaseStat15monitoredSourceEv@Base 0.1.0
 _ZNK7SysStat8BaseStat7sourcesEv@Base 0.1.0
 _ZTIN7SysStat7CpuStatE@Base 0.1.0
 _ZTIN7SysStat7MemStatE@Base 0.1.0
 _ZTIN7SysStat7NetStatE@Base 0.1.0
 _ZTIN7SysStat8BaseStatE@Base 0.1.0
 _ZTSN7SysStat7CpuStatE@Base 0.1.0
 _ZTSN7SysStat7MemStatE@Base 0.1.0
 _ZTSN7SysStat7NetStatE@Base 0.1.0
 _ZTSN7SysStat8BaseStatE@Base 0.1.0
 _ZTVN7SysStat7CpuStatE@Base 0.1.0
 _ZTVN7SysStat7MemStatE@Base 0.1.0
 _ZTVN7SysStat7NetStatE@Base 0.1.0
 _ZTVN7SysStat8BaseStatE@Base 0.1.0
