# SymbolsHelper-Confirmed: 5.4.0 amd64 armhf hurd-i386 i386 kfreebsd-i386 mips mipsel
libEnginio.so.1 libenginio1 #MINVER#
 _ZN12EnginioModel11qt_metacallEN11QMetaObject4CallEiPPv@Base 5.3.1
 _ZN12EnginioModel11qt_metacastEPKc@Base 5.3.1
 _ZN12EnginioModel12queryChangedERK11QJsonObject@Base 5.3.1
 _ZN12EnginioModel12setOperationEN7Enginio9OperationE@Base 5.3.1
 _ZN12EnginioModel13clientChangedEP13EnginioClient@Base 5.3.1
 _ZN12EnginioModel16operationChangedEN7Enginio9OperationE@Base 5.3.1
 _ZN12EnginioModel16staticMetaObjectE@Base 5.3.1
 _ZN12EnginioModel5queryEv@Base 5.3.1
 _ZN12EnginioModel6appendERK11QJsonObject@Base 5.3.1
 _ZN12EnginioModel6reloadEv@Base 5.4.0
 _ZN12EnginioModel6removeEi@Base 5.3.1
 _ZN12EnginioModel7setDataEiRK11QJsonObject@Base 5.4.0
 _ZN12EnginioModel7setDataEiRK8QVariantRK7QString@Base 5.3.1
 _ZN12EnginioModel8setQueryERK11QJsonObject@Base 5.3.1
 _ZN12EnginioModel9setClientEPK13EnginioClient@Base 5.3.1
 _ZN12EnginioModelC1EP7QObject@Base 5.3.1
 _ZN12EnginioModelC2EP7QObject@Base 5.3.1
 _ZN12EnginioModelD0Ev@Base 5.3.1
 _ZN12EnginioModelD1Ev@Base 5.3.1
 _ZN12EnginioModelD2Ev@Base 5.3.1
 _ZN12EnginioReply11dataChangedEv@Base 5.3.1
 _ZN12EnginioReply11qt_metacallEN11QMetaObject4CallEiPPv@Base 5.3.1
 _ZN12EnginioReply11qt_metacastEPKc@Base 5.3.1
 _ZN12EnginioReply16staticMetaObjectE@Base 5.3.1
 _ZN12EnginioReply8finishedEPS_@Base 5.3.1
 _ZN12EnginioReplyC1EP30EnginioClientConnectionPrivateP13QNetworkReply@Base 5.3.1
 _ZN12EnginioReplyC2EP30EnginioClientConnectionPrivateP13QNetworkReply@Base 5.3.1
 _ZN12EnginioReplyD0Ev@Base 5.3.1
 _ZN12EnginioReplyD1Ev@Base 5.3.1
 _ZN12EnginioReplyD2Ev@Base 5.3.1
 _ZN13EnginioClient10uploadFileERK11QJsonObjectRK4QUrl@Base 5.3.1
 _ZN13EnginioClient11downloadUrlERK11QJsonObject@Base 5.3.1
 _ZN13EnginioClient11qt_metacallEN11QMetaObject4CallEiPPv@Base 5.3.1
 _ZN13EnginioClient11qt_metacastEPKc@Base 5.3.1
 _ZN13EnginioClient13customRequestERK4QUrlRK10QByteArrayRK11QJsonObject@Base 5.3.1
 _ZN13EnginioClient14fullTextSearchERK11QJsonObject@Base 5.3.1
 _ZN13EnginioClient16staticMetaObjectE@Base 5.3.1
 _ZN13EnginioClient5errorEP12EnginioReply@Base 5.3.1
 _ZN13EnginioClient5queryERK11QJsonObjectN7Enginio9OperationE@Base 5.3.1
 _ZN13EnginioClient6createERK11QJsonObjectN7Enginio9OperationE@Base 5.3.1
 _ZN13EnginioClient6removeERK11QJsonObjectN7Enginio9OperationE@Base 5.3.1
 _ZN13EnginioClient6updateERK11QJsonObjectN7Enginio9OperationE@Base 5.3.1
 _ZN13EnginioClient8finishedEP12EnginioReply@Base 5.3.1
 _ZN13EnginioClientC1EP7QObject@Base 5.3.1
 _ZN13EnginioClientC2EP7QObject@Base 5.3.1
 _ZN13EnginioClientD0Ev@Base 5.3.1
 _ZN13EnginioClientD1Ev@Base 5.3.1
 _ZN13EnginioClientD2Ev@Base 5.3.1
 _ZN13EnginioString10apiEnginIoE@Base 5.3.1
 _ZN13EnginioString10grant_typeE@Base 5.3.1
 _ZN13EnginioString10incompleteE@Base 5.3.1
 _ZN13EnginioString10objectTypeE@Base 5.3.1
 _ZN13EnginioString10usergroupsE@Base 5.3.1
 _ZN13EnginioString11expiringUrlE@Base 5.3.1
 _ZN13EnginioString11messageTypeE@Base 5.3.1
 _ZN13EnginioString11objectTypesE@Base 5.3.1
 _ZN13EnginioString12Content_TypeE@Base 5.3.1
 _ZN13EnginioString12X_Request_IdE@Base 5.3.1
 _ZN13EnginioString12access_tokenE@Base 5.3.1
 _ZN13EnginioString12apiRequestIdE@Base 5.3.1
 _ZN13EnginioString12propertyNameE@Base 5.3.1
 _ZN13EnginioString12sessionTokenE@Base 5.3.1
 _ZN13EnginioString13AuthorizationE@Base 5.3.1
 _ZN13EnginioString13Content_RangeE@Base 5.3.1
 _ZN13EnginioString14stagingEnginIoE@Base 5.3.1
 _ZN13EnginioString16Application_jsonE@Base 5.3.1
 _ZN13EnginioString16v1_auth_identityE@Base 5.3.1
 _ZN13EnginioString18targetFilePropertyE@Base 5.3.1
 _ZN13EnginioString20v1_auth_oauth2_tokenE@Base 5.3.1
 _ZN13EnginioString23Enginio_Backend_SessionE@Base 5.3.1
 _ZN13EnginioString24Application_octet_streamE@Base 5.3.1
 _ZN13EnginioString2idE@Base 5.3.1
 _ZN13EnginioString33Application_x_www_form_urlencodedE@Base 5.3.1
 _ZN13EnginioString39EnginioModel_remove_row_is_out_of_rangeE@Base 5.3.1
 _ZN13EnginioString3DivE@Base 5.3.1
 _ZN13EnginioString3GetE@Base 5.3.1
 _ZN13EnginioString3urlE@Base 5.3.1
 _ZN13EnginioString40Fulltext_Search_search_parameter_missingE@Base 5.3.1
 _ZN13EnginioString42EnginioQmlModel_remove_row_is_out_of_rangeE@Base 5.3.1
 _ZN13EnginioString44EnginioModel_setProperty_row_is_out_of_rangeE@Base 5.3.1
 _ZN13EnginioString47EnginioQmlModel_setProperty_row_is_out_of_rangeE@Base 5.3.1
 _ZN13EnginioString47Requested_operation_requires_non_empty_id_valueE@Base 5.3.1
 _ZN13EnginioString4dataE@Base 5.3.1
 _ZN13EnginioString4fileE@Base 5.3.1
 _ZN13EnginioString4sortE@Base 5.3.1
 _ZN13EnginioString50Download_operation_requires_non_empty_fileId_valueE@Base 5.3.1
 _ZN13EnginioString57EnginioModel_Trying_to_update_an_object_with_unknown_roleE@Base 5.3.1
 _ZN13EnginioString57EnginioModel_was_removed_before_this_request_was_preparedE@Base 5.3.1
 _ZN13EnginioString58EnginioModel_Trying_to_update_an_item_with_an_empty_objectE@Base 5.4.0
 _ZN13EnginioString58Requested_object_acl_operation_requires_non_empty_id_valueE@Base 5.3.1
 _ZN13EnginioString5MinusE@Base 5.3.1
 _ZN13EnginioString5countE@Base 5.3.1
 _ZN13EnginioString5emptyE@Base 5.3.1
 _ZN13EnginioString5eventE@Base 5.3.1
 _ZN13EnginioString5filesE@Base 5.3.1
 _ZN13EnginioString5limitE@Base 5.3.1
 _ZN13EnginioString5queryE@Base 5.3.1
 _ZN13EnginioString5usersE@Base 5.3.1
 _ZN13EnginioString60Dependent_create_query_failed_so_object_could_not_be_removedE@Base 5.3.1
 _ZN13EnginioString60Dependent_create_query_failed_so_object_could_not_be_updatedE@Base 5.3.1
 _ZN13EnginioString62Requested_object_operation_requires_non_empty_objectType_valueE@Base 5.3.1
 _ZN13EnginioString64Requested_usergroup_member_operation_requires_non_empty_id_valueE@Base 5.3.1
 _ZN13EnginioString66Requested_object_acl_operation_requires_non_empty_objectType_valueE@Base 5.3.1
 _ZN13EnginioString67EnginioModel_The_query_was_changed_before_the_request_could_be_sentE@Base 5.3.1
 _ZN13EnginioString6AcceptE@Base 5.3.1
 _ZN13EnginioString6DeleteE@Base 5.3.1
 _ZN13EnginioString6accessE@Base 5.3.1
 _ZN13EnginioString6createE@Base 5.3.1
 _ZN13EnginioString6lengthE@Base 5.3.1
 _ZN13EnginioString6memberE@Base 5.3.1
 _ZN13EnginioString6objectE@Base 5.3.1
 _ZN13EnginioString6offsetE@Base 5.3.1
 _ZN13EnginioString6originE@Base 5.3.1
 _ZN13EnginioString6searchE@Base 5.3.1
 _ZN13EnginioString6statusE@Base 5.3.1
 _ZN13EnginioString6updateE@Base 5.3.1
 _ZN13EnginioString70Fulltext_Search_objectTypes_parameter_is_missing_or_it_is_not_an_arrayE@Base 5.3.1
 _ZN13EnginioString7Bearer_E@Base 5.3.1
 _ZN13EnginioString7_deleteE@Base 5.3.1
 _ZN13EnginioString7_syncedE@Base 5.3.1
 _ZN13EnginioString7headersE@Base 5.3.1
 _ZN13EnginioString7includeE@Base 5.3.1
 _ZN13EnginioString7membersE@Base 5.3.1
 _ZN13EnginioString7messageE@Base 5.3.1
 _ZN13EnginioString7payloadE@Base 5.3.1
 _ZN13EnginioString7resultsE@Base 5.3.1
 _ZN13EnginioString7sessionE@Base 5.3.1
 _ZN13EnginioString7variantE@Base 5.3.1
 _ZN13EnginioString8completeE@Base 5.3.1
 _ZN13EnginioString8fileNameE@Base 5.3.1
 _ZN13EnginioString8pageSizeE@Base 5.3.1
 _ZN13EnginioString8passwordE@Base 5.3.1
 _ZN13EnginioString8usernameE@Base 5.3.1
 _ZN13EnginioString9createdAtE@Base 5.3.1
 _ZN13EnginioString9updatedAtE@Base 5.3.1
 _ZN15EnginioIdentity11dataChangedEv@Base 5.3.1
 _ZN15EnginioIdentity11qt_metacallEN11QMetaObject4CallEiPPv@Base 5.3.1
 _ZN15EnginioIdentity11qt_metacastEPKc@Base 5.3.1
 _ZN15EnginioIdentity14aboutToDestroyEv@Base 5.3.1
 _ZN15EnginioIdentity16staticMetaObjectE@Base 5.3.1
 _ZN15EnginioIdentityC1ER22EnginioIdentityPrivateP7QObject@Base 5.3.1
 _ZN15EnginioIdentityC2ER22EnginioIdentityPrivateP7QObject@Base 5.3.1
 _ZN16EnginioBaseModel11qt_metacallEN11QMetaObject4CallEiPPv@Base 5.3.1
 _ZN16EnginioBaseModel11qt_metacastEPKc@Base 5.3.1
 _ZN16EnginioBaseModel16staticMetaObjectE@Base 5.3.1
 _ZN16EnginioBaseModel20disableNotificationsEv@Base 5.3.1
 _ZN16EnginioBaseModel7setDataERK11QModelIndexRK8QVarianti@Base 5.3.1
 _ZN16EnginioBaseModel9fetchMoreERK11QModelIndex@Base 5.3.1
 _ZN16EnginioBaseModelC1ER23EnginioBaseModelPrivateP7QObject@Base 5.3.1
 _ZN16EnginioBaseModelC2ER23EnginioBaseModelPrivateP7QObject@Base 5.3.1
 _ZN16EnginioBaseModelD0Ev@Base 5.3.1
 _ZN16EnginioBaseModelD1Ev@Base 5.3.1
 _ZN16EnginioBaseModelD2Ev@Base 5.3.1
 _ZN16EnginioFakeReply11qt_metacallEN11QMetaObject4CallEiPPv@Base 5.3.1
 _ZN16EnginioFakeReply11qt_metacastEPKc@Base 5.3.1
 _ZN16EnginioFakeReply16staticMetaObjectE@Base 5.3.1
 _ZN16EnginioFakeReply4initEP21QNetworkAccessManager@Base 5.3.1
 _ZN16EnginioFakeReply5abortEv@Base 5.3.1
 _ZN16EnginioFakeReply8readDataEPcx@Base 5.3.1
 _ZN16EnginioFakeReply9writeDataEPKcx@Base 5.3.1
 _ZN16EnginioFakeReplyC1EP30EnginioClientConnectionPrivateRK10QByteArray@Base 5.3.1
 _ZN16EnginioFakeReplyC1EP7QObjectRK10QByteArray@Base 5.3.1
 _ZN16EnginioFakeReplyC2EP30EnginioClientConnectionPrivateRK10QByteArray@Base 5.3.1
 _ZN16EnginioFakeReplyC2EP7QObjectRK10QByteArray@Base 5.3.1
 (optional=gccinternal)_ZN16EnginioFakeReplyD0Ev@Base 5.3.1
 (optional=gccinternal)_ZN16EnginioFakeReplyD1Ev@Base 5.3.1
 (optional=gccinternal)_ZN16EnginioFakeReplyD2Ev@Base 5.3.1
 _ZN17EnginioDummyReply11qt_metacallEN11QMetaObject4CallEiPPv@Base 5.3.1
 _ZN17EnginioDummyReply11qt_metacastEPKc@Base 5.3.1
 _ZN17EnginioDummyReply16staticMetaObjectE@Base 5.3.1
 _ZN17EnginioDummyReply5abortEv@Base 5.3.1
 _ZN17EnginioDummyReply8readDataEPcx@Base 5.3.1
 _ZN17EnginioDummyReply9writeDataEPKcx@Base 5.3.1
 _ZN17EnginioDummyReplyC1EP7QObject@Base 5.3.1
 _ZN17EnginioDummyReplyC2EP7QObject@Base 5.3.1
 (optional=gccinternal)_ZN17EnginioDummyReplyD0Ev@Base 5.3.1
 (optional=gccinternal)_ZN17EnginioDummyReplyD1Ev@Base 5.3.1
 (optional=gccinternal)_ZN17EnginioDummyReplyD2Ev@Base 5.3.1
 _ZN17EnginioReplyState11dataChangedEv@Base 5.3.1
 _ZN17EnginioReplyState11qt_metacallEN11QMetaObject4CallEiPPv@Base 5.3.1
 _ZN17EnginioReplyState11qt_metacastEPKc@Base 5.3.1
 _ZN17EnginioReplyState15setNetworkReplyEP13QNetworkReply@Base 5.3.1
 _ZN17EnginioReplyState16staticMetaObjectE@Base 5.3.1
 _ZN17EnginioReplyState16swapNetworkReplyEPS_@Base 5.3.1
 _ZN17EnginioReplyState19delayFinishedSignalEv@Base 5.3.1
 _ZN17EnginioReplyState22setDelayFinishedSignalEb@Base 5.3.1
 _ZN17EnginioReplyState8progressExx@Base 5.3.1
 _ZN17EnginioReplyStateC1EP30EnginioClientConnectionPrivateP13QNetworkReplyP24EnginioReplyStatePrivate@Base 5.3.1
 _ZN17EnginioReplyStateC2EP30EnginioClientConnectionPrivateP13QNetworkReplyP24EnginioReplyStatePrivate@Base 5.3.1
 _ZN17EnginioReplyStateD0Ev@Base 5.3.1
 _ZN17EnginioReplyStateD1Ev@Base 5.3.1
 _ZN17EnginioReplyStateD2Ev@Base 5.3.1
 _ZN23EnginioBaseModelPrivate14fullQueryResetERK10QJsonArray@Base 5.3.1
 (arch=armhf hurd i386 kfreebsd-i386 mips mipsel)_ZN23EnginioBaseModelPrivate20SwapNetworkReplyBaseC1ERKS0_@Base 5.4.0
 (arch=armhf hurd i386 kfreebsd-i386 mips mipsel)_ZN23EnginioBaseModelPrivate20SwapNetworkReplyBaseC2ERKS0_@Base 5.4.0
 (arch=!amd64 !hurd-i386 !i386 !kfreebsd-amd64 !kfreebsd-i386)_ZN23EnginioBaseModelPrivate20SwapNetworkReplyBaseD1Ev@Base 5.3.1
 (arch=!amd64 !hurd-i386 !i386 !kfreebsd-amd64 !kfreebsd-i386)_ZN23EnginioBaseModelPrivate20SwapNetworkReplyBaseD2Ev@Base 5.3.1
 _ZN23EnginioBaseModelPrivate20receivedNotificationERK11QJsonObject@Base 5.4.0
 _ZN23EnginioBaseModelPrivate22IncrementalModelUpdateE@Base 5.3.1
 _ZN23EnginioBaseModelPrivate26receivedCreateNotificationERK11QJsonObject@Base 5.3.1
 _ZN23EnginioBaseModelPrivate26receivedRemoveNotificationERK11QJsonObjecti@Base 5.3.1
 _ZN23EnginioBaseModelPrivate26receivedUpdateNotificationERK11QJsonObjectRK7QStringi@Base 5.3.1
 _ZN23EnginioBaseModelPrivate9syncRolesEv@Base 5.3.1
 _ZN23EnginioBaseModelPrivateD0Ev@Base 5.3.1
 _ZN23EnginioBaseModelPrivateD1Ev@Base 5.3.1
 _ZN23EnginioBaseModelPrivateD2Ev@Base 5.3.1
 _ZN23EnginioClientConnection11qt_metacallEN11QMetaObject4CallEiPPv@Base 5.3.1
 _ZN23EnginioClientConnection11qt_metacastEPKc@Base 5.3.1
 _ZN23EnginioClientConnection11setIdentityEP15EnginioIdentity@Base 5.3.1
 _ZN23EnginioClientConnection12setBackendIdERK10QByteArray@Base 5.3.1
 _ZN23EnginioClientConnection13setServiceUrlERK4QUrl@Base 5.3.1
 _ZN23EnginioClientConnection15identityChangedEP15EnginioIdentity@Base 5.3.1
 _ZN23EnginioClientConnection16backendIdChangedERK10QByteArray@Base 5.3.1
 _ZN23EnginioClientConnection16staticMetaObjectE@Base 5.3.1
 _ZN23EnginioClientConnection17serviceUrlChangedERK4QUrl@Base 5.3.1
 _ZN23EnginioClientConnection20finishDelayedRepliesEv@Base 5.3.1
 _ZN23EnginioClientConnection26authenticationStateChangedEN7Enginio19AuthenticationStateE@Base 5.3.1
 _ZN23EnginioClientConnectionC1ER30EnginioClientConnectionPrivateP7QObject@Base 5.3.1
 _ZN23EnginioClientConnectionC2ER30EnginioClientConnectionPrivateP7QObject@Base 5.3.1
 _ZN23EnginioClientConnectionD0Ev@Base 5.3.1
 _ZN23EnginioClientConnectionD1Ev@Base 5.3.1
 _ZN23EnginioClientConnectionD2Ev@Base 5.3.1
 _ZN24EnginioBackendConnection10timerEventEP11QTimerEvent@Base 5.3.1
 _ZN24EnginioBackendConnection11qt_metacallEN11QMetaObject4CallEiPPv@Base 5.3.1
 _ZN24EnginioBackendConnection11qt_metacastEPKc@Base 5.3.1
 _ZN24EnginioBackendConnection12dataReceivedE11QJsonObject@Base 5.3.1
 _ZN24EnginioBackendConnection12stateChangedENS_15ConnectionStateE@Base 5.3.1
 _ZN24EnginioBackendConnection13protocolErrorEPKcNS_20WebSocketCloseStatusE@Base 5.3.1
 _ZN24EnginioBackendConnection16connectToBackendEP13EnginioClientRK11QJsonObject@Base 5.3.1
 _ZN24EnginioBackendConnection16connectToBackendEP30EnginioClientConnectionPrivateRK11QJsonObject@Base 5.3.1
 _ZN24EnginioBackendConnection16staticMetaObjectE@Base 5.3.1
 _ZN24EnginioBackendConnection17onEnginioFinishedEP12EnginioReply@Base 5.3.1
 _ZN24EnginioBackendConnection17onSocketReadyReadEv@Base 5.3.1
 _ZN24EnginioBackendConnection20onSocketStateChangedEN15QAbstractSocket11SocketStateE@Base 5.3.1
 _ZN24EnginioBackendConnection23onSocketConnectionErrorEN15QAbstractSocket11SocketErrorE@Base 5.3.1
 _ZN24EnginioBackendConnection4pingEv@Base 5.3.1
 _ZN24EnginioBackendConnection4pongEv@Base 5.3.1
 _ZN24EnginioBackendConnection5closeENS_20WebSocketCloseStatusE@Base 5.3.1
 _ZN24EnginioBackendConnection7timeOutEv@Base 5.3.1
 _ZN24EnginioBackendConnectionC1EP7QObject@Base 5.3.1
 _ZN24EnginioBackendConnectionC2EP7QObject@Base 5.3.1
 (optional=gccinternal)_ZN24EnginioBackendConnectionD0Ev@Base 5.3.1
 (optional=gccinternal)_ZN24EnginioBackendConnectionD1Ev@Base 5.3.1
 (optional=gccinternal)_ZN24EnginioBackendConnectionD2Ev@Base 5.3.1
 (optional=gccinternal)_ZN25QAbstractItemModelPrivateD0Ev@Base 5.3.1
 (optional=gccinternal)_ZN25QAbstractItemModelPrivateD1Ev@Base 5.3.1
 (optional=gccinternal)_ZN25QAbstractItemModelPrivateD2Ev@Base 5.3.1
 _ZN27EnginioOAuth2Authentication11qt_metacallEN11QMetaObject4CallEiPPv@Base 5.3.1
 _ZN27EnginioOAuth2Authentication11qt_metacastEPKc@Base 5.3.1
 _ZN27EnginioOAuth2Authentication11setPasswordERK7QString@Base 5.3.1
 _ZN27EnginioOAuth2Authentication11userChangedERK7QString@Base 5.3.1
 _ZN27EnginioOAuth2Authentication15passwordChangedERK7QString@Base 5.3.1
 _ZN27EnginioOAuth2Authentication16staticMetaObjectE@Base 5.3.1
 _ZN27EnginioOAuth2Authentication18removeSessionTokenEP30EnginioClientConnectionPrivate@Base 5.3.1
 _ZN27EnginioOAuth2Authentication19prepareSessionTokenEP30EnginioClientConnectionPrivate@Base 5.3.1
 _ZN27EnginioOAuth2Authentication7setUserERK7QString@Base 5.3.1
 _ZN27EnginioOAuth2AuthenticationC1EP7QObject@Base 5.3.1
 _ZN27EnginioOAuth2AuthenticationC2EP7QObject@Base 5.3.1
 _ZN27EnginioOAuth2AuthenticationD0Ev@Base 5.3.1
 _ZN27EnginioOAuth2AuthenticationD1Ev@Base 5.3.1
 _ZN27EnginioOAuth2AuthenticationD2Ev@Base 5.3.1
 (optional=templinst|arch=alpha amd64 arm64 kfreebsd-amd64 mips64el ppc64 ppc64el s390x)_ZN30EnginioClientConnectionPrivate10uploadFileI11QJsonObjectEEP13QNetworkReplyRK13ObjectAdaptorIT_ERK4QUrl@Base 5.3.1
 _ZN30EnginioClientConnectionPrivate11createReplyEP13QNetworkReply@Base 5.3.1
 _ZN30EnginioClientConnectionPrivate11uploadChunkEP17EnginioReplyStateP9QIODevicex@Base 5.3.1
 _ZN30EnginioClientConnectionPrivate12emitFinishedEP17EnginioReplyState@Base 5.3.1
 _ZN30EnginioClientConnectionPrivate13replyFinishedEP13QNetworkReply@Base 5.3.1
 (arch=alpha arm64 armel hppa mips mips64el mipsel powerpc ppc64 ppc64el s390x sparc)_ZN30EnginioClientConnectionPrivate13uploadChunkedI11QJsonObjectEEP13QNetworkReplyRK13ObjectAdaptorIT_EP9QIODevice@Base 5.3.2
 _ZN30EnginioClientConnectionPrivate14prepareRequestERK4QUrl@Base 5.3.1
 _ZN30EnginioClientConnectionPrivate20assignNetworkManagerEv@Base 5.3.1
 _ZN30EnginioClientConnectionPrivate20finishDelayedRepliesEv@Base 5.3.1
 _ZN30EnginioClientConnectionPrivate21constructErrorMessageERK10QByteArray@Base 5.3.1
 (arch=!armhf !mips !mipsel)_ZN30EnginioClientConnectionPrivate21uploadAsHttpMultiPartI11QJsonObjectEEP13QNetworkReplyRK13ObjectAdaptorIT_EP9QIODeviceRK7QString@Base 5.3.1
 _ZN30EnginioClientConnectionPrivate24appendIdToPathIfPossibleEP7QStringRKS0_P10QByteArrayNS_11PathOptionsES4_@Base 5.4.0
 _ZN30EnginioClientConnectionPrivate24emitSessionAuthenticatedEP17EnginioReplyState@Base 5.3.1
 _ZN30EnginioClientConnectionPrivate29prepareNetworkManagerInThreadEv@Base 5.3.1
 _ZN30EnginioClientConnectionPrivate30emitSessionAuthenticationErrorEP17EnginioReplyState@Base 5.3.1
 _ZN30EnginioClientConnectionPrivate4initEv@Base 5.3.1
 _ZN30EnginioClientConnectionPrivate5queryI11QJsonObjectEEP13QNetworkReplyRK13ObjectAdaptorIT_EN7Enginio9OperationE@Base 5.3.1
 _ZN30EnginioClientConnectionPrivate6createI11QJsonObjectEEP13QNetworkReplyRK13ObjectAdaptorIT_EN7Enginio9OperationE@Base 5.3.1
 _ZN30EnginioClientConnectionPrivate6removeI11QJsonObjectEEP13QNetworkReplyRK13ObjectAdaptorIT_EN7Enginio9OperationE@Base 5.3.1
 _ZN30EnginioClientConnectionPrivate6updateI11QJsonObjectEEP13QNetworkReplyRK13ObjectAdaptorIT_EN7Enginio9OperationE@Base 5.3.1
 _ZN30EnginioClientConnectionPrivate9emitErrorEP17EnginioReplyState@Base 5.3.1
 _ZN30EnginioClientConnectionPrivateC1Ev@Base 5.3.1
 _ZN30EnginioClientConnectionPrivateC2Ev@Base 5.3.1
 _ZN30EnginioClientConnectionPrivateD0Ev@Base 5.3.1
 _ZN30EnginioClientConnectionPrivateD1Ev@Base 5.3.1
 _ZN30EnginioClientConnectionPrivateD2Ev@Base 5.3.1
 _ZN7Enginio16staticMetaObjectE@Base 5.3.1
 _ZNK12EnginioModel10metaObjectEv@Base 5.3.1
 _ZNK12EnginioModel6clientEv@Base 5.3.1
 _ZNK12EnginioModel9operationEv@Base 5.3.1
 _ZNK12EnginioReply10metaObjectEv@Base 5.3.1
 _ZNK12EnginioReply4dataEv@Base 5.3.1
 _ZNK13EnginioClient10metaObjectEv@Base 5.3.1
 _ZNK13EnginioClient17sessionTerminatedEv@Base 5.3.1
 _ZNK13EnginioClient20sessionAuthenticatedEP12EnginioReply@Base 5.3.1
 _ZNK13EnginioClient26sessionAuthenticationErrorEP12EnginioReply@Base 5.3.1
 _ZNK15EnginioIdentity10metaObjectEv@Base 5.3.1
 _ZNK16EnginioBaseModel10metaObjectEv@Base 5.3.1
 _ZNK16EnginioBaseModel12canFetchMoreERK11QModelIndex@Base 5.3.1
 _ZNK16EnginioBaseModel4dataERK11QModelIndexi@Base 5.3.1
 _ZNK16EnginioBaseModel5flagsERK11QModelIndex@Base 5.3.1
 _ZNK16EnginioBaseModel8rowCountERK11QModelIndex@Base 5.3.1
 _ZNK16EnginioBaseModel9roleNamesEv@Base 5.3.1
 _ZNK16EnginioFakeReply10metaObjectEv@Base 5.3.1
 _ZNK16EnginioFakeReply12isSequentialEv@Base 5.3.1
 _ZNK16EnginioFakeReply4sizeEv@Base 5.3.1
 _ZNK17EnginioDummyReply10metaObjectEv@Base 5.3.1
 _ZNK17EnginioDummyReply12isSequentialEv@Base 5.3.1
 _ZNK17EnginioDummyReply4sizeEv@Base 5.3.1
 _ZNK17EnginioReplyState10isFinishedEv@Base 5.3.1
 _ZNK17EnginioReplyState10metaObjectEv@Base 5.3.1
 _ZNK17EnginioReplyState11errorStringEv@Base 5.3.1
 _ZNK17EnginioReplyState12networkErrorEv@Base 5.3.1
 _ZNK17EnginioReplyState13backendStatusEv@Base 5.3.1
 _ZNK17EnginioReplyState13dumpDebugInfoEv@Base 5.3.1
 _ZNK17EnginioReplyState4dataEv@Base 5.3.1
 _ZNK17EnginioReplyState7isErrorEv@Base 5.3.1
 _ZNK17EnginioReplyState9errorTypeEv@Base 5.3.1
 _ZNK17EnginioReplyState9requestIdEv@Base 5.3.1
 _ZNK23EnginioClientConnection10metaObjectEv@Base 5.3.1
 _ZNK23EnginioClientConnection10serviceUrlEv@Base 5.3.1
 _ZNK23EnginioClientConnection14networkManagerEv@Base 5.3.1
 _ZNK23EnginioClientConnection19authenticationStateEv@Base 5.3.1
 _ZNK23EnginioClientConnection8identityEv@Base 5.3.1
 _ZNK23EnginioClientConnection9backendIdEv@Base 5.3.1
 _ZNK24EnginioBackendConnection10metaObjectEv@Base 5.3.1
 _ZNK27EnginioOAuth2Authentication10metaObjectEv@Base 5.3.1
 _ZNK27EnginioOAuth2Authentication4userEv@Base 5.3.1
 _ZNK27EnginioOAuth2Authentication8passwordEv@Base 5.3.1
 _ZNK30EnginioClientConnectionPrivate21emitSessionTerminatedEv@Base 5.3.1
 _ZTI12EnginioModel@Base 5.3.1
 _ZTI12EnginioReply@Base 5.3.1
 _ZTI13EnginioClient@Base 5.3.1
 _ZTI15EnginioIdentity@Base 5.3.1
 _ZTI16EnginioBaseModel@Base 5.3.1
 _ZTI16EnginioFakeReply@Base 5.3.1
 _ZTI17EnginioDummyReply@Base 5.3.1
 _ZTI17EnginioReplyState@Base 5.3.1
 _ZTI23EnginioBaseModelPrivate@Base 5.3.1
 _ZTI23EnginioClientConnection@Base 5.3.1
 _ZTI24EnginioBackendConnection@Base 5.3.1
 _ZTI25QAbstractItemModelPrivate@Base 5.3.1
 _ZTI27EnginioOAuth2Authentication@Base 5.3.1
 _ZTI30EnginioClientConnectionPrivate@Base 5.3.1
 _ZTS12EnginioModel@Base 5.3.1
 _ZTS12EnginioReply@Base 5.3.1
 _ZTS13EnginioClient@Base 5.3.1
 _ZTS15EnginioIdentity@Base 5.3.1
 _ZTS16EnginioBaseModel@Base 5.3.1
 _ZTS16EnginioFakeReply@Base 5.3.1
 _ZTS17EnginioDummyReply@Base 5.3.1
 _ZTS17EnginioReplyState@Base 5.3.1
 _ZTS23EnginioBaseModelPrivate@Base 5.3.1
 _ZTS23EnginioClientConnection@Base 5.3.1
 _ZTS24EnginioBackendConnection@Base 5.3.1
 _ZTS25QAbstractItemModelPrivate@Base 5.3.1
 _ZTS27EnginioOAuth2Authentication@Base 5.3.1
 _ZTS30EnginioClientConnectionPrivate@Base 5.3.1
 _ZTV12EnginioModel@Base 5.3.1
 _ZTV12EnginioReply@Base 5.3.1
 _ZTV13EnginioClient@Base 5.3.1
 _ZTV15EnginioIdentity@Base 5.3.1
 _ZTV16EnginioBaseModel@Base 5.3.1
 _ZTV16EnginioFakeReply@Base 5.3.1
 _ZTV17EnginioDummyReply@Base 5.3.1
 _ZTV17EnginioReplyState@Base 5.3.1
 _ZTV23EnginioBaseModelPrivate@Base 5.3.1
 _ZTV23EnginioClientConnection@Base 5.3.1
 _ZTV24EnginioBackendConnection@Base 5.3.1
 _ZTV25QAbstractItemModelPrivate@Base 5.3.1
 _ZTV27EnginioOAuth2Authentication@Base 5.3.1
 _ZTV30EnginioClientConnectionPrivate@Base 5.3.1
 _ZZZN30EnginioClientConnectionPrivate19createHttpMultiPartI11QJsonObjectEEP14QHttpMultiPartRK13ObjectAdaptorIT_EP9QIODeviceRK7QStringENKUlvE0_clEvE15qstring_literal@Base 5.3.1
 _ZZZN30EnginioClientConnectionPrivate19createHttpMultiPartI11QJsonObjectEEP14QHttpMultiPartRK13ObjectAdaptorIT_EP9QIODeviceRK7QStringENKUlvE_clEvE15qstring_literal@Base 5.3.1
 _ZZZN30EnginioClientConnectionPrivate5queryI11QJsonObjectEEP13QNetworkReplyRK13ObjectAdaptorIT_EN7Enginio9OperationEENKUlvE0_clEvE15qstring_literal@Base 5.3.1
 _ZZZN30EnginioClientConnectionPrivate5queryI11QJsonObjectEEP13QNetworkReplyRK13ObjectAdaptorIT_EN7Enginio9OperationEENKUlvE_clEvE15qstring_literal@Base 5.3.1
 _ZZZN30EnginioClientConnectionPrivate7getPathI11QJsonObjectEENS_18GetPathReturnValueERKT_iP7QStringP10QByteArrayNS_11PathOptionsEENKUlvE0_clEvE15qstring_literal@Base 5.3.1
 _ZZZN30EnginioClientConnectionPrivate7getPathI11QJsonObjectEENS_18GetPathReturnValueERKT_iP7QStringP10QByteArrayNS_11PathOptionsEENKUlvE1_clEvE15qstring_literal@Base 5.3.1
 _ZZZN30EnginioClientConnectionPrivate7getPathI11QJsonObjectEENS_18GetPathReturnValueERKT_iP7QStringP10QByteArrayNS_11PathOptionsEENKUlvE_clEvE15qstring_literal@Base 5.3.1
 _Zls6QDebugPK12EnginioReply@Base 5.3.1
 gEnableEnginioDebugInfo@Base 5.3.1
