# SymbolsHelper-Confirmed: 5.8.0 amd64
libKF5CoreAddons.so.5 libkf5coreaddons5 #MINVER#
 _ZN10KAboutData10addLicenseEN13KAboutLicense10LicenseKeyE@Base 4.100.0
 _ZN10KAboutData10pluginDataERK7QString@Base 4.97.0
 _ZN10KAboutData10setLicenseEN13KAboutLicense10LicenseKeyE@Base 4.100.0
 _ZN10KAboutData10setVersionERK10QByteArray@Base 4.97.0
 _ZN10KAboutData11setHomepageERK7QString@Base 4.97.0
 _ZN10KAboutData12setOtherTextERK7QString@Base 4.97.0
 _ZN10KAboutData13setBugAddressERK10QByteArray@Base 4.97.0
 _ZN10KAboutData13setTranslatorERK7QStringS2_@Base 4.97.0
 _ZN10KAboutData14addLicenseTextERK7QString@Base 4.97.0
 _ZN10KAboutData14setDisplayNameERK7QString@Base 4.97.0
 _ZN10KAboutData14setLicenseTextERK7QString@Base 4.97.0
 _ZN10KAboutData14setOcsProviderERK7QString@Base 4.97.0
 _ZN10KAboutData14setProductNameERK10QByteArray@Base 4.97.0
 _ZN10KAboutData14setProgramLogoERK8QVariant@Base 4.97.0
 _ZN10KAboutData15applicationDataEv@Base 4.97.0
 _ZN10KAboutData16setComponentNameERK7QString@Base 4.97.0
 _ZN10KAboutData16setupCommandLineEP18QCommandLineParser@Base 4.97.0
 _ZN10KAboutData18addLicenseTextFileERK7QString@Base 4.97.0
 _ZN10KAboutData18processCommandLineEP18QCommandLineParser@Base 4.97.0
 _ZN10KAboutData18registerPluginDataERKS_@Base 4.97.0
 _ZN10KAboutData18setApplicationDataERKS_@Base 4.97.0
 _ZN10KAboutData18setLicenseTextFileERK7QString@Base 4.97.0
 _ZN10KAboutData18setProgramIconNameERK7QString@Base 4.97.0
 _ZN10KAboutData19setCustomAuthorTextERK7QStringS2_@Base 4.97.0
 _ZN10KAboutData19setShortDescriptionERK7QString@Base 4.97.0
 _ZN10KAboutData20aboutTranslationTeamEv@Base 4.97.0
 _ZN10KAboutData21setCopyrightStatementERK7QString@Base 4.97.0
 _ZN10KAboutData21setOrganizationDomainERK10QByteArray@Base 4.97.0
 _ZN10KAboutData21unsetCustomAuthorTextEv@Base 4.97.0
 _ZN10KAboutData22applicationDataPointerEv@Base 4.97.0
 _ZN10KAboutData9addAuthorERK7QStringS2_S2_S2_S2_@Base 4.97.0
 _ZN10KAboutData9addCreditERK7QStringS2_S2_S2_S2_@Base 4.97.0
 _ZN10KAboutDataC1ERK7QStringS2_S2_@Base 4.99.0
 _ZN10KAboutDataC1ERK7QStringS2_S2_S2_N13KAboutLicense10LicenseKeyES2_S2_S2_S2_@Base 4.100.0
 _ZN10KAboutDataC1ERKS_@Base 4.97.0
 _ZN10KAboutDataC2ERK7QStringS2_S2_@Base 4.99.0
 _ZN10KAboutDataC2ERK7QStringS2_S2_S2_N13KAboutLicense10LicenseKeyES2_S2_S2_S2_@Base 4.100.0
 _ZN10KAboutDataC2ERKS_@Base 4.97.0
 _ZN10KAboutDataD1Ev@Base 4.97.0
 _ZN10KAboutDataD2Ev@Base 4.97.0
 _ZN10KAboutDataaSERKS_@Base 4.97.0
 _ZN10KUserGroup13allGroupNamesEj@Base 4.98.0
 _ZN10KUserGroup9allGroupsEj@Base 4.98.0
 _ZN10KUserGroupC1E8KGroupId@Base 4.98.0
 _ZN10KUserGroupC1EN5KUser7UIDModeE@Base 4.97.0
 _ZN10KUserGroupC1EPK5group@Base 4.97.0
 _ZN10KUserGroupC1EPKc@Base 4.97.0
 _ZN10KUserGroupC1ERK7QString@Base 4.97.0
 _ZN10KUserGroupC1ERKS_@Base 4.97.0
 _ZN10KUserGroupC1Ej@Base 4.97.0
 _ZN10KUserGroupC2E8KGroupId@Base 4.98.0
 _ZN10KUserGroupC2EN5KUser7UIDModeE@Base 4.97.0
 _ZN10KUserGroupC2EPK5group@Base 4.97.0
 _ZN10KUserGroupC2EPKc@Base 4.97.0
 _ZN10KUserGroupC2ERK7QString@Base 4.97.0
 _ZN10KUserGroupC2ERKS_@Base 4.97.0
 _ZN10KUserGroupC2Ej@Base 4.97.0
 _ZN10KUserGroupD1Ev@Base 4.97.0
 _ZN10KUserGroupD2Ev@Base 4.97.0
 _ZN10KUserGroupaSERKS_@Base 4.97.0
 _ZN11KJobPrivate15_k_speedTimeoutEv@Base 4.97.0
 _ZN11KJobPrivateC1Ev@Base 4.97.0
 _ZN11KJobPrivateC2Ev@Base 4.97.0
 _ZN11KJobPrivateD0Ev@Base 4.97.0
 _ZN11KJobPrivateD1Ev@Base 4.97.0
 _ZN11KJobPrivateD2Ev@Base 4.97.0
 _ZN11KTextToHTML13convertToHtmlERK7QStringRK6QFlagsINS_6OptionEEii@Base 5.4.0+git20141204.0007+15.04
 _ZN12KAboutPersonC1ERK7QStringS2_S2_S2_S2_@Base 4.97.0
 _ZN12KAboutPersonC1ERK7QStringS2_b@Base 4.97.0
 _ZN12KAboutPersonC1ERKS_@Base 4.97.0
 _ZN12KAboutPersonC2ERK7QStringS2_S2_S2_S2_@Base 4.97.0
 _ZN12KAboutPersonC2ERK7QStringS2_b@Base 4.97.0
 _ZN12KAboutPersonC2ERKS_@Base 4.97.0
 _ZN12KAboutPersonD1Ev@Base 4.97.0
 _ZN12KAboutPersonD2Ev@Base 4.97.0
 _ZN12KAboutPersonaSERKS_@Base 4.97.0
 _ZN12KUrlMimeData11setMetaDataERK4QMapI7QStringS1_EP9QMimeData@Base 4.97.0
 _ZN12KUrlMimeData13mimeDataTypesEv@Base 4.97.0
 _ZN12KUrlMimeData16urlsFromMimeDataEPK9QMimeDataNS_13DecodeOptionsEP4QMapI7QStringS5_E@Base 4.97.0
 _ZN12KUrlMimeData7setUrlsERK5QListI4QUrlES4_P9QMimeData@Base 4.97.0
 _ZN13KAboutLicense18setLicenseFromPathERK7QString@Base 4.97.0
 _ZN13KAboutLicense18setLicenseFromTextERK7QString@Base 4.97.0
 _ZN13KAboutLicense7PrivateC1ENS_10LicenseKeyEPK10KAboutData@Base 4.100.0
 _ZN13KAboutLicense7PrivateC1EPK10KAboutData@Base 4.97.0
 _ZN13KAboutLicense7PrivateC1ERKS0_@Base 4.97.0
 _ZN13KAboutLicense7PrivateC2ENS_10LicenseKeyEPK10KAboutData@Base 4.100.0
 _ZN13KAboutLicense7PrivateC2EPK10KAboutData@Base 4.97.0
 _ZN13KAboutLicense7PrivateC2ERKS0_@Base 4.97.0
 _ZN13KAboutLicense9byKeywordERK7QString@Base 4.97.0
 _ZN13KAboutLicenseC1ENS_10LicenseKeyEPK10KAboutData@Base 4.100.0
 _ZN13KAboutLicenseC1EPK10KAboutData@Base 4.97.0
 _ZN13KAboutLicenseC1ERKS_@Base 4.97.0
 _ZN13KAboutLicenseC2ENS_10LicenseKeyEPK10KAboutData@Base 4.100.0
 _ZN13KAboutLicenseC2EPK10KAboutData@Base 4.97.0
 _ZN13KAboutLicenseC2ERKS_@Base 4.97.0
 _ZN13KAboutLicenseD1Ev@Base 4.97.0
 _ZN13KAboutLicenseD2Ev@Base 4.97.0
 _ZN13KAboutLicenseaSERKS_@Base 4.97.0
 _ZN13KAutoSaveFile10staleFilesERK4QUrlRK7QString@Base 4.97.0
 _ZN13KAutoSaveFile11qt_metacallEN11QMetaObject4CallEiPPv@Base 4.97.0
 _ZN13KAutoSaveFile11qt_metacastEPKc@Base 4.97.0
 _ZN13KAutoSaveFile11releaseLockEv@Base 4.97.0
 _ZN13KAutoSaveFile13allStaleFilesERK7QString@Base 4.97.0
 _ZN13KAutoSaveFile14setManagedFileERK4QUrl@Base 4.97.0
 _ZN13KAutoSaveFile16staticMetaObjectE@Base 4.97.0
 _ZN13KAutoSaveFile4openE6QFlagsIN9QIODevice12OpenModeFlagEE@Base 4.97.0
 _ZN13KAutoSaveFileC1EP7QObject@Base 4.97.0
 _ZN13KAutoSaveFileC1ERK4QUrlP7QObject@Base 4.97.0
 _ZN13KAutoSaveFileC2EP7QObject@Base 4.97.0
 _ZN13KAutoSaveFileC2ERK4QUrlP7QObject@Base 4.97.0
 _ZN13KAutoSaveFileD0Ev@Base 4.97.0
 _ZN13KAutoSaveFileD1Ev@Base 4.97.0
 _ZN13KAutoSaveFileD2Ev@Base 4.97.0
 _ZN13KCompositeJob10slotResultEP4KJob@Base 4.97.0
 _ZN13KCompositeJob11qt_metacallEN11QMetaObject4CallEiPPv@Base 4.97.0
 _ZN13KCompositeJob11qt_metacastEPKc@Base 4.97.0
 _ZN13KCompositeJob12clearSubjobsEv@Base 4.97.0
 _ZN13KCompositeJob12removeSubjobEP4KJob@Base 4.97.0
 _ZN13KCompositeJob15slotInfoMessageEP4KJobRK7QStringS4_@Base 4.97.0
 _ZN13KCompositeJob16staticMetaObjectE@Base 4.97.0
 _ZN13KCompositeJob9addSubjobEP4KJob@Base 4.97.0
 _ZN13KCompositeJobC1EP7QObject@Base 4.97.0
 _ZN13KCompositeJobC1ER20KCompositeJobPrivateP7QObject@Base 4.97.0
 _ZN13KCompositeJobC2EP7QObject@Base 4.97.0
 _ZN13KCompositeJobC2ER20KCompositeJobPrivateP7QObject@Base 4.97.0
 _ZN13KCompositeJobD0Ev@Base 4.97.0
 _ZN13KCompositeJobD1Ev@Base 4.97.0
 _ZN13KCompositeJobD2Ev@Base 4.97.0
 _ZN13KPluginLoader10findPluginERK7QString@Base 4.99.0
 _ZN13KPluginLoader11findPluginsERK7QStringSt8functionIFbRK15KPluginMetaDataEE@Base 5.2.0
 _ZN13KPluginLoader11qt_metacallEN11QMetaObject4CallEiPPv@Base 4.99.0
 _ZN13KPluginLoader11qt_metacastEPKc@Base 4.99.0
 _ZN13KPluginLoader12setLoadHintsE6QFlagsIN8QLibrary8LoadHintEE@Base 4.99.0
 _ZN13KPluginLoader13forEachPluginERK7QStringSt8functionIFvS2_EE@Base 5.2.0
 _ZN13KPluginLoader13pluginVersionEv@Base 4.99.0
 _ZN13KPluginLoader16staticMetaObjectE@Base 4.99.0
 _ZN13KPluginLoader18instantiatePluginsERK7QStringSt8functionIFbRK15KPluginMetaDataEEP7QObject@Base 5.2.0
 _ZN13KPluginLoader4loadEv@Base 4.99.0
 _ZN13KPluginLoader6unloadEv@Base 4.99.0
 _ZN13KPluginLoader7factoryEv@Base 4.99.0
 _ZN13KPluginLoader8instanceEv@Base 4.99.0
 _ZN13KPluginLoaderC1ERK11KPluginNameP7QObject@Base 4.99.0
 _ZN13KPluginLoaderC1ERK7QStringP7QObject@Base 4.99.0
 _ZN13KPluginLoaderC2ERK11KPluginNameP7QObject@Base 4.99.0
 _ZN13KPluginLoaderC2ERK7QStringP7QObject@Base 4.99.0
 _ZN13KPluginLoaderD0Ev@Base 4.99.0
 _ZN13KPluginLoaderD1Ev@Base 4.99.0
 _ZN13KPluginLoaderD2Ev@Base 4.99.0
 _ZN14KJobUiDelegate10connectJobEP4KJob@Base 4.97.0
 _ZN14KJobUiDelegate11qt_metacallEN11QMetaObject4CallEiPPv@Base 4.97.0
 _ZN14KJobUiDelegate11qt_metacastEPKc@Base 4.97.0
 _ZN14KJobUiDelegate11slotWarningEP4KJobRK7QStringS4_@Base 4.97.0
 _ZN14KJobUiDelegate16showErrorMessageEv@Base 4.97.0
 _ZN14KJobUiDelegate16staticMetaObjectE@Base 4.97.0
 _ZN14KJobUiDelegate27setAutoErrorHandlingEnabledEb@Base 4.97.0
 _ZN14KJobUiDelegate29setAutoWarningHandlingEnabledEb@Base 4.97.0
 _ZN14KJobUiDelegate6setJobEP4KJob@Base 4.97.0
 _ZN14KJobUiDelegate7Private9_k_resultEP4KJob@Base 4.97.0
 _ZN14KJobUiDelegateC1Ev@Base 4.97.0
 _ZN14KJobUiDelegateC2Ev@Base 4.97.0
 _ZN14KJobUiDelegateD0Ev@Base 4.97.0
 _ZN14KJobUiDelegateD1Ev@Base 4.97.0
 _ZN14KJobUiDelegateD2Ev@Base 4.97.0
 _ZN14KMacroExpander12expandMacrosERK7QStringRK5QHashI5QChar11QStringListES4_@Base 4.97.0
 _ZN14KMacroExpander12expandMacrosERK7QStringRK5QHashI5QCharS0_ES4_@Base 4.97.0
 _ZN14KMacroExpander12expandMacrosERK7QStringRK5QHashIS0_11QStringListE5QChar@Base 4.97.0
 _ZN14KMacroExpander12expandMacrosERK7QStringRK5QHashIS0_S0_E5QChar@Base 4.97.0
 _ZN14KMacroExpander22expandMacrosShellQuoteERK7QStringRK5QHashI5QChar11QStringListES4_@Base 4.97.0
 _ZN14KMacroExpander22expandMacrosShellQuoteERK7QStringRK5QHashI5QCharS0_ES4_@Base 4.97.0
 _ZN14KMacroExpander22expandMacrosShellQuoteERK7QStringRK5QHashIS0_11QStringListE5QChar@Base 4.97.0
 _ZN14KMacroExpander22expandMacrosShellQuoteERK7QStringRK5QHashIS0_S0_E5QChar@Base 4.97.0
 _ZN14KPluginFactory11qt_metacallEN11QMetaObject4CallEiPPv@Base 4.99.0
 _ZN14KPluginFactory11qt_metacastEPKc@Base 4.99.0
 _ZN14KPluginFactory12createObjectEP7QObjectPKcRK11QStringList@Base 4.99.0
 _ZN14KPluginFactory13objectCreatedEP7QObject@Base 4.99.0
 _ZN14KPluginFactory14registerPluginERK7QStringPK11QMetaObjectPFP7QObjectP7QWidgetS7_RK5QListI8QVariantEE@Base 4.99.0
 _ZN14KPluginFactory16createPartObjectEP7QWidgetP7QObjectPKcRK11QStringList@Base 4.99.0
 _ZN14KPluginFactory16staticMetaObjectE@Base 4.99.0
 _ZN14KPluginFactory23stringListToVariantListERK11QStringList@Base 4.99.0
 _ZN14KPluginFactory23variantListToStringListERK5QListI8QVariantE@Base 4.99.0
 _ZN14KPluginFactory6createEPKcP7QWidgetP7QObjectRK5QListI8QVariantERK7QString@Base 4.99.0
 _ZN14KPluginFactoryC1ER21KPluginFactoryPrivate@Base 4.99.0
 _ZN14KPluginFactoryC1Ev@Base 4.99.0
 _ZN14KPluginFactoryC2ER21KPluginFactoryPrivate@Base 4.99.0
 _ZN14KPluginFactoryC2Ev@Base 4.99.0
 _ZN14KPluginFactoryD0Ev@Base 4.99.0
 _ZN14KPluginFactoryD1Ev@Base 4.99.0
 _ZN14KPluginFactoryD2Ev@Base 4.99.0
 _ZN14KStringHandler14preProcessWrapERK7QString@Base 4.97.0
 _ZN14KStringHandler6isUtf8EPKc@Base 4.97.0
 _ZN14KStringHandler7obscureERK7QString@Base 4.97.0
 _ZN14KStringHandler7tagUrlsERK7QString@Base 4.97.0
 _ZN14KStringHandler8capwordsERK11QStringList@Base 4.97.0
 _ZN14KStringHandler8capwordsERK7QString@Base 4.97.0
 _ZN14KStringHandler8csqueezeERK7QStringi@Base 4.97.0
 _ZN14KStringHandler8from8BitEPKc@Base 4.97.0
 _ZN14KStringHandler8lsqueezeERK7QStringi@Base 4.97.0
 _ZN14KStringHandler8rsqueezeERK7QStringi@Base 4.97.0
 _ZN14KStringHandler9perlSplitERK5QCharRK7QStringi@Base 4.97.0
 _ZN14KStringHandler9perlSplitERK7QRegExpRK7QStringi@Base 4.97.0
 _ZN14KStringHandler9perlSplitERK7QStringS2_i@Base 4.97.0
 _ZN15KFileSystemType14fileSystemTypeERK7QString@Base 4.97.0
 _ZN15KPluginMetaData14readStringListERK11QJsonObjectRK7QString@Base 5.2.0
 _ZN15KPluginMetaData19readTranslatedValueERK11QJsonObjectRK7QStringRK10QJsonValue@Base 5.2.0
 _ZN15KPluginMetaData20readTranslatedStringERK11QJsonObjectRK7QStringS5_@Base 5.2.0
 _ZN15KPluginMetaDataC1ERK11QJsonObjectRK7QString@Base 5.2.0
 _ZN15KPluginMetaDataC1ERK11QJsonObjectRK7QStringS5_@Base 5.4.0+git20141202.0008+15.04
 _ZN15KPluginMetaDataC1ERK13KPluginLoader@Base 5.2.0
 _ZN15KPluginMetaDataC1ERK13QPluginLoader@Base 5.2.0
 _ZN15KPluginMetaDataC1ERK7QString@Base 5.2.0
 _ZN15KPluginMetaDataC1ERKS_@Base 5.2.0
 _ZN15KPluginMetaDataC1Ev@Base 5.2.0
 _ZN15KPluginMetaDataC2ERK11QJsonObjectRK7QString@Base 5.2.0
 _ZN15KPluginMetaDataC2ERK11QJsonObjectRK7QStringS5_@Base 5.4.0+git20141202.0008+15.04
 _ZN15KPluginMetaDataC2ERK13KPluginLoader@Base 5.2.0
 _ZN15KPluginMetaDataC2ERK13QPluginLoader@Base 5.2.0
 _ZN15KPluginMetaDataC2ERK7QString@Base 5.2.0
 _ZN15KPluginMetaDataC2ERKS_@Base 5.2.0
 _ZN15KPluginMetaDataC2Ev@Base 5.2.0
 _ZN15KPluginMetaDataD1Ev@Base 5.2.0
 _ZN15KPluginMetaDataD2Ev@Base 5.2.0
 _ZN15KPluginMetaDataaSERKS_@Base 5.2.0
 _ZN15KRandomSequence6getIntEj@Base 5.6.0+git20150124.0026+15.04
 _ZN15KRandomSequence7Private4drawEv@Base 4.97.0
 _ZN15KRandomSequence7getBoolEv@Base 4.97.0
 _ZN15KRandomSequence7getLongEm@Base 4.97.0
 _ZN15KRandomSequence7setSeedEi@Base 5.6.0+git20150124.0026+15.04
 _ZN15KRandomSequence7setSeedEl@Base 4.97.0
 _ZN15KRandomSequence8modulateEi@Base 4.97.0
 _ZN15KRandomSequence9getDoubleEv@Base 4.97.0
 _ZN15KRandomSequenceC1ERKS_@Base 4.97.0
 _ZN15KRandomSequenceC1Ei@Base 5.6.0+git20150124.0026+15.04
 _ZN15KRandomSequenceC1El@Base 4.97.0
 _ZN15KRandomSequenceC2ERKS_@Base 4.97.0
 _ZN15KRandomSequenceC2Ei@Base 5.6.0+git20150124.0026+15.04
 _ZN15KRandomSequenceC2El@Base 4.97.0
 _ZN15KRandomSequenceD0Ev@Base 4.97.0
 _ZN15KRandomSequenceD1Ev@Base 4.97.0
 _ZN15KRandomSequenceD2Ev@Base 4.97.0
 _ZN15KRandomSequenceaSERKS_@Base 4.97.0
 _ZN16KSharedDataCache11deleteCacheERK7QString@Base 4.97.0
 _ZN16KSharedDataCache12setTimestampEj@Base 4.97.0
 _ZN16KSharedDataCache17setEvictionPolicyENS_14EvictionPolicyE@Base 4.97.0
 _ZN16KSharedDataCache5clearEv@Base 4.97.0
 _ZN16KSharedDataCache6insertERK7QStringRK10QByteArray@Base 4.97.0
 _ZN16KSharedDataCacheC1ERK7QStringjj@Base 4.97.0
 _ZN16KSharedDataCacheC2ERK7QStringjj@Base 4.97.0
 _ZN16KSharedDataCacheD1Ev@Base 4.97.0
 _ZN16KSharedDataCacheD2Ev@Base 4.97.0
 _ZN17Kdelibs4MigrationC1Ev@Base 4.99.0
 _ZN17Kdelibs4MigrationC2Ev@Base 4.99.0
 _ZN17Kdelibs4MigrationD1Ev@Base 4.99.0
 _ZN17Kdelibs4MigrationD2Ev@Base 4.99.0
 _ZN18KCharMacroExpander16expandPlainMacroERK7QStringiR11QStringList@Base 4.97.0
 _ZN18KCharMacroExpander18expandEscapedMacroERK7QStringiR11QStringList@Base 4.97.0
 _ZN18KMacroExpanderBase12expandMacrosER7QString@Base 4.97.0
 _ZN18KMacroExpanderBase13setEscapeCharE5QChar@Base 4.97.0
 _ZN18KMacroExpanderBase16expandPlainMacroERK7QStringiR11QStringList@Base 4.97.0
 _ZN18KMacroExpanderBase18expandEscapedMacroERK7QStringiR11QStringList@Base 4.97.0
 _ZN18KMacroExpanderBase22expandMacrosShellQuoteER7QString@Base 4.97.0
 _ZN18KMacroExpanderBase22expandMacrosShellQuoteER7QStringRi@Base 4.97.0
 _ZN18KMacroExpanderBaseC1E5QChar@Base 4.97.0
 _ZN18KMacroExpanderBaseC2E5QChar@Base 4.97.0
 _ZN18KMacroExpanderBaseD0Ev@Base 4.97.0
 _ZN18KMacroExpanderBaseD1Ev@Base 4.97.0
 _ZN18KMacroExpanderBaseD2Ev@Base 4.97.0
 _ZN18KWordMacroExpander16expandPlainMacroERK7QStringiR11QStringList@Base 4.97.0
 _ZN18KWordMacroExpander18expandEscapedMacroERK7QStringiR11QStringList@Base 4.97.0
 _ZN20KCompositeJobPrivateC1Ev@Base 4.97.0
 _ZN20KCompositeJobPrivateC2Ev@Base 4.97.0
 _ZN20KCompositeJobPrivateD0Ev@Base 4.97.0
 _ZN20KCompositeJobPrivateD1Ev@Base 4.97.0
 _ZN20KCompositeJobPrivateD2Ev@Base 4.97.0
 _ZN20KJobTrackerInterface11descriptionEP4KJobRK7QStringRK5QPairIS2_S2_ES8_@Base 4.97.0
 _ZN20KJobTrackerInterface11infoMessageEP4KJobRK7QStringS4_@Base 4.97.0
 _ZN20KJobTrackerInterface11qt_metacallEN11QMetaObject4CallEiPPv@Base 4.97.0
 _ZN20KJobTrackerInterface11qt_metacastEPKc@Base 4.97.0
 _ZN20KJobTrackerInterface11registerJobEP4KJob@Base 4.97.0
 _ZN20KJobTrackerInterface11totalAmountEP4KJobNS0_4UnitEy@Base 4.97.0
 _ZN20KJobTrackerInterface13unregisterJobEP4KJob@Base 4.97.0
 _ZN20KJobTrackerInterface15processedAmountEP4KJobNS0_4UnitEy@Base 4.97.0
 _ZN20KJobTrackerInterface16staticMetaObjectE@Base 4.97.0
 _ZN20KJobTrackerInterface5speedEP4KJobm@Base 4.97.0
 _ZN20KJobTrackerInterface7percentEP4KJobm@Base 4.97.0
 _ZN20KJobTrackerInterface7resumedEP4KJob@Base 4.97.0
 _ZN20KJobTrackerInterface7warningEP4KJobRK7QStringS4_@Base 4.97.0
 _ZN20KJobTrackerInterface8finishedEP4KJob@Base 4.97.0
 _ZN20KJobTrackerInterface9suspendedEP4KJob@Base 4.97.0
 _ZN20KJobTrackerInterfaceC1EP7QObject@Base 4.97.0
 _ZN20KJobTrackerInterfaceC2EP7QObject@Base 4.97.0
 _ZN20KJobTrackerInterfaceD0Ev@Base 4.97.0
 _ZN20KJobTrackerInterfaceD1Ev@Base 4.97.0
 _ZN20KJobTrackerInterfaceD2Ev@Base 4.97.0
 _ZN22Kdelibs4ConfigMigrator10setUiFilesERK11QStringList@Base 5.2.0
 _ZN22Kdelibs4ConfigMigrator14setConfigFilesERK11QStringList@Base 5.2.0
 _ZN22Kdelibs4ConfigMigrator7migrateEv@Base 5.2.0
 _ZN22Kdelibs4ConfigMigratorC1ERK7QString@Base 5.2.0
 _ZN22Kdelibs4ConfigMigratorC2ERK7QString@Base 5.2.0
 _ZN22Kdelibs4ConfigMigratorD1Ev@Base 5.2.0
 _ZN22Kdelibs4ConfigMigratorD2Ev@Base 5.2.0
 _ZN4KJob10emitResultEv@Base 4.97.0
 _ZN4KJob10setPercentEm@Base 4.97.0
 _ZN4KJob11descriptionEPS_RK7QStringRK5QPairIS1_S1_ES7_@Base 4.97.0
 _ZN4KJob11emitPercentEyy@Base 4.97.0
 _ZN4KJob11infoMessageEPS_RK7QStringS3_@Base 4.97.0
 _ZN4KJob11qt_metacallEN11QMetaObject4CallEiPPv@Base 4.97.0
 _ZN4KJob11qt_metacastEPKc@Base 4.97.0
 _ZN4KJob11totalAmountEPS_NS_4UnitEy@Base 4.97.0
 _ZN4KJob12setErrorTextERK7QString@Base 4.97.0
 _ZN4KJob13processedSizeEPS_y@Base 4.97.0
 _ZN4KJob13setAutoDeleteEb@Base 4.97.0
 _ZN4KJob13setUiDelegateEP14KJobUiDelegate@Base 4.97.0
 _ZN4KJob14setTotalAmountENS_4UnitEy@Base 4.97.0
 _ZN4KJob15processedAmountEPS_NS_4UnitEy@Base 4.97.0
 _ZN4KJob15setCapabilitiesE6QFlagsINS_10CapabilityEE@Base 4.97.0
 _ZN4KJob16staticMetaObjectE@Base 4.97.0
 _ZN4KJob18setProcessedAmountENS_4UnitEy@Base 4.97.0
 _ZN4KJob4execEv@Base 4.97.0
 _ZN4KJob4killENS_13KillVerbosityE@Base 4.97.0
 _ZN4KJob5speedEPS_m@Base 4.97.0
 _ZN4KJob6doKillEv@Base 4.97.0
 _ZN4KJob6resultEPS_NS_14QPrivateSignalE@Base 4.97.0
 _ZN4KJob6resumeEv@Base 4.97.0
 _ZN4KJob7percentEPS_m@Base 4.97.0
 _ZN4KJob7resumedEPS_NS_14QPrivateSignalE@Base 4.97.0
 _ZN4KJob7suspendEv@Base 4.97.0
 _ZN4KJob7warningEPS_RK7QStringS3_@Base 4.97.0
 _ZN4KJob8doResumeEv@Base 4.97.0
 _ZN4KJob8finishedEPS_NS_14QPrivateSignalE@Base 4.97.0
 _ZN4KJob8setErrorEi@Base 4.97.0
 _ZN4KJob9doSuspendEv@Base 4.97.0
 _ZN4KJob9emitSpeedEm@Base 4.97.0
 _ZN4KJob9suspendedEPS_NS_14QPrivateSignalE@Base 4.97.0
 _ZN4KJob9totalSizeEPS_y@Base 4.97.0
 _ZN4KJobC1EP7QObject@Base 4.97.0
 _ZN4KJobC1ER11KJobPrivateP7QObject@Base 4.97.0
 _ZN4KJobC2EP7QObject@Base 4.97.0
 _ZN4KJobC2ER11KJobPrivateP7QObject@Base 4.97.0
 _ZN4KJobD0Ev@Base 4.97.0
 _ZN4KJobD1Ev@Base 4.97.0
 _ZN4KJobD2Ev@Base 4.97.0
 _ZN5KUser12allUserNamesEj@Base 4.98.0
 _ZN5KUser8allUsersEj@Base 4.98.0
 _ZN5KUserC1E7KUserId@Base 4.98.0
 _ZN5KUserC1ENS_7UIDModeE@Base 4.97.0
 _ZN5KUserC1EPK6passwd@Base 4.97.0
 _ZN5KUserC1EPKc@Base 4.97.0
 _ZN5KUserC1ERK7QString@Base 4.97.0
 _ZN5KUserC1ERKS_@Base 4.97.0
 _ZN5KUserC1Ej@Base 4.97.0
 _ZN5KUserC2E7KUserId@Base 4.98.0
 _ZN5KUserC2ENS_7UIDModeE@Base 4.97.0
 _ZN5KUserC2EPK6passwd@Base 4.97.0
 _ZN5KUserC2EPKc@Base 4.97.0
 _ZN5KUserC2ERK7QString@Base 4.97.0
 _ZN5KUserC2ERKS_@Base 4.97.0
 _ZN5KUserC2Ej@Base 4.97.0
 _ZN5KUserD1Ev@Base 4.97.0
 _ZN5KUserD2Ev@Base 4.97.0
 _ZN5KUseraSERKS_@Base 4.97.0
 _ZN6KShell11tildeExpandERK7QString@Base 4.97.0
 _ZN6KShell8joinArgsERK11QStringList@Base 4.97.0
 _ZN6KShell8quoteArgERK7QString@Base 4.97.0
 _ZN6KShell9splitArgsERK7QString6QFlagsINS_6OptionEEPNS_6ErrorsE@Base 4.97.0
 _ZN7KBackup10backupFileERK7QStringS2_@Base 4.97.0
 _ZN7KBackup13rcsBackupFileERK7QStringS2_S2_@Base 4.97.0
 _ZN7KBackup16simpleBackupFileERK7QStringS2_S2_@Base 4.97.0
 _ZN7KBackup18numberedBackupFileERK7QStringS2_S2_j@Base 4.97.0
 _ZN7KFormat16staticMetaObjectE@Base 5.2.0+git20140930
 _ZN7KFormatC1ERK7QLocale@Base 4.97.0
 _ZN7KFormatC1ERKS_@Base 4.97.0
 _ZN7KFormatC2ERK7QLocale@Base 4.97.0
 _ZN7KFormatC2ERKS_@Base 4.97.0
 _ZN7KFormatD1Ev@Base 4.97.0
 _ZN7KFormatD2Ev@Base 4.97.0
 _ZN7KRandom12randomStringEi@Base 4.97.0
 _ZN7KRandom6randomEv@Base 4.97.0
 _ZN7KUserId13currentUserIdEv@Base 4.98.0
 _ZN7KUserId22currentEffectiveUserIdEv@Base 4.98.0
 _ZN7KUserId8fromNameERK7QString@Base 4.98.0
 _ZN8KGroupId14currentGroupIdEv@Base 4.98.0
 _ZN8KGroupId23currentEffectiveGroupIdEv@Base 4.98.0
 _ZN8KGroupId8fromNameERK7QString@Base 4.98.0
 _ZN8KMessage17setMessageHandlerEP15KMessageHandler@Base 4.97.0
 _ZN8KMessage7messageENS_11MessageTypeERK7QStringS3_@Base 4.97.0
 _ZN8KProcess10setProgramERK11QStringList@Base 4.97.0
 _ZN8KProcess10setProgramERK7QStringRK11QStringList@Base 4.97.0
 _ZN8KProcess11qt_metacallEN11QMetaObject4CallEiPPv@Base 4.97.0
 _ZN8KProcess11qt_metacastEPKc@Base 4.97.0
 _ZN8KProcess12clearProgramEv@Base 4.97.0
 _ZN8KProcess13startDetachedERK11QStringList@Base 4.97.0
 _ZN8KProcess13startDetachedERK7QStringRK11QStringList@Base 4.97.0
 _ZN8KProcess13startDetachedEv@Base 4.97.0
 _ZN8KProcess15setNextOpenModeE6QFlagsIN9QIODevice12OpenModeFlagEE@Base 4.97.0
 _ZN8KProcess15setShellCommandERK7QString@Base 4.97.0
 _ZN8KProcess16clearEnvironmentEv@Base 4.97.0
 _ZN8KProcess16staticMetaObjectE@Base 4.97.0
 _ZN8KProcess20setOutputChannelModeENS_17OutputChannelModeE@Base 4.97.0
 _ZN8KProcess5startEv@Base 4.97.0
 _ZN8KProcess6setEnvERK7QStringS2_b@Base 4.97.0
 _ZN8KProcess7executeERK11QStringListi@Base 4.97.0
 _ZN8KProcess7executeERK7QStringRK11QStringListi@Base 4.97.0
 _ZN8KProcess7executeEi@Base 4.97.0
 _ZN8KProcess8unsetEnvERK7QString@Base 4.97.0
 _ZN8KProcessC1EP15KProcessPrivateP7QObject@Base 4.97.0
 _ZN8KProcessC1EP7QObject@Base 4.97.0
 _ZN8KProcessC2EP15KProcessPrivateP7QObject@Base 4.97.0
 _ZN8KProcessC2EP7QObject@Base 4.97.0
 _ZN8KProcessD0Ev@Base 4.97.0
 _ZN8KProcessD1Ev@Base 4.97.0
 _ZN8KProcessD2Ev@Base 4.97.0
 _ZN8KProcesslsERK11QStringList@Base 4.97.0
 _ZN8KProcesslsERK7QString@Base 4.97.0
 _ZN9KDirWatch10removeFileERK7QString@Base 4.97.0
 _ZN9KDirWatch10setCreatedERK7QString@Base 4.97.0
 _ZN9KDirWatch10setDeletedERK7QString@Base 4.97.0
 _ZN9KDirWatch10statisticsEv@Base 4.97.0
 _ZN9KDirWatch11qt_metacallEN11QMetaObject4CallEiPPv@Base 4.97.0
 _ZN9KDirWatch11qt_metacastEPKc@Base 4.97.0
 _ZN9KDirWatch11stopDirScanERK7QString@Base 4.97.0
 _ZN9KDirWatch14restartDirScanERK7QString@Base 4.97.0
 _ZN9KDirWatch16deleteQFSWatcherEv@Base 4.97.0
 _ZN9KDirWatch16staticMetaObjectE@Base 4.97.0
 _ZN9KDirWatch4selfEv@Base 4.97.0
 _ZN9KDirWatch5dirtyERK7QString@Base 4.97.0
 _ZN9KDirWatch6addDirERK7QString6QFlagsINS_9WatchModeEE@Base 4.97.0
 _ZN9KDirWatch6existsEv@Base 4.97.0
 _ZN9KDirWatch7addFileERK7QString@Base 4.97.0
 _ZN9KDirWatch7createdERK7QString@Base 4.97.0
 _ZN9KDirWatch7deletedERK7QString@Base 4.97.0
 _ZN9KDirWatch8setDirtyERK7QString@Base 4.97.0
 _ZN9KDirWatch8stopScanEv@Base 4.97.0
 _ZN9KDirWatch9isStoppedEv@Base 4.97.0
 _ZN9KDirWatch9removeDirERK7QString@Base 4.97.0
 _ZN9KDirWatch9startScanEbb@Base 4.97.0
 _ZN9KDirWatchC1EP7QObject@Base 4.97.0
 _ZN9KDirWatchC2EP7QObject@Base 4.97.0
 _ZN9KDirWatchD0Ev@Base 4.97.0
 _ZN9KDirWatchD1Ev@Base 4.97.0
 _ZN9KDirWatchD2Ev@Base 4.97.0
 _ZNK10KAboutData10bugAddressEv@Base 4.97.0
 _ZNK10KAboutData11displayNameEv@Base 4.97.0
 _ZNK10KAboutData11productNameEv@Base 4.97.0
 _ZNK10KAboutData11programLogoEv@Base 4.97.0
 _ZNK10KAboutData11translatorsEv@Base 4.97.0
 _ZNK10KAboutData13componentNameEv@Base 4.97.0
 _ZNK10KAboutData14ocsProviderUrlEv@Base 4.97.0
 _ZNK10KAboutData15internalVersionEv@Base 4.97.0
 _ZNK10KAboutData15programIconNameEv@Base 4.97.0
 _ZNK10KAboutData16shortDescriptionEv@Base 4.97.0
 _ZNK10KAboutData18copyrightStatementEv@Base 4.97.0
 _ZNK10KAboutData18internalBugAddressEv@Base 4.97.0
 _ZNK10KAboutData18organizationDomainEv@Base 4.97.0
 _ZNK10KAboutData19internalProgramNameEv@Base 4.97.0
 _ZNK10KAboutData20customAuthorRichTextEv@Base 4.97.0
 _ZNK10KAboutData21customAuthorPlainTextEv@Base 4.97.0
 _ZNK10KAboutData23customAuthorTextEnabledEv@Base 4.97.0
 _ZNK10KAboutData7authorsEv@Base 4.97.0
 _ZNK10KAboutData7creditsEv@Base 4.97.0
 _ZNK10KAboutData7versionEv@Base 4.97.0
 _ZNK10KAboutData8homepageEv@Base 4.97.0
 _ZNK10KAboutData8licensesEv@Base 4.97.0
 _ZNK10KAboutData9otherTextEv@Base 4.97.0
 _ZNK10KUserGroup4nameEv@Base 4.97.0
 _ZNK10KUserGroup5usersEj@Base 4.98.0
 _ZNK10KUserGroup7groupIdEv@Base 4.98.0
 _ZNK10KUserGroup7isValidEv@Base 4.97.0
 _ZNK10KUserGroup9userNamesEj@Base 4.98.0
 _ZNK10KUserGroupeqERKS_@Base 4.97.0
 _ZNK12KAboutPerson10webAddressEv@Base 4.97.0
 _ZNK12KAboutPerson11ocsUsernameEv@Base 4.97.0
 _ZNK12KAboutPerson12emailAddressEv@Base 4.97.0
 _ZNK12KAboutPerson4nameEv@Base 4.97.0
 _ZNK12KAboutPerson4taskEv@Base 4.97.0
 _ZNK13KAboutLicense3keyEv@Base 4.97.0
 _ZNK13KAboutLicense4nameENS_10NameFormatE@Base 4.100.0
 _ZNK13KAboutLicense4textEv@Base 4.97.0
 _ZNK13KAutoSaveFile10metaObjectEv@Base 4.97.0
 _ZNK13KAutoSaveFile11managedFileEv@Base 4.97.0
 _ZNK13KCompositeJob10hasSubjobsEv@Base 4.97.0
 _ZNK13KCompositeJob10metaObjectEv@Base 4.97.0
 _ZNK13KCompositeJob7subjobsEv@Base 4.97.0
 _ZNK13KPluginLoader10metaObjectEv@Base 4.99.0
 _ZNK13KPluginLoader10pluginNameEv@Base 4.99.0
 _ZNK13KPluginLoader11errorStringEv@Base 4.99.0
 _ZNK13KPluginLoader8fileNameEv@Base 4.99.0
 _ZNK13KPluginLoader8isLoadedEv@Base 4.99.0
 _ZNK13KPluginLoader8metaDataEv@Base 4.99.0
 _ZNK13KPluginLoader9loadHintsEv@Base 4.99.0
 _ZNK14KJobUiDelegate10metaObjectEv@Base 4.97.0
 _ZNK14KJobUiDelegate26isAutoErrorHandlingEnabledEv@Base 4.97.0
 _ZNK14KJobUiDelegate28isAutoWarningHandlingEnabledEv@Base 4.97.0
 _ZNK14KJobUiDelegate3jobEv@Base 4.97.0
 _ZNK14KPluginFactory10metaObjectEv@Base 4.99.0
 _ZNK15KPluginMetaData10rootObjectEv@Base 5.2.0
 _ZNK15KPluginMetaData11descriptionEv@Base 5.2.0
 _ZNK15KPluginMetaData11instantiateEv@Base 5.2.0
 _ZNK15KPluginMetaData12dependenciesEv@Base 5.2.0
 _ZNK15KPluginMetaData12serviceTypesEv@Base 5.2.0
 _ZNK15KPluginMetaData16metaDataFileNameEv@Base 5.4.0+git20141202.0008+15.04
 _ZNK15KPluginMetaData18isEnabledByDefaultEv@Base 5.2.0
 _ZNK15KPluginMetaData4nameEv@Base 5.2.0
 _ZNK15KPluginMetaData5valueERK7QStringS2_@Base 5.2.0
 _ZNK15KPluginMetaData7authorsEv@Base 5.2.0
 _ZNK15KPluginMetaData7isValidEv@Base 5.2.0
 _ZNK15KPluginMetaData7licenseEv@Base 5.2.0
 _ZNK15KPluginMetaData7rawDataEv@Base 5.2.0
 _ZNK15KPluginMetaData7versionEv@Base 5.2.0
 _ZNK15KPluginMetaData7websiteEv@Base 5.2.0
 _ZNK15KPluginMetaData8categoryEv@Base 5.2.0
 _ZNK15KPluginMetaData8fileNameEv@Base 5.2.0
 _ZNK15KPluginMetaData8iconNameEv@Base 5.2.0
 _ZNK15KPluginMetaData8isHiddenEv@Base 5.8.0
 _ZNK15KPluginMetaData8pluginIdEv@Base 5.2.0
 _ZNK15KPluginMetaDataeqERKS_@Base 5.2.0
 _ZNK16KSharedDataCache14evictionPolicyEv@Base 4.97.0
 _ZNK16KSharedDataCache4findERK7QStringP10QByteArray@Base 4.97.0
 _ZNK16KSharedDataCache8containsERK7QString@Base 4.97.0
 _ZNK16KSharedDataCache8freeSizeEv@Base 4.97.0
 _ZNK16KSharedDataCache9timestampEv@Base 4.97.0
 _ZNK16KSharedDataCache9totalSizeEv@Base 4.97.0
 _ZNK17Kdelibs4Migration11locateLocalEPKcRK7QString@Base 4.99.0
 _ZNK17Kdelibs4Migration12kdeHomeFoundEv@Base 4.99.0
 _ZNK17Kdelibs4Migration12saveLocationEPKcRK7QString@Base 4.99.0
 _ZNK18KMacroExpanderBase10escapeCharEv@Base 4.97.0
 _ZNK20KJobTrackerInterface10metaObjectEv@Base 4.97.0
 _ZNK4KJob10metaObjectEv@Base 4.97.0
 _ZNK4KJob10uiDelegateEv@Base 4.97.0
 _ZNK4KJob11errorStringEv@Base 4.97.0
 _ZNK4KJob11isSuspendedEv@Base 4.97.0
 _ZNK4KJob11totalAmountENS_4UnitE@Base 4.97.0
 _ZNK4KJob12capabilitiesEv@Base 4.97.0
 _ZNK4KJob12isAutoDeleteEv@Base 4.97.0
 _ZNK4KJob15processedAmountENS_4UnitE@Base 4.97.0
 _ZNK4KJob5errorEv@Base 4.97.0
 _ZNK4KJob7percentEv@Base 4.97.0
 _ZNK4KJob9errorTextEv@Base 4.97.0
 _ZNK5KUser10groupNamesEj@Base 4.98.0
 _ZNK5KUser11isSuperUserEv@Base 4.97.0
 _ZNK5KUser12faceIconPathEv@Base 4.97.0
 _ZNK5KUser5shellEv@Base 4.97.0
 _ZNK5KUser6groupsEj@Base 4.98.0
 _ZNK5KUser6userIdEv@Base 4.98.0
 _ZNK5KUser7groupIdEv@Base 4.98.0
 _ZNK5KUser7homeDirEv@Base 4.97.0
 _ZNK5KUser7isValidEv@Base 4.97.0
 _ZNK5KUser8propertyENS_12UserPropertyE@Base 4.97.0
 _ZNK5KUser9loginNameEv@Base 4.97.0
 _ZNK5KUsereqERKS_@Base 4.97.0
 _ZNK7KFormat14formatByteSizeEdiNS_17BinaryUnitDialectENS_15BinarySizeUnitsE@Base 4.97.0
 _ZNK7KFormat14formatDurationEy6QFlagsINS_20DurationFormatOptionEE@Base 4.97.0
 _ZNK7KFormat18formatRelativeDateERK5QDateN7QLocale10FormatTypeE@Base 4.97.0
 _ZNK7KFormat21formatDecimalDurationEyi@Base 4.97.0
 _ZNK7KFormat22formatRelativeDateTimeERK9QDateTimeN7QLocale10FormatTypeE@Base 4.97.0
 _ZNK7KFormat22formatSpelloutDurationEy@Base 4.97.0
 _ZNK8KProcess10metaObjectEv@Base 4.97.0
 _ZNK8KProcess17outputChannelModeEv@Base 4.97.0
 _ZNK8KProcess3pidEv@Base 4.97.0
 _ZNK8KProcess7programEv@Base 4.97.0
 _ZNK9KDirWatch10metaObjectEv@Base 4.97.0
 _ZNK9KDirWatch14internalMethodEv@Base 4.97.0
 _ZNK9KDirWatch5ctimeERK7QString@Base 4.97.0
 _ZNK9KDirWatch8containsERK7QString@Base 4.97.0
 _ZTI11KJobPrivate@Base 4.97.0
 _ZTI11QSharedData@Base 4.97.0
 _ZTI13KAutoSaveFile@Base 4.97.0
 _ZTI13KCompositeJob@Base 4.97.0
 _ZTI13KPluginLoader@Base 4.99.0
 _ZTI14KJobUiDelegate@Base 4.97.0
 _ZTI14KPluginFactory@Base 4.99.0
 _ZTI15KRandomSequence@Base 4.97.0
 _ZTI18KCharMacroExpander@Base 4.97.0
 _ZTI18KMacroExpanderBase@Base 4.97.0
 _ZTI18KWordMacroExpander@Base 4.97.0
 _ZTI20KCompositeJobPrivate@Base 4.97.0
 _ZTI20KJobTrackerInterface@Base 4.97.0
 _ZTI4KJob@Base 4.97.0
 _ZTI8KProcess@Base 4.97.0
 _ZTI9KDirWatch@Base 4.97.0
 _ZTS11KJobPrivate@Base 4.97.0
 _ZTS11QSharedData@Base 4.97.0
 _ZTS13KAutoSaveFile@Base 4.97.0
 _ZTS13KCompositeJob@Base 4.97.0
 _ZTS13KPluginLoader@Base 4.99.0
 _ZTS14KJobUiDelegate@Base 4.97.0
 _ZTS14KPluginFactory@Base 4.99.0
 _ZTS15KRandomSequence@Base 4.97.0
 _ZTS18KCharMacroExpander@Base 4.97.0
 _ZTS18KMacroExpanderBase@Base 4.97.0
 _ZTS18KWordMacroExpander@Base 4.97.0
 _ZTS20KCompositeJobPrivate@Base 4.97.0
 _ZTS20KJobTrackerInterface@Base 4.97.0
 _ZTS4KJob@Base 4.97.0
 _ZTS8KProcess@Base 4.97.0
 _ZTS9KDirWatch@Base 4.97.0
 _ZTV11KJobPrivate@Base 4.97.0
 _ZTV13KAutoSaveFile@Base 4.97.0
 _ZTV13KCompositeJob@Base 4.97.0
 _ZTV13KPluginLoader@Base 4.99.0
 _ZTV14KJobUiDelegate@Base 4.97.0
 _ZTV14KPluginFactory@Base 4.99.0
 _ZTV15KRandomSequence@Base 4.97.0
 _ZTV18KCharMacroExpander@Base 4.97.0
 _ZTV18KMacroExpanderBase@Base 4.97.0
 _ZTV18KWordMacroExpander@Base 4.97.0
 _ZTV20KCompositeJobPrivate@Base 4.97.0
 _ZTV20KJobTrackerInterface@Base 4.97.0
 _ZTV4KJob@Base 4.97.0
 _ZTV8KProcess@Base 4.97.0
 _ZTV9KDirWatch@Base 4.97.0
