# SymbolsHelper-Confirmed: 4:5.3.0 amd64
KSC_Fake.so libkf5screen6 #MINVER#
 qt_plugin_instance@Base 5.1.80
 qt_plugin_query_metadata@Base 5.1.80
KSC_QScreen.so libkf5screen6 #MINVER#
 qt_plugin_instance@Base 5.1.80
 qt_plugin_query_metadata@Base 5.1.80
KSC_XRandR.so libkf5screen6 #MINVER#
 qt_plugin_instance@Base 5.1.80
 qt_plugin_query_metadata@Base 5.1.80
KSC_XRandR11.so libkf5screen6 #MINVER#
 qt_plugin_instance@Base 5.1.80
 qt_plugin_query_metadata@Base 5.1.80
libKF5Screen.so.6 libkf5screen6 #MINVER#
 _ZN7KScreen13ConfigMonitor11qt_metacallEN11QMetaObject4CallEiPPv@Base 5.1.1
 _ZN7KScreen13ConfigMonitor11qt_metacastEPKc@Base 5.1.1
 _ZN7KScreen13ConfigMonitor12removeConfigERK14QSharedPointerINS_6ConfigEE@Base 5.1.1
 _ZN7KScreen13ConfigMonitor16staticMetaObjectE@Base 5.1.1
 _ZN7KScreen13ConfigMonitor20configurationChangedEv@Base 5.1.1
 _ZN7KScreen13ConfigMonitor7Private11qt_metacallEN11QMetaObject4CallEiPPv@Base 5.1.1
 _ZN7KScreen13ConfigMonitor7Private11qt_metacastEPKc@Base 5.1.1
 _ZN7KScreen13ConfigMonitor7Private13updateConfigsERK14QSharedPointerINS_6ConfigEE@Base 5.1.1
 _ZN7KScreen13ConfigMonitor7Private14onBackendReadyEP29OrgKdeKscreenBackendInterface@Base 5.1.1
 _ZN7KScreen13ConfigMonitor7Private15configDestroyedEP7QObject@Base 5.1.1
 _ZN7KScreen13ConfigMonitor7Private16staticMetaObjectE@Base 5.1.1
 _ZN7KScreen13ConfigMonitor7Private17getConfigFinishedEPNS_15ConfigOperationE@Base 5.1.1
 _ZN7KScreen13ConfigMonitor7Private20backendConfigChangedERK4QMapI7QString8QVariantE@Base 5.1.1
 _ZN7KScreen13ConfigMonitor7Private9edidReadyEP23QDBusPendingCallWatcher@Base 5.1.1
 _ZN7KScreen13ConfigMonitor7PrivateC1EPS0_@Base 5.1.1
 _ZN7KScreen13ConfigMonitor7PrivateC2EPS0_@Base 5.1.1
 (optional=gccinternal)_ZN7KScreen13ConfigMonitor7PrivateD0Ev@Base 5.1.1
 (optional=gccinternal)_ZN7KScreen13ConfigMonitor7PrivateD1Ev@Base 5.1.1
 (optional=gccinternal)_ZN7KScreen13ConfigMonitor7PrivateD2Ev@Base 5.1.1
 _ZN7KScreen13ConfigMonitor8instanceEv@Base 5.1.1
 _ZN7KScreen13ConfigMonitor9addConfigERK14QSharedPointerINS_6ConfigEE@Base 5.1.1
 _ZN7KScreen13ConfigMonitorC1Ev@Base 5.1.1
 _ZN7KScreen13ConfigMonitorC2Ev@Base 5.1.1
 _ZN7KScreen13ConfigMonitorD0Ev@Base 5.1.1
 _ZN7KScreen13ConfigMonitorD1Ev@Base 5.1.1
 _ZN7KScreen13ConfigMonitorD2Ev@Base 5.1.1
 _ZN7KScreen14BackendManager11qt_metacallEN11QMetaObject4CallEiPPv@Base 5.1.1
 _ZN7KScreen14BackendManager11qt_metacastEPKc@Base 5.1.1
 _ZN7KScreen14BackendManager12backendReadyEP29OrgKdeKscreenBackendInterface@Base 5.1.1
 _ZN7KScreen14BackendManager12startBackendERK7QString@Base 5.1.1
 _ZN7KScreen14BackendManager14requestBackendEv@Base 5.1.1
 _ZN7KScreen14BackendManager14sMaxCrashCountE@Base 5.1.1
 _ZN7KScreen14BackendManager15shutdownBackendEv@Base 5.1.1
 _ZN7KScreen14BackendManager16emitBackendReadyEv@Base 5.1.1
 _ZN7KScreen14BackendManager16launcherFinishedEiN8QProcess10ExitStatusE@Base 5.1.1
 _ZN7KScreen14BackendManager16staticMetaObjectE@Base 5.1.1
 _ZN7KScreen14BackendManager19backendServiceReadyEv@Base 5.1.1
 _ZN7KScreen14BackendManager19invalidateInterfaceEv@Base 5.1.1
 _ZN7KScreen14BackendManager21launcherDataAvailableEv@Base 5.1.1
 _ZN7KScreen14BackendManager26backendServiceUnregisteredERK7QString@Base 5.1.1
 _ZN7KScreen14BackendManager8instanceEv@Base 5.1.1
 _ZN7KScreen14BackendManager9sInstanceE@Base 5.1.1
 _ZN7KScreen14BackendManagerC1Ev@Base 5.1.1
 _ZN7KScreen14BackendManagerC2Ev@Base 5.1.1
 _ZN7KScreen14BackendManagerD0Ev@Base 5.1.1
 _ZN7KScreen14BackendManagerD1Ev@Base 5.1.1
 _ZN7KScreen14BackendManagerD2Ev@Base 5.1.1
 _ZN7KScreen15AbstractBackend11qt_metacallEN11QMetaObject4CallEiPPv@Base 5.1.1
 _ZN7KScreen15AbstractBackend11qt_metacastEPKc@Base 5.1.1
 _ZN7KScreen15AbstractBackend13configChangedERK14QSharedPointerINS_6ConfigEE@Base 5.1.1
 _ZN7KScreen15AbstractBackend16staticMetaObjectE@Base 5.1.1
 _ZN7KScreen15ConfigOperation10emitResultEv@Base 5.1.1
 _ZN7KScreen15ConfigOperation11qt_metacallEN11QMetaObject4CallEiPPv@Base 5.1.1
 _ZN7KScreen15ConfigOperation11qt_metacastEPKc@Base 5.1.1
 _ZN7KScreen15ConfigOperation16staticMetaObjectE@Base 5.1.1
 _ZN7KScreen15ConfigOperation4execEv@Base 5.1.1
 _ZN7KScreen15ConfigOperation8finishedEPS0_@Base 5.1.1
 _ZN7KScreen15ConfigOperation8setErrorERK7QString@Base 5.1.1
 _ZN7KScreen15ConfigOperationC1EPNS_22ConfigOperationPrivateEP7QObject@Base 5.1.1
 _ZN7KScreen15ConfigOperationC2EPNS_22ConfigOperationPrivateEP7QObject@Base 5.1.1
 _ZN7KScreen15ConfigOperationD0Ev@Base 5.1.1
 _ZN7KScreen15ConfigOperationD1Ev@Base 5.1.1
 _ZN7KScreen15ConfigOperationD2Ev@Base 5.1.1
 (optional=templinst)_ZN7KScreen16ConfigSerializer13serializeListI7QStringEE10QJsonArrayRK5QListIT_E@Base 5.1.1
 (optional=templinst)_ZN7KScreen16ConfigSerializer13serializeListIiEE10QJsonArrayRK5QListIT_E@Base 5.1.1
 _ZN7KScreen16ConfigSerializer13serializeModeERK14QSharedPointerINS_4ModeEE@Base 5.1.1
 _ZN7KScreen16ConfigSerializer13serializeSizeERK5QSize@Base 5.1.1
 _ZN7KScreen16ConfigSerializer14serializePointERK6QPoint@Base 5.1.1
 (optional=templinst)_ZN7KScreen16ConfigSerializer15deserializeListI7QStringEE5QListIT_ERK13QDBusArgument@Base 5.1.1
 (optional=templinst)_ZN7KScreen16ConfigSerializer15deserializeListIiEE5QListIT_ERK13QDBusArgument@Base 5.1.1
 _ZN7KScreen16ConfigSerializer15deserializeModeERK13QDBusArgument@Base 5.1.1
 _ZN7KScreen16ConfigSerializer15deserializeSizeERK13QDBusArgument@Base 5.1.1
 _ZN7KScreen16ConfigSerializer15serializeConfigERK14QSharedPointerINS_6ConfigEE@Base 5.1.1
 _ZN7KScreen16ConfigSerializer15serializeOutputERK14QSharedPointerINS_6OutputEE@Base 5.1.1
 _ZN7KScreen16ConfigSerializer15serializeScreenERK14QSharedPointerINS_6ScreenEE@Base 5.1.1
 _ZN7KScreen16ConfigSerializer16deserializePointERK13QDBusArgument@Base 5.1.1
 _ZN7KScreen16ConfigSerializer17deserializeConfigERK4QMapI7QString8QVariantE@Base 5.1.1
 _ZN7KScreen16ConfigSerializer17deserializeOutputERK13QDBusArgument@Base 5.1.1
 _ZN7KScreen16ConfigSerializer17deserializeScreenERK13QDBusArgument@Base 5.1.1
 _ZN7KScreen18GetConfigOperation11qt_metacallEN11QMetaObject4CallEiPPv@Base 5.1.1
 _ZN7KScreen18GetConfigOperation11qt_metacastEPKc@Base 5.1.1
 _ZN7KScreen18GetConfigOperation16staticMetaObjectE@Base 5.1.1
 _ZN7KScreen18GetConfigOperation5startEv@Base 5.1.1
 _ZN7KScreen18GetConfigOperationC1E6QFlagsINS0_6OptionEEP7QObject@Base 5.1.1
 _ZN7KScreen18GetConfigOperationC2E6QFlagsINS0_6OptionEEP7QObject@Base 5.1.1
 _ZN7KScreen18GetConfigOperationD0Ev@Base 5.1.1
 _ZN7KScreen18GetConfigOperationD1Ev@Base 5.1.1
 _ZN7KScreen18GetConfigOperationD2Ev@Base 5.1.1
 _ZN7KScreen18SetConfigOperation11qt_metacallEN11QMetaObject4CallEiPPv@Base 5.1.1
 _ZN7KScreen18SetConfigOperation11qt_metacastEPKc@Base 5.1.1
 _ZN7KScreen18SetConfigOperation16staticMetaObjectE@Base 5.1.1
 _ZN7KScreen18SetConfigOperation5startEv@Base 5.1.1
 _ZN7KScreen18SetConfigOperationC1ERK14QSharedPointerINS_6ConfigEEP7QObject@Base 5.1.1
 _ZN7KScreen18SetConfigOperationC2ERK14QSharedPointerINS_6ConfigEEP7QObject@Base 5.1.1
 _ZN7KScreen18SetConfigOperationD0Ev@Base 5.1.1
 _ZN7KScreen18SetConfigOperationD1Ev@Base 5.1.1
 _ZN7KScreen18SetConfigOperationD2Ev@Base 5.1.1
 _ZN7KScreen4Edid11qt_metacallEN11QMetaObject4CallEiPPv@Base 5.1.1
 _ZN7KScreen4Edid11qt_metacastEPKc@Base 5.1.1
 _ZN7KScreen4Edid16staticMetaObjectE@Base 5.1.1
 _ZN7KScreen4Edid7Private5parseERK10QByteArray@Base 5.1.1
 _ZN7KScreen4EdidC1EPNS0_7PrivateE@Base 5.1.1
 _ZN7KScreen4EdidC1ERK10QByteArrayP7QObject@Base 5.1.1
 _ZN7KScreen4EdidC1Ev@Base 5.1.1
 _ZN7KScreen4EdidC2EPNS0_7PrivateE@Base 5.1.1
 _ZN7KScreen4EdidC2ERK10QByteArrayP7QObject@Base 5.1.1
 _ZN7KScreen4EdidC2Ev@Base 5.1.1
 _ZN7KScreen4EdidD0Ev@Base 5.1.1
 _ZN7KScreen4EdidD1Ev@Base 5.1.1
 _ZN7KScreen4EdidD2Ev@Base 5.1.1
 _ZN7KScreen4Mode11modeChangedEv@Base 5.1.1
 _ZN7KScreen4Mode11qt_metacallEN11QMetaObject4CallEiPPv@Base 5.1.1
 _ZN7KScreen4Mode11qt_metacastEPKc@Base 5.1.1
 _ZN7KScreen4Mode14setRefreshRateEf@Base 5.1.1
 _ZN7KScreen4Mode16staticMetaObjectE@Base 5.1.1
 _ZN7KScreen4Mode5setIdERK7QString@Base 5.1.1
 _ZN7KScreen4Mode7setNameERK7QString@Base 5.1.1
 _ZN7KScreen4Mode7setSizeERK5QSize@Base 5.1.1
 _ZN7KScreen4ModeC1EPNS0_7PrivateE@Base 5.1.1
 _ZN7KScreen4ModeC1Ev@Base 5.1.1
 _ZN7KScreen4ModeC2EPNS0_7PrivateE@Base 5.1.1
 _ZN7KScreen4ModeC2Ev@Base 5.1.1
 _ZN7KScreen4ModeD0Ev@Base 5.1.1
 _ZN7KScreen4ModeD1Ev@Base 5.1.1
 _ZN7KScreen4ModeD2Ev@Base 5.1.1
 _ZN7KScreen6Config10setOutputsE4QMapIi14QSharedPointerINS_6OutputEEE@Base 5.1.1
 _ZN7KScreen6Config11outputAddedERK14QSharedPointerINS_6OutputEE@Base 5.1.1
 _ZN7KScreen6Config11qt_metacallEN11QMetaObject4CallEiPPv@Base 5.1.1
 _ZN7KScreen6Config11qt_metacastEPKc@Base 5.1.1
 _ZN7KScreen6Config12canBeAppliedERK14QSharedPointerIS0_E6QFlagsINS0_12ValidityFlagEE@Base 4:5.3.0
 _ZN7KScreen6Config12canBeAppliedERK14QSharedPointerIS0_E@Base 5.1.1
 _ZN7KScreen6Config12removeOutputEi@Base 5.1.1
 _ZN7KScreen6Config13outputRemovedEi@Base 5.1.1
 _ZN7KScreen6Config16setPrimaryOutputERK14QSharedPointerINS_6OutputEE@Base 5.1.1
 _ZN7KScreen6Config16staticMetaObjectE@Base 5.1.1
 _ZN7KScreen6Config20primaryOutputChangedERK14QSharedPointerINS_6OutputEE@Base 5.1.1
 _ZN7KScreen6Config5applyERK14QSharedPointerIS0_E@Base 5.1.1
 _ZN7KScreen6Config7Private11qt_metacallEN11QMetaObject4CallEiPPv@Base 4:5.3.0
 _ZN7KScreen6Config7Private11qt_metacastEPKc@Base 4:5.3.0
 _ZN7KScreen6Config7Private16staticMetaObjectE@Base 4:5.3.0
 (optional=gccinternal)_ZN7KScreen6Config7PrivateD0Ev@Base 4:5.3.0
 (optional=gccinternal)_ZN7KScreen6Config7PrivateD1Ev@Base 4:5.3.0
 (optional=gccinternal)_ZN7KScreen6Config7PrivateD2Ev@Base 4:5.3.0
 _ZN7KScreen6Config8setValidEb@Base 5.1.1
 _ZN7KScreen6Config9addOutputERK14QSharedPointerINS_6OutputEE@Base 5.1.1
 _ZN7KScreen6Config9setScreenERK14QSharedPointerINS_6ScreenEE@Base 5.1.1
 _ZN7KScreen6ConfigC1Ev@Base 5.1.1
 _ZN7KScreen6ConfigC2Ev@Base 5.1.1
 _ZN7KScreen6ConfigD0Ev@Base 5.1.1
 _ZN7KScreen6ConfigD1Ev@Base 5.1.1
 _ZN7KScreen6ConfigD2Ev@Base 5.1.1
 _ZN7KScreen6Output10posChangedEv@Base 5.1.1
 _ZN7KScreen6Output10setEnabledEb@Base 5.1.1
 _ZN7KScreen6Output10setPrimaryEb@Base 5.1.1
 _ZN7KScreen6Output11qt_metacallEN11QMetaObject4CallEiPPv@Base 5.1.1
 _ZN7KScreen6Output11qt_metacastEPKc@Base 5.1.1
 _ZN7KScreen6Output11setRotationENS0_8RotationE@Base 5.1.1
 _ZN7KScreen6Output12setConnectedEb@Base 5.1.1
 _ZN7KScreen6Output13clonesChangedEv@Base 5.1.1
 _ZN7KScreen6Output13outputChangedEv@Base 5.1.1
 _ZN7KScreen6Output15rotationChangedEv@Base 5.1.1
 _ZN7KScreen6Output16isEnabledChangedEv@Base 5.1.1
 _ZN7KScreen6Output16isPrimaryChangedEv@Base 5.1.1
 _ZN7KScreen6Output16setCurrentModeIdERK7QString@Base 5.1.1
 _ZN7KScreen6Output16staticMetaObjectE@Base 5.1.1
 _ZN7KScreen6Output17setPreferredModesERK11QStringList@Base 5.1.1
 _ZN7KScreen6Output18isConnectedChangedEv@Base 5.1.1
 _ZN7KScreen6Output20currentModeIdChangedEv@Base 5.1.1
 _ZN7KScreen6Output5applyERK14QSharedPointerIS0_E@Base 5.1.1
 _ZN7KScreen6Output5setIdEi@Base 5.1.1
 _ZN7KScreen6Output6setPosERK6QPoint@Base 5.1.1
 _ZN7KScreen6Output7setEdidERK10QByteArray@Base 5.1.1
 _ZN7KScreen6Output7setIconERK7QString@Base 5.1.1
 _ZN7KScreen6Output7setNameERK7QString@Base 5.1.1
 _ZN7KScreen6Output7setTypeENS0_4TypeE@Base 5.1.1
 _ZN7KScreen6Output8setModesERK4QMapI7QString14QSharedPointerINS_4ModeEEE@Base 5.1.1
 _ZN7KScreen6Output9setClonesE5QListIiE@Base 5.1.1
 _ZN7KScreen6Output9setSizeMmERK5QSize@Base 5.1.1
 _ZN7KScreen6OutputC1EPNS0_7PrivateE@Base 5.1.1
 _ZN7KScreen6OutputC1Ev@Base 5.1.1
 _ZN7KScreen6OutputC2EPNS0_7PrivateE@Base 5.1.1
 _ZN7KScreen6OutputC2Ev@Base 5.1.1
 _ZN7KScreen6OutputD0Ev@Base 5.1.1
 _ZN7KScreen6OutputD1Ev@Base 5.1.1
 _ZN7KScreen6OutputD2Ev@Base 5.1.1
 _ZN7KScreen6Screen10setMaxSizeERK5QSize@Base 5.1.1
 _ZN7KScreen6Screen10setMinSizeERK5QSize@Base 5.1.1
 _ZN7KScreen6Screen11qt_metacallEN11QMetaObject4CallEiPPv@Base 5.1.1
 _ZN7KScreen6Screen11qt_metacastEPKc@Base 5.1.1
 _ZN7KScreen6Screen14setCurrentSizeERK5QSize@Base 5.1.1
 _ZN7KScreen6Screen16staticMetaObjectE@Base 5.1.1
 _ZN7KScreen6Screen18currentSizeChangedEv@Base 5.1.1
 _ZN7KScreen6Screen24setMaxActiveOutputsCountEi@Base 5.1.1
 _ZN7KScreen6Screen5applyERK14QSharedPointerIS0_E@Base 5.1.1
 _ZN7KScreen6Screen5setIdEi@Base 5.1.1
 _ZN7KScreen6ScreenC1EPNS0_7PrivateE@Base 5.1.1
 _ZN7KScreen6ScreenC1Ev@Base 5.1.1
 _ZN7KScreen6ScreenC2EPNS0_7PrivateE@Base 5.1.1
 _ZN7KScreen6ScreenC2Ev@Base 5.1.1
 _ZN7KScreen6ScreenD0Ev@Base 5.1.1
 _ZN7KScreen6ScreenD1Ev@Base 5.1.1
 _ZN7KScreen6ScreenD2Ev@Base 5.1.1
 _ZNK7KScreen13ConfigMonitor10metaObjectEv@Base 5.1.1
 _ZNK7KScreen13ConfigMonitor7Private10metaObjectEv@Base 5.1.1
 _ZNK7KScreen14BackendManager10metaObjectEv@Base 5.1.1
 _ZNK7KScreen14BackendManager6configEv@Base 5.1.1
 _ZNK7KScreen15AbstractBackend10metaObjectEv@Base 5.1.1
 _ZNK7KScreen15AbstractBackend4edidEi@Base 5.1.1
 _ZNK7KScreen15ConfigOperation10metaObjectEv@Base 5.1.1
 _ZNK7KScreen15ConfigOperation11errorStringEv@Base 5.1.1
 _ZNK7KScreen15ConfigOperation8hasErrorEv@Base 5.1.1
 _ZNK7KScreen18GetConfigOperation10metaObjectEv@Base 5.1.1
 _ZNK7KScreen18GetConfigOperation6configEv@Base 5.1.1
 _ZNK7KScreen18SetConfigOperation10metaObjectEv@Base 5.1.1
 _ZNK7KScreen18SetConfigOperation6configEv@Base 5.1.1
 _ZNK7KScreen4Edid10metaObjectEv@Base 5.1.1
 _ZNK7KScreen4Edid3redEv@Base 5.1.1
 _ZNK7KScreen4Edid4blueEv@Base 5.1.1
 _ZNK7KScreen4Edid4hashEv@Base 5.1.1
 _ZNK7KScreen4Edid4nameEv@Base 5.1.1
 _ZNK7KScreen4Edid5cloneEv@Base 5.1.1
 _ZNK7KScreen4Edid5gammaEv@Base 5.1.1
 _ZNK7KScreen4Edid5greenEv@Base 5.1.1
 _ZNK7KScreen4Edid5pnpIdEv@Base 5.1.1
 _ZNK7KScreen4Edid5whiteEv@Base 5.1.1
 _ZNK7KScreen4Edid5widthEv@Base 5.1.1
 _ZNK7KScreen4Edid6eisaIdEv@Base 5.1.1
 _ZNK7KScreen4Edid6heightEv@Base 5.1.1
 _ZNK7KScreen4Edid6serialEv@Base 5.1.1
 _ZNK7KScreen4Edid6vendorEv@Base 5.1.1
 _ZNK7KScreen4Edid7Private10edidGetBitEii@Base 5.1.1
 _ZNK7KScreen4Edid7Private11edidGetBitsEiii@Base 5.1.1
 _ZNK7KScreen4Edid7Private15edidParseStringEPKh@Base 5.1.1
 _ZNK7KScreen4Edid7Private18edidDecodeFractionEii@Base 5.1.1
 _ZNK7KScreen4Edid7isValidEv@Base 5.1.1
 _ZNK7KScreen4Edid8deviceIdERK7QString@Base 5.1.1
 _ZNK7KScreen4Mode10metaObjectEv@Base 5.1.1
 _ZNK7KScreen4Mode11refreshRateEv@Base 5.1.1
 _ZNK7KScreen4Mode2idEv@Base 5.1.1
 _ZNK7KScreen4Mode4nameEv@Base 5.1.1
 _ZNK7KScreen4Mode4sizeEv@Base 5.1.1
 _ZNK7KScreen4Mode5cloneEv@Base 5.1.1
 _ZNK7KScreen6Config10metaObjectEv@Base 5.1.1
 _ZNK7KScreen6Config13primaryOutputEv@Base 5.1.1
 _ZNK7KScreen6Config16connectedOutputsEv@Base 5.1.1
 _ZNK7KScreen6Config5cloneEv@Base 5.1.1
 _ZNK7KScreen6Config6outputEi@Base 5.1.1
 _ZNK7KScreen6Config6screenEv@Base 5.1.1
 _ZNK7KScreen6Config7Private10metaObjectEv@Base 4:5.3.0
 _ZNK7KScreen6Config7isValidEv@Base 5.1.1
 _ZNK7KScreen6Config7outputsEv@Base 5.1.1
 _ZNK7KScreen6Output10metaObjectEv@Base 5.1.1
 _ZNK7KScreen6Output11currentModeEv@Base 5.1.1
 _ZNK7KScreen6Output11isConnectedEv@Base 5.1.1
 _ZNK7KScreen6Output13currentModeIdEv@Base 5.1.1
 _ZNK7KScreen6Output13preferredModeEv@Base 5.1.1
 _ZNK7KScreen6Output14preferredModesEv@Base 5.1.1
 _ZNK7KScreen6Output15preferredModeIdEv@Base 5.1.1
 _ZNK7KScreen6Output2idEv@Base 5.1.1
 _ZNK7KScreen6Output3posEv@Base 5.1.1
 _ZNK7KScreen6Output4edidEv@Base 5.1.1
 _ZNK7KScreen6Output4iconEv@Base 5.1.1
 _ZNK7KScreen6Output4modeERK7QString@Base 5.1.1
 _ZNK7KScreen6Output4nameEv@Base 5.1.1
 _ZNK7KScreen6Output4typeEv@Base 5.1.1
 _ZNK7KScreen6Output5cloneEv@Base 5.1.1
 _ZNK7KScreen6Output5modesEv@Base 5.1.1
 _ZNK7KScreen6Output6clonesEv@Base 5.1.1
 _ZNK7KScreen6Output6sizeMmEv@Base 5.1.1
 _ZNK7KScreen6Output7Private11biggestModeERK4QMapI7QString14QSharedPointerINS_4ModeEEE@Base 5.1.1
 _ZNK7KScreen6Output8geometryEv@Base 5.1.1
 _ZNK7KScreen6Output8rotationEv@Base 5.1.1
 _ZNK7KScreen6Output9isEnabledEv@Base 5.1.1
 _ZNK7KScreen6Output9isPrimaryEv@Base 5.1.1
 _ZNK7KScreen6Screen10metaObjectEv@Base 5.1.1
 _ZNK7KScreen6Screen11currentSizeEv@Base 5.1.1
 _ZNK7KScreen6Screen21maxActiveOutputsCountEv@Base 5.1.1
 _ZNK7KScreen6Screen2idEv@Base 5.1.1
 _ZNK7KScreen6Screen5cloneEv@Base 5.1.1
 _ZNK7KScreen6Screen7maxSizeEv@Base 5.1.1
 _ZNK7KScreen6Screen7minSizeEv@Base 5.1.1
 _ZTIN7KScreen13ConfigMonitor7PrivateE@Base 5.1.1
 _ZTIN7KScreen13ConfigMonitorE@Base 5.1.1
 _ZTIN7KScreen14BackendManagerE@Base 5.1.1
 _ZTIN7KScreen15AbstractBackendE@Base 5.1.1
 _ZTIN7KScreen15ConfigOperationE@Base 5.1.1
 _ZTIN7KScreen18GetConfigOperationE@Base 5.1.1
 _ZTIN7KScreen18SetConfigOperationE@Base 5.1.1
 _ZTIN7KScreen4EdidE@Base 5.1.1
 _ZTIN7KScreen4ModeE@Base 5.1.1
 _ZTIN7KScreen6Config7PrivateE@Base 4:5.3.0
 _ZTIN7KScreen6ConfigE@Base 5.1.1
 _ZTIN7KScreen6OutputE@Base 5.1.1
 _ZTIN7KScreen6ScreenE@Base 5.1.1
 _ZTSN7KScreen13ConfigMonitor7PrivateE@Base 5.1.1
 _ZTSN7KScreen13ConfigMonitorE@Base 5.1.1
 _ZTSN7KScreen14BackendManagerE@Base 5.1.1
 _ZTSN7KScreen15AbstractBackendE@Base 5.1.1
 _ZTSN7KScreen15ConfigOperationE@Base 5.1.1
 _ZTSN7KScreen18GetConfigOperationE@Base 5.1.1
 _ZTSN7KScreen18SetConfigOperationE@Base 5.1.1
 _ZTSN7KScreen4EdidE@Base 5.1.1
 _ZTSN7KScreen4ModeE@Base 5.1.1
 _ZTSN7KScreen6Config7PrivateE@Base 4:5.3.0
 _ZTSN7KScreen6ConfigE@Base 5.1.1
 _ZTSN7KScreen6OutputE@Base 5.1.1
 _ZTSN7KScreen6ScreenE@Base 5.1.1
 _ZTVN7KScreen13ConfigMonitor7PrivateE@Base 5.1.1
 _ZTVN7KScreen13ConfigMonitorE@Base 5.1.1
 _ZTVN7KScreen14BackendManagerE@Base 5.1.1
 _ZTVN7KScreen15AbstractBackendE@Base 5.1.1
 _ZTVN7KScreen15ConfigOperationE@Base 5.1.1
 _ZTVN7KScreen18GetConfigOperationE@Base 5.1.1
 _ZTVN7KScreen18SetConfigOperationE@Base 5.1.1
 _ZTVN7KScreen4EdidE@Base 5.1.1
 _ZTVN7KScreen4ModeE@Base 5.1.1
 _ZTVN7KScreen6Config7PrivateE@Base 4:5.3.0
 _ZTVN7KScreen6ConfigE@Base 5.1.1
 _ZTVN7KScreen6OutputE@Base 5.1.1
 _ZTVN7KScreen6ScreenE@Base 5.1.1
 _Zls6QDebugRK14QSharedPointerIN7KScreen4ModeEE@Base 5.1.1
 _Zls6QDebugRK14QSharedPointerIN7KScreen6OutputEE@Base 5.1.1
