# SymbolsHelper-Confirmed: 5.4.1 amd64
libQt5WaylandClient.so.5 libqt5waylandclient5 #MINVER#
 _ZN12QWaylandDrag10finishDragERK23QPlatformDropQtResponse@Base 5.4.0
 _ZN12QWaylandDrag11setResponseERK23QPlatformDragQtResponse@Base 5.4.0
 _ZN12QWaylandDrag12updateTargetERK7QString@Base 5.4.0
 _ZN12QWaylandDrag16platformDropDataEv@Base 5.4.0
 _ZN12QWaylandDrag4dropEPK11QMouseEvent@Base 5.4.0
 _ZN12QWaylandDrag4moveEPK11QMouseEvent@Base 5.4.0
 _ZN12QWaylandDrag6cancelEv@Base 5.4.0
 _ZN12QWaylandDrag7endDragEv@Base 5.4.0
 _ZN12QWaylandDrag9startDragEv@Base 5.4.0
 _ZN12QWaylandDragC1EP15QWaylandDisplay@Base 5.4.0
 _ZN12QWaylandDragC2EP15QWaylandDisplay@Base 5.4.0
 _ZN12QWaylandDragD0Ev@Base 5.4.0
 _ZN12QWaylandDragD1Ev@Base 5.4.0
 _ZN12QWaylandDragD2Ev@Base 5.4.0
 _ZN13QFontEngineFT11boundingBoxERK12QGlyphLayout@Base 5.4.0
 _ZN13QFontEngineFT11boundingBoxEj@Base 5.4.0
 _ZN13QFontEngineFT11boundingBoxEjRK10QTransform@Base 5.4.0
 _ZN13QFontEngineFT12loadGlyphForEj6QFixedN11QFontEngine11GlyphFormatERK10QTransformb@Base 5.4.1
 _ZN13QFontEngineFT15addGlyphsToPathEPjP11QFixedPointiP12QPainterPath6QFlagsIN9QTextItem10RenderFlagEE@Base 5.4.0
 _ZN13QFontEngineFT16addOutlineToPathEddRK12QGlyphLayoutP12QPainterPath6QFlagsIN9QTextItem10RenderFlagEE@Base 5.4.0
 _ZN13QFontEngineFT16alphaMapForGlyphEj6QFixed@Base 5.4.0
 _ZN13QFontEngineFT16alphaMapForGlyphEj6QFixedRK10QTransform@Base 5.4.1
 _ZN13QFontEngineFT16getUnscaledGlyphEjP12QPainterPathP15glyph_metrics_t@Base 5.4.0
 _ZN13QFontEngineFT17getPointInOutlineEjijP6QFixedS1_Pj@Base 5.4.0
 _ZN13QFontEngineFT18initFromFontEngineEPKS_@Base 5.4.0
 _ZN13QFontEngineFT19alphaMapBoundingBoxEj6QFixedRK10QTransformN11QFontEngine11GlyphFormatE@Base 5.4.0
 _ZN13QFontEngineFT19alphaRGBMapForGlyphEj6QFixedRK10QTransform@Base 5.4.0
 _ZN13QFontEngineFT19setDefaultHintStyleEN11QFontEngine9HintStyleE@Base 5.4.0
 _ZN13QFontEngineFT20removeGlyphFromCacheEj@Base 5.4.0
 _ZN13QFontEngineFT22lockedAlphaMapForGlyphEj6QFixedN11QFontEngine11GlyphFormatERK10QTransformP6QPoint@Base 5.4.0
 _ZN13QFontEngineFT22unlockAlphaMapForGlyphEv@Base 5.4.0
 _ZN13QFontEngineFT23loadTransformedGlyphSetERK10QTransform@Base 5.4.0
 _ZN13QFontEngineFT4initEN11QFontEngine6FaceIdEbNS0_11GlyphFormatEP13QFreetypeFace@Base 5.4.0
 _ZN13QFontEngineFT4initEN11QFontEngine6FaceIdEbNS0_11GlyphFormatERK10QByteArray@Base 5.4.0
 _ZN13QFontEngineFT5GlyphD1Ev@Base 5.4.0
 _ZN13QFontEngineFT5GlyphD2Ev@Base 5.4.0
 _ZN13QFontEngineFT9QGlyphSet20removeGlyphFromCacheEj6QFixed@Base 5.4.0
 _ZN13QFontEngineFT9QGlyphSet5clearEv@Base 5.4.0
 _ZN13QFontEngineFT9QGlyphSet8setGlyphEj6QFixedPNS_5GlyphE@Base 5.4.0
 _ZN13QFontEngineFT9QGlyphSetC1Ev@Base 5.4.0
 _ZN13QFontEngineFT9QGlyphSetC2Ev@Base 5.4.0
 _ZN13QFontEngineFT9QGlyphSetD1Ev@Base 5.4.0
 _ZN13QFontEngineFT9QGlyphSetD2Ev@Base 5.4.0
 _ZN13QFontEngineFTC1ERK8QFontDef@Base 5.4.0
 _ZN13QFontEngineFTC2ERK8QFontDef@Base 5.4.0
 _ZN13QFontEngineFTD0Ev@Base 5.4.0
 _ZN13QFontEngineFTD1Ev@Base 5.4.0
 _ZN13QFontEngineFTD2Ev@Base 5.4.0
 _ZN14QWaylandCursor11cursorImageEN2Qt11CursorShapeE@Base 5.4.0
 _ZN14QWaylandCursor12changeCursorEP7QCursorP7QWindow@Base 5.4.0
 _ZN14QWaylandCursor12pointerEventERK11QMouseEvent@Base 5.4.0
 _ZN14QWaylandCursor13initCursorMapEv@Base 5.4.0
 _ZN14QWaylandCursor13requestCursorENS_13WaylandCursorE@Base 5.4.0
 _ZN14QWaylandCursor6setPosERK6QPoint@Base 5.4.0
 _ZN14QWaylandCursorC1EP14QWaylandScreen@Base 5.4.0
 _ZN14QWaylandCursorC2EP14QWaylandScreen@Base 5.4.0
 _ZN14QWaylandCursorD0Ev@Base 5.4.0
 _ZN14QWaylandCursorD1Ev@Base 5.4.0
 _ZN14QWaylandCursorD2Ev@Base 5.4.0
 _ZN14QWaylandScreen11output_doneEv@Base 5.4.0
 _ZN14QWaylandScreen11output_modeEjiii@Base 5.4.0
 _ZN14QWaylandScreen15output_geometryEiiiiiRK7QStringS2_i@Base 5.4.0
 _ZN14QWaylandScreen20createExtendedOutputEv@Base 5.4.0
 _ZN14QWaylandScreen23waylandScreenFromWindowEP7QWindow@Base 5.4.0
 _ZN14QWaylandScreen24setOrientationUpdateMaskE6QFlagsIN2Qt17ScreenOrientationEE@Base 5.4.0
 _ZN14QWaylandScreenC1EP15QWaylandDisplayij@Base 5.4.0
 _ZN14QWaylandScreenC2EP15QWaylandDisplayij@Base 5.4.0
 _ZN14QWaylandScreenD0Ev@Base 5.4.0
 _ZN14QWaylandScreenD1Ev@Base 5.4.0
 _ZN14QWaylandScreenD2Ev@Base 5.4.0
 _ZN14QWaylandWindow10mMouseGrabE@Base 5.4.0
 _ZN14QWaylandWindow10setVisibleEb@Base 5.4.0
 _ZN14QWaylandWindow11handleMouseEP19QWaylandInputDevicemRK7QPointFS4_6QFlagsIN2Qt11MouseButtonEES5_INS6_16KeyboardModifierEE@Base 5.4.0
 _ZN14QWaylandWindow11qt_metacallEN11QMetaObject4CallEiPPv@Base 5.4.0
 _ZN14QWaylandWindow11qt_metacastEPKc@Base 5.4.0
 _ZN14QWaylandWindow11setGeometryERK5QRect@Base 5.4.0
 _ZN14QWaylandWindow11setPropertyERK7QStringRK8QVariant@Base 5.4.0
 _ZN14QWaylandWindow12attachOffsetEP14QWaylandBuffer@Base 5.4.0
 _ZN14QWaylandWindow12sendPropertyERK7QStringRK8QVariant@Base 5.4.0
 _ZN14QWaylandWindow12setCanResizeEb@Base 5.4.0
 _ZN14QWaylandWindow13frameCallbackEPvP11wl_callbackj@Base 5.4.0
 _ZN14QWaylandWindow13fromWlSurfaceEP10wl_surface@Base 5.4.0
 _ZN14QWaylandWindow13requestResizeEv@Base 5.4.0
 _ZN14QWaylandWindow13setWindowIconERK5QIcon@Base 5.4.0
 _ZN14QWaylandWindow14setMouseCursorEP19QWaylandInputDeviceN2Qt11CursorShapeE@Base 5.4.0
 _ZN14QWaylandWindow14setWindowFlagsE6QFlagsIN2Qt10WindowTypeEE@Base 5.4.0
 _ZN14QWaylandWindow14setWindowStateEN2Qt11WindowStateE@Base 5.4.0
 _ZN14QWaylandWindow14setWindowTitleERK7QString@Base 5.4.0
 _ZN14QWaylandWindow15mFrameSyncMutexE@Base 5.4.0
 _ZN14QWaylandWindow16callbackListenerE@Base 5.4.0
 _ZN14QWaylandWindow16createDecorationEv@Base 5.4.0
 _ZN14QWaylandWindow16handleMouseEnterEP19QWaylandInputDevice@Base 5.4.0
 _ZN14QWaylandWindow16handleMouseLeaveEP19QWaylandInputDevice@Base 5.4.0
 _ZN14QWaylandWindow16staticMetaObjectE@Base 5.4.0
 _ZN14QWaylandWindow16waitForFrameSyncEv@Base 5.4.0
 _ZN14QWaylandWindow18restoreMouseCursorEP19QWaylandInputDevice@Base 5.4.0
 _ZN14QWaylandWindow18setGeometry_helperERK5QRect@Base 5.4.0
 _ZN14QWaylandWindow18setOrientationMaskE6QFlagsIN2Qt17ScreenOrientationEE@Base 5.4.0
 _ZN14QWaylandWindow19setMouseGrabEnabledEb@Base 5.4.0
 _ZN14QWaylandWindow19touchDragDecorationEP19QWaylandInputDeviceRK7QPointFS4_N2Qt15TouchPointStateE6QFlagsINS5_16KeyboardModifierEE@Base 5.4.0
 _ZN14QWaylandWindow21requestActivateWindowEv@Base 5.4.0
 _ZN14QWaylandWindow22setWindowStateInternalEN2Qt11WindowStateE@Base 5.4.0
 _ZN14QWaylandWindow30handleContentOrientationChangeEN2Qt17ScreenOrientationE@Base 5.4.0
 _ZN14QWaylandWindow30handleMouseEventWithDecorationEP19QWaylandInputDevicemRK7QPointFS4_6QFlagsIN2Qt11MouseButtonEES5_INS6_16KeyboardModifierEE@Base 5.4.0
 _ZN14QWaylandWindow5lowerEv@Base 5.4.0
 _ZN14QWaylandWindow5raiseEv@Base 5.4.0
 _ZN14QWaylandWindow6attachEP14QWaylandBufferii@Base 5.4.0
 _ZN14QWaylandWindow6damageERK5QRect@Base 5.4.0
 _ZN14QWaylandWindow7unfocusEv@Base 5.4.0
 _ZN14QWaylandWindow8doResizeEv@Base 5.4.0
 _ZN14QWaylandWindow8propertyERK7QString@Base 5.4.0
 _ZN14QWaylandWindow8propertyERK7QStringRK8QVariant@Base 5.4.0
 _ZN14QWaylandWindow9configureEjii@Base 5.4.0
 _ZN14QWaylandWindow9setParentEPK15QPlatformWindow@Base 5.4.0
 _ZN14QWaylandWindowC1EP7QWindow@Base 5.4.0
 _ZN14QWaylandWindowC2EP7QWindow@Base 5.4.0
 _ZN14QWaylandWindowD0Ev@Base 5.4.0
 _ZN14QWaylandWindowD1Ev@Base 5.4.0
 _ZN14QWaylandWindowD2Ev@Base 5.4.0
 _ZN15QWaylandDisplay11qt_metacallEN11QMetaObject4CallEiPPv@Base 5.4.0
 _ZN15QWaylandDisplay11qt_metacastEPKc@Base 5.4.0
 _ZN15QWaylandDisplay13createSurfaceEPv@Base 5.4.0
 _ZN15QWaylandDisplay13exitWithErrorEv@Base 5.4.0
 _ZN15QWaylandDisplay13flushRequestsEv@Base 5.4.0
 _ZN15QWaylandDisplay14forceRoundTripEv@Base 5.4.0
 _ZN15QWaylandDisplay14waitForScreensEv@Base 5.4.0
 _ZN15QWaylandDisplay15registry_globalEjRK7QStringj@Base 5.4.0
 _ZN15QWaylandDisplay16staticMetaObjectE@Base 5.4.0
 _ZN15QWaylandDisplay18blockingReadEventsEv@Base 5.4.0
 _ZN15QWaylandDisplay18createShellSurfaceEP14QWaylandWindow@Base 5.4.0
 _ZN15QWaylandDisplay19addRegistryListenerEPFvPvP11wl_registryjRK7QStringjES0_@Base 5.4.0
 _ZN15QWaylandDisplay19currentTimeMillisecEv@Base 5.4.0
 _ZN15QWaylandDisplay22registry_global_removeEj@Base 5.4.0
 _ZN15QWaylandDisplay31setLastKeyboardFocusInputDeviceEP19QWaylandInputDevice@Base 5.4.0
 _ZN15QWaylandDisplay8shellXdgEv@Base 5.4.0
 _ZN15QWaylandDisplay9setCursorEP9wl_bufferP15wl_cursor_image@Base 5.4.0
 _ZN15QWaylandDisplayC1EP19QWaylandIntegration@Base 5.4.0
 _ZN15QWaylandDisplayC2EP19QWaylandIntegration@Base 5.4.0
 _ZN15QWaylandDisplayD0Ev@Base 5.4.0
 _ZN15QWaylandDisplayD1Ev@Base 5.4.0
 _ZN15QWaylandDisplayD2Ev@Base 5.4.0
 _ZN16QWaylandXdgShell14xdg_shell_pingEj@Base 5.4.0
 _ZN16QWaylandXdgShellC1EP11wl_registryj@Base 5.4.0
 _ZN16QWaylandXdgShellC1EP9xdg_shell@Base 5.4.0
 _ZN16QWaylandXdgShellC2EP11wl_registryj@Base 5.4.0
 _ZN16QWaylandXdgShellC2EP9xdg_shell@Base 5.4.0
 _ZN16QWaylandXdgShellD0Ev@Base 5.4.0
 _ZN16QWaylandXdgShellD1Ev@Base 5.4.0
 _ZN16QWaylandXdgShellD2Ev@Base 5.4.0
 _ZN17QInputMethodEventD0Ev@Base 5.4.0
 _ZN17QInputMethodEventD1Ev@Base 5.4.0
 _ZN17QInputMethodEventD2Ev@Base 5.4.0
 _ZN17QWaylandClipboard11setMimeDataEP9QMimeDataN10QClipboard4ModeE@Base 5.4.0
 _ZN17QWaylandClipboard8mimeDataEN10QClipboard4ModeE@Base 5.4.0
 _ZN17QWaylandClipboardC1EP15QWaylandDisplay@Base 5.4.0
 _ZN17QWaylandClipboardC2EP15QWaylandDisplay@Base 5.4.0
 _ZN17QWaylandClipboardD0Ev@Base 5.4.0
 _ZN17QWaylandClipboardD1Ev@Base 5.4.0
 _ZN17QWaylandClipboardD2Ev@Base 5.4.0
 _ZN17QWaylandDataOffer16data_offer_offerERK7QString@Base 5.4.0
 _ZN17QWaylandDataOffer8mimeDataEv@Base 5.4.0
 _ZN17QWaylandDataOfferC1EP15QWaylandDisplayP13wl_data_offer@Base 5.4.0
 _ZN17QWaylandDataOfferC2EP15QWaylandDisplayP13wl_data_offer@Base 5.4.0
 _ZN17QWaylandDataOfferD0Ev@Base 5.4.0
 _ZN17QWaylandDataOfferD1Ev@Base 5.4.0
 _ZN17QWaylandDataOfferD2Ev@Base 5.4.0
 _ZN17QWaylandShmBuffer18imageInsideMarginsERK8QMargins@Base 5.4.0
 _ZN17QWaylandShmBufferC1EP15QWaylandDisplayRK5QSizeN6QImage6FormatE@Base 5.4.0
 _ZN17QWaylandShmBufferC2EP15QWaylandDisplayRK5QSizeN6QImage6FormatE@Base 5.4.0
 _ZN17QWaylandShmBufferD0Ev@Base 5.4.0
 _ZN17QWaylandShmBufferD1Ev@Base 5.4.0
 _ZN17QWaylandShmBufferD2Ev@Base 5.4.0
 _ZN17QWaylandShmWindowC1EP7QWindow@Base 5.4.0
 _ZN17QWaylandShmWindowC2EP7QWindow@Base 5.4.0
 _ZN17QWaylandShmWindowD0Ev@Base 5.4.0
 _ZN17QWaylandShmWindowD1Ev@Base 5.4.0
 _ZN17QWaylandShmWindowD2Ev@Base 5.4.0
 _ZN18QWaylandDataSource11qt_metacallEN11QMetaObject4CallEiPPv@Base 5.4.0
 _ZN18QWaylandDataSource11qt_metacastEPKc@Base 5.4.0
 _ZN18QWaylandDataSource13targetChangedERK7QString@Base 5.4.0
 _ZN18QWaylandDataSource16data_source_sendERK7QStringi@Base 5.4.0
 _ZN18QWaylandDataSource16staticMetaObjectE@Base 5.4.0
 _ZN18QWaylandDataSource18data_source_targetERK7QString@Base 5.4.0
 _ZN18QWaylandDataSource21data_source_cancelledEv@Base 5.4.0
 _ZN18QWaylandDataSource9cancelledEv@Base 5.4.0
 _ZN18QWaylandDataSourceC1EP25QWaylandDataDeviceManagerP9QMimeData@Base 5.4.0
 _ZN18QWaylandDataSourceC2EP25QWaylandDataDeviceManagerP9QMimeData@Base 5.4.0
 _ZN18QWaylandDataSourceD0Ev@Base 5.4.0
 _ZN18QWaylandDataSourceD1Ev@Base 5.4.0
 _ZN18QWaylandDataSourceD2Ev@Base 5.4.0
 _ZN18QWaylandSubSurface24adjustPositionOfChildrenEv@Base 5.4.0
 _ZN18QWaylandSubSurface9setParentEPK14QWaylandWindow@Base 5.4.0
 _ZN18QWaylandSubSurfaceC1EP14QWaylandWindowP14qt_sub_surface@Base 5.4.0
 _ZN18QWaylandSubSurfaceC2EP14QWaylandWindowP14qt_sub_surface@Base 5.4.0
 _ZN18QWaylandSubSurfaceD0Ev@Base 5.4.0
 _ZN18QWaylandSubSurfaceD1Ev@Base 5.4.0
 _ZN18QWaylandSubSurfaceD2Ev@Base 5.4.0
 _ZN18QWaylandXdgSurface11setTopLevelEv@Base 5.4.0
 _ZN18QWaylandXdgSurface12sendPropertyERK7QStringRK8QVariant@Base 5.4.0
 _ZN18QWaylandXdgSurface12setMaximizedEv@Base 5.4.0
 _ZN18QWaylandXdgSurface12setMinimizedEv@Base 5.4.0
 _ZN18QWaylandXdgSurface13setFullscreenEv@Base 5.4.0
 _ZN18QWaylandXdgSurface14setWindowFlagsE6QFlagsIN2Qt10WindowTypeEE@Base 5.4.0
 _ZN18QWaylandXdgSurface17xdg_surface_closeEv@Base 5.4.0
 _ZN18QWaylandXdgSurface21updateTransientParentEP7QWindow@Base 5.4.0
 _ZN18QWaylandXdgSurface21xdg_surface_activatedEv@Base 5.4.0
 _ZN18QWaylandXdgSurface21xdg_surface_configureEii@Base 5.4.0
 _ZN18QWaylandXdgSurface23xdg_surface_deactivatedEv@Base 5.4.0
 _ZN18QWaylandXdgSurface24xdg_surface_change_stateEjjj@Base 5.4.0
 _ZN18QWaylandXdgSurface25setContentOrientationMaskE6QFlagsIN2Qt17ScreenOrientationEE@Base 5.4.0
 _ZN18QWaylandXdgSurface4moveEP19QWaylandInputDevice@Base 5.4.0
 _ZN18QWaylandXdgSurface5lowerEv@Base 5.4.0
 _ZN18QWaylandXdgSurface5raiseEv@Base 5.4.0
 _ZN18QWaylandXdgSurface6resizeEP19QWaylandInputDevice23wl_shell_surface_resize@Base 5.4.0
 _ZN18QWaylandXdgSurface6resizeEP19QWaylandInputDeviceN9QtWayland11xdg_surface11resize_edgeE@Base 5.4.0
 _ZN18QWaylandXdgSurface8setAppIdERK7QString@Base 5.4.0
 _ZN18QWaylandXdgSurface8setTitleERK7QString@Base 5.4.0
 _ZN18QWaylandXdgSurface9setNormalEv@Base 5.4.0
 _ZN18QWaylandXdgSurfaceC1EP11xdg_surfaceP14QWaylandWindow@Base 5.4.0
 _ZN18QWaylandXdgSurfaceC2EP11xdg_surfaceP14QWaylandWindow@Base 5.4.0
 _ZN18QWaylandXdgSurfaceD0Ev@Base 5.4.0
 _ZN18QWaylandXdgSurfaceD1Ev@Base 5.4.0
 _ZN18QWaylandXdgSurfaceD2Ev@Base 5.4.0
 _ZN19QWaylandEventThread10fatalErrorEv@Base 5.4.0
 _ZN19QWaylandEventThread11qt_metacallEN11QMetaObject4CallEiPPv@Base 5.4.0
 _ZN19QWaylandEventThread11qt_metacastEPKc@Base 5.4.0
 _ZN19QWaylandEventThread13newEventsReadEv@Base 5.4.0
 _ZN19QWaylandEventThread14displayConnectEv@Base 5.4.0
 _ZN19QWaylandEventThread16staticMetaObjectE@Base 5.4.0
 _ZN19QWaylandEventThread17readWaylandEventsEv@Base 5.4.0
 _ZN19QWaylandEventThread21waylandDisplayConnectEv@Base 5.4.0
 _ZN19QWaylandEventThreadC1EP7QObject@Base 5.4.0
 _ZN19QWaylandEventThreadC2EP7QObject@Base 5.4.0
 _ZN19QWaylandEventThreadD0Ev@Base 5.4.0
 _ZN19QWaylandEventThreadD1Ev@Base 5.4.0
 _ZN19QWaylandEventThreadD2Ev@Base 5.4.0
 _ZN19QWaylandInputDevice11qt_metacallEN11QMetaObject4CallEiPPv@Base 5.4.0
 _ZN19QWaylandInputDevice11qt_metacastEPKc@Base 5.4.0
 _ZN19QWaylandInputDevice13setDataDeviceEP18QWaylandDataDevice@Base 5.4.0
 _ZN19QWaylandInputDevice16handleTouchPointEiddN2Qt15TouchPointStateE@Base 5.4.0
 _ZN19QWaylandInputDevice16staticMetaObjectE@Base 5.4.0
 _ZN19QWaylandInputDevice17seat_capabilitiesEj@Base 5.4.0
 _ZN19QWaylandInputDevice21handleWindowDestroyedEP14QWaylandWindow@Base 5.4.0
 _ZN19QWaylandInputDevice26removeMouseButtonFromStateEN2Qt11MouseButtonE@Base 5.4.0
 _ZN19QWaylandInputDevice5Touch10touch_downEjjP10wl_surfaceiii@Base 5.4.0
 _ZN19QWaylandInputDevice5Touch11touch_frameEv@Base 5.4.0
 _ZN19QWaylandInputDevice5Touch12touch_cancelEv@Base 5.4.0
 _ZN19QWaylandInputDevice5Touch12touch_motionEjiii@Base 5.4.0
 _ZN19QWaylandInputDevice5Touch22allTouchPointsReleasedEv@Base 5.4.0
 _ZN19QWaylandInputDevice5Touch8touch_upEjji@Base 5.4.0
 _ZN19QWaylandInputDevice7Pointer12pointer_axisEjji@Base 5.4.0
 _ZN19QWaylandInputDevice7Pointer13pointer_enterEjP10wl_surfaceii@Base 5.4.0
 _ZN19QWaylandInputDevice7Pointer13pointer_leaveEjP10wl_surface@Base 5.4.0
 _ZN19QWaylandInputDevice7Pointer14pointer_buttonEjjjj@Base 5.4.0
 _ZN19QWaylandInputDevice7Pointer14pointer_motionEjii@Base 5.4.0
 _ZN19QWaylandInputDevice8Keyboard12keyboard_keyEjjjj@Base 5.4.0
 _ZN19QWaylandInputDevice8Keyboard13focusCallbackEPvP11wl_callbackj@Base 5.4.0
 _ZN19QWaylandInputDevice8Keyboard14keyboard_enterEjP10wl_surfaceP8wl_array@Base 5.4.0
 _ZN19QWaylandInputDevice8Keyboard14keyboard_leaveEjP10wl_surface@Base 5.4.0
 _ZN19QWaylandInputDevice8Keyboard15keyboard_keymapEjij@Base 5.4.0
 _ZN19QWaylandInputDevice8Keyboard18keyboard_modifiersEjjjjj@Base 5.4.0
 _ZN19QWaylandInputDevice8Keyboard8callbackE@Base 5.4.0
 _ZN19QWaylandInputDevice9repeatKeyEv@Base 5.4.0
 _ZN19QWaylandInputDevice9setCursorEN2Qt11CursorShapeEP14QWaylandScreen@Base 5.4.0
 _ZN19QWaylandInputDevice9setCursorEP9wl_bufferP15wl_cursor_image@Base 5.4.0
 _ZN19QWaylandInputDeviceC1EP15QWaylandDisplayij@Base 5.4.0
 _ZN19QWaylandInputDeviceC2EP15QWaylandDisplayij@Base 5.4.0
 _ZN19QWaylandInputDeviceD0Ev@Base 5.4.0
 _ZN19QWaylandInputDeviceD1Ev@Base 5.4.0
 _ZN19QWaylandInputDeviceD2Ev@Base 5.4.0
 _ZN19QWaylandIntegration10initializeEv@Base 5.4.0
 _ZN19QWaylandIntegration26initializeShellIntegrationEv@Base 5.4.0
 _ZN19QWaylandIntegration33initializeClientBufferIntegrationEv@Base 5.4.0
 _ZN19QWaylandIntegration33initializeServerBufferIntegrationEv@Base 5.4.0
 _ZN19QWaylandIntegrationC1Ev@Base 5.4.0
 _ZN19QWaylandIntegrationC2Ev@Base 5.4.0
 _ZN19QWaylandIntegrationD0Ev@Base 5.4.0
 _ZN19QWaylandIntegrationD1Ev@Base 5.4.0
 _ZN19QWaylandIntegrationD2Ev@Base 5.4.0
 _ZN20QWaylandServerBuffer11setUserDataEPv@Base 5.4.0
 _ZN20QWaylandServerBufferC1Ev@Base 5.4.0
 _ZN20QWaylandServerBufferC2Ev@Base 5.4.0
 _ZN20QWaylandServerBufferD0Ev@Base 5.4.0
 _ZN20QWaylandServerBufferD1Ev@Base 5.4.0
 _ZN20QWaylandServerBufferD2Ev@Base 5.4.0
 _ZN20QWaylandShellSurface12sendPropertyERK7QStringRK8QVariant@Base 5.4.0
 _ZN20QWaylandShellSurface14setWindowFlagsE6QFlagsIN2Qt10WindowTypeEE@Base 5.4.0
 _ZN20QWaylandShellSurfaceC1EP14QWaylandWindow@Base 5.4.0
 _ZN20QWaylandShellSurfaceC2EP14QWaylandWindow@Base 5.4.0
 _ZN22QWaylandExtendedOutputC1EP14QWaylandScreenP18qt_extended_output@Base 5.4.0
 _ZN22QWaylandExtendedOutputC2EP14QWaylandScreenP18qt_extended_output@Base 5.4.0
 _ZN22QWaylandExtendedOutputD0Ev@Base 5.4.0
 _ZN22QWaylandExtendedOutputD1Ev@Base 5.4.0
 _ZN22QWaylandExtendedOutputD2Ev@Base 5.4.0
 _ZN22QWaylandQtKeyExtension19key_extension_qtkeyEP10wl_surfacejjjjjjjRK7QStringjj@Base 5.4.0
 _ZN22QWaylandQtKeyExtensionC1EP15QWaylandDisplayj@Base 5.4.0
 _ZN22QWaylandQtKeyExtensionC2EP15QWaylandDisplayj@Base 5.4.0
 _ZN22QWaylandQtKeyExtensionD0Ev@Base 5.4.0
 _ZN22QWaylandQtKeyExtensionD1Ev@Base 5.4.0
 _ZN22QWaylandQtKeyExtensionD2Ev@Base 5.4.0
 _ZN22QWaylandTouchExtension13touchCanceledEv@Base 5.4.0
 _ZN22QWaylandTouchExtension14registerDeviceEi@Base 5.4.0
 _ZN22QWaylandTouchExtension14sendTouchEventEv@Base 5.4.0
 _ZN22QWaylandTouchExtension21touch_extension_touchEjjjiiiiiijiijP8wl_array@Base 5.4.0
 _ZN22QWaylandTouchExtension25touch_extension_configureEj@Base 5.4.0
 _ZN22QWaylandTouchExtensionC1EP15QWaylandDisplayj@Base 5.4.0
 _ZN22QWaylandTouchExtensionC2EP15QWaylandDisplayj@Base 5.4.0
 _ZN22QWaylandTouchExtensionD0Ev@Base 5.4.0
 _ZN22QWaylandTouchExtensionD1Ev@Base 5.4.0
 _ZN22QWaylandTouchExtensionD2Ev@Base 5.4.0
 _ZN22QWaylandWlShellSurface11setTopLevelEv@Base 5.4.0
 _ZN22QWaylandWlShellSurface12sendPropertyERK7QStringRK8QVariant@Base 5.4.0
 _ZN22QWaylandWlShellSurface12setMaximizedEv@Base 5.4.0
 _ZN22QWaylandWlShellSurface12setMinimizedEv@Base 5.4.0
 _ZN22QWaylandWlShellSurface13setFullscreenEv@Base 5.4.0
 _ZN22QWaylandWlShellSurface14setWindowFlagsE6QFlagsIN2Qt10WindowTypeEE@Base 5.4.0
 _ZN22QWaylandWlShellSurface18shell_surface_pingEj@Base 5.4.0
 _ZN22QWaylandWlShellSurface21updateTransientParentEP7QWindow@Base 5.4.0
 _ZN22QWaylandWlShellSurface23shell_surface_configureEjii@Base 5.4.0
 _ZN22QWaylandWlShellSurface24shell_surface_popup_doneEv@Base 5.4.0
 _ZN22QWaylandWlShellSurface25setContentOrientationMaskE6QFlagsIN2Qt17ScreenOrientationEE@Base 5.4.0
 _ZN22QWaylandWlShellSurface4moveEP19QWaylandInputDevice@Base 5.4.0
 _ZN22QWaylandWlShellSurface5lowerEv@Base 5.4.0
 _ZN22QWaylandWlShellSurface5raiseEv@Base 5.4.0
 _ZN22QWaylandWlShellSurface6resizeEP19QWaylandInputDevice23wl_shell_surface_resize@Base 5.4.0
 _ZN22QWaylandWlShellSurface8setAppIdERK7QString@Base 5.4.0
 _ZN22QWaylandWlShellSurface8setPopupEP14QWaylandWindowP19QWaylandInputDevicei@Base 5.4.0
 _ZN22QWaylandWlShellSurface8setTitleERK7QString@Base 5.4.0
 _ZN22QWaylandWlShellSurface9setNormalEv@Base 5.4.0
 _ZN22QWaylandWlShellSurfaceC1EP16wl_shell_surfaceP14QWaylandWindow@Base 5.4.0
 _ZN22QWaylandWlShellSurfaceC2EP16wl_shell_surfaceP14QWaylandWindow@Base 5.4.0
 _ZN22QWaylandWlShellSurfaceD0Ev@Base 5.4.0
 _ZN22QWaylandWlShellSurfaceD1Ev@Base 5.4.0
 _ZN22QWaylandWlShellSurfaceD2Ev@Base 5.4.0
 _ZN23QWaylandExtendedSurface14setWindowFlagsE6QFlagsIN2Qt10WindowTypeEE@Base 5.4.0
 _ZN23QWaylandExtendedSurface21updateGenericPropertyERK7QStringRK8QVariant@Base 5.4.0
 _ZN23QWaylandExtendedSurface22extended_surface_closeEv@Base 5.4.0
 _ZN23QWaylandExtendedSurface25setContentOrientationMaskE6QFlagsIN2Qt17ScreenOrientationEE@Base 5.4.0
 _ZN23QWaylandExtendedSurface36extended_surface_onscreen_visibilityEi@Base 5.4.0
 _ZN23QWaylandExtendedSurface37extended_surface_set_generic_propertyERK7QStringP8wl_array@Base 5.4.0
 _ZN23QWaylandExtendedSurfaceC1EP14QWaylandWindow@Base 5.4.0
 _ZN23QWaylandExtendedSurfaceC2EP14QWaylandWindow@Base 5.4.0
 _ZN23QWaylandExtendedSurfaceD0Ev@Base 5.4.0
 _ZN23QWaylandExtendedSurfaceD1Ev@Base 5.4.0
 _ZN23QWaylandExtendedSurfaceD2Ev@Base 5.4.0
 _ZN23QWaylandNativeInterface17setWindowPropertyEP15QPlatformWindowRK7QStringRK8QVariant@Base 5.4.0
 _ZN23QWaylandNativeInterface23nativeResourceForScreenERK10QByteArrayP7QScreen@Base 5.4.0
 _ZN23QWaylandNativeInterface23nativeResourceForWindowERK10QByteArrayP7QWindow@Base 5.4.0
 _ZN23QWaylandNativeInterface25emitWindowPropertyChangedEP15QPlatformWindowRK7QString@Base 5.4.0
 _ZN23QWaylandNativeInterface28nativeResourceForIntegrationERK10QByteArray@Base 5.4.0
 _ZN23QWaylandNativeInterfaceC1EP19QWaylandIntegration@Base 5.4.0
 _ZN23QWaylandNativeInterfaceC2EP19QWaylandIntegration@Base 5.4.0
 _ZN23QWaylandNativeInterfaceD0Ev@Base 5.4.0
 _ZN23QWaylandNativeInterfaceD1Ev@Base 5.4.0
 _ZN23QWaylandNativeInterfaceD2Ev@Base 5.4.0
 _ZN23QWaylandShmBackingStore10beginPaintERK7QRegion@Base 5.4.0
 _ZN23QWaylandShmBackingStore10ensureSizeEv@Base 5.4.0
 _ZN23QWaylandShmBackingStore11paintDeviceEv@Base 5.4.0
 _ZN23QWaylandShmBackingStore17updateDecorationsEv@Base 5.4.0
 _ZN23QWaylandShmBackingStore21frameCallbackListenerE@Base 5.4.0
 _ZN23QWaylandShmBackingStore4doneEPvP11wl_callbackj@Base 5.4.0
 _ZN23QWaylandShmBackingStore5flushEP7QWindowRK7QRegionRK6QPoint@Base 5.4.0
 _ZN23QWaylandShmBackingStore6hiddenEv@Base 5.4.0
 _ZN23QWaylandShmBackingStore6resizeERK5QSize@Base 5.4.0
 _ZN23QWaylandShmBackingStore6resizeERK5QSizeRK7QRegion@Base 5.4.0
 _ZN23QWaylandShmBackingStore8endPaintEv@Base 5.4.0
 _ZN23QWaylandShmBackingStoreC1EP7QWindow@Base 5.4.0
 _ZN23QWaylandShmBackingStoreC2EP7QWindow@Base 5.4.0
 _ZN23QWaylandShmBackingStoreD0Ev@Base 5.4.0
 _ZN23QWaylandShmBackingStoreD1Ev@Base 5.4.0
 _ZN23QWaylandShmBackingStoreD2Ev@Base 5.4.0
 _ZN24QWaylandDecorationPlugin11qt_metacallEN11QMetaObject4CallEiPPv@Base 5.4.0
 _ZN24QWaylandDecorationPlugin11qt_metacastEPKc@Base 5.4.0
 _ZN24QWaylandDecorationPlugin16staticMetaObjectE@Base 5.4.0
 _ZN24QWaylandDecorationPluginC1EP7QObject@Base 5.4.0
 _ZN24QWaylandDecorationPluginC2EP7QObject@Base 5.4.0
 _ZN24QWaylandDecorationPluginD0Ev@Base 5.4.0
 _ZN24QWaylandDecorationPluginD1Ev@Base 5.4.0
 _ZN24QWaylandDecorationPluginD2Ev@Base 5.4.0
 _ZN25QWaylandDataDeviceManager13getDataDeviceEP19QWaylandInputDevice@Base 5.4.0
 _ZN25QWaylandDataDeviceManagerC1EP15QWaylandDisplayj@Base 5.4.0
 _ZN25QWaylandDataDeviceManagerC2EP15QWaylandDisplayj@Base 5.4.0
 _ZN25QWaylandDataDeviceManagerD0Ev@Base 5.4.0
 _ZN25QWaylandDataDeviceManagerD1Ev@Base 5.4.0
 _ZN25QWaylandDataDeviceManagerD2Ev@Base 5.4.0
 _ZN25QWaylandDecorationFactory4keysERK7QString@Base 5.4.0
 _ZN25QWaylandDecorationFactory6createERK7QStringRK11QStringListS2_@Base 5.4.0
 _ZN26QWaylandAbstractDecoration11qt_metacallEN11QMetaObject4CallEiPPv@Base 5.4.0
 _ZN26QWaylandAbstractDecoration11qt_metacastEPKc@Base 5.4.0
 _ZN26QWaylandAbstractDecoration11startResizeEP19QWaylandInputDevice23wl_shell_surface_resize6QFlagsIN2Qt11MouseButtonEE@Base 5.4.0
 _ZN26QWaylandAbstractDecoration12contentImageEv@Base 5.4.0
 _ZN26QWaylandAbstractDecoration13isLeftClickedE6QFlagsIN2Qt11MouseButtonEE@Base 5.4.0
 _ZN26QWaylandAbstractDecoration14isLeftReleasedE6QFlagsIN2Qt11MouseButtonEE@Base 5.4.0
 _ZN26QWaylandAbstractDecoration15setMouseButtonsE6QFlagsIN2Qt11MouseButtonEE@Base 5.4.0
 _ZN26QWaylandAbstractDecoration16setWaylandWindowEP14QWaylandWindow@Base 5.4.0
 _ZN26QWaylandAbstractDecoration16staticMetaObjectE@Base 5.4.0
 _ZN26QWaylandAbstractDecoration6updateEv@Base 5.4.0
 _ZN26QWaylandAbstractDecoration9startMoveEP19QWaylandInputDevice6QFlagsIN2Qt11MouseButtonEE@Base 5.4.0
 _ZN26QWaylandAbstractDecorationC1Ev@Base 5.4.0
 _ZN26QWaylandAbstractDecorationC2Ev@Base 5.4.0
 _ZN26QWaylandAbstractDecorationD0Ev@Base 5.4.0
 _ZN26QWaylandAbstractDecorationD1Ev@Base 5.4.0
 _ZN26QWaylandAbstractDecorationD2Ev@Base 5.4.0
 _ZN27QEventDispatcherGlibPrivateD0Ev@Base 5.4.0
 _ZN27QEventDispatcherGlibPrivateD1Ev@Base 5.4.0
 _ZN27QEventDispatcherGlibPrivateD2Ev@Base 5.4.0
 _ZN27QWaylandHardwareIntegration23clientBufferIntegrationEv@Base 5.4.0
 _ZN27QWaylandHardwareIntegration23serverBufferIntegrationEv@Base 5.4.0
 _ZN27QWaylandHardwareIntegration35hardware_integration_client_backendERK7QString@Base 5.4.0
 _ZN27QWaylandHardwareIntegration35hardware_integration_server_backendERK7QString@Base 5.4.0
 _ZN27QWaylandHardwareIntegrationC1EP11wl_registryi@Base 5.4.0
 _ZN27QWaylandHardwareIntegrationC2EP11wl_registryi@Base 5.4.0
 _ZN27QWaylandHardwareIntegrationD0Ev@Base 5.4.0
 _ZN27QWaylandHardwareIntegrationD1Ev@Base 5.4.0
 _ZN27QWaylandHardwareIntegrationD2Ev@Base 5.4.0
 _ZN30QWaylandShellIntegrationPlugin11qt_metacallEN11QMetaObject4CallEiPPv@Base 5.4.0
 _ZN30QWaylandShellIntegrationPlugin11qt_metacastEPKc@Base 5.4.0
 _ZN30QWaylandShellIntegrationPlugin16staticMetaObjectE@Base 5.4.0
 _ZN30QWaylandShellIntegrationPluginC1EP7QObject@Base 5.4.0
 _ZN30QWaylandShellIntegrationPluginC2EP7QObject@Base 5.4.0
 _ZN30QWaylandShellIntegrationPluginD0Ev@Base 5.4.0
 _ZN30QWaylandShellIntegrationPluginD1Ev@Base 5.4.0
 _ZN30QWaylandShellIntegrationPluginD2Ev@Base 5.4.0
 _ZN31QAbstractEventDispatcherPrivateD0Ev@Base 5.4.0
 _ZN31QAbstractEventDispatcherPrivateD1Ev@Base 5.4.0
 _ZN31QAbstractEventDispatcherPrivateD2Ev@Base 5.4.0
 _ZN31QWaylandClientBufferIntegrationC1Ev@Base 5.4.0
 _ZN31QWaylandClientBufferIntegrationC2Ev@Base 5.4.0
 _ZN31QWaylandClientBufferIntegrationD0Ev@Base 5.4.0
 _ZN31QWaylandClientBufferIntegrationD1Ev@Base 5.4.0
 _ZN31QWaylandClientBufferIntegrationD2Ev@Base 5.4.0
 _ZN31QWaylandServerBufferIntegrationC1Ev@Base 5.4.0
 _ZN31QWaylandServerBufferIntegrationC2Ev@Base 5.4.0
 _ZN31QWaylandServerBufferIntegrationD0Ev@Base 5.4.0
 _ZN31QWaylandServerBufferIntegrationD1Ev@Base 5.4.0
 _ZN31QWaylandServerBufferIntegrationD2Ev@Base 5.4.0
 _ZN31QWaylandShellIntegrationFactory4keysERK7QString@Base 5.4.0
 _ZN31QWaylandShellIntegrationFactory6createERK7QStringRK11QStringListS2_@Base 5.4.0
 _ZN32QWaylandWindowManagerIntegration11qt_metacallEN11QMetaObject4CallEiPPv@Base 5.4.0
 _ZN32QWaylandWindowManagerIntegration11qt_metacastEPKc@Base 5.4.0
 _ZN32QWaylandWindowManagerIntegration12openDocumentERK4QUrl@Base 5.4.0
 _ZN32QWaylandWindowManagerIntegration14openUrl_helperERK4QUrl@Base 5.4.0
 _ZN32QWaylandWindowManagerIntegration16staticMetaObjectE@Base 5.4.0
 _ZN32QWaylandWindowManagerIntegration18windowmanager_quitEv@Base 5.4.0
 _ZN32QWaylandWindowManagerIntegration19windowmanager_hintsEi@Base 5.4.0
 _ZN32QWaylandWindowManagerIntegration22wlHandleListenerGlobalEPvP11wl_registryjRK7QStringj@Base 5.4.0
 _ZN32QWaylandWindowManagerIntegration7openUrlERK4QUrl@Base 5.4.0
 _ZN32QWaylandWindowManagerIntegrationC1EP15QWaylandDisplay@Base 5.4.0
 _ZN32QWaylandWindowManagerIntegrationC2EP15QWaylandDisplay@Base 5.4.0
 _ZN32QWaylandWindowManagerIntegrationD0Ev@Base 5.4.0
 _ZN32QWaylandWindowManagerIntegrationD1Ev@Base 5.4.0
 _ZN32QWaylandWindowManagerIntegrationD2Ev@Base 5.4.0
 _ZN37QWaylandClientBufferIntegrationPlugin11qt_metacallEN11QMetaObject4CallEiPPv@Base 5.4.0
 _ZN37QWaylandClientBufferIntegrationPlugin11qt_metacastEPKc@Base 5.4.0
 _ZN37QWaylandClientBufferIntegrationPlugin16staticMetaObjectE@Base 5.4.0
 _ZN37QWaylandClientBufferIntegrationPluginC1EP7QObject@Base 5.4.0
 _ZN37QWaylandClientBufferIntegrationPluginC2EP7QObject@Base 5.4.0
 _ZN37QWaylandClientBufferIntegrationPluginD0Ev@Base 5.4.0
 _ZN37QWaylandClientBufferIntegrationPluginD1Ev@Base 5.4.0
 _ZN37QWaylandClientBufferIntegrationPluginD2Ev@Base 5.4.0
 _ZN37QWaylandServerBufferIntegrationPlugin11qt_metacallEN11QMetaObject4CallEiPPv@Base 5.4.0
 _ZN37QWaylandServerBufferIntegrationPlugin11qt_metacastEPKc@Base 5.4.0
 _ZN37QWaylandServerBufferIntegrationPlugin16staticMetaObjectE@Base 5.4.0
 _ZN37QWaylandServerBufferIntegrationPluginC1EP7QObject@Base 5.4.0
 _ZN37QWaylandServerBufferIntegrationPluginC2EP7QObject@Base 5.4.0
 _ZN37QWaylandServerBufferIntegrationPluginD0Ev@Base 5.4.0
 _ZN37QWaylandServerBufferIntegrationPluginD1Ev@Base 5.4.0
 _ZN37QWaylandServerBufferIntegrationPluginD2Ev@Base 5.4.0
 _ZN38QWaylandClientBufferIntegrationFactory4keysERK7QString@Base 5.4.0
 _ZN38QWaylandClientBufferIntegrationFactory6createERK7QStringRK11QStringListS2_@Base 5.4.0
 _ZN38QWaylandServerBufferIntegrationFactory4keysERK7QString@Base 5.4.0
 _ZN38QWaylandServerBufferIntegrationFactory6createERK7QStringRK11QStringListS2_@Base 5.4.0
 _ZN9QtWayland10wl_pointer10set_cursorEjP10wl_surfaceii@Base 5.4.0
 _ZN9QtWayland10wl_pointer11handle_axisEPvP10wl_pointerjji@Base 5.4.0
 _ZN9QtWayland10wl_pointer12handle_enterEPvP10wl_pointerjP10wl_surfaceii@Base 5.4.0
 _ZN9QtWayland10wl_pointer12handle_leaveEPvP10wl_pointerjP10wl_surface@Base 5.4.0
 _ZN9QtWayland10wl_pointer12pointer_axisEjji@Base 5.4.0
 _ZN9QtWayland10wl_pointer13handle_buttonEPvP10wl_pointerjjjj@Base 5.4.0
 _ZN9QtWayland10wl_pointer13handle_motionEPvP10wl_pointerjii@Base 5.4.0
 _ZN9QtWayland10wl_pointer13init_listenerEv@Base 5.4.0
 _ZN9QtWayland10wl_pointer13pointer_enterEjP10wl_surfaceii@Base 5.4.0
 _ZN9QtWayland10wl_pointer13pointer_leaveEjP10wl_surface@Base 5.4.0
 _ZN9QtWayland10wl_pointer14pointer_buttonEjjjj@Base 5.4.0
 _ZN9QtWayland10wl_pointer14pointer_motionEjii@Base 5.4.0
 _ZN9QtWayland10wl_pointer21m_wl_pointer_listenerE@Base 5.4.0
 _ZN9QtWayland10wl_pointer4initEP10wl_pointer@Base 5.4.0
 _ZN9QtWayland10wl_pointer4initEP11wl_registryii@Base 5.4.0
 _ZN9QtWayland10wl_pointerC1EP10wl_pointer@Base 5.4.0
 _ZN9QtWayland10wl_pointerC1EP11wl_registryii@Base 5.4.0
 _ZN9QtWayland10wl_pointerC1Ev@Base 5.4.0
 _ZN9QtWayland10wl_pointerC2EP10wl_pointer@Base 5.4.0
 _ZN9QtWayland10wl_pointerC2EP11wl_registryii@Base 5.4.0
 _ZN9QtWayland10wl_pointerC2Ev@Base 5.4.0
 _ZN9QtWayland10wl_pointerD0Ev@Base 5.4.0
 _ZN9QtWayland10wl_pointerD1Ev@Base 5.4.0
 _ZN9QtWayland10wl_pointerD2Ev@Base 5.4.0
 _ZN9QtWayland10wl_surface12handle_enterEPvP10wl_surfaceP9wl_output@Base 5.4.0
 _ZN9QtWayland10wl_surface12handle_leaveEPvP10wl_surfaceP9wl_output@Base 5.4.0
 _ZN9QtWayland10wl_surface13init_listenerEv@Base 5.4.0
 _ZN9QtWayland10wl_surface13surface_enterEP9wl_output@Base 5.4.0
 _ZN9QtWayland10wl_surface13surface_leaveEP9wl_output@Base 5.4.0
 _ZN9QtWayland10wl_surface16set_buffer_scaleEi@Base 5.4.0
 _ZN9QtWayland10wl_surface16set_input_regionEP9wl_region@Base 5.4.0
 _ZN9QtWayland10wl_surface17set_opaque_regionEP9wl_region@Base 5.4.0
 _ZN9QtWayland10wl_surface20set_buffer_transformEi@Base 5.4.0
 _ZN9QtWayland10wl_surface21m_wl_surface_listenerE@Base 5.4.0
 _ZN9QtWayland10wl_surface4initEP10wl_surface@Base 5.4.0
 _ZN9QtWayland10wl_surface4initEP11wl_registryii@Base 5.4.0
 _ZN9QtWayland10wl_surface5frameEv@Base 5.4.0
 _ZN9QtWayland10wl_surface6attachEP9wl_bufferii@Base 5.4.0
 _ZN9QtWayland10wl_surface6commitEv@Base 5.4.0
 _ZN9QtWayland10wl_surface6damageEiiii@Base 5.4.0
 _ZN9QtWayland10wl_surface7destroyEv@Base 5.4.0
 _ZN9QtWayland10wl_surfaceC1EP10wl_surface@Base 5.4.0
 _ZN9QtWayland10wl_surfaceC1EP11wl_registryii@Base 5.4.0
 _ZN9QtWayland10wl_surfaceC1Ev@Base 5.4.0
 _ZN9QtWayland10wl_surfaceC2EP10wl_surface@Base 5.4.0
 _ZN9QtWayland10wl_surfaceC2EP11wl_registryii@Base 5.4.0
 _ZN9QtWayland10wl_surfaceC2Ev@Base 5.4.0
 _ZN9QtWayland10wl_surfaceD0Ev@Base 5.4.0
 _ZN9QtWayland10wl_surfaceD1Ev@Base 5.4.0
 _ZN9QtWayland10wl_surfaceD2Ev@Base 5.4.0
 _ZN9QtWayland11wl_callback11handle_doneEPvP11wl_callbackj@Base 5.4.0
 _ZN9QtWayland11wl_callback13callback_doneEj@Base 5.4.0
 _ZN9QtWayland11wl_callback13init_listenerEv@Base 5.4.0
 _ZN9QtWayland11wl_callback22m_wl_callback_listenerE@Base 5.4.0
 _ZN9QtWayland11wl_callback4initEP11wl_callback@Base 5.4.0
 _ZN9QtWayland11wl_callback4initEP11wl_registryii@Base 5.4.0
 _ZN9QtWayland11wl_callbackC1EP11wl_callback@Base 5.4.0
 _ZN9QtWayland11wl_callbackC1EP11wl_registryii@Base 5.4.0
 _ZN9QtWayland11wl_callbackC1Ev@Base 5.4.0
 _ZN9QtWayland11wl_callbackC2EP11wl_callback@Base 5.4.0
 _ZN9QtWayland11wl_callbackC2EP11wl_registryii@Base 5.4.0
 _ZN9QtWayland11wl_callbackC2Ev@Base 5.4.0
 _ZN9QtWayland11wl_callbackD0Ev@Base 5.4.0
 _ZN9QtWayland11wl_callbackD1Ev@Base 5.4.0
 _ZN9QtWayland11wl_callbackD2Ev@Base 5.4.0
 _ZN9QtWayland11wl_keyboard10handle_keyEPvP11wl_keyboardjjjj@Base 5.4.0
 _ZN9QtWayland11wl_keyboard12handle_enterEPvP11wl_keyboardjP10wl_surfaceP8wl_array@Base 5.4.0
 _ZN9QtWayland11wl_keyboard12handle_leaveEPvP11wl_keyboardjP10wl_surface@Base 5.4.0
 _ZN9QtWayland11wl_keyboard12keyboard_keyEjjjj@Base 5.4.0
 _ZN9QtWayland11wl_keyboard13handle_keymapEPvP11wl_keyboardjij@Base 5.4.0
 _ZN9QtWayland11wl_keyboard13init_listenerEv@Base 5.4.0
 _ZN9QtWayland11wl_keyboard14keyboard_enterEjP10wl_surfaceP8wl_array@Base 5.4.0
 _ZN9QtWayland11wl_keyboard14keyboard_leaveEjP10wl_surface@Base 5.4.0
 _ZN9QtWayland11wl_keyboard15keyboard_keymapEjij@Base 5.4.0
 _ZN9QtWayland11wl_keyboard16handle_modifiersEPvP11wl_keyboardjjjjj@Base 5.4.0
 _ZN9QtWayland11wl_keyboard18keyboard_modifiersEjjjjj@Base 5.4.0
 _ZN9QtWayland11wl_keyboard22m_wl_keyboard_listenerE@Base 5.4.0
 _ZN9QtWayland11wl_keyboard4initEP11wl_keyboard@Base 5.4.0
 _ZN9QtWayland11wl_keyboard4initEP11wl_registryii@Base 5.4.0
 _ZN9QtWayland11wl_keyboardC1EP11wl_keyboard@Base 5.4.0
 _ZN9QtWayland11wl_keyboardC1EP11wl_registryii@Base 5.4.0
 _ZN9QtWayland11wl_keyboardC1Ev@Base 5.4.0
 _ZN9QtWayland11wl_keyboardC2EP11wl_keyboard@Base 5.4.0
 _ZN9QtWayland11wl_keyboardC2EP11wl_registryii@Base 5.4.0
 _ZN9QtWayland11wl_keyboardC2Ev@Base 5.4.0
 _ZN9QtWayland11wl_keyboardD0Ev@Base 5.4.0
 _ZN9QtWayland11wl_keyboardD1Ev@Base 5.4.0
 _ZN9QtWayland11wl_keyboardD2Ev@Base 5.4.0
 _ZN9QtWayland11wl_registry13handle_globalEPvP11wl_registryjPKcj@Base 5.4.0
 _ZN9QtWayland11wl_registry13init_listenerEv@Base 5.4.0
 _ZN9QtWayland11wl_registry15registry_globalEjRK7QStringj@Base 5.4.0
 _ZN9QtWayland11wl_registry20handle_global_removeEPvP11wl_registryj@Base 5.4.0
 _ZN9QtWayland11wl_registry22m_wl_registry_listenerE@Base 5.4.0
 _ZN9QtWayland11wl_registry22registry_global_removeEj@Base 5.4.0
 _ZN9QtWayland11wl_registry4bindEjPK12wl_interfacej@Base 5.4.0
 _ZN9QtWayland11wl_registry4initEP11wl_registry@Base 5.4.0
 _ZN9QtWayland11wl_registry4initEP11wl_registryii@Base 5.4.0
 _ZN9QtWayland11wl_registryC1EP11wl_registry@Base 5.4.0
 _ZN9QtWayland11wl_registryC1EP11wl_registryii@Base 5.4.0
 _ZN9QtWayland11wl_registryC1Ev@Base 5.4.0
 _ZN9QtWayland11wl_registryC2EP11wl_registry@Base 5.4.0
 _ZN9QtWayland11wl_registryC2EP11wl_registryii@Base 5.4.0
 _ZN9QtWayland11wl_registryC2Ev@Base 5.4.0
 _ZN9QtWayland11wl_registryD0Ev@Base 5.4.0
 _ZN9QtWayland11wl_registryD1Ev@Base 5.4.0
 _ZN9QtWayland11wl_registryD2Ev@Base 5.4.0
 _ZN9QtWayland11wl_shm_pool13create_bufferEiiiij@Base 5.4.0
 _ZN9QtWayland11wl_shm_pool4initEP11wl_registryii@Base 5.4.0
 _ZN9QtWayland11wl_shm_pool4initEP11wl_shm_pool@Base 5.4.0
 _ZN9QtWayland11wl_shm_pool6resizeEi@Base 5.4.0
 _ZN9QtWayland11wl_shm_pool7destroyEv@Base 5.4.0
 _ZN9QtWayland11wl_shm_poolC1EP11wl_registryii@Base 5.4.0
 _ZN9QtWayland11wl_shm_poolC1EP11wl_shm_pool@Base 5.4.0
 _ZN9QtWayland11wl_shm_poolC1Ev@Base 5.4.0
 _ZN9QtWayland11wl_shm_poolC2EP11wl_registryii@Base 5.4.0
 _ZN9QtWayland11wl_shm_poolC2EP11wl_shm_pool@Base 5.4.0
 _ZN9QtWayland11wl_shm_poolC2Ev@Base 5.4.0
 _ZN9QtWayland11wl_shm_poolD0Ev@Base 5.4.0
 _ZN9QtWayland11wl_shm_poolD1Ev@Base 5.4.0
 _ZN9QtWayland11wl_shm_poolD2Ev@Base 5.4.0
 _ZN9QtWayland11xdg_surface10set_app_idERK7QString@Base 5.4.0
 _ZN9QtWayland11xdg_surface10set_marginEiiii@Base 5.4.0
 _ZN9QtWayland11xdg_surface10set_outputEP9wl_output@Base 5.4.0
 _ZN9QtWayland11xdg_surface12handle_closeEPvP11xdg_surface@Base 5.4.0
 _ZN9QtWayland11xdg_surface13init_listenerEv@Base 5.4.0
 _ZN9QtWayland11xdg_surface13set_minimizedEv@Base 5.4.0
 _ZN9QtWayland11xdg_surface16ack_change_stateEjjj@Base 5.4.0
 _ZN9QtWayland11xdg_surface16handle_activatedEPvP11xdg_surface@Base 5.4.0
 _ZN9QtWayland11xdg_surface16handle_configureEPvP11xdg_surfaceii@Base 5.4.0
 _ZN9QtWayland11xdg_surface17set_transient_forEP10wl_surface@Base 5.4.0
 _ZN9QtWayland11xdg_surface17xdg_surface_closeEv@Base 5.4.0
 _ZN9QtWayland11xdg_surface18handle_deactivatedEPvP11xdg_surface@Base 5.4.0
 _ZN9QtWayland11xdg_surface19handle_change_stateEPvP11xdg_surfacejjj@Base 5.4.0
 _ZN9QtWayland11xdg_surface20request_change_stateEjjj@Base 5.4.0
 _ZN9QtWayland11xdg_surface21xdg_surface_activatedEv@Base 5.4.0
 _ZN9QtWayland11xdg_surface21xdg_surface_configureEii@Base 5.4.0
 _ZN9QtWayland11xdg_surface22m_xdg_surface_listenerE@Base 5.4.0
 _ZN9QtWayland11xdg_surface23xdg_surface_deactivatedEv@Base 5.4.0
 _ZN9QtWayland11xdg_surface24xdg_surface_change_stateEjjj@Base 5.4.0
 _ZN9QtWayland11xdg_surface4initEP11wl_registryii@Base 5.4.0
 _ZN9QtWayland11xdg_surface4initEP11xdg_surface@Base 5.4.0
 _ZN9QtWayland11xdg_surface4moveEP7wl_seatj@Base 5.4.0
 _ZN9QtWayland11xdg_surface6resizeEP7wl_seatjj@Base 5.4.0
 _ZN9QtWayland11xdg_surface7destroyEv@Base 5.4.0
 _ZN9QtWayland11xdg_surface9set_titleERK7QString@Base 5.4.0
 _ZN9QtWayland11xdg_surfaceC1EP11wl_registryii@Base 5.4.0
 _ZN9QtWayland11xdg_surfaceC1EP11xdg_surface@Base 5.4.0
 _ZN9QtWayland11xdg_surfaceC1Ev@Base 5.4.0
 _ZN9QtWayland11xdg_surfaceC2EP11wl_registryii@Base 5.4.0
 _ZN9QtWayland11xdg_surfaceC2EP11xdg_surface@Base 5.4.0
 _ZN9QtWayland11xdg_surfaceC2Ev@Base 5.4.0
 _ZN9QtWayland11xdg_surfaceD0Ev@Base 5.4.0
 _ZN9QtWayland11xdg_surfaceD1Ev@Base 5.4.0
 _ZN9QtWayland11xdg_surfaceD2Ev@Base 5.4.0
 _ZN9QtWayland13wl_compositor13create_regionEv@Base 5.4.0
 _ZN9QtWayland13wl_compositor14create_surfaceEv@Base 5.4.0
 _ZN9QtWayland13wl_compositor4initEP11wl_registryii@Base 5.4.0
 _ZN9QtWayland13wl_compositor4initEP13wl_compositor@Base 5.4.0
 _ZN9QtWayland13wl_compositorC1EP11wl_registryii@Base 5.4.0
 _ZN9QtWayland13wl_compositorC1EP13wl_compositor@Base 5.4.0
 _ZN9QtWayland13wl_compositorC1Ev@Base 5.4.0
 _ZN9QtWayland13wl_compositorC2EP11wl_registryii@Base 5.4.0
 _ZN9QtWayland13wl_compositorC2EP13wl_compositor@Base 5.4.0
 _ZN9QtWayland13wl_compositorC2Ev@Base 5.4.0
 _ZN9QtWayland13wl_compositorD0Ev@Base 5.4.0
 _ZN9QtWayland13wl_compositorD1Ev@Base 5.4.0
 _ZN9QtWayland13wl_compositorD2Ev@Base 5.4.0
 _ZN9QtWayland13wl_data_offer12handle_offerEPvP13wl_data_offerPKc@Base 5.4.0
 _ZN9QtWayland13wl_data_offer13init_listenerEv@Base 5.4.0
 _ZN9QtWayland13wl_data_offer16data_offer_offerERK7QString@Base 5.4.0
 _ZN9QtWayland13wl_data_offer24m_wl_data_offer_listenerE@Base 5.4.0
 _ZN9QtWayland13wl_data_offer4initEP11wl_registryii@Base 5.4.0
 _ZN9QtWayland13wl_data_offer4initEP13wl_data_offer@Base 5.4.0
 _ZN9QtWayland13wl_data_offer6acceptEjRK7QString@Base 5.4.0
 _ZN9QtWayland13wl_data_offer7destroyEv@Base 5.4.0
 _ZN9QtWayland13wl_data_offer7receiveERK7QStringi@Base 5.4.0
 _ZN9QtWayland13wl_data_offerC1EP11wl_registryii@Base 5.4.0
 _ZN9QtWayland13wl_data_offerC1EP13wl_data_offer@Base 5.4.0
 _ZN9QtWayland13wl_data_offerC1Ev@Base 5.4.0
 _ZN9QtWayland13wl_data_offerC2EP11wl_registryii@Base 5.4.0
 _ZN9QtWayland13wl_data_offerC2EP13wl_data_offer@Base 5.4.0
 _ZN9QtWayland13wl_data_offerC2Ev@Base 5.4.0
 _ZN9QtWayland13wl_data_offerD0Ev@Base 5.4.0
 _ZN9QtWayland13wl_data_offerD1Ev@Base 5.4.0
 _ZN9QtWayland13wl_data_offerD2Ev@Base 5.4.0
 _ZN9QtWayland13wl_text_input10deactivateEP7wl_seat@Base 5.4.0
 _ZN9QtWayland13wl_text_input12commit_stateEj@Base 5.4.0
 _ZN9QtWayland13wl_text_input12handle_enterEPvP13wl_text_inputP10wl_surface@Base 5.4.0
 _ZN9QtWayland13wl_text_input12handle_leaveEPvP13wl_text_input@Base 5.4.0
 _ZN9QtWayland13wl_text_input13handle_keysymEPvP13wl_text_inputjjjjj@Base 5.4.0
 _ZN9QtWayland13wl_text_input13init_listenerEv@Base 5.4.0
 _ZN9QtWayland13wl_text_input13invoke_actionEjj@Base 5.4.0
 _ZN9QtWayland13wl_text_input15handle_languageEPvP13wl_text_inputjPKc@Base 5.4.0
 _ZN9QtWayland13wl_text_input16hide_input_panelEv@Base 5.4.0
 _ZN9QtWayland13wl_text_input16set_content_typeEjj@Base 5.4.0
 _ZN9QtWayland13wl_text_input16show_input_panelEv@Base 5.4.0
 _ZN9QtWayland13wl_text_input16text_input_enterEP10wl_surface@Base 5.4.0
 _ZN9QtWayland13wl_text_input16text_input_leaveEv@Base 5.4.0
 _ZN9QtWayland13wl_text_input17text_input_keysymEjjjjj@Base 5.4.0
 _ZN9QtWayland13wl_text_input19text_input_languageEjRK7QString@Base 5.4.0
 _ZN9QtWayland13wl_text_input20handle_commit_stringEPvP13wl_text_inputjPKc@Base 5.4.0
 _ZN9QtWayland13wl_text_input20handle_modifiers_mapEPvP13wl_text_inputP8wl_array@Base 5.4.0
 _ZN9QtWayland13wl_text_input20set_cursor_rectangleEiiii@Base 5.4.0
 _ZN9QtWayland13wl_text_input20set_surrounding_textERK7QStringjj@Base 5.4.0
 _ZN9QtWayland13wl_text_input21handle_preedit_cursorEPvP13wl_text_inputi@Base 5.4.0
 _ZN9QtWayland13wl_text_input21handle_preedit_stringEPvP13wl_text_inputjPKcS5_@Base 5.4.0
 _ZN9QtWayland13wl_text_input21handle_text_directionEPvP13wl_text_inputjj@Base 5.4.0
 _ZN9QtWayland13wl_text_input22handle_cursor_positionEPvP13wl_text_inputii@Base 5.4.0
 _ZN9QtWayland13wl_text_input22handle_preedit_stylingEPvP13wl_text_inputjjj@Base 5.4.0
 _ZN9QtWayland13wl_text_input22set_preferred_languageERK7QString@Base 5.4.0
 _ZN9QtWayland13wl_text_input24handle_input_panel_stateEPvP13wl_text_inputj@Base 5.4.0
 _ZN9QtWayland13wl_text_input24m_wl_text_input_listenerE@Base 5.4.0
 _ZN9QtWayland13wl_text_input24text_input_commit_stringEjRK7QString@Base 5.4.0
 _ZN9QtWayland13wl_text_input24text_input_modifiers_mapEP8wl_array@Base 5.4.0
 _ZN9QtWayland13wl_text_input25text_input_preedit_cursorEi@Base 5.4.0
 _ZN9QtWayland13wl_text_input25text_input_preedit_stringEjRK7QStringS3_@Base 5.4.0
 _ZN9QtWayland13wl_text_input25text_input_text_directionEjj@Base 5.4.0
 _ZN9QtWayland13wl_text_input26text_input_cursor_positionEii@Base 5.4.0
 _ZN9QtWayland13wl_text_input26text_input_preedit_stylingEjjj@Base 5.4.0
 _ZN9QtWayland13wl_text_input28text_input_input_panel_stateEj@Base 5.4.0
 _ZN9QtWayland13wl_text_input30handle_delete_surrounding_textEPvP13wl_text_inputij@Base 5.4.0
 _ZN9QtWayland13wl_text_input34text_input_delete_surrounding_textEij@Base 5.4.0
 _ZN9QtWayland13wl_text_input4initEP11wl_registryii@Base 5.4.0
 _ZN9QtWayland13wl_text_input4initEP13wl_text_input@Base 5.4.0
 _ZN9QtWayland13wl_text_input5resetEv@Base 5.4.0
 _ZN9QtWayland13wl_text_input8activateEP7wl_seatP10wl_surface@Base 5.4.0
 _ZN9QtWayland13wl_text_inputC1EP11wl_registryii@Base 5.4.0
 _ZN9QtWayland13wl_text_inputC1EP13wl_text_input@Base 5.4.0
 _ZN9QtWayland13wl_text_inputC1Ev@Base 5.4.0
 _ZN9QtWayland13wl_text_inputC2EP11wl_registryii@Base 5.4.0
 _ZN9QtWayland13wl_text_inputC2EP13wl_text_input@Base 5.4.0
 _ZN9QtWayland13wl_text_inputC2Ev@Base 5.4.0
 _ZN9QtWayland13wl_text_inputD0Ev@Base 5.4.0
 _ZN9QtWayland13wl_text_inputD1Ev@Base 5.4.0
 _ZN9QtWayland13wl_text_inputD2Ev@Base 5.4.0
 _ZN9QtWayland14qt_sub_surface16move_sub_surfaceEP14qt_sub_surfaceii@Base 5.4.0
 _ZN9QtWayland14qt_sub_surface18attach_sub_surfaceEP14qt_sub_surfaceii@Base 5.4.0
 _ZN9QtWayland14qt_sub_surface4initEP11wl_registryii@Base 5.4.0
 _ZN9QtWayland14qt_sub_surface4initEP14qt_sub_surface@Base 5.4.0
 _ZN9QtWayland14qt_sub_surface5lowerEP14qt_sub_surface@Base 5.4.0
 _ZN9QtWayland14qt_sub_surface5raiseEP14qt_sub_surface@Base 5.4.0
 _ZN9QtWayland14qt_sub_surfaceC1EP11wl_registryii@Base 5.4.0
 _ZN9QtWayland14qt_sub_surfaceC1EP14qt_sub_surface@Base 5.4.0
 _ZN9QtWayland14qt_sub_surfaceC1Ev@Base 5.4.0
 _ZN9QtWayland14qt_sub_surfaceC2EP11wl_registryii@Base 5.4.0
 _ZN9QtWayland14qt_sub_surfaceC2EP14qt_sub_surface@Base 5.4.0
 _ZN9QtWayland14qt_sub_surfaceC2Ev@Base 5.4.0
 _ZN9QtWayland14qt_sub_surfaceD0Ev@Base 5.4.0
 _ZN9QtWayland14qt_sub_surfaceD1Ev@Base 5.4.0
 _ZN9QtWayland14qt_sub_surfaceD2Ev@Base 5.4.0
 _ZN9QtWayland14wl_data_device10start_dragEP14wl_data_sourceP10wl_surfaceS4_j@Base 5.4.0
 _ZN9QtWayland14wl_data_device11handle_dropEPvP14wl_data_device@Base 5.4.0
 _ZN9QtWayland14wl_data_device12handle_enterEPvP14wl_data_devicejP10wl_surfaceiiP13wl_data_offer@Base 5.4.0
 _ZN9QtWayland14wl_data_device12handle_leaveEPvP14wl_data_device@Base 5.4.0
 _ZN9QtWayland14wl_data_device13handle_motionEPvP14wl_data_devicejii@Base 5.4.0
 _ZN9QtWayland14wl_data_device13init_listenerEv@Base 5.4.0
 _ZN9QtWayland14wl_data_device13set_selectionEP14wl_data_sourcej@Base 5.4.0
 _ZN9QtWayland14wl_data_device16data_device_dropEv@Base 5.4.0
 _ZN9QtWayland14wl_data_device16handle_selectionEPvP14wl_data_deviceP13wl_data_offer@Base 5.4.0
 _ZN9QtWayland14wl_data_device17data_device_enterEjP10wl_surfaceiiP13wl_data_offer@Base 5.4.0
 _ZN9QtWayland14wl_data_device17data_device_leaveEv@Base 5.4.0
 _ZN9QtWayland14wl_data_device17handle_data_offerEPvP14wl_data_deviceP13wl_data_offer@Base 5.4.0
 _ZN9QtWayland14wl_data_device18data_device_motionEjii@Base 5.4.0
 _ZN9QtWayland14wl_data_device21data_device_selectionEP13wl_data_offer@Base 5.4.0
 _ZN9QtWayland14wl_data_device22data_device_data_offerEP13wl_data_offer@Base 5.4.0
 _ZN9QtWayland14wl_data_device25m_wl_data_device_listenerE@Base 5.4.0
 _ZN9QtWayland14wl_data_device4initEP11wl_registryii@Base 5.4.0
 _ZN9QtWayland14wl_data_device4initEP14wl_data_device@Base 5.4.0
 _ZN9QtWayland14wl_data_deviceC1EP11wl_registryii@Base 5.4.0
 _ZN9QtWayland14wl_data_deviceC1EP14wl_data_device@Base 5.4.0
 _ZN9QtWayland14wl_data_deviceC1Ev@Base 5.4.0
 _ZN9QtWayland14wl_data_deviceC2EP11wl_registryii@Base 5.4.0
 _ZN9QtWayland14wl_data_deviceC2EP14wl_data_device@Base 5.4.0
 _ZN9QtWayland14wl_data_deviceC2Ev@Base 5.4.0
 _ZN9QtWayland14wl_data_deviceD0Ev@Base 5.4.0
 _ZN9QtWayland14wl_data_deviceD1Ev@Base 5.4.0
 _ZN9QtWayland14wl_data_deviceD2Ev@Base 5.4.0
 _ZN9QtWayland14wl_data_source11handle_sendEPvP14wl_data_sourcePKci@Base 5.4.0
 _ZN9QtWayland14wl_data_source13handle_targetEPvP14wl_data_sourcePKc@Base 5.4.0
 _ZN9QtWayland14wl_data_source13init_listenerEv@Base 5.4.0
 _ZN9QtWayland14wl_data_source16data_source_sendERK7QStringi@Base 5.4.0
 _ZN9QtWayland14wl_data_source16handle_cancelledEPvP14wl_data_source@Base 5.4.0
 _ZN9QtWayland14wl_data_source18data_source_targetERK7QString@Base 5.4.0
 _ZN9QtWayland14wl_data_source21data_source_cancelledEv@Base 5.4.0
 _ZN9QtWayland14wl_data_source25m_wl_data_source_listenerE@Base 5.4.0
 _ZN9QtWayland14wl_data_source4initEP11wl_registryii@Base 5.4.0
 _ZN9QtWayland14wl_data_source4initEP14wl_data_source@Base 5.4.0
 _ZN9QtWayland14wl_data_source5offerERK7QString@Base 5.4.0
 _ZN9QtWayland14wl_data_source7destroyEv@Base 5.4.0
 _ZN9QtWayland14wl_data_sourceC1EP11wl_registryii@Base 5.4.0
 _ZN9QtWayland14wl_data_sourceC1EP14wl_data_source@Base 5.4.0
 _ZN9QtWayland14wl_data_sourceC1Ev@Base 5.4.0
 _ZN9QtWayland14wl_data_sourceC2EP11wl_registryii@Base 5.4.0
 _ZN9QtWayland14wl_data_sourceC2EP14wl_data_source@Base 5.4.0
 _ZN9QtWayland14wl_data_sourceC2Ev@Base 5.4.0
 _ZN9QtWayland14wl_data_sourceD0Ev@Base 5.4.0
 _ZN9QtWayland14wl_data_sourceD1Ev@Base 5.4.0
 _ZN9QtWayland14wl_data_sourceD2Ev@Base 5.4.0
 _ZN9QtWayland16qt_key_extension12handle_qtkeyEPvP16qt_key_extensionP10wl_surfacejjjjjjjPKcjj@Base 5.4.0
 _ZN9QtWayland16qt_key_extension13init_listenerEv@Base 5.4.0
 _ZN9QtWayland16qt_key_extension19key_extension_qtkeyEP10wl_surfacejjjjjjjRK7QStringjj@Base 5.4.0
 _ZN9QtWayland16qt_key_extension27m_qt_key_extension_listenerE@Base 5.4.0
 _ZN9QtWayland16qt_key_extension4initEP11wl_registryii@Base 5.4.0
 _ZN9QtWayland16qt_key_extension4initEP16qt_key_extension@Base 5.4.0
 _ZN9QtWayland16qt_key_extension5dummyEv@Base 5.4.0
 _ZN9QtWayland16qt_key_extensionC1EP11wl_registryii@Base 5.4.0
 _ZN9QtWayland16qt_key_extensionC1EP16qt_key_extension@Base 5.4.0
 _ZN9QtWayland16qt_key_extensionC1Ev@Base 5.4.0
 _ZN9QtWayland16qt_key_extensionC2EP11wl_registryii@Base 5.4.0
 _ZN9QtWayland16qt_key_extensionC2EP16qt_key_extension@Base 5.4.0
 _ZN9QtWayland16qt_key_extensionC2Ev@Base 5.4.0
 _ZN9QtWayland16qt_key_extensionD0Ev@Base 5.4.0
 _ZN9QtWayland16qt_key_extensionD1Ev@Base 5.4.0
 _ZN9QtWayland16qt_key_extensionD2Ev@Base 5.4.0
 _ZN9QtWayland16qt_server_buffer4initEP11wl_registryii@Base 5.4.0
 _ZN9QtWayland16qt_server_buffer4initEP16qt_server_buffer@Base 5.4.0
 _ZN9QtWayland16qt_server_buffer7releaseEv@Base 5.4.0
 _ZN9QtWayland16qt_server_bufferC1EP11wl_registryii@Base 5.4.0
 _ZN9QtWayland16qt_server_bufferC1EP16qt_server_buffer@Base 5.4.0
 _ZN9QtWayland16qt_server_bufferC1Ev@Base 5.4.0
 _ZN9QtWayland16qt_server_bufferC2EP11wl_registryii@Base 5.4.0
 _ZN9QtWayland16qt_server_bufferC2EP16qt_server_buffer@Base 5.4.0
 _ZN9QtWayland16qt_server_bufferC2Ev@Base 5.4.0
 _ZN9QtWayland16qt_server_bufferD0Ev@Base 5.4.0
 _ZN9QtWayland16qt_server_bufferD1Ev@Base 5.4.0
 _ZN9QtWayland16qt_server_bufferD2Ev@Base 5.4.0
 _ZN9QtWayland16qt_windowmanager11handle_quitEPvP16qt_windowmanager@Base 5.4.0
 _ZN9QtWayland16qt_windowmanager12handle_hintsEPvP16qt_windowmanageri@Base 5.4.0
 _ZN9QtWayland16qt_windowmanager13init_listenerEv@Base 5.4.0
 _ZN9QtWayland16qt_windowmanager18windowmanager_quitEv@Base 5.4.0
 _ZN9QtWayland16qt_windowmanager19windowmanager_hintsEi@Base 5.4.0
 _ZN9QtWayland16qt_windowmanager27m_qt_windowmanager_listenerE@Base 5.4.0
 _ZN9QtWayland16qt_windowmanager4initEP11wl_registryii@Base 5.4.0
 _ZN9QtWayland16qt_windowmanager4initEP16qt_windowmanager@Base 5.4.0
 _ZN9QtWayland16qt_windowmanager8open_urlEjRK7QString@Base 5.4.0
 _ZN9QtWayland16qt_windowmanagerC1EP11wl_registryii@Base 5.4.0
 _ZN9QtWayland16qt_windowmanagerC1EP16qt_windowmanager@Base 5.4.0
 _ZN9QtWayland16qt_windowmanagerC1Ev@Base 5.4.0
 _ZN9QtWayland16qt_windowmanagerC2EP11wl_registryii@Base 5.4.0
 _ZN9QtWayland16qt_windowmanagerC2EP16qt_windowmanager@Base 5.4.0
 _ZN9QtWayland16qt_windowmanagerC2Ev@Base 5.4.0
 _ZN9QtWayland16qt_windowmanagerD0Ev@Base 5.4.0
 _ZN9QtWayland16qt_windowmanagerD1Ev@Base 5.4.0
 _ZN9QtWayland16qt_windowmanagerD2Ev@Base 5.4.0
 _ZN9QtWayland16wl_shell_surface11handle_pingEPvP16wl_shell_surfacej@Base 5.4.0
 _ZN9QtWayland16wl_shell_surface12set_toplevelEv@Base 5.4.0
 _ZN9QtWayland16wl_shell_surface13init_listenerEv@Base 5.4.0
 _ZN9QtWayland16wl_shell_surface13set_maximizedEP9wl_output@Base 5.4.0
 _ZN9QtWayland16wl_shell_surface13set_transientEP10wl_surfaceiij@Base 5.4.0
 _ZN9QtWayland16wl_shell_surface14set_fullscreenEjjP9wl_output@Base 5.4.0
 _ZN9QtWayland16wl_shell_surface16handle_configureEPvP16wl_shell_surfacejii@Base 5.4.0
 _ZN9QtWayland16wl_shell_surface17handle_popup_doneEPvP16wl_shell_surface@Base 5.4.0
 _ZN9QtWayland16wl_shell_surface18shell_surface_pingEj@Base 5.4.0
 _ZN9QtWayland16wl_shell_surface23shell_surface_configureEjii@Base 5.4.0
 _ZN9QtWayland16wl_shell_surface24shell_surface_popup_doneEv@Base 5.4.0
 _ZN9QtWayland16wl_shell_surface27m_wl_shell_surface_listenerE@Base 5.4.0
 _ZN9QtWayland16wl_shell_surface4initEP11wl_registryii@Base 5.4.0
 _ZN9QtWayland16wl_shell_surface4initEP16wl_shell_surface@Base 5.4.0
 _ZN9QtWayland16wl_shell_surface4moveEP7wl_seatj@Base 5.4.0
 _ZN9QtWayland16wl_shell_surface4pongEj@Base 5.4.0
 _ZN9QtWayland16wl_shell_surface6resizeEP7wl_seatjj@Base 5.4.0
 _ZN9QtWayland16wl_shell_surface9set_classERK7QString@Base 5.4.0
 _ZN9QtWayland16wl_shell_surface9set_popupEP7wl_seatjP10wl_surfaceiij@Base 5.4.0
 _ZN9QtWayland16wl_shell_surface9set_titleERK7QString@Base 5.4.0
 _ZN9QtWayland16wl_shell_surfaceC1EP11wl_registryii@Base 5.4.0
 _ZN9QtWayland16wl_shell_surfaceC1EP16wl_shell_surface@Base 5.4.0
 _ZN9QtWayland16wl_shell_surfaceC1Ev@Base 5.4.0
 _ZN9QtWayland16wl_shell_surfaceC2EP11wl_registryii@Base 5.4.0
 _ZN9QtWayland16wl_shell_surfaceC2EP16wl_shell_surface@Base 5.4.0
 _ZN9QtWayland16wl_shell_surfaceC2Ev@Base 5.4.0
 _ZN9QtWayland16wl_shell_surfaceD0Ev@Base 5.4.0
 _ZN9QtWayland16wl_shell_surfaceD1Ev@Base 5.4.0
 _ZN9QtWayland16wl_shell_surfaceD2Ev@Base 5.4.0
 _ZN9QtWayland18qt_extended_output4initEP11wl_registryii@Base 5.4.0
 _ZN9QtWayland18qt_extended_output4initEP18qt_extended_output@Base 5.4.0
 _ZN9QtWayland18qt_extended_outputC1EP11wl_registryii@Base 5.4.0
 _ZN9QtWayland18qt_extended_outputC1EP18qt_extended_output@Base 5.4.0
 _ZN9QtWayland18qt_extended_outputC1Ev@Base 5.4.0
 _ZN9QtWayland18qt_extended_outputC2EP11wl_registryii@Base 5.4.0
 _ZN9QtWayland18qt_extended_outputC2EP18qt_extended_output@Base 5.4.0
 _ZN9QtWayland18qt_extended_outputC2Ev@Base 5.4.0
 _ZN9QtWayland18qt_extended_outputD0Ev@Base 5.4.0
 _ZN9QtWayland18qt_extended_outputD1Ev@Base 5.4.0
 _ZN9QtWayland18qt_extended_outputD2Ev@Base 5.4.0
 _ZN9QtWayland18qt_touch_extension12handle_touchEPvP18qt_touch_extensionjjjiiiiiijiijP8wl_array@Base 5.4.0
 _ZN9QtWayland18qt_touch_extension13init_listenerEv@Base 5.4.0
 _ZN9QtWayland18qt_touch_extension16handle_configureEPvP18qt_touch_extensionj@Base 5.4.0
 _ZN9QtWayland18qt_touch_extension21touch_extension_touchEjjjiiiiiijiijP8wl_array@Base 5.4.0
 _ZN9QtWayland18qt_touch_extension25touch_extension_configureEj@Base 5.4.0
 _ZN9QtWayland18qt_touch_extension29m_qt_touch_extension_listenerE@Base 5.4.0
 _ZN9QtWayland18qt_touch_extension4initEP11wl_registryii@Base 5.4.0
 _ZN9QtWayland18qt_touch_extension4initEP18qt_touch_extension@Base 5.4.0
 _ZN9QtWayland18qt_touch_extension5dummyEv@Base 5.4.0
 _ZN9QtWayland18qt_touch_extensionC1EP11wl_registryii@Base 5.4.0
 _ZN9QtWayland18qt_touch_extensionC1EP18qt_touch_extension@Base 5.4.0
 _ZN9QtWayland18qt_touch_extensionC1Ev@Base 5.4.0
 _ZN9QtWayland18qt_touch_extensionC2EP11wl_registryii@Base 5.4.0
 _ZN9QtWayland18qt_touch_extensionC2EP18qt_touch_extension@Base 5.4.0
 _ZN9QtWayland18qt_touch_extensionC2Ev@Base 5.4.0
 _ZN9QtWayland18qt_touch_extensionD0Ev@Base 5.4.0
 _ZN9QtWayland18qt_touch_extensionD1Ev@Base 5.4.0
 _ZN9QtWayland18qt_touch_extensionD2Ev@Base 5.4.0
 _ZN9QtWayland19qt_extended_surface12handle_closeEPvP19qt_extended_surface@Base 5.4.0
 _ZN9QtWayland19qt_extended_surface13init_listenerEv@Base 5.4.0
 _ZN9QtWayland19qt_extended_surface16set_window_flagsEi@Base 5.4.0
 _ZN9QtWayland19qt_extended_surface22extended_surface_closeEv@Base 5.4.0
 _ZN9QtWayland19qt_extended_surface23update_generic_propertyERK7QStringRK10QByteArray@Base 5.4.0
 _ZN9QtWayland19qt_extended_surface26handle_onscreen_visibilityEPvP19qt_extended_surfacei@Base 5.4.0
 _ZN9QtWayland19qt_extended_surface27handle_set_generic_propertyEPvP19qt_extended_surfacePKcP8wl_array@Base 5.4.0
 _ZN9QtWayland19qt_extended_surface28set_content_orientation_maskEi@Base 5.4.0
 _ZN9QtWayland19qt_extended_surface30m_qt_extended_surface_listenerE@Base 5.4.0
 _ZN9QtWayland19qt_extended_surface36extended_surface_onscreen_visibilityEi@Base 5.4.0
 _ZN9QtWayland19qt_extended_surface37extended_surface_set_generic_propertyERK7QStringP8wl_array@Base 5.4.0
 _ZN9QtWayland19qt_extended_surface4initEP11wl_registryii@Base 5.4.0
 _ZN9QtWayland19qt_extended_surface4initEP19qt_extended_surface@Base 5.4.0
 _ZN9QtWayland19qt_extended_surface5lowerEv@Base 5.4.0
 _ZN9QtWayland19qt_extended_surface5raiseEv@Base 5.4.0
 _ZN9QtWayland19qt_extended_surfaceC1EP11wl_registryii@Base 5.4.0
 _ZN9QtWayland19qt_extended_surfaceC1EP19qt_extended_surface@Base 5.4.0
 _ZN9QtWayland19qt_extended_surfaceC1Ev@Base 5.4.0
 _ZN9QtWayland19qt_extended_surfaceC2EP11wl_registryii@Base 5.4.0
 _ZN9QtWayland19qt_extended_surfaceC2EP19qt_extended_surface@Base 5.4.0
 _ZN9QtWayland19qt_extended_surfaceC2Ev@Base 5.4.0
 _ZN9QtWayland19qt_extended_surfaceD0Ev@Base 5.4.0
 _ZN9QtWayland19qt_extended_surfaceD1Ev@Base 5.4.0
 _ZN9QtWayland19qt_extended_surfaceD2Ev@Base 5.4.0
 _ZN9QtWayland19qt_output_extension19get_extended_outputEP9wl_output@Base 5.4.0
 _ZN9QtWayland19qt_output_extension4initEP11wl_registryii@Base 5.4.0
 _ZN9QtWayland19qt_output_extension4initEP19qt_output_extension@Base 5.4.0
 _ZN9QtWayland19qt_output_extensionC1EP11wl_registryii@Base 5.4.0
 _ZN9QtWayland19qt_output_extensionC1EP19qt_output_extension@Base 5.4.0
 _ZN9QtWayland19qt_output_extensionC1Ev@Base 5.4.0
 _ZN9QtWayland19qt_output_extensionC2EP11wl_registryii@Base 5.4.0
 _ZN9QtWayland19qt_output_extensionC2EP19qt_output_extension@Base 5.4.0
 _ZN9QtWayland19qt_output_extensionC2Ev@Base 5.4.0
 _ZN9QtWayland19qt_output_extensionD0Ev@Base 5.4.0
 _ZN9QtWayland19qt_output_extensionD1Ev@Base 5.4.0
 _ZN9QtWayland19qt_output_extensionD2Ev@Base 5.4.0
 _ZN9QtWayland20qt_surface_extension20get_extended_surfaceEP10wl_surface@Base 5.4.0
 _ZN9QtWayland20qt_surface_extension4initEP11wl_registryii@Base 5.4.0
 _ZN9QtWayland20qt_surface_extension4initEP20qt_surface_extension@Base 5.4.0
 _ZN9QtWayland20qt_surface_extensionC1EP11wl_registryii@Base 5.4.0
 _ZN9QtWayland20qt_surface_extensionC1EP20qt_surface_extension@Base 5.4.0
 _ZN9QtWayland20qt_surface_extensionC1Ev@Base 5.4.0
 _ZN9QtWayland20qt_surface_extensionC2EP11wl_registryii@Base 5.4.0
 _ZN9QtWayland20qt_surface_extensionC2EP20qt_surface_extension@Base 5.4.0
 _ZN9QtWayland20qt_surface_extensionC2Ev@Base 5.4.0
 _ZN9QtWayland20qt_surface_extensionD0Ev@Base 5.4.0
 _ZN9QtWayland20qt_surface_extensionD1Ev@Base 5.4.0
 _ZN9QtWayland20qt_surface_extensionD2Ev@Base 5.4.0
 _ZN9QtWayland21wl_text_input_manager17create_text_inputEv@Base 5.4.0
 _ZN9QtWayland21wl_text_input_manager4initEP11wl_registryii@Base 5.4.0
 _ZN9QtWayland21wl_text_input_manager4initEP21wl_text_input_manager@Base 5.4.0
 _ZN9QtWayland21wl_text_input_managerC1EP11wl_registryii@Base 5.4.0
 _ZN9QtWayland21wl_text_input_managerC1EP21wl_text_input_manager@Base 5.4.0
 _ZN9QtWayland21wl_text_input_managerC1Ev@Base 5.4.0
 _ZN9QtWayland21wl_text_input_managerC2EP11wl_registryii@Base 5.4.0
 _ZN9QtWayland21wl_text_input_managerC2EP21wl_text_input_manager@Base 5.4.0
 _ZN9QtWayland21wl_text_input_managerC2Ev@Base 5.4.0
 _ZN9QtWayland21wl_text_input_managerD0Ev@Base 5.4.0
 _ZN9QtWayland21wl_text_input_managerD1Ev@Base 5.4.0
 _ZN9QtWayland21wl_text_input_managerD2Ev@Base 5.4.0
 _ZN9QtWayland22wl_data_device_manager15get_data_deviceEP7wl_seat@Base 5.4.0
 _ZN9QtWayland22wl_data_device_manager18create_data_sourceEv@Base 5.4.0
 _ZN9QtWayland22wl_data_device_manager4initEP11wl_registryii@Base 5.4.0
 _ZN9QtWayland22wl_data_device_manager4initEP22wl_data_device_manager@Base 5.4.0
 _ZN9QtWayland22wl_data_device_managerC1EP11wl_registryii@Base 5.4.0
 _ZN9QtWayland22wl_data_device_managerC1EP22wl_data_device_manager@Base 5.4.0
 _ZN9QtWayland22wl_data_device_managerC1Ev@Base 5.4.0
 _ZN9QtWayland22wl_data_device_managerC2EP11wl_registryii@Base 5.4.0
 _ZN9QtWayland22wl_data_device_managerC2EP22wl_data_device_manager@Base 5.4.0
 _ZN9QtWayland22wl_data_device_managerC2Ev@Base 5.4.0
 _ZN9QtWayland22wl_data_device_managerD0Ev@Base 5.4.0
 _ZN9QtWayland22wl_data_device_managerD1Ev@Base 5.4.0
 _ZN9QtWayland22wl_data_device_managerD2Ev@Base 5.4.0
 _ZN9QtWayland23qt_hardware_integration13init_listenerEv@Base 5.4.0
 _ZN9QtWayland23qt_hardware_integration21handle_client_backendEPvP23qt_hardware_integrationPKc@Base 5.4.0
 _ZN9QtWayland23qt_hardware_integration21handle_server_backendEPvP23qt_hardware_integrationPKc@Base 5.4.0
 _ZN9QtWayland23qt_hardware_integration34m_qt_hardware_integration_listenerE@Base 5.4.0
 _ZN9QtWayland23qt_hardware_integration35hardware_integration_client_backendERK7QString@Base 5.4.0
 _ZN9QtWayland23qt_hardware_integration35hardware_integration_server_backendERK7QString@Base 5.4.0
 _ZN9QtWayland23qt_hardware_integration4initEP11wl_registryii@Base 5.4.0
 _ZN9QtWayland23qt_hardware_integration4initEP23qt_hardware_integration@Base 5.4.0
 _ZN9QtWayland23qt_hardware_integrationC1EP11wl_registryii@Base 5.4.0
 _ZN9QtWayland23qt_hardware_integrationC1EP23qt_hardware_integration@Base 5.4.0
 _ZN9QtWayland23qt_hardware_integrationC1Ev@Base 5.4.0
 _ZN9QtWayland23qt_hardware_integrationC2EP11wl_registryii@Base 5.4.0
 _ZN9QtWayland23qt_hardware_integrationC2EP23qt_hardware_integration@Base 5.4.0
 _ZN9QtWayland23qt_hardware_integrationC2Ev@Base 5.4.0
 _ZN9QtWayland23qt_hardware_integrationD0Ev@Base 5.4.0
 _ZN9QtWayland23qt_hardware_integrationD1Ev@Base 5.4.0
 _ZN9QtWayland23qt_hardware_integrationD2Ev@Base 5.4.0
 _ZN9QtWayland24qt_sub_surface_extension29get_sub_surface_aware_surfaceEP10wl_surface@Base 5.4.0
 _ZN9QtWayland24qt_sub_surface_extension4initEP11wl_registryii@Base 5.4.0
 _ZN9QtWayland24qt_sub_surface_extension4initEP24qt_sub_surface_extension@Base 5.4.0
 _ZN9QtWayland24qt_sub_surface_extensionC1EP11wl_registryii@Base 5.4.0
 _ZN9QtWayland24qt_sub_surface_extensionC1EP24qt_sub_surface_extension@Base 5.4.0
 _ZN9QtWayland24qt_sub_surface_extensionC1Ev@Base 5.4.0
 _ZN9QtWayland24qt_sub_surface_extensionC2EP11wl_registryii@Base 5.4.0
 _ZN9QtWayland24qt_sub_surface_extensionC2EP24qt_sub_surface_extension@Base 5.4.0
 _ZN9QtWayland24qt_sub_surface_extensionC2Ev@Base 5.4.0
 _ZN9QtWayland24qt_sub_surface_extensionD0Ev@Base 5.4.0
 _ZN9QtWayland24qt_sub_surface_extensionD1Ev@Base 5.4.0
 _ZN9QtWayland24qt_sub_surface_extensionD2Ev@Base 5.4.0
 _ZN9QtWayland6wl_shm10shm_formatEj@Base 5.4.0
 _ZN9QtWayland6wl_shm11create_poolEii@Base 5.4.0
 _ZN9QtWayland6wl_shm13handle_formatEPvP6wl_shmj@Base 5.4.0
 _ZN9QtWayland6wl_shm13init_listenerEv@Base 5.4.0
 _ZN9QtWayland6wl_shm17m_wl_shm_listenerE@Base 5.4.0
 _ZN9QtWayland6wl_shm4initEP11wl_registryii@Base 5.4.0
 _ZN9QtWayland6wl_shm4initEP6wl_shm@Base 5.4.0
 _ZN9QtWayland6wl_shmC1EP11wl_registryii@Base 5.4.0
 _ZN9QtWayland6wl_shmC1EP6wl_shm@Base 5.4.0
 _ZN9QtWayland6wl_shmC1Ev@Base 5.4.0
 _ZN9QtWayland6wl_shmC2EP11wl_registryii@Base 5.4.0
 _ZN9QtWayland6wl_shmC2EP6wl_shm@Base 5.4.0
 _ZN9QtWayland6wl_shmC2Ev@Base 5.4.0
 _ZN9QtWayland6wl_shmD0Ev@Base 5.4.0
 _ZN9QtWayland6wl_shmD1Ev@Base 5.4.0
 _ZN9QtWayland6wl_shmD2Ev@Base 5.4.0
 _ZN9QtWayland7wl_seat11get_pointerEv@Base 5.4.0
 _ZN9QtWayland7wl_seat11handle_nameEPvP7wl_seatPKc@Base 5.4.0
 _ZN9QtWayland7wl_seat12get_keyboardEv@Base 5.4.0
 _ZN9QtWayland7wl_seat13init_listenerEv@Base 5.4.0
 _ZN9QtWayland7wl_seat17seat_capabilitiesEj@Base 5.4.0
 _ZN9QtWayland7wl_seat18m_wl_seat_listenerE@Base 5.4.0
 _ZN9QtWayland7wl_seat19handle_capabilitiesEPvP7wl_seatj@Base 5.4.0
 _ZN9QtWayland7wl_seat4initEP11wl_registryii@Base 5.4.0
 _ZN9QtWayland7wl_seat4initEP7wl_seat@Base 5.4.0
 _ZN9QtWayland7wl_seat9get_touchEv@Base 5.4.0
 _ZN9QtWayland7wl_seat9seat_nameERK7QString@Base 5.4.0
 _ZN9QtWayland7wl_seatC1EP11wl_registryii@Base 5.4.0
 _ZN9QtWayland7wl_seatC1EP7wl_seat@Base 5.4.0
 _ZN9QtWayland7wl_seatC1Ev@Base 5.4.0
 _ZN9QtWayland7wl_seatC2EP11wl_registryii@Base 5.4.0
 _ZN9QtWayland7wl_seatC2EP7wl_seat@Base 5.4.0
 _ZN9QtWayland7wl_seatC2Ev@Base 5.4.0
 _ZN9QtWayland7wl_seatD0Ev@Base 5.4.0
 _ZN9QtWayland7wl_seatD1Ev@Base 5.4.0
 _ZN9QtWayland7wl_seatD2Ev@Base 5.4.0
 _ZN9QtWayland8wl_shell17get_shell_surfaceEP10wl_surface@Base 5.4.0
 _ZN9QtWayland8wl_shell4initEP11wl_registryii@Base 5.4.0
 _ZN9QtWayland8wl_shell4initEP8wl_shell@Base 5.4.0
 _ZN9QtWayland8wl_shellC1EP11wl_registryii@Base 5.4.0
 _ZN9QtWayland8wl_shellC1EP8wl_shell@Base 5.4.0
 _ZN9QtWayland8wl_shellC1Ev@Base 5.4.0
 _ZN9QtWayland8wl_shellC2EP11wl_registryii@Base 5.4.0
 _ZN9QtWayland8wl_shellC2EP8wl_shell@Base 5.4.0
 _ZN9QtWayland8wl_shellC2Ev@Base 5.4.0
 _ZN9QtWayland8wl_shellD0Ev@Base 5.4.0
 _ZN9QtWayland8wl_shellD1Ev@Base 5.4.0
 _ZN9QtWayland8wl_shellD2Ev@Base 5.4.0
 _ZN9QtWayland8wl_touch10touch_downEjjP10wl_surfaceiii@Base 5.4.0
 _ZN9QtWayland8wl_touch11handle_downEPvP8wl_touchjjP10wl_surfaceiii@Base 5.4.0
 _ZN9QtWayland8wl_touch11touch_frameEv@Base 5.4.0
 _ZN9QtWayland8wl_touch12handle_frameEPvP8wl_touch@Base 5.4.0
 _ZN9QtWayland8wl_touch12touch_cancelEv@Base 5.4.0
 _ZN9QtWayland8wl_touch12touch_motionEjiii@Base 5.4.0
 _ZN9QtWayland8wl_touch13handle_cancelEPvP8wl_touch@Base 5.4.0
 _ZN9QtWayland8wl_touch13handle_motionEPvP8wl_touchjiii@Base 5.4.0
 _ZN9QtWayland8wl_touch13init_listenerEv@Base 5.4.0
 _ZN9QtWayland8wl_touch19m_wl_touch_listenerE@Base 5.4.0
 _ZN9QtWayland8wl_touch4initEP11wl_registryii@Base 5.4.0
 _ZN9QtWayland8wl_touch4initEP8wl_touch@Base 5.4.0
 _ZN9QtWayland8wl_touch8touch_upEjji@Base 5.4.0
 _ZN9QtWayland8wl_touch9handle_upEPvP8wl_touchjji@Base 5.4.0
 _ZN9QtWayland8wl_touchC1EP11wl_registryii@Base 5.4.0
 _ZN9QtWayland8wl_touchC1EP8wl_touch@Base 5.4.0
 _ZN9QtWayland8wl_touchC1Ev@Base 5.4.0
 _ZN9QtWayland8wl_touchC2EP11wl_registryii@Base 5.4.0
 _ZN9QtWayland8wl_touchC2EP8wl_touch@Base 5.4.0
 _ZN9QtWayland8wl_touchC2Ev@Base 5.4.0
 _ZN9QtWayland8wl_touchD0Ev@Base 5.4.0
 _ZN9QtWayland8wl_touchD1Ev@Base 5.4.0
 _ZN9QtWayland8wl_touchD2Ev@Base 5.4.0
 _ZN9QtWayland9wl_buffer13init_listenerEv@Base 5.4.0
 _ZN9QtWayland9wl_buffer14buffer_releaseEv@Base 5.4.0
 _ZN9QtWayland9wl_buffer14handle_releaseEPvP9wl_buffer@Base 5.4.0
 _ZN9QtWayland9wl_buffer20m_wl_buffer_listenerE@Base 5.4.0
 _ZN9QtWayland9wl_buffer4initEP11wl_registryii@Base 5.4.0
 _ZN9QtWayland9wl_buffer4initEP9wl_buffer@Base 5.4.0
 _ZN9QtWayland9wl_buffer7destroyEv@Base 5.4.0
 _ZN9QtWayland9wl_bufferC1EP11wl_registryii@Base 5.4.0
 _ZN9QtWayland9wl_bufferC1EP9wl_buffer@Base 5.4.0
 _ZN9QtWayland9wl_bufferC1Ev@Base 5.4.0
 _ZN9QtWayland9wl_bufferC2EP11wl_registryii@Base 5.4.0
 _ZN9QtWayland9wl_bufferC2EP9wl_buffer@Base 5.4.0
 _ZN9QtWayland9wl_bufferC2Ev@Base 5.4.0
 _ZN9QtWayland9wl_bufferD0Ev@Base 5.4.0
 _ZN9QtWayland9wl_bufferD1Ev@Base 5.4.0
 _ZN9QtWayland9wl_bufferD2Ev@Base 5.4.0
 _ZN9QtWayland9wl_output11handle_doneEPvP9wl_output@Base 5.4.0
 _ZN9QtWayland9wl_output11handle_modeEPvP9wl_outputjiii@Base 5.4.0
 _ZN9QtWayland9wl_output11output_doneEv@Base 5.4.0
 _ZN9QtWayland9wl_output11output_modeEjiii@Base 5.4.0
 _ZN9QtWayland9wl_output12handle_scaleEPvP9wl_outputi@Base 5.4.0
 _ZN9QtWayland9wl_output12output_scaleEi@Base 5.4.0
 _ZN9QtWayland9wl_output13init_listenerEv@Base 5.4.0
 _ZN9QtWayland9wl_output15handle_geometryEPvP9wl_outputiiiiiPKcS5_i@Base 5.4.0
 _ZN9QtWayland9wl_output15output_geometryEiiiiiRK7QStringS3_i@Base 5.4.0
 _ZN9QtWayland9wl_output20m_wl_output_listenerE@Base 5.4.0
 _ZN9QtWayland9wl_output4initEP11wl_registryii@Base 5.4.0
 _ZN9QtWayland9wl_output4initEP9wl_output@Base 5.4.0
 _ZN9QtWayland9wl_outputC1EP11wl_registryii@Base 5.4.0
 _ZN9QtWayland9wl_outputC1EP9wl_output@Base 5.4.0
 _ZN9QtWayland9wl_outputC1Ev@Base 5.4.0
 _ZN9QtWayland9wl_outputC2EP11wl_registryii@Base 5.4.0
 _ZN9QtWayland9wl_outputC2EP9wl_output@Base 5.4.0
 _ZN9QtWayland9wl_outputC2Ev@Base 5.4.0
 _ZN9QtWayland9wl_outputD0Ev@Base 5.4.0
 _ZN9QtWayland9wl_outputD1Ev@Base 5.4.0
 _ZN9QtWayland9wl_outputD2Ev@Base 5.4.0
 _ZN9QtWayland9wl_region3addEiiii@Base 5.4.0
 _ZN9QtWayland9wl_region4initEP11wl_registryii@Base 5.4.0
 _ZN9QtWayland9wl_region4initEP9wl_region@Base 5.4.0
 _ZN9QtWayland9wl_region7destroyEv@Base 5.4.0
 _ZN9QtWayland9wl_region8subtractEiiii@Base 5.4.0
 _ZN9QtWayland9wl_regionC1EP11wl_registryii@Base 5.4.0
 _ZN9QtWayland9wl_regionC1EP9wl_region@Base 5.4.0
 _ZN9QtWayland9wl_regionC1Ev@Base 5.4.0
 _ZN9QtWayland9wl_regionC2EP11wl_registryii@Base 5.4.0
 _ZN9QtWayland9wl_regionC2EP9wl_region@Base 5.4.0
 _ZN9QtWayland9wl_regionC2Ev@Base 5.4.0
 _ZN9QtWayland9wl_regionD0Ev@Base 5.4.0
 _ZN9QtWayland9wl_regionD1Ev@Base 5.4.0
 _ZN9QtWayland9wl_regionD2Ev@Base 5.4.0
 _ZN9QtWayland9xdg_popup13init_listenerEv@Base 5.4.0
 _ZN9QtWayland9xdg_popup17handle_popup_doneEPvP9xdg_popupj@Base 5.4.0
 _ZN9QtWayland9xdg_popup20m_xdg_popup_listenerE@Base 5.4.0
 _ZN9QtWayland9xdg_popup20xdg_popup_popup_doneEj@Base 5.4.0
 _ZN9QtWayland9xdg_popup4initEP11wl_registryii@Base 5.4.0
 _ZN9QtWayland9xdg_popup4initEP9xdg_popup@Base 5.4.0
 _ZN9QtWayland9xdg_popup7destroyEv@Base 5.4.0
 _ZN9QtWayland9xdg_popupC1EP11wl_registryii@Base 5.4.0
 _ZN9QtWayland9xdg_popupC1EP9xdg_popup@Base 5.4.0
 _ZN9QtWayland9xdg_popupC1Ev@Base 5.4.0
 _ZN9QtWayland9xdg_popupC2EP11wl_registryii@Base 5.4.0
 _ZN9QtWayland9xdg_popupC2EP9xdg_popup@Base 5.4.0
 _ZN9QtWayland9xdg_popupC2Ev@Base 5.4.0
 _ZN9QtWayland9xdg_popupD0Ev@Base 5.4.0
 _ZN9QtWayland9xdg_popupD1Ev@Base 5.4.0
 _ZN9QtWayland9xdg_popupD2Ev@Base 5.4.0
 _ZN9QtWayland9xdg_shell11handle_pingEPvP9xdg_shellj@Base 5.4.0
 _ZN9QtWayland9xdg_shell13get_xdg_popupEP10wl_surfaceS2_P7wl_seatjiij@Base 5.4.0
 _ZN9QtWayland9xdg_shell13init_listenerEv@Base 5.4.0
 _ZN9QtWayland9xdg_shell14xdg_shell_pingEj@Base 5.4.0
 _ZN9QtWayland9xdg_shell15get_xdg_surfaceEP10wl_surface@Base 5.4.0
 _ZN9QtWayland9xdg_shell20m_xdg_shell_listenerE@Base 5.4.0
 _ZN9QtWayland9xdg_shell20use_unstable_versionEi@Base 5.4.0
 _ZN9QtWayland9xdg_shell4initEP11wl_registryii@Base 5.4.0
 _ZN9QtWayland9xdg_shell4initEP9xdg_shell@Base 5.4.0
 _ZN9QtWayland9xdg_shell4pongEj@Base 5.4.0
 _ZN9QtWayland9xdg_shellC1EP11wl_registryii@Base 5.4.0
 _ZN9QtWayland9xdg_shellC1EP9xdg_shell@Base 5.4.0
 _ZN9QtWayland9xdg_shellC1Ev@Base 5.4.0
 _ZN9QtWayland9xdg_shellC2EP11wl_registryii@Base 5.4.0
 _ZN9QtWayland9xdg_shellC2EP9xdg_shell@Base 5.4.0
 _ZN9QtWayland9xdg_shellC2Ev@Base 5.4.0
 _ZN9QtWayland9xdg_shellD0Ev@Base 5.4.0
 _ZN9QtWayland9xdg_shellD1Ev@Base 5.4.0
 _ZN9QtWayland9xdg_shellD2Ev@Base 5.4.0
 _ZNK13QFontEngineFT10glyphCountEv@Base 5.4.0
 _ZNK13QFontEngineFT10glyphIndexEj@Base 5.4.0
 _ZNK13QFontEngineFT10propertiesEv@Base 5.4.0
 _ZNK13QFontEngineFT10unlockFaceEv@Base 5.4.0
 _ZNK13QFontEngineFT11synthesizedEv@Base 5.4.0
 _ZNK13QFontEngineFT12emSquareSizeEv@Base 5.4.0
 _ZNK13QFontEngineFT12maxCharWidthEv@Base 5.4.0
 _ZNK13QFontEngineFT12stringToCMapEPK5QChariP12QGlyphLayoutPi6QFlagsIN11QFontEngine10ShaperFlagEE@Base 5.4.0
 _ZNK13QFontEngineFT13cloneWithSizeEd@Base 5.4.0
 _ZNK13QFontEngineFT13lineThicknessEv@Base 5.4.0
 _ZNK13QFontEngineFT14minLeftBearingEv@Base 5.4.0
 _ZNK13QFontEngineFT14recalcAdvancesEP12QGlyphLayout6QFlagsIN11QFontEngine10ShaperFlagEE@Base 5.4.0
 _ZNK13QFontEngineFT15minRightBearingEv@Base 5.4.0
 _ZNK13QFontEngineFT15non_locked_faceEv@Base 5.4.0
 _ZNK13QFontEngineFT16averageCharWidthEv@Base 5.4.0
 _ZNK13QFontEngineFT16getSfntTableDataEjPhPj@Base 5.4.0
 _ZNK13QFontEngineFT17underlinePositionEv@Base 5.4.0
 _ZNK13QFontEngineFT22shouldUseDesignMetricsE6QFlagsIN11QFontEngine10ShaperFlagEE@Base 5.4.0
 _ZNK13QFontEngineFT22supportsTransformationERK10QTransform@Base 5.4.0
 _ZNK13QFontEngineFT6ascentEv@Base 5.4.0
 _ZNK13QFontEngineFT6faceIdEv@Base 5.4.0
 _ZNK13QFontEngineFT7descentEv@Base 5.4.0
 _ZNK13QFontEngineFT7leadingEv@Base 5.4.0
 _ZNK13QFontEngineFT7xHeightEv@Base 5.4.0
 _ZNK13QFontEngineFT8lockFaceENS_7ScalingE@Base 5.4.0
 _ZNK13QFontEngineFT9doKerningEP12QGlyphLayout6QFlagsIN11QFontEngine10ShaperFlagEE@Base 5.4.0
 _ZNK13QFontEngineFT9loadFlagsEPNS_9QGlyphSetEN11QFontEngine11GlyphFormatEiRbRi@Base 5.4.0
 _ZNK13QFontEngineFT9loadGlyphEPNS_9QGlyphSetEj6QFixedN11QFontEngine11GlyphFormatEb@Base 5.4.0
 _ZNK14QWaylandCursor3posEv@Base 5.4.0
 _ZNK14QWaylandScreen10logicalDpiEv@Base 5.4.0
 _ZNK14QWaylandScreen11orientationEv@Base 5.4.0
 _ZNK14QWaylandScreen11refreshRateEv@Base 5.4.0
 _ZNK14QWaylandScreen12physicalSizeEv@Base 5.4.0
 _ZNK14QWaylandScreen14extendedOutputEv@Base 5.4.0
 _ZNK14QWaylandScreen5depthEv@Base 5.4.0
 _ZNK14QWaylandScreen6cursorEv@Base 5.4.0
 _ZNK14QWaylandScreen6formatEv@Base 5.4.0
 _ZNK14QWaylandScreen7displayEv@Base 5.4.0
 _ZNK14QWaylandScreen8geometryEv@Base 5.4.0
 _ZNK14QWaylandWindow10decorationEv@Base 5.4.0
 _ZNK14QWaylandWindow10metaObjectEv@Base 5.4.0
 _ZNK14QWaylandWindow10propertiesEv@Base 5.4.0
 _ZNK14QWaylandWindow12frameMarginsEv@Base 5.4.0
 _ZNK14QWaylandWindow12shellSurfaceEv@Base 5.4.0
 _ZNK14QWaylandWindow15transientParentEv@Base 5.4.0
 _ZNK14QWaylandWindow16subSurfaceWindowEv@Base 5.4.0
 _ZNK14QWaylandWindow5winIdEv@Base 5.4.0
 _ZNK14QWaylandWindow8attachedEv@Base 5.4.0
 _ZNK14QWaylandWindow9isExposedEv@Base 5.4.0
 _ZNK15QWaylandDisplay10metaObjectEv@Base 5.4.0
 _ZNK15QWaylandDisplay15screenForOutputEP9wl_output@Base 5.4.0
 _ZNK15QWaylandDisplay18defaultInputDeviceEv@Base 5.4.0
 _ZNK15QWaylandDisplay23clientBufferIntegrationEv@Base 5.4.0
 _ZNK15QWaylandDisplay24supportsWindowDecorationEv@Base 5.4.0
 _ZNK15QWaylandDisplay24windowManagerIntegrationEv@Base 5.4.0
 _ZNK15QWaylandDisplay28lastKeyboardFocusInputDeviceEv@Base 5.4.0
 _ZNK17QWaylandClipboard12supportsModeEN10QClipboard4ModeE@Base 5.4.0
 _ZNK17QWaylandClipboard8ownsModeEN10QClipboard4ModeE@Base 5.4.0
 _ZNK17QWaylandDataOffer11firstFormatEv@Base 5.4.0
 _ZNK17QWaylandShmWindow10windowTypeEv@Base 5.4.0
 _ZNK18QWaylandDataSource10metaObjectEv@Base 5.4.0
 _ZNK18QWaylandDataSource8mimeDataEv@Base 5.4.0
 _ZNK19QWaylandEventThread10checkErrorEv@Base 5.4.0
 _ZNK19QWaylandEventThread10metaObjectEv@Base 5.4.0
 _ZNK19QWaylandEventThread7displayEv@Base 5.4.0
 _ZNK19QWaylandInputDevice10dataDeviceEv@Base 5.4.0
 _ZNK19QWaylandInputDevice10metaObjectEv@Base 5.4.0
 _ZNK19QWaylandInputDevice10touchFocusEv@Base 5.4.0
 _ZNK19QWaylandInputDevice12cursorSerialEv@Base 5.4.0
 _ZNK19QWaylandInputDevice12pointerFocusEv@Base 5.4.0
 _ZNK19QWaylandInputDevice13keyboardFocusEv@Base 5.4.0
 _ZNK19QWaylandInputDevice9modifiersEv@Base 5.4.0
 _ZNK19QWaylandIntegration10themeNamesEv@Base 5.4.0
 _ZNK19QWaylandIntegration12fontDatabaseEv@Base 5.4.0
 _ZNK19QWaylandIntegration12inputContextEv@Base 5.4.0
 _ZNK19QWaylandIntegration13accessibilityEv@Base 5.4.0
 _ZNK19QWaylandIntegration13hasCapabilityEN20QPlatformIntegration10CapabilityE@Base 5.4.0
 _ZNK19QWaylandIntegration15nativeInterfaceEv@Base 5.4.0
 _ZNK19QWaylandIntegration16shellIntegrationEv@Base 5.4.0
 _ZNK19QWaylandIntegration19createPlatformThemeERK7QString@Base 5.4.0
 _ZNK19QWaylandIntegration20createPlatformWindowEP7QWindow@Base 5.4.0
 _ZNK19QWaylandIntegration21createEventDispatcherEv@Base 5.4.0
 _ZNK19QWaylandIntegration23clientBufferIntegrationEv@Base 5.4.0
 _ZNK19QWaylandIntegration23serverBufferIntegrationEv@Base 5.4.0
 _ZNK19QWaylandIntegration26createPlatformBackingStoreEP7QWindow@Base 5.4.0
 _ZNK19QWaylandIntegration27createPlatformOpenGLContextEP14QOpenGLContext@Base 5.4.0
 _ZNK19QWaylandIntegration4dragEv@Base 5.4.0
 _ZNK19QWaylandIntegration7displayEv@Base 5.4.0
 _ZNK19QWaylandIntegration8servicesEv@Base 5.4.0
 _ZNK19QWaylandIntegration9clipboardEv@Base 5.4.0
 _ZNK19QWaylandIntegration9styleHintEN20QPlatformIntegration9StyleHintE@Base 5.4.0
 _ZNK20QWaylandServerBuffer4sizeEv@Base 5.4.0
 _ZNK20QWaylandServerBuffer6formatEv@Base 5.4.0
 _ZNK20QWaylandServerBuffer8userDataEv@Base 5.4.0
 _ZNK23QWaylandNativeInterface14windowPropertyEP15QPlatformWindowRK7QString@Base 5.4.0
 _ZNK23QWaylandNativeInterface14windowPropertyEP15QPlatformWindowRK7QStringRK8QVariant@Base 5.4.0
 _ZNK23QWaylandNativeInterface16windowPropertiesEP15QPlatformWindow@Base 5.4.0
 _ZNK23QWaylandShmBackingStore13entireSurfaceEv@Base 5.4.0
 _ZNK23QWaylandShmBackingStore13waylandWindowEv@Base 5.4.0
 _ZNK23QWaylandShmBackingStore14contentSurfaceEv@Base 5.4.0
 _ZNK23QWaylandShmBackingStore16windowDecorationEv@Base 5.4.0
 _ZNK23QWaylandShmBackingStore23windowDecorationMarginsEv@Base 5.4.0
 _ZNK23QWaylandShmBackingStore7toImageEv@Base 5.4.0
 _ZNK24QWaylandDecorationPlugin10metaObjectEv@Base 5.4.0
 _ZNK25QWaylandDataDeviceManager7displayEv@Base 5.4.0
 _ZNK26QWaylandAbstractDecoration10metaObjectEv@Base 5.4.0
 _ZNK26QWaylandAbstractDecoration13waylandWindowEv@Base 5.4.0
 _ZNK26QWaylandAbstractDecoration6windowEv@Base 5.4.0
 _ZNK26QWaylandAbstractDecoration7isDirtyEv@Base 5.4.0
 _ZNK30QWaylandShellIntegrationPlugin10metaObjectEv@Base 5.4.0
 _ZNK32QWaylandWindowManagerIntegration10metaObjectEv@Base 5.4.0
 _ZNK32QWaylandWindowManagerIntegration16showIsFullScreenEv@Base 5.4.0
 _ZNK32QWaylandWindowManagerIntegration18desktopEnvironmentEv@Base 5.4.0
 _ZNK37QWaylandClientBufferIntegrationPlugin10metaObjectEv@Base 5.4.0
 _ZNK37QWaylandServerBufferIntegrationPlugin10metaObjectEv@Base 5.4.0
 _ZNK9QtWayland10wl_pointer13isInitializedEv@Base 5.4.0
 _ZNK9QtWayland10wl_surface13isInitializedEv@Base 5.4.0
 _ZNK9QtWayland11wl_callback13isInitializedEv@Base 5.4.0
 _ZNK9QtWayland11wl_keyboard13isInitializedEv@Base 5.4.0
 _ZNK9QtWayland11wl_registry13isInitializedEv@Base 5.4.0
 _ZNK9QtWayland11wl_shm_pool13isInitializedEv@Base 5.4.0
 _ZNK9QtWayland11xdg_surface13isInitializedEv@Base 5.4.0
 _ZNK9QtWayland13wl_compositor13isInitializedEv@Base 5.4.0
 _ZNK9QtWayland13wl_data_offer13isInitializedEv@Base 5.4.0
 _ZNK9QtWayland13wl_text_input13isInitializedEv@Base 5.4.0
 _ZNK9QtWayland14qt_sub_surface13isInitializedEv@Base 5.4.0
 _ZNK9QtWayland14wl_data_device13isInitializedEv@Base 5.4.0
 _ZNK9QtWayland14wl_data_source13isInitializedEv@Base 5.4.0
 _ZNK9QtWayland16qt_key_extension13isInitializedEv@Base 5.4.0
 _ZNK9QtWayland16qt_server_buffer13isInitializedEv@Base 5.4.0
 _ZNK9QtWayland16qt_windowmanager13isInitializedEv@Base 5.4.0
 _ZNK9QtWayland16wl_shell_surface13isInitializedEv@Base 5.4.0
 _ZNK9QtWayland18qt_extended_output13isInitializedEv@Base 5.4.0
 _ZNK9QtWayland18qt_touch_extension13isInitializedEv@Base 5.4.0
 _ZNK9QtWayland19qt_extended_surface13isInitializedEv@Base 5.4.0
 _ZNK9QtWayland19qt_output_extension13isInitializedEv@Base 5.4.0
 _ZNK9QtWayland20qt_surface_extension13isInitializedEv@Base 5.4.0
 _ZNK9QtWayland21wl_text_input_manager13isInitializedEv@Base 5.4.0
 _ZNK9QtWayland22wl_data_device_manager13isInitializedEv@Base 5.4.0
 _ZNK9QtWayland23qt_hardware_integration13isInitializedEv@Base 5.4.0
 _ZNK9QtWayland24qt_sub_surface_extension13isInitializedEv@Base 5.4.0
 _ZNK9QtWayland6wl_shm13isInitializedEv@Base 5.4.0
 _ZNK9QtWayland7wl_seat13isInitializedEv@Base 5.4.0
 _ZNK9QtWayland8wl_shell13isInitializedEv@Base 5.4.0
 _ZNK9QtWayland8wl_touch13isInitializedEv@Base 5.4.0
 _ZNK9QtWayland9wl_buffer13isInitializedEv@Base 5.4.0
 _ZNK9QtWayland9wl_output13isInitializedEv@Base 5.4.0
 _ZNK9QtWayland9wl_region13isInitializedEv@Base 5.4.0
 _ZNK9QtWayland9xdg_popup13isInitializedEv@Base 5.4.0
 _ZNK9QtWayland9xdg_shell13isInitializedEv@Base 5.4.0
 _ZTI12QWaylandDrag@Base 5.4.0
 _ZTI13QFontEngineFT@Base 5.4.0
 _ZTI14QWaylandBuffer@Base 5.4.0
 _ZTI14QWaylandCursor@Base 5.4.0
 _ZTI14QWaylandScreen@Base 5.4.0
 _ZTI14QWaylandWindow@Base 5.4.0
 _ZTI15QWaylandDisplay@Base 5.4.0
 _ZTI16QWaylandXdgShell@Base 5.4.0
 _ZTI17QInputMethodEvent@Base 5.4.0
 _ZTI17QWaylandClipboard@Base 5.4.0
 _ZTI17QWaylandDataOffer@Base 5.4.0
 _ZTI17QWaylandShmBuffer@Base 5.4.0
 _ZTI17QWaylandShmWindow@Base 5.4.0
 _ZTI18QWaylandDataSource@Base 5.4.0
 _ZTI18QWaylandSubSurface@Base 5.4.0
 _ZTI18QWaylandXdgSurface@Base 5.4.0
 _ZTI19QWaylandEventThread@Base 5.4.0
 _ZTI19QWaylandInputDevice@Base 5.4.0
 _ZTI19QWaylandIntegration@Base 5.4.0
 _ZTI20QWaylandServerBuffer@Base 5.4.0
 _ZTI20QWaylandShellSurface@Base 5.4.0
 _ZTI22QWaylandExtendedOutput@Base 5.4.0
 _ZTI22QWaylandQtKeyExtension@Base 5.4.0
 _ZTI22QWaylandTouchExtension@Base 5.4.0
 _ZTI22QWaylandWlShellSurface@Base 5.4.0
 _ZTI23QWaylandExtendedSurface@Base 5.4.0
 _ZTI23QWaylandNativeInterface@Base 5.4.0
 _ZTI23QWaylandShmBackingStore@Base 5.4.0
 _ZTI24QWaylandDecorationPlugin@Base 5.4.0
 _ZTI25QWaylandDataDeviceManager@Base 5.4.0
 _ZTI26QWaylandAbstractDecoration@Base 5.4.0
 _ZTI27QEventDispatcherGlibPrivate@Base 5.4.0
 _ZTI27QWaylandHardwareIntegration@Base 5.4.0
 _ZTI30QWaylandShellIntegrationPlugin@Base 5.4.0
 _ZTI31QAbstractEventDispatcherPrivate@Base 5.4.0
 _ZTI31QWaylandClientBufferIntegration@Base 5.4.0
 _ZTI31QWaylandServerBufferIntegration@Base 5.4.0
 _ZTI32QWaylandWindowManagerIntegration@Base 5.4.0
 _ZTI37QWaylandClientBufferIntegrationPlugin@Base 5.4.0
 _ZTI37QWaylandServerBufferIntegrationPlugin@Base 5.4.0
 _ZTIN19QWaylandInputDevice5TouchE@Base 5.4.0
 _ZTIN19QWaylandInputDevice7PointerE@Base 5.4.0
 _ZTIN19QWaylandInputDevice8KeyboardE@Base 5.4.0
 _ZTIN9QtWayland10wl_pointerE@Base 5.4.0
 _ZTIN9QtWayland10wl_surfaceE@Base 5.4.0
 _ZTIN9QtWayland11wl_callbackE@Base 5.4.0
 _ZTIN9QtWayland11wl_keyboardE@Base 5.4.0
 _ZTIN9QtWayland11wl_registryE@Base 5.4.0
 _ZTIN9QtWayland11wl_shm_poolE@Base 5.4.0
 _ZTIN9QtWayland11xdg_surfaceE@Base 5.4.0
 _ZTIN9QtWayland13wl_compositorE@Base 5.4.0
 _ZTIN9QtWayland13wl_data_offerE@Base 5.4.0
 _ZTIN9QtWayland13wl_text_inputE@Base 5.4.0
 _ZTIN9QtWayland14qt_sub_surfaceE@Base 5.4.0
 _ZTIN9QtWayland14wl_data_deviceE@Base 5.4.0
 _ZTIN9QtWayland14wl_data_sourceE@Base 5.4.0
 _ZTIN9QtWayland16qt_key_extensionE@Base 5.4.0
 _ZTIN9QtWayland16qt_server_bufferE@Base 5.4.0
 _ZTIN9QtWayland16qt_windowmanagerE@Base 5.4.0
 _ZTIN9QtWayland16wl_shell_surfaceE@Base 5.4.0
 _ZTIN9QtWayland18qt_extended_outputE@Base 5.4.0
 _ZTIN9QtWayland18qt_touch_extensionE@Base 5.4.0
 _ZTIN9QtWayland19qt_extended_surfaceE@Base 5.4.0
 _ZTIN9QtWayland19qt_output_extensionE@Base 5.4.0
 _ZTIN9QtWayland20qt_surface_extensionE@Base 5.4.0
 _ZTIN9QtWayland21wl_text_input_managerE@Base 5.4.0
 _ZTIN9QtWayland22wl_data_device_managerE@Base 5.4.0
 _ZTIN9QtWayland23qt_hardware_integrationE@Base 5.4.0
 _ZTIN9QtWayland24qt_sub_surface_extensionE@Base 5.4.0
 _ZTIN9QtWayland6wl_shmE@Base 5.4.0
 _ZTIN9QtWayland7wl_seatE@Base 5.4.0
 _ZTIN9QtWayland8wl_shellE@Base 5.4.0
 _ZTIN9QtWayland8wl_touchE@Base 5.4.0
 _ZTIN9QtWayland9wl_bufferE@Base 5.4.0
 _ZTIN9QtWayland9wl_outputE@Base 5.4.0
 _ZTIN9QtWayland9wl_regionE@Base 5.4.0
 _ZTIN9QtWayland9xdg_popupE@Base 5.4.0
 _ZTIN9QtWayland9xdg_shellE@Base 5.4.0
 _ZTS12QWaylandDrag@Base 5.4.0
 _ZTS13QFontEngineFT@Base 5.4.0
 _ZTS14QWaylandBuffer@Base 5.4.0
 _ZTS14QWaylandCursor@Base 5.4.0
 _ZTS14QWaylandScreen@Base 5.4.0
 _ZTS14QWaylandWindow@Base 5.4.0
 _ZTS15QWaylandDisplay@Base 5.4.0
 _ZTS16QWaylandXdgShell@Base 5.4.0
 _ZTS17QInputMethodEvent@Base 5.4.0
 _ZTS17QWaylandClipboard@Base 5.4.0
 _ZTS17QWaylandDataOffer@Base 5.4.0
 _ZTS17QWaylandShmBuffer@Base 5.4.0
 _ZTS17QWaylandShmWindow@Base 5.4.0
 _ZTS18QWaylandDataSource@Base 5.4.0
 _ZTS18QWaylandSubSurface@Base 5.4.0
 _ZTS18QWaylandXdgSurface@Base 5.4.0
 _ZTS19QWaylandEventThread@Base 5.4.0
 _ZTS19QWaylandInputDevice@Base 5.4.0
 _ZTS19QWaylandIntegration@Base 5.4.0
 _ZTS20QWaylandServerBuffer@Base 5.4.0
 _ZTS20QWaylandShellSurface@Base 5.4.0
 _ZTS22QWaylandExtendedOutput@Base 5.4.0
 _ZTS22QWaylandQtKeyExtension@Base 5.4.0
 _ZTS22QWaylandTouchExtension@Base 5.4.0
 _ZTS22QWaylandWlShellSurface@Base 5.4.0
 _ZTS23QWaylandExtendedSurface@Base 5.4.0
 _ZTS23QWaylandNativeInterface@Base 5.4.0
 _ZTS23QWaylandShmBackingStore@Base 5.4.0
 _ZTS24QWaylandDecorationPlugin@Base 5.4.0
 _ZTS25QWaylandDataDeviceManager@Base 5.4.0
 _ZTS26QWaylandAbstractDecoration@Base 5.4.0
 _ZTS27QEventDispatcherGlibPrivate@Base 5.4.0
 _ZTS27QWaylandHardwareIntegration@Base 5.4.0
 _ZTS30QWaylandShellIntegrationPlugin@Base 5.4.0
 _ZTS31QAbstractEventDispatcherPrivate@Base 5.4.0
 _ZTS31QWaylandClientBufferIntegration@Base 5.4.0
 _ZTS31QWaylandServerBufferIntegration@Base 5.4.0
 _ZTS32QWaylandWindowManagerIntegration@Base 5.4.0
 _ZTS37QWaylandClientBufferIntegrationPlugin@Base 5.4.0
 _ZTS37QWaylandServerBufferIntegrationPlugin@Base 5.4.0
 _ZTSN19QWaylandInputDevice5TouchE@Base 5.4.0
 _ZTSN19QWaylandInputDevice7PointerE@Base 5.4.0
 _ZTSN19QWaylandInputDevice8KeyboardE@Base 5.4.0
 _ZTSN9QtWayland10wl_pointerE@Base 5.4.0
 _ZTSN9QtWayland10wl_surfaceE@Base 5.4.0
 _ZTSN9QtWayland11wl_callbackE@Base 5.4.0
 _ZTSN9QtWayland11wl_keyboardE@Base 5.4.0
 _ZTSN9QtWayland11wl_registryE@Base 5.4.0
 _ZTSN9QtWayland11wl_shm_poolE@Base 5.4.0
 _ZTSN9QtWayland11xdg_surfaceE@Base 5.4.0
 _ZTSN9QtWayland13wl_compositorE@Base 5.4.0
 _ZTSN9QtWayland13wl_data_offerE@Base 5.4.0
 _ZTSN9QtWayland13wl_text_inputE@Base 5.4.0
 _ZTSN9QtWayland14qt_sub_surfaceE@Base 5.4.0
 _ZTSN9QtWayland14wl_data_deviceE@Base 5.4.0
 _ZTSN9QtWayland14wl_data_sourceE@Base 5.4.0
 _ZTSN9QtWayland16qt_key_extensionE@Base 5.4.0
 _ZTSN9QtWayland16qt_server_bufferE@Base 5.4.0
 _ZTSN9QtWayland16qt_windowmanagerE@Base 5.4.0
 _ZTSN9QtWayland16wl_shell_surfaceE@Base 5.4.0
 _ZTSN9QtWayland18qt_extended_outputE@Base 5.4.0
 _ZTSN9QtWayland18qt_touch_extensionE@Base 5.4.0
 _ZTSN9QtWayland19qt_extended_surfaceE@Base 5.4.0
 _ZTSN9QtWayland19qt_output_extensionE@Base 5.4.0
 _ZTSN9QtWayland20qt_surface_extensionE@Base 5.4.0
 _ZTSN9QtWayland21wl_text_input_managerE@Base 5.4.0
 _ZTSN9QtWayland22wl_data_device_managerE@Base 5.4.0
 _ZTSN9QtWayland23qt_hardware_integrationE@Base 5.4.0
 _ZTSN9QtWayland24qt_sub_surface_extensionE@Base 5.4.0
 _ZTSN9QtWayland6wl_shmE@Base 5.4.0
 _ZTSN9QtWayland7wl_seatE@Base 5.4.0
 _ZTSN9QtWayland8wl_shellE@Base 5.4.0
 _ZTSN9QtWayland8wl_touchE@Base 5.4.0
 _ZTSN9QtWayland9wl_bufferE@Base 5.4.0
 _ZTSN9QtWayland9wl_outputE@Base 5.4.0
 _ZTSN9QtWayland9wl_regionE@Base 5.4.0
 _ZTSN9QtWayland9xdg_popupE@Base 5.4.0
 _ZTSN9QtWayland9xdg_shellE@Base 5.4.0
 _ZTV12QWaylandDrag@Base 5.4.0
 _ZTV13QFontEngineFT@Base 5.4.0
 _ZTV14QWaylandBuffer@Base 5.4.0
 _ZTV14QWaylandCursor@Base 5.4.0
 _ZTV14QWaylandScreen@Base 5.4.0
 _ZTV14QWaylandWindow@Base 5.4.0
 _ZTV15QWaylandDisplay@Base 5.4.0
 _ZTV16QWaylandXdgShell@Base 5.4.0
 _ZTV17QInputMethodEvent@Base 5.4.0
 _ZTV17QWaylandClipboard@Base 5.4.0
 _ZTV17QWaylandDataOffer@Base 5.4.0
 _ZTV17QWaylandShmBuffer@Base 5.4.0
 _ZTV17QWaylandShmWindow@Base 5.4.0
 _ZTV18QWaylandDataSource@Base 5.4.0
 _ZTV18QWaylandSubSurface@Base 5.4.0
 _ZTV18QWaylandXdgSurface@Base 5.4.0
 _ZTV19QWaylandEventThread@Base 5.4.0
 _ZTV19QWaylandInputDevice@Base 5.4.0
 _ZTV19QWaylandIntegration@Base 5.4.0
 _ZTV20QWaylandServerBuffer@Base 5.4.0
 _ZTV20QWaylandShellSurface@Base 5.4.0
 _ZTV22QWaylandExtendedOutput@Base 5.4.0
 _ZTV22QWaylandQtKeyExtension@Base 5.4.0
 _ZTV22QWaylandTouchExtension@Base 5.4.0
 _ZTV22QWaylandWlShellSurface@Base 5.4.0
 _ZTV23QWaylandExtendedSurface@Base 5.4.0
 _ZTV23QWaylandNativeInterface@Base 5.4.0
 _ZTV23QWaylandShmBackingStore@Base 5.4.0
 _ZTV24QWaylandDecorationPlugin@Base 5.4.0
 _ZTV25QWaylandDataDeviceManager@Base 5.4.0
 _ZTV26QWaylandAbstractDecoration@Base 5.4.0
 _ZTV27QEventDispatcherGlibPrivate@Base 5.4.0
 _ZTV27QWaylandHardwareIntegration@Base 5.4.0
 _ZTV30QWaylandShellIntegrationPlugin@Base 5.4.0
 _ZTV31QAbstractEventDispatcherPrivate@Base 5.4.0
 _ZTV31QWaylandClientBufferIntegration@Base 5.4.0
 _ZTV31QWaylandServerBufferIntegration@Base 5.4.0
 _ZTV32QWaylandWindowManagerIntegration@Base 5.4.0
 _ZTV37QWaylandClientBufferIntegrationPlugin@Base 5.4.0
 _ZTV37QWaylandServerBufferIntegrationPlugin@Base 5.4.0
 _ZTVN19QWaylandInputDevice5TouchE@Base 5.4.0
 _ZTVN19QWaylandInputDevice7PointerE@Base 5.4.0
 _ZTVN19QWaylandInputDevice8KeyboardE@Base 5.4.0
 _ZTVN9QtWayland10wl_pointerE@Base 5.4.0
 _ZTVN9QtWayland10wl_surfaceE@Base 5.4.0
 _ZTVN9QtWayland11wl_callbackE@Base 5.4.0
 _ZTVN9QtWayland11wl_keyboardE@Base 5.4.0
 _ZTVN9QtWayland11wl_registryE@Base 5.4.0
 _ZTVN9QtWayland11wl_shm_poolE@Base 5.4.0
 _ZTVN9QtWayland11xdg_surfaceE@Base 5.4.0
 _ZTVN9QtWayland13wl_compositorE@Base 5.4.0
 _ZTVN9QtWayland13wl_data_offerE@Base 5.4.0
 _ZTVN9QtWayland13wl_text_inputE@Base 5.4.0
 _ZTVN9QtWayland14qt_sub_surfaceE@Base 5.4.0
 _ZTVN9QtWayland14wl_data_deviceE@Base 5.4.0
 _ZTVN9QtWayland14wl_data_sourceE@Base 5.4.0
 _ZTVN9QtWayland16qt_key_extensionE@Base 5.4.0
 _ZTVN9QtWayland16qt_server_bufferE@Base 5.4.0
 _ZTVN9QtWayland16qt_windowmanagerE@Base 5.4.0
 _ZTVN9QtWayland16wl_shell_surfaceE@Base 5.4.0
 _ZTVN9QtWayland18qt_extended_outputE@Base 5.4.0
 _ZTVN9QtWayland18qt_touch_extensionE@Base 5.4.0
 _ZTVN9QtWayland19qt_extended_surfaceE@Base 5.4.0
 _ZTVN9QtWayland19qt_output_extensionE@Base 5.4.0
 _ZTVN9QtWayland20qt_surface_extensionE@Base 5.4.0
 _ZTVN9QtWayland21wl_text_input_managerE@Base 5.4.0
 _ZTVN9QtWayland22wl_data_device_managerE@Base 5.4.0
 _ZTVN9QtWayland23qt_hardware_integrationE@Base 5.4.0
 _ZTVN9QtWayland24qt_sub_surface_extensionE@Base 5.4.0
 _ZTVN9QtWayland6wl_shmE@Base 5.4.0
 _ZTVN9QtWayland7wl_seatE@Base 5.4.0
 _ZTVN9QtWayland8wl_shellE@Base 5.4.0
 _ZTVN9QtWayland8wl_touchE@Base 5.4.0
 _ZTVN9QtWayland9wl_bufferE@Base 5.4.0
 _ZTVN9QtWayland9wl_outputE@Base 5.4.0
 _ZTVN9QtWayland9wl_regionE@Base 5.4.0
 _ZTVN9QtWayland9xdg_popupE@Base 5.4.0
 _ZTVN9QtWayland9xdg_shellE@Base 5.4.0
 qt_extended_output_interface@Base 5.4.0
 qt_extended_surface_interface@Base 5.4.0
 qt_hardware_integration_interface@Base 5.4.0
 qt_key_extension_interface@Base 5.4.0
 qt_output_extension_interface@Base 5.4.0
 qt_server_buffer_interface@Base 5.4.0
 qt_sub_surface_extension_interface@Base 5.4.0
 qt_sub_surface_interface@Base 5.4.0
 qt_surface_extension_interface@Base 5.4.0
 qt_touch_extension_interface@Base 5.4.0
 qt_windowmanager_interface@Base 5.4.0
 wl_buffer_interface@Base 5.4.0
 wl_callback_interface@Base 5.4.0
 wl_compositor_interface@Base 5.4.0
 wl_data_device_interface@Base 5.4.0
 wl_data_device_manager_interface@Base 5.4.0
 wl_data_offer_interface@Base 5.4.0
 wl_data_source_interface@Base 5.4.0
 wl_display_interface@Base 5.4.0
 wl_keyboard_interface@Base 5.4.0
 wl_output_interface@Base 5.4.0
 wl_pointer_interface@Base 5.4.0
 wl_region_interface@Base 5.4.0
 wl_registry_interface@Base 5.4.0
 wl_seat_interface@Base 5.4.0
 wl_shell_interface@Base 5.4.0
 wl_shell_surface_interface@Base 5.4.0
 wl_shm_interface@Base 5.4.0
 wl_shm_pool_interface@Base 5.4.0
 wl_surface_interface@Base 5.4.0
 wl_text_input_interface@Base 5.4.0
 wl_text_input_manager_interface@Base 5.4.0
 wl_touch_interface@Base 5.4.0
 xdg_popup_interface@Base 5.4.0
 xdg_shell_interface@Base 5.4.0
 xdg_surface_interface@Base 5.4.0
 (c++)"non-virtual thunk to QWaylandDrag::~QWaylandDrag()@Base" 5.4.0
 (c++)"non-virtual thunk to QWaylandScreen::output_done()@Base" 5.4.0
 (c++)"non-virtual thunk to QWaylandScreen::output_mode(unsigned int, int, int, int)@Base" 5.4.0
 (c++)"non-virtual thunk to QWaylandScreen::output_geometry(int, int, int, int, int, QString const&, QString const&, int)@Base" 5.4.0
 (c++)"non-virtual thunk to QWaylandScreen::~QWaylandScreen()@Base" 5.4.0
 (c++)"non-virtual thunk to QWaylandWindow::setVisible(bool)@Base" 5.4.0
 (c++)"non-virtual thunk to QWaylandWindow::setGeometry(QRect const&)@Base" 5.4.0
 (c++)"non-virtual thunk to QWaylandWindow::setWindowIcon(QIcon const&)@Base" 5.4.0
 (c++)"non-virtual thunk to QWaylandWindow::setWindowFlags(QFlags<Qt::WindowType>)@Base" 5.4.0
 (c++)"non-virtual thunk to QWaylandWindow::setWindowState(Qt::WindowState)@Base" 5.4.0
 (c++)"non-virtual thunk to QWaylandWindow::setWindowTitle(QString const&)@Base" 5.4.0
 (c++)"non-virtual thunk to QWaylandWindow::setMouseGrabEnabled(bool)@Base" 5.4.0
 (c++)"non-virtual thunk to QWaylandWindow::requestActivateWindow()@Base" 5.4.0
 (c++)"non-virtual thunk to QWaylandWindow::handleContentOrientationChange(Qt::ScreenOrientation)@Base" 5.4.0
 (c++)"non-virtual thunk to QWaylandWindow::lower()@Base" 5.4.0
 (c++)"non-virtual thunk to QWaylandWindow::raise()@Base" 5.4.0
 (c++)"non-virtual thunk to QWaylandWindow::setParent(QPlatformWindow const*)@Base" 5.4.0
 (c++)"non-virtual thunk to QWaylandWindow::~QWaylandWindow()@Base" 5.4.0
 (c++)"non-virtual thunk to QWaylandDisplay::registry_global(unsigned int, QString const&, unsigned int)@Base" 5.4.0
 (c++)"non-virtual thunk to QWaylandDisplay::registry_global_remove(unsigned int)@Base" 5.4.0
 (c++)"non-virtual thunk to QWaylandDisplay::~QWaylandDisplay()@Base" 5.4.0
 (c++)"non-virtual thunk to QWaylandShmWindow::~QWaylandShmWindow()@Base" 5.4.0
 (c++)"non-virtual thunk to QWaylandDataSource::data_source_send(QString const&, int)@Base" 5.4.0
 (c++)"non-virtual thunk to QWaylandDataSource::data_source_target(QString const&)@Base" 5.4.0
 (c++)"non-virtual thunk to QWaylandDataSource::data_source_cancelled()@Base" 5.4.0
 (c++)"non-virtual thunk to QWaylandDataSource::~QWaylandDataSource()@Base" 5.4.0
 (c++)"non-virtual thunk to QWaylandXdgSurface::setTopLevel()@Base" 5.4.0
 (c++)"non-virtual thunk to QWaylandXdgSurface::sendProperty(QString const&, QVariant const&)@Base" 5.4.0
 (c++)"non-virtual thunk to QWaylandXdgSurface::setMaximized()@Base" 5.4.0
 (c++)"non-virtual thunk to QWaylandXdgSurface::setMinimized()@Base" 5.4.0
 (c++)"non-virtual thunk to QWaylandXdgSurface::setFullscreen()@Base" 5.4.0
 (c++)"non-virtual thunk to QWaylandXdgSurface::setWindowFlags(QFlags<Qt::WindowType>)@Base" 5.4.0
 (c++)"non-virtual thunk to QWaylandXdgSurface::updateTransientParent(QWindow*)@Base" 5.4.0
 (c++)"non-virtual thunk to QWaylandXdgSurface::setContentOrientationMask(QFlags<Qt::ScreenOrientation>)@Base" 5.4.0
 (c++)"non-virtual thunk to QWaylandXdgSurface::move(QWaylandInputDevice*)@Base" 5.4.0
 (c++)"non-virtual thunk to QWaylandXdgSurface::lower()@Base" 5.4.0
 (c++)"non-virtual thunk to QWaylandXdgSurface::raise()@Base" 5.4.0
 (c++)"non-virtual thunk to QWaylandXdgSurface::resize(QWaylandInputDevice*, wl_shell_surface_resize)@Base" 5.4.0
 (c++)"non-virtual thunk to QWaylandXdgSurface::setAppId(QString const&)@Base" 5.4.0
 (c++)"non-virtual thunk to QWaylandXdgSurface::setTitle(QString const&)@Base" 5.4.0
 (c++)"non-virtual thunk to QWaylandXdgSurface::setNormal()@Base" 5.4.0
 (c++)"non-virtual thunk to QWaylandXdgSurface::~QWaylandXdgSurface()@Base" 5.4.0
 (c++)"non-virtual thunk to QWaylandInputDevice::seat_capabilities(unsigned int)@Base" 5.4.0
 (c++)"non-virtual thunk to QWaylandInputDevice::~QWaylandInputDevice()@Base" 5.4.0
 (c++)"non-virtual thunk to QWaylandWlShellSurface::setTopLevel()@Base" 5.4.0
 (c++)"non-virtual thunk to QWaylandWlShellSurface::sendProperty(QString const&, QVariant const&)@Base" 5.4.0
 (c++)"non-virtual thunk to QWaylandWlShellSurface::setMaximized()@Base" 5.4.0
 (c++)"non-virtual thunk to QWaylandWlShellSurface::setMinimized()@Base" 5.4.0
 (c++)"non-virtual thunk to QWaylandWlShellSurface::setFullscreen()@Base" 5.4.0
 (c++)"non-virtual thunk to QWaylandWlShellSurface::setWindowFlags(QFlags<Qt::WindowType>)@Base" 5.4.0
 (c++)"non-virtual thunk to QWaylandWlShellSurface::updateTransientParent(QWindow*)@Base" 5.4.0
 (c++)"non-virtual thunk to QWaylandWlShellSurface::setContentOrientationMask(QFlags<Qt::ScreenOrientation>)@Base" 5.4.0
 (c++)"non-virtual thunk to QWaylandWlShellSurface::move(QWaylandInputDevice*)@Base" 5.4.0
 (c++)"non-virtual thunk to QWaylandWlShellSurface::lower()@Base" 5.4.0
 (c++)"non-virtual thunk to QWaylandWlShellSurface::raise()@Base" 5.4.0
 (c++)"non-virtual thunk to QWaylandWlShellSurface::resize(QWaylandInputDevice*, wl_shell_surface_resize)@Base" 5.4.0
 (c++)"non-virtual thunk to QWaylandWlShellSurface::setAppId(QString const&)@Base" 5.4.0
 (c++)"non-virtual thunk to QWaylandWlShellSurface::setTitle(QString const&)@Base" 5.4.0
 (c++)"non-virtual thunk to QWaylandWlShellSurface::setNormal()@Base" 5.4.0
 (c++)"non-virtual thunk to QWaylandWlShellSurface::~QWaylandWlShellSurface()@Base" 5.4.0
 (c++)"non-virtual thunk to QWaylandWindowManagerIntegration::openDocument(QUrl const&)@Base" 5.4.0
 (c++)"non-virtual thunk to QWaylandWindowManagerIntegration::openUrl(QUrl const&)@Base" 5.4.0
 (c++)"non-virtual thunk to QWaylandWindowManagerIntegration::~QWaylandWindowManagerIntegration()@Base" 5.4.0
 (c++)"non-virtual thunk to QWaylandWindow::frameMargins() const@Base" 5.4.0
 (c++)"non-virtual thunk to QWaylandWindow::winId() const@Base" 5.4.0
 (c++)"non-virtual thunk to QWaylandWindow::isExposed() const@Base" 5.4.0
 (c++)"non-virtual thunk to QWaylandWindowManagerIntegration::desktopEnvironment() const@Base" 5.4.0
 (c++)"non-virtual thunk to QWaylandWindowManagerIntegration::windowmanager_quit()@Base" 5.4.0
 (c++)"non-virtual thunk to QWaylandWindowManagerIntegration::windowmanager_hints(int)@Base" 5.4.0
 (c++)"non-virtual thunk to QWaylandWindowManagerIntegration::~QWaylandWindowManagerIntegration()@Base" 5.4.0
 (c++)"non-virtual thunk to QWaylandWindow::~QWaylandWindow()@Base" 5.4.0
 (c++)"non-virtual thunk to QWaylandShmWindow::~QWaylandShmWindow()@Base" 5.4.0
