# SymbolsHelper-Confirmed: 5.4.0 amd64
libQt5Multimedia.so.5 libqt5multimedia5 #MINVER#
 _ZN10QRadioData11qt_metacallEN11QMetaObject4CallEiPPv@Base 5.0.2
 _ZN10QRadioData11qt_metacastEPKc@Base 5.0.2
 _ZN10QRadioData14setMediaObjectEP12QMediaObject@Base 5.0.2
 _ZN10QRadioData16radioTextChangedE7QString@Base 5.0.2
 _ZN10QRadioData16staticMetaObjectE@Base 5.0.2
 _ZN10QRadioData16stationIdChangedE7QString@Base 5.0.2
 _ZN10QRadioData18programTypeChangedENS_11ProgramTypeE@Base 5.0.2
 _ZN10QRadioData18stationNameChangedE7QString@Base 5.0.2
 _ZN10QRadioData22programTypeNameChangedE7QString@Base 5.0.2
 _ZN10QRadioData32setAlternativeFrequenciesEnabledEb@Base 5.0.2
 _ZN10QRadioData36alternativeFrequenciesEnabledChangedEb@Base 5.0.2
 _ZN10QRadioData5errorENS_5ErrorE@Base 5.0.2
 _ZN10QRadioDataC1EP12QMediaObjectP7QObject@Base 5.0.2
 _ZN10QRadioDataC2EP12QMediaObjectP7QObject@Base 5.0.2
 _ZN10QRadioDataD0Ev@Base 5.0.2
 _ZN10QRadioDataD1Ev@Base 5.0.2
 _ZN10QRadioDataD2Ev@Base 5.0.2
 _ZN11QAudioInput11qt_metacallEN11QMetaObject4CallEiPPv@Base 5.0.2
 _ZN11QAudioInput11qt_metacastEPKc@Base 5.0.2
 _ZN11QAudioInput12stateChangedEN6QAudio5StateE@Base 5.0.2
 _ZN11QAudioInput13setBufferSizeEi@Base 5.0.2
 _ZN11QAudioInput16staticMetaObjectE@Base 5.0.2
 _ZN11QAudioInput17setNotifyIntervalEi@Base 5.0.2
 _ZN11QAudioInput4stopEv@Base 5.0.2
 _ZN11QAudioInput5resetEv@Base 5.0.2
 _ZN11QAudioInput5startEP9QIODevice@Base 5.0.2
 _ZN11QAudioInput5startEv@Base 5.0.2
 _ZN11QAudioInput6notifyEv@Base 5.0.2
 _ZN11QAudioInput6resumeEv@Base 5.0.2
 _ZN11QAudioInput7suspendEv@Base 5.0.2
 _ZN11QAudioInput9setVolumeEd@Base 5.2.0
 _ZN11QAudioInputC1ERK12QAudioFormatP7QObject@Base 5.0.2
 _ZN11QAudioInputC1ERK16QAudioDeviceInfoRK12QAudioFormatP7QObject@Base 5.0.2
 _ZN11QAudioInputC2ERK12QAudioFormatP7QObject@Base 5.0.2
 _ZN11QAudioInputC2ERK16QAudioDeviceInfoRK12QAudioFormatP7QObject@Base 5.0.2
 _ZN11QAudioInputD0Ev@Base 5.0.2
 _ZN11QAudioInputD1Ev@Base 5.0.2
 _ZN11QAudioInputD2Ev@Base 5.0.2
 _ZN11QAudioProbe11qt_metacallEN11QMetaObject4CallEiPPv@Base 5.0.2
 _ZN11QAudioProbe11qt_metacastEPKc@Base 5.0.2
 _ZN11QAudioProbe16staticMetaObjectE@Base 5.0.2
 _ZN11QAudioProbe17audioBufferProbedERK12QAudioBuffer@Base 5.0.2
 _ZN11QAudioProbe5flushEv@Base 5.0.2
 _ZN11QAudioProbe9setSourceEP12QMediaObject@Base 5.0.2
 _ZN11QAudioProbe9setSourceEP14QMediaRecorder@Base 5.0.2
 _ZN11QAudioProbeC1EP7QObject@Base 5.0.2
 _ZN11QAudioProbeC2EP7QObject@Base 5.0.2
 _ZN11QAudioProbeD0Ev@Base 5.0.2
 _ZN11QAudioProbeD1Ev@Base 5.0.2
 _ZN11QAudioProbeD2Ev@Base 5.0.2
 _ZN11QCameraInfo13defaultCameraEv@Base 5.3.0
 _ZN11QCameraInfo16availableCamerasEN7QCamera8PositionE@Base 5.3.0
 _ZN11QCameraInfoC1ERK10QByteArray@Base 5.3.0
 _ZN11QCameraInfoC1ERK7QCamera@Base 5.3.0
 _ZN11QCameraInfoC1ERKS_@Base 5.3.0
 _ZN11QCameraInfoC2ERK10QByteArray@Base 5.3.0
 _ZN11QCameraInfoC2ERK7QCamera@Base 5.3.0
 _ZN11QCameraInfoC2ERKS_@Base 5.3.0
 _ZN11QCameraInfoD1Ev@Base 5.3.0
 _ZN11QCameraInfoD2Ev@Base 5.3.0
 _ZN11QCameraInfoaSERKS_@Base 5.3.0
 _ZN11QRadioTuner11bandChangedENS_4BandE@Base 5.0.2
 _ZN11QRadioTuner11qt_metacallEN11QMetaObject4CallEiPPv@Base 5.0.2
 _ZN11QRadioTuner11qt_metacastEPKc@Base 5.0.2
 _ZN11QRadioTuner12cancelSearchEv@Base 5.0.2
 _ZN11QRadioTuner12mutedChangedEb@Base 5.0.2
 _ZN11QRadioTuner12setFrequencyEi@Base 5.0.2
 _ZN11QRadioTuner12stateChangedENS_5StateE@Base 5.0.2
 _ZN11QRadioTuner12stationFoundEi7QString@Base 5.0.2
 _ZN11QRadioTuner13searchForwardEv@Base 5.0.2
 _ZN11QRadioTuner13setStereoModeENS_10StereoModeE@Base 5.0.2
 _ZN11QRadioTuner13volumeChangedEi@Base 5.0.2
 _ZN11QRadioTuner14searchBackwardEv@Base 5.0.2
 _ZN11QRadioTuner16frequencyChangedEi@Base 5.0.2
 _ZN11QRadioTuner16searchingChangedEb@Base 5.0.2
 _ZN11QRadioTuner16staticMetaObjectE@Base 5.0.2
 _ZN11QRadioTuner17searchAllStationsENS_10SearchModeE@Base 5.0.2
 _ZN11QRadioTuner19stereoStatusChangedEb@Base 5.0.2
 _ZN11QRadioTuner21signalStrengthChangedEi@Base 5.0.2
 _ZN11QRadioTuner23antennaConnectedChangedEb@Base 5.0.2
 _ZN11QRadioTuner4stopEv@Base 5.0.2
 _ZN11QRadioTuner5errorENS_5ErrorE@Base 5.0.2
 _ZN11QRadioTuner5startEv@Base 5.0.2
 _ZN11QRadioTuner7setBandENS_4BandE@Base 5.0.2
 _ZN11QRadioTuner8setMutedEb@Base 5.0.2
 _ZN11QRadioTuner9setVolumeEi@Base 5.0.2
 _ZN11QRadioTunerC1EP7QObject@Base 5.0.2
 _ZN11QRadioTunerC2EP7QObject@Base 5.0.2
 _ZN11QRadioTunerD0Ev@Base 5.0.2
 _ZN11QRadioTunerD1Ev@Base 5.0.2
 _ZN11QRadioTunerD2Ev@Base 5.0.2
 _ZN11QVideoFrame10setEndTimeEx@Base 5.0.2
 _ZN11QVideoFrame11setMetaDataERK7QStringRK8QVariant@Base 5.0.2
 _ZN11QVideoFrame12setFieldTypeENS_9FieldTypeE@Base 5.0.2
 _ZN11QVideoFrame12setStartTimeEx@Base 5.0.2
 _ZN11QVideoFrame26imageFormatFromPixelFormatENS_11PixelFormatE@Base 5.0.2
 _ZN11QVideoFrame26pixelFormatFromImageFormatEN6QImage6FormatE@Base 5.0.2
 _ZN11QVideoFrame3mapEN20QAbstractVideoBuffer7MapModeE@Base 5.0.2
 _ZN11QVideoFrame4bitsEi@Base 5.4.0
 _ZN11QVideoFrame4bitsEv@Base 5.0.2
 _ZN11QVideoFrame5unmapEv@Base 5.0.2
 _ZN11QVideoFrameC1EP20QAbstractVideoBufferRK5QSizeNS_11PixelFormatE@Base 5.0.2
 _ZN11QVideoFrameC1ERK6QImage@Base 5.0.2
 _ZN11QVideoFrameC1ERKS_@Base 5.0.2
 _ZN11QVideoFrameC1EiRK5QSizeiNS_11PixelFormatE@Base 5.0.2
 _ZN11QVideoFrameC1Ev@Base 5.0.2
 _ZN11QVideoFrameC2EP20QAbstractVideoBufferRK5QSizeNS_11PixelFormatE@Base 5.0.2
 _ZN11QVideoFrameC2ERK6QImage@Base 5.0.2
 _ZN11QVideoFrameC2ERKS_@Base 5.0.2
 _ZN11QVideoFrameC2EiRK5QSizeiNS_11PixelFormatE@Base 5.0.2
 _ZN11QVideoFrameC2Ev@Base 5.0.2
 _ZN11QVideoFrameD1Ev@Base 5.0.2
 _ZN11QVideoFrameD2Ev@Base 5.0.2
 _ZN11QVideoFrameaSERKS_@Base 5.0.2
 _ZN11QVideoProbe11qt_metacallEN11QMetaObject4CallEiPPv@Base 5.0.2
 _ZN11QVideoProbe11qt_metacastEPKc@Base 5.0.2
 _ZN11QVideoProbe16staticMetaObjectE@Base 5.0.2
 _ZN11QVideoProbe16videoFrameProbedERK11QVideoFrame@Base 5.0.2
 _ZN11QVideoProbe5flushEv@Base 5.0.2
 _ZN11QVideoProbe9setSourceEP12QMediaObject@Base 5.0.2
 _ZN11QVideoProbe9setSourceEP14QMediaRecorder@Base 5.0.2
 _ZN11QVideoProbeC1EP7QObject@Base 5.0.2
 _ZN11QVideoProbeC2EP7QObject@Base 5.0.2
 _ZN11QVideoProbeD0Ev@Base 5.0.2
 _ZN11QVideoProbeD1Ev@Base 5.0.2
 _ZN11QVideoProbeD2Ev@Base 5.0.2
 _ZN12QAudioBuffer4dataEv@Base 5.0.2
 _ZN12QAudioBufferC1EP20QAbstractAudioBuffer@Base 5.0.2
 _ZN12QAudioBufferC1ERK10QByteArrayRK12QAudioFormatx@Base 5.0.2
 _ZN12QAudioBufferC1ERKS_@Base 5.0.2
 _ZN12QAudioBufferC1EiRK12QAudioFormatx@Base 5.0.2
 _ZN12QAudioBufferC1Ev@Base 5.0.2
 _ZN12QAudioBufferC2EP20QAbstractAudioBuffer@Base 5.0.2
 _ZN12QAudioBufferC2ERK10QByteArrayRK12QAudioFormatx@Base 5.0.2
 _ZN12QAudioBufferC2ERKS_@Base 5.0.2
 _ZN12QAudioBufferC2EiRK12QAudioFormatx@Base 5.0.2
 _ZN12QAudioBufferC2Ev@Base 5.0.2
 _ZN12QAudioBufferD1Ev@Base 5.0.2
 _ZN12QAudioBufferD2Ev@Base 5.0.2
 _ZN12QAudioBufferaSERKS_@Base 5.0.2
 _ZN12QAudioFormat12setByteOrderENS_6EndianE@Base 5.0.2
 _ZN12QAudioFormat13setSampleRateEi@Base 5.0.2
 _ZN12QAudioFormat13setSampleSizeEi@Base 5.0.2
 _ZN12QAudioFormat13setSampleTypeENS_10SampleTypeE@Base 5.0.2
 _ZN12QAudioFormat15setChannelCountEi@Base 5.0.2
 _ZN12QAudioFormat8setCodecERK7QString@Base 5.0.2
 _ZN12QAudioFormatC1ERKS_@Base 5.0.2
 _ZN12QAudioFormatC1Ev@Base 5.0.2
 _ZN12QAudioFormatC2ERKS_@Base 5.0.2
 _ZN12QAudioFormatC2Ev@Base 5.0.2
 _ZN12QAudioFormatD1Ev@Base 5.0.2
 _ZN12QAudioFormatD2Ev@Base 5.0.2
 _ZN12QAudioFormataSERKS_@Base 5.0.2
 _ZN12QAudioOutput11qt_metacallEN11QMetaObject4CallEiPPv@Base 5.0.2
 _ZN12QAudioOutput11qt_metacastEPKc@Base 5.0.2
 _ZN12QAudioOutput11setCategoryERK7QString@Base 5.0.2
 _ZN12QAudioOutput12stateChangedEN6QAudio5StateE@Base 5.0.2
 _ZN12QAudioOutput13setBufferSizeEi@Base 5.0.2
 _ZN12QAudioOutput16staticMetaObjectE@Base 5.0.2
 _ZN12QAudioOutput17setNotifyIntervalEi@Base 5.0.2
 _ZN12QAudioOutput4stopEv@Base 5.0.2
 _ZN12QAudioOutput5resetEv@Base 5.0.2
 _ZN12QAudioOutput5startEP9QIODevice@Base 5.0.2
 _ZN12QAudioOutput5startEv@Base 5.0.2
 _ZN12QAudioOutput6notifyEv@Base 5.0.2
 _ZN12QAudioOutput6resumeEv@Base 5.0.2
 _ZN12QAudioOutput7suspendEv@Base 5.0.2
 _ZN12QAudioOutput9setVolumeEd@Base 5.2.0
 _ZN12QAudioOutputC1ERK12QAudioFormatP7QObject@Base 5.0.2
 _ZN12QAudioOutputC1ERK16QAudioDeviceInfoRK12QAudioFormatP7QObject@Base 5.0.2
 _ZN12QAudioOutputC2ERK12QAudioFormatP7QObject@Base 5.0.2
 _ZN12QAudioOutputC2ERK16QAudioDeviceInfoRK12QAudioFormatP7QObject@Base 5.0.2
 _ZN12QAudioOutputD0Ev@Base 5.0.2
 _ZN12QAudioOutputD1Ev@Base 5.0.2
 _ZN12QAudioOutputD2Ev@Base 5.0.2
 _ZN12QCameraFocus11qt_metacallEN11QMetaObject4CallEiPPv@Base 5.0.2
 _ZN12QCameraFocus11qt_metacastEPKc@Base 5.0.2
 _ZN12QCameraFocus12setFocusModeE6QFlagsINS_9FocusModeEE@Base 5.0.2
 _ZN12QCameraFocus16staticMetaObjectE@Base 5.0.2
 _ZN12QCameraFocus17focusZonesChangedEv@Base 5.0.2
 _ZN12QCameraFocus17setFocusPointModeENS_14FocusPointModeE@Base 5.0.2
 _ZN12QCameraFocus18digitalZoomChangedEd@Base 5.2.0
 _ZN12QCameraFocus18opticalZoomChangedEd@Base 5.2.0
 _ZN12QCameraFocus19setCustomFocusPointERK7QPointF@Base 5.0.2
 _ZN12QCameraFocus25maximumDigitalZoomChangedEd@Base 5.2.0
 _ZN12QCameraFocus25maximumOpticalZoomChangedEd@Base 5.2.0
 _ZN12QCameraFocus6zoomToEdd@Base 5.2.0
 _ZN12QCameraFocusC1EP7QCamera@Base 5.0.2
 _ZN12QCameraFocusC2EP7QCamera@Base 5.0.2
 _ZN12QCameraFocusD0Ev@Base 5.0.2
 _ZN12QCameraFocusD1Ev@Base 5.0.2
 _ZN12QCameraFocusD2Ev@Base 5.0.2
 _ZN12QMediaObject11qt_metacallEN11QMetaObject4CallEiPPv@Base 5.0.2
 _ZN12QMediaObject11qt_metacastEPKc@Base 5.0.2
 _ZN12QMediaObject13setupControlsEv@Base 5.0.2
 _ZN12QMediaObject15metaDataChangedERK7QStringRK8QVariant@Base 5.0.2
 _ZN12QMediaObject15metaDataChangedEv@Base 5.0.2
 _ZN12QMediaObject16addPropertyWatchERK10QByteArray@Base 5.0.2
 _ZN12QMediaObject16staticMetaObjectE@Base 5.0.2
 _ZN12QMediaObject17setNotifyIntervalEi@Base 5.0.2
 _ZN12QMediaObject19availabilityChangedEN11QMultimedia18AvailabilityStatusE@Base 5.0.2
 _ZN12QMediaObject19availabilityChangedEb@Base 5.0.2
 _ZN12QMediaObject19removePropertyWatchERK10QByteArray@Base 5.0.2
 _ZN12QMediaObject21notifyIntervalChangedEi@Base 5.0.2
 _ZN12QMediaObject24metaDataAvailableChangedEb@Base 5.0.2
 _ZN12QMediaObject4bindEP7QObject@Base 5.0.2
 _ZN12QMediaObject6unbindEP7QObject@Base 5.0.2
 _ZN12QMediaObjectC1EP7QObjectP13QMediaService@Base 5.0.2
 _ZN12QMediaObjectC1ER19QMediaObjectPrivateP7QObjectP13QMediaService@Base 5.0.2
 _ZN12QMediaObjectC2EP7QObjectP13QMediaService@Base 5.0.2
 _ZN12QMediaObjectC2ER19QMediaObjectPrivateP7QObjectP13QMediaService@Base 5.0.2
 _ZN12QMediaObjectD0Ev@Base 5.0.2
 _ZN12QMediaObjectD1Ev@Base 5.0.2
 _ZN12QMediaObjectD2Ev@Base 5.0.2
 _ZN12QMediaPlayer10hasSupportERK7QStringRK11QStringList6QFlagsINS_4FlagEE@Base 5.0.2
 _ZN12QMediaPlayer11qt_metacallEN11QMetaObject4CallEiPPv@Base 5.0.2
 _ZN12QMediaPlayer11qt_metacastEPKc@Base 5.0.2
 _ZN12QMediaPlayer11setPlaylistEP14QMediaPlaylist@Base 5.0.2
 _ZN12QMediaPlayer11setPositionEx@Base 5.0.2
 _ZN12QMediaPlayer12mediaChangedERK13QMediaContent@Base 5.0.2
 _ZN12QMediaPlayer12mutedChangedEb@Base 5.0.2
 _ZN12QMediaPlayer12stateChangedENS_5StateE@Base 5.0.2
 _ZN12QMediaPlayer13volumeChangedEi@Base 5.0.2
 _ZN12QMediaPlayer14setVideoOutputEP12QVideoWidget@Base 5.0.2
 _ZN12QMediaPlayer14setVideoOutputEP18QGraphicsVideoItem@Base 5.0.2
 _ZN12QMediaPlayer14setVideoOutputEP21QAbstractVideoSurface@Base 5.0.2
 _ZN12QMediaPlayer15durationChangedEx@Base 5.0.2
 _ZN12QMediaPlayer15positionChangedEx@Base 5.0.2
 _ZN12QMediaPlayer15seekableChangedEb@Base 5.0.2
 _ZN12QMediaPlayer15setPlaybackRateEd@Base 5.2.0
 _ZN12QMediaPlayer16staticMetaObjectE@Base 5.0.2
 _ZN12QMediaPlayer18mediaStatusChangedENS_11MediaStatusE@Base 5.0.2
 _ZN12QMediaPlayer18supportedMimeTypesE6QFlagsINS_4FlagEE@Base 5.0.2
 _ZN12QMediaPlayer19bufferStatusChangedEi@Base 5.0.2
 _ZN12QMediaPlayer19currentMediaChangedERK13QMediaContent@Base 5.0.2
 _ZN12QMediaPlayer19playbackRateChangedEd@Base 5.2.0
 _ZN12QMediaPlayer21audioAvailableChangedEb@Base 5.0.2
 _ZN12QMediaPlayer21videoAvailableChangedEb@Base 5.0.2
 _ZN12QMediaPlayer24setNetworkConfigurationsERK5QListI21QNetworkConfigurationE@Base 5.0.2
 _ZN12QMediaPlayer27networkConfigurationChangedERK21QNetworkConfiguration@Base 5.0.2
 _ZN12QMediaPlayer4bindEP7QObject@Base 5.0.2
 _ZN12QMediaPlayer4playEv@Base 5.0.2
 _ZN12QMediaPlayer4stopEv@Base 5.0.2
 _ZN12QMediaPlayer5errorENS_5ErrorE@Base 5.0.2
 _ZN12QMediaPlayer5pauseEv@Base 5.0.2
 _ZN12QMediaPlayer6unbindEP7QObject@Base 5.0.2
 _ZN12QMediaPlayer8setMediaERK13QMediaContentP9QIODevice@Base 5.0.2
 _ZN12QMediaPlayer8setMutedEb@Base 5.0.2
 _ZN12QMediaPlayer9setVolumeEi@Base 5.0.2
 _ZN12QMediaPlayerC1EP7QObject6QFlagsINS_4FlagEE@Base 5.0.2
 _ZN12QMediaPlayerC2EP7QObject6QFlagsINS_4FlagEE@Base 5.0.2
 _ZN12QMediaPlayerD0Ev@Base 5.0.2
 _ZN12QMediaPlayerD1Ev@Base 5.0.2
 _ZN12QMediaPlayerD2Ev@Base 5.0.2
 _ZN12QSampleCache11qt_metacallEN11QMetaObject4CallEiPPv@Base 5.0.2
 _ZN12QSampleCache11qt_metacastEPKc@Base 5.0.2
 _ZN12QSampleCache11setCapacityEx@Base 5.0.2
 _ZN12QSampleCache12unloadSampleEP7QSample@Base 5.0.2
 _ZN12QSampleCache13requestSampleERK4QUrl@Base 5.0.2
 _ZN12QSampleCache14loadingReleaseEv@Base 5.0.2
 _ZN12QSampleCache16isLoadingChangedEv@Base 5.0.2
 _ZN12QSampleCache16staticMetaObjectE@Base 5.0.2
 _ZN12QSampleCache20networkAccessManagerEv@Base 5.0.2
 _ZN12QSampleCache24notifyUnreferencedSampleEP7QSample@Base 5.0.2
 _ZN12QSampleCache24removeUnreferencedSampleEP7QSample@Base 5.0.2
 _ZN12QSampleCache7refreshEx@Base 5.0.2
 _ZN12QSampleCacheC1EP7QObject@Base 5.0.2
 _ZN12QSampleCacheC2EP7QObject@Base 5.0.2
 _ZN12QSampleCacheD0Ev@Base 5.0.2
 _ZN12QSampleCacheD1Ev@Base 5.0.2
 _ZN12QSampleCacheD2Ev@Base 5.0.2
 _ZN12QSoundEffect11qt_metacallEN11QMetaObject4CallEiPPv@Base 5.0.2
 _ZN12QSoundEffect11qt_metacastEPKc@Base 5.0.2
 _ZN12QSoundEffect11setCategoryERK7QString@Base 5.0.2
 _ZN12QSoundEffect12mutedChangedEv@Base 5.0.2
 _ZN12QSoundEffect12setLoopCountEi@Base 5.0.2
 _ZN12QSoundEffect13loadedChangedEv@Base 5.0.2
 _ZN12QSoundEffect13sourceChangedEv@Base 5.0.2
 _ZN12QSoundEffect13statusChangedEv@Base 5.0.2
 _ZN12QSoundEffect13volumeChangedEv@Base 5.0.2
 _ZN12QSoundEffect14playingChangedEv@Base 5.0.2
 _ZN12QSoundEffect15categoryChangedEv@Base 5.0.2
 _ZN12QSoundEffect16loopCountChangedEv@Base 5.0.2
 _ZN12QSoundEffect16staticMetaObjectE@Base 5.0.2
 _ZN12QSoundEffect18supportedMimeTypesEv@Base 5.0.2
 _ZN12QSoundEffect21loopsRemainingChangedEv@Base 5.0.2
 _ZN12QSoundEffect4playEv@Base 5.0.2
 _ZN12QSoundEffect4stopEv@Base 5.0.2
 _ZN12QSoundEffect8setMutedEb@Base 5.0.2
 _ZN12QSoundEffect9setSourceERK4QUrl@Base 5.0.2
 _ZN12QSoundEffect9setVolumeEd@Base 5.2.0
 _ZN12QSoundEffectC1EP7QObject@Base 5.0.2
 _ZN12QSoundEffectC2EP7QObject@Base 5.0.2
 _ZN12QSoundEffectD0Ev@Base 5.0.2
 _ZN12QSoundEffectD1Ev@Base 5.0.2
 _ZN12QSoundEffectD2Ev@Base 5.0.2
 _ZN13QAudioDecoder10hasSupportERK7QStringRK11QStringList@Base 5.0.2
 _ZN13QAudioDecoder11bufferReadyEv@Base 5.0.2
 _ZN13QAudioDecoder11qt_metacallEN11QMetaObject4CallEiPPv@Base 5.0.2
 _ZN13QAudioDecoder11qt_metacastEPKc@Base 5.0.2
 _ZN13QAudioDecoder12stateChangedENS_5StateE@Base 5.0.2
 _ZN13QAudioDecoder13formatChangedERK12QAudioFormat@Base 5.0.2
 _ZN13QAudioDecoder13sourceChangedEv@Base 5.0.2
 _ZN13QAudioDecoder14setAudioFormatERK12QAudioFormat@Base 5.0.2
 _ZN13QAudioDecoder15durationChangedEx@Base 5.0.2
 _ZN13QAudioDecoder15positionChangedEx@Base 5.0.2
 _ZN13QAudioDecoder15setSourceDeviceEP9QIODevice@Base 5.0.2
 _ZN13QAudioDecoder16staticMetaObjectE@Base 5.0.2
 _ZN13QAudioDecoder17setSourceFilenameERK7QString@Base 5.0.2
 _ZN13QAudioDecoder22bufferAvailableChangedEb@Base 5.0.2
 _ZN13QAudioDecoder4bindEP7QObject@Base 5.0.2
 _ZN13QAudioDecoder4stopEv@Base 5.0.2
 _ZN13QAudioDecoder5errorENS_5ErrorE@Base 5.0.2
 _ZN13QAudioDecoder5startEv@Base 5.0.2
 _ZN13QAudioDecoder6unbindEP7QObject@Base 5.0.2
 _ZN13QAudioDecoder8finishedEv@Base 5.0.2
 _ZN13QAudioDecoderC1EP7QObject@Base 5.0.2
 _ZN13QAudioDecoderC2EP7QObject@Base 5.0.2
 _ZN13QAudioDecoderD0Ev@Base 5.0.2
 _ZN13QAudioDecoderD1Ev@Base 5.0.2
 _ZN13QAudioDecoderD2Ev@Base 5.0.2
 _ZN13QMediaContentC1EP14QMediaPlaylistRK4QUrlb@Base 5.0.2
 _ZN13QMediaContentC1ERK14QMediaResource@Base 5.0.2
 _ZN13QMediaContentC1ERK15QNetworkRequest@Base 5.0.2
 _ZN13QMediaContentC1ERK4QUrl@Base 5.0.2
 _ZN13QMediaContentC1ERK5QListI14QMediaResourceE@Base 5.0.2
 _ZN13QMediaContentC1ERKS_@Base 5.0.2
 _ZN13QMediaContentC1Ev@Base 5.0.2
 _ZN13QMediaContentC2EP14QMediaPlaylistRK4QUrlb@Base 5.0.2
 _ZN13QMediaContentC2ERK14QMediaResource@Base 5.0.2
 _ZN13QMediaContentC2ERK15QNetworkRequest@Base 5.0.2
 _ZN13QMediaContentC2ERK4QUrl@Base 5.0.2
 _ZN13QMediaContentC2ERK5QListI14QMediaResourceE@Base 5.0.2
 _ZN13QMediaContentC2ERKS_@Base 5.0.2
 _ZN13QMediaContentC2Ev@Base 5.0.2
 _ZN13QMediaContentD1Ev@Base 5.0.2
 _ZN13QMediaContentD2Ev@Base 5.0.2
 _ZN13QMediaContentaSERKS_@Base 5.0.2
 _ZN13QMediaControl11qt_metacallEN11QMetaObject4CallEiPPv@Base 5.0.2
 _ZN13QMediaControl11qt_metacastEPKc@Base 5.0.2
 _ZN13QMediaControl16staticMetaObjectE@Base 5.0.2
 _ZN13QMediaControlC1EP7QObject@Base 5.0.2
 _ZN13QMediaControlC1ER20QMediaControlPrivateP7QObject@Base 5.0.2
 _ZN13QMediaControlC2EP7QObject@Base 5.0.2
 _ZN13QMediaControlC2ER20QMediaControlPrivateP7QObject@Base 5.0.2
 _ZN13QMediaControlD0Ev@Base 5.0.2
 _ZN13QMediaControlD1Ev@Base 5.0.2
 _ZN13QMediaControlD2Ev@Base 5.0.2
 _ZN13QMediaService11qt_metacallEN11QMetaObject4CallEiPPv@Base 5.0.2
 _ZN13QMediaService11qt_metacastEPKc@Base 5.0.2
 _ZN13QMediaService16staticMetaObjectE@Base 5.0.2
 _ZN13QMediaServiceC1EP7QObject@Base 5.0.2
 _ZN13QMediaServiceC1ER20QMediaServicePrivateP7QObject@Base 5.0.2
 _ZN13QMediaServiceC2EP7QObject@Base 5.0.2
 _ZN13QMediaServiceC2ER20QMediaServicePrivateP7QObject@Base 5.0.2
 _ZN13QMediaServiceD0Ev@Base 5.0.2
 _ZN13QMediaServiceD1Ev@Base 5.0.2
 _ZN13QMediaServiceD2Ev@Base 5.0.2
 _ZN14QAudioRecorder11qt_metacallEN11QMetaObject4CallEiPPv@Base 5.0.2
 _ZN14QAudioRecorder11qt_metacastEPKc@Base 5.0.2
 _ZN14QAudioRecorder13setAudioInputERK7QString@Base 5.0.2
 _ZN14QAudioRecorder16staticMetaObjectE@Base 5.0.2
 _ZN14QAudioRecorder17audioInputChangedERK7QString@Base 5.0.2
 _ZN14QAudioRecorder27availableAudioInputsChangedEv@Base 5.0.2
 _ZN14QAudioRecorderC1EP7QObject@Base 5.0.2
 _ZN14QAudioRecorderC2EP7QObject@Base 5.0.2
 _ZN14QAudioRecorderD0Ev@Base 5.0.2
 _ZN14QAudioRecorderD1Ev@Base 5.0.2
 _ZN14QAudioRecorderD2Ev@Base 5.0.2
 _ZN14QCameraControl11qt_metacallEN11QMetaObject4CallEiPPv@Base 5.0.2
 _ZN14QCameraControl11qt_metacastEPKc@Base 5.0.2
 _ZN14QCameraControl12stateChangedEN7QCamera5StateE@Base 5.0.2
 _ZN14QCameraControl13statusChangedEN7QCamera6StatusE@Base 5.0.2
 _ZN14QCameraControl16staticMetaObjectE@Base 5.0.2
 _ZN14QCameraControl18captureModeChangedE6QFlagsIN7QCamera11CaptureModeEE@Base 5.0.2
 _ZN14QCameraControl5errorEiRK7QString@Base 5.0.2
 _ZN14QCameraControlC1EP7QObject@Base 5.0.2
 _ZN14QCameraControlC2EP7QObject@Base 5.0.2
 _ZN14QCameraControlD0Ev@Base 5.0.2
 _ZN14QCameraControlD1Ev@Base 5.0.2
 _ZN14QCameraControlD2Ev@Base 5.0.2
 _ZN14QMediaMetaData10AlbumTitleE@Base 5.0.2
 _ZN14QMediaMetaData10AudioCodecE@Base 5.0.2
 _ZN14QMediaMetaData10ResolutionE@Base 5.0.2
 _ZN14QMediaMetaData10SampleRateE@Base 5.0.2
 _ZN14QMediaMetaData10SaturationE@Base 5.0.2
 _ZN14QMediaMetaData10TrackCountE@Base 5.0.2
 _ZN14QMediaMetaData10UserRatingE@Base 5.0.2
 _ZN14QMediaMetaData10VideoCodecE@Base 5.0.2
 _ZN14QMediaMetaData11AlbumArtistE@Base 5.0.2
 _ZN14QMediaMetaData11CameraModelE@Base 5.0.2
 _ZN14QMediaMetaData11DescriptionE@Base 5.0.2
 _ZN14QMediaMetaData11FocalLengthE@Base 5.0.2
 _ZN14QMediaMetaData11GPSAltitudeE@Base 5.0.2
 _ZN14QMediaMetaData11GPSLatitudeE@Base 5.0.2
 _ZN14QMediaMetaData11GPSMapDatumE@Base 5.0.2
 _ZN14QMediaMetaData11GPSTrackRefE@Base 5.0.2
 _ZN14QMediaMetaData11GainControlE@Base 5.0.2
 _ZN14QMediaMetaData11LightSourceE@Base 5.0.2
 _ZN14QMediaMetaData11OrientationE@Base 5.0.2
 _ZN14QMediaMetaData11PosterImageE@Base 5.0.2
 _ZN14QMediaMetaData11TrackNumberE@Base 5.0.2
 _ZN14QMediaMetaData12AudioBitRateE@Base 5.0.2
 _ZN14QMediaMetaData12AverageLevelE@Base 5.0.2
 _ZN14QMediaMetaData12ChannelCountE@Base 5.0.2
 _ZN14QMediaMetaData12ExposureModeE@Base 5.0.2
 _ZN14QMediaMetaData12ExposureTimeE@Base 5.0.2
 _ZN14QMediaMetaData12GPSLongitudeE@Base 5.0.2
 _ZN14QMediaMetaData12GPSTimeStampE@Base 5.0.2
 _ZN14QMediaMetaData12MeteringModeE@Base 5.0.2
 _ZN14QMediaMetaData12VideoBitRateE@Base 5.0.2
 _ZN14QMediaMetaData12WhiteBalanceE@Base 5.0.2
 _ZN14QMediaMetaData13ChapterNumberE@Base 5.0.2
 _ZN14QMediaMetaData13CoverArtImageE@Base 5.0.2
 _ZN14QMediaMetaData13GPSSatellitesE@Base 5.0.2
 _ZN14QMediaMetaData13LeadPerformerE@Base 5.0.2
 _ZN14QMediaMetaData14ParentalRatingE@Base 5.0.2
 _ZN14QMediaMetaData14ThumbnailImageE@Base 5.0.2
 _ZN14QMediaMetaData14VideoFrameRateE@Base 5.0.2
 _ZN14QMediaMetaData15ExposureProgramE@Base 5.0.2
 _ZN14QMediaMetaData15GPSImgDirectionE@Base 5.0.2
 _ZN14QMediaMetaData15ISOSpeedRatingsE@Base 5.0.2
 _ZN14QMediaMetaData15SubjectDistanceE@Base 5.0.2
 _ZN14QMediaMetaData16CoverArtUrlLargeE@Base 5.0.2
 _ZN14QMediaMetaData16CoverArtUrlSmallE@Base 5.0.2
 _ZN14QMediaMetaData16DateTimeOriginalE@Base 5.0.2
 _ZN14QMediaMetaData16DigitalZoomRatioE@Base 5.0.2
 _ZN14QMediaMetaData16PixelAspectRatioE@Base 5.0.2
 _ZN14QMediaMetaData16SceneCaptureTypeE@Base 5.0.2
 _ZN14QMediaMetaData17DateTimeDigitizedE@Base 5.0.2
 _ZN14QMediaMetaData17ExposureBiasValueE@Base 5.0.2
 _ZN14QMediaMetaData18CameraManufacturerE@Base 5.0.2
 _ZN14QMediaMetaData18ContributingArtistE@Base 5.0.2
 _ZN14QMediaMetaData18GPSAreaInformationE@Base 5.0.2
 _ZN14QMediaMetaData18GPSImgDirectionRefE@Base 5.0.2
 _ZN14QMediaMetaData18RatingOrganizationE@Base 5.0.2
 _ZN14QMediaMetaData19GPSProcessingMethodE@Base 5.0.2
 _ZN14QMediaMetaData21FocalLengthIn35mmFilmE@Base 5.0.2
 _ZN14QMediaMetaData24DeviceSettingDescriptionE@Base 5.0.2
 _ZN14QMediaMetaData4DateE@Base 5.0.2
 _ZN14QMediaMetaData4MoodE@Base 5.0.2
 _ZN14QMediaMetaData4SizeE@Base 5.0.2
 _ZN14QMediaMetaData4YearE@Base 5.0.2
 _ZN14QMediaMetaData5EventE@Base 5.0.2
 _ZN14QMediaMetaData5FlashE@Base 5.0.2
 _ZN14QMediaMetaData5GenreE@Base 5.0.2
 _ZN14QMediaMetaData5TitleE@Base 5.0.2
 _ZN14QMediaMetaData6AuthorE@Base 5.0.2
 _ZN14QMediaMetaData6GPSDOPE@Base 5.0.2
 _ZN14QMediaMetaData6LyricsE@Base 5.0.2
 _ZN14QMediaMetaData6WriterE@Base 5.0.2
 _ZN14QMediaMetaData7CommentE@Base 5.0.2
 _ZN14QMediaMetaData7FNumberE@Base 5.0.2
 _ZN14QMediaMetaData7SubjectE@Base 5.0.2
 _ZN14QMediaMetaData8CategoryE@Base 5.0.2
 _ZN14QMediaMetaData8ComposerE@Base 5.0.2
 _ZN14QMediaMetaData8ContrastE@Base 5.0.2
 _ZN14QMediaMetaData8DirectorE@Base 5.0.2
 _ZN14QMediaMetaData8DurationE@Base 5.0.2
 _ZN14QMediaMetaData8GPSSpeedE@Base 5.0.2
 _ZN14QMediaMetaData8GPSTrackE@Base 5.0.2
 _ZN14QMediaMetaData8KeywordsE@Base 5.0.2
 _ZN14QMediaMetaData8LanguageE@Base 5.0.2
 _ZN14QMediaMetaData8SubTitleE@Base 5.0.2
 _ZN14QMediaMetaData9ConductorE@Base 5.0.2
 _ZN14QMediaMetaData9CopyrightE@Base 5.0.2
 _ZN14QMediaMetaData9GPSStatusE@Base 5.0.2
 _ZN14QMediaMetaData9MediaTypeE@Base 5.0.2
 _ZN14QMediaMetaData9PeakValueE@Base 5.0.2
 _ZN14QMediaMetaData9PosterUrlE@Base 5.0.2
 _ZN14QMediaMetaData9PublisherE@Base 5.0.2
 _ZN14QMediaMetaData9SharpnessE@Base 5.0.2
 _ZN14QMediaPlaylist10loadFailedEv@Base 5.0.2
 _ZN14QMediaPlaylist11insertMediaEiRK13QMediaContent@Base 5.0.2
 _ZN14QMediaPlaylist11insertMediaEiRK5QListI13QMediaContentE@Base 5.0.2
 _ZN14QMediaPlaylist11qt_metacallEN11QMetaObject4CallEiPPv@Base 5.0.2
 _ZN14QMediaPlaylist11qt_metacastEPKc@Base 5.0.2
 _ZN14QMediaPlaylist11removeMediaEi@Base 5.0.2
 _ZN14QMediaPlaylist11removeMediaEii@Base 5.0.2
 _ZN14QMediaPlaylist12mediaChangedEii@Base 5.0.2
 _ZN14QMediaPlaylist12mediaRemovedEii@Base 5.0.2
 _ZN14QMediaPlaylist13mediaInsertedEii@Base 5.0.2
 _ZN14QMediaPlaylist14setMediaObjectEP12QMediaObject@Base 5.0.2
 _ZN14QMediaPlaylist15setCurrentIndexEi@Base 5.0.2
 _ZN14QMediaPlaylist15setPlaybackModeENS_12PlaybackModeE@Base 5.0.2
 _ZN14QMediaPlaylist16staticMetaObjectE@Base 5.0.2
 _ZN14QMediaPlaylist19currentIndexChangedEi@Base 5.0.2
 _ZN14QMediaPlaylist19currentMediaChangedERK13QMediaContent@Base 5.0.2
 _ZN14QMediaPlaylist19playbackModeChangedENS_12PlaybackModeE@Base 5.0.2
 _ZN14QMediaPlaylist21mediaAboutToBeRemovedEii@Base 5.0.2
 _ZN14QMediaPlaylist22mediaAboutToBeInsertedEii@Base 5.0.2
 _ZN14QMediaPlaylist4loadEP9QIODevicePKc@Base 5.0.2
 _ZN14QMediaPlaylist4loadERK15QNetworkRequestPKc@Base 5.0.2
 _ZN14QMediaPlaylist4loadERK4QUrlPKc@Base 5.0.2
 _ZN14QMediaPlaylist4nextEv@Base 5.0.2
 _ZN14QMediaPlaylist4saveEP9QIODevicePKc@Base 5.0.2
 _ZN14QMediaPlaylist4saveERK4QUrlPKc@Base 5.0.2
 _ZN14QMediaPlaylist5clearEv@Base 5.0.2
 _ZN14QMediaPlaylist6loadedEv@Base 5.0.2
 _ZN14QMediaPlaylist7shuffleEv@Base 5.0.2
 _ZN14QMediaPlaylist8addMediaERK13QMediaContent@Base 5.0.2
 _ZN14QMediaPlaylist8addMediaERK5QListI13QMediaContentE@Base 5.0.2
 _ZN14QMediaPlaylist8previousEv@Base 5.0.2
 _ZN14QMediaPlaylistC1EP7QObject@Base 5.0.2
 _ZN14QMediaPlaylistC2EP7QObject@Base 5.0.2
 _ZN14QMediaPlaylistD0Ev@Base 5.0.2
 _ZN14QMediaPlaylistD1Ev@Base 5.0.2
 _ZN14QMediaPlaylistD2Ev@Base 5.0.2
 _ZN14QMediaRecorder11qt_metacallEN11QMetaObject4CallEiPPv@Base 5.0.2
 _ZN14QMediaRecorder11qt_metacastEPKc@Base 5.0.2
 _ZN14QMediaRecorder11setMetaDataERK7QStringRK8QVariant@Base 5.0.2
 _ZN14QMediaRecorder12mutedChangedEb@Base 5.0.2
 _ZN14QMediaRecorder12stateChangedENS_5StateE@Base 5.0.2
 _ZN14QMediaRecorder13statusChangedENS_6StatusE@Base 5.0.2
 _ZN14QMediaRecorder13volumeChangedEd@Base 5.2.0
 _ZN14QMediaRecorder14setMediaObjectEP12QMediaObject@Base 5.0.2
 _ZN14QMediaRecorder15durationChangedEx@Base 5.0.2
 _ZN14QMediaRecorder15metaDataChangedERK7QStringRK8QVariant@Base 5.0.2
 _ZN14QMediaRecorder15metaDataChangedEv@Base 5.0.2
 _ZN14QMediaRecorder16setAudioSettingsERK21QAudioEncoderSettings@Base 5.0.2
 _ZN14QMediaRecorder16setVideoSettingsERK21QVideoEncoderSettings@Base 5.0.2
 _ZN14QMediaRecorder16staticMetaObjectE@Base 5.0.2
 _ZN14QMediaRecorder17setOutputLocationERK4QUrl@Base 5.0.2
 _ZN14QMediaRecorder18setContainerFormatERK7QString@Base 5.0.2
 _ZN14QMediaRecorder19availabilityChangedEN11QMultimedia18AvailabilityStatusE@Base 5.0.2
 _ZN14QMediaRecorder19availabilityChangedEb@Base 5.0.2
 _ZN14QMediaRecorder19setEncodingSettingsERK21QAudioEncoderSettingsRK21QVideoEncoderSettingsRK7QString@Base 5.0.2
 _ZN14QMediaRecorder21actualLocationChangedERK4QUrl@Base 5.0.2
 _ZN14QMediaRecorder23metaDataWritableChangedEb@Base 5.0.2
 _ZN14QMediaRecorder24metaDataAvailableChangedEb@Base 5.0.2
 _ZN14QMediaRecorder4stopEv@Base 5.0.2
 _ZN14QMediaRecorder5errorENS_5ErrorE@Base 5.0.2
 _ZN14QMediaRecorder5pauseEv@Base 5.0.2
 _ZN14QMediaRecorder6recordEv@Base 5.0.2
 _ZN14QMediaRecorder8setMutedEb@Base 5.0.2
 _ZN14QMediaRecorder9setVolumeEd@Base 5.2.0
 _ZN14QMediaRecorderC1EP12QMediaObjectP7QObject@Base 5.0.2
 _ZN14QMediaRecorderC1ER21QMediaRecorderPrivateP12QMediaObjectP7QObject@Base 5.0.2
 _ZN14QMediaRecorderC2EP12QMediaObjectP7QObject@Base 5.0.2
 _ZN14QMediaRecorderC2ER21QMediaRecorderPrivateP12QMediaObjectP7QObject@Base 5.0.2
 _ZN14QMediaRecorderD0Ev@Base 5.0.2
 _ZN14QMediaRecorderD1Ev@Base 5.0.2
 _ZN14QMediaRecorderD2Ev@Base 5.0.2
 _ZN14QMediaResource11setDataSizeEx@Base 5.0.2
 _ZN14QMediaResource11setLanguageERK7QString@Base 5.0.2
 _ZN14QMediaResource13setAudioCodecERK7QString@Base 5.0.2
 _ZN14QMediaResource13setResolutionERK5QSize@Base 5.0.2
 _ZN14QMediaResource13setResolutionEii@Base 5.0.2
 _ZN14QMediaResource13setSampleRateEi@Base 5.0.2
 _ZN14QMediaResource13setVideoCodecERK7QString@Base 5.0.2
 _ZN14QMediaResource15setAudioBitRateEi@Base 5.0.2
 _ZN14QMediaResource15setChannelCountEi@Base 5.0.2
 _ZN14QMediaResource15setVideoBitRateEi@Base 5.0.2
 _ZN14QMediaResourceC1ERK15QNetworkRequestRK7QString@Base 5.0.2
 _ZN14QMediaResourceC1ERK4QUrlRK7QString@Base 5.0.2
 _ZN14QMediaResourceC1ERKS_@Base 5.0.2
 _ZN14QMediaResourceC1Ev@Base 5.0.2
 _ZN14QMediaResourceC2ERK15QNetworkRequestRK7QString@Base 5.0.2
 _ZN14QMediaResourceC2ERK4QUrlRK7QString@Base 5.0.2
 _ZN14QMediaResourceC2ERKS_@Base 5.0.2
 _ZN14QMediaResourceC2Ev@Base 5.0.2
 _ZN14QMediaResourceD1Ev@Base 5.0.2
 _ZN14QMediaResourceD2Ev@Base 5.0.2
 _ZN14QMediaResourceaSERKS_@Base 5.0.2
 _ZN15QCameraExposure10flashReadyEb@Base 5.0.2
 _ZN15QCameraExposure11qt_metacallEN11QMetaObject4CallEiPPv@Base 5.0.2
 _ZN15QCameraExposure11qt_metacastEPKc@Base 5.0.2
 _ZN15QCameraExposure12setFlashModeE6QFlagsINS_9FlashModeEE@Base 5.0.2
 _ZN15QCameraExposure15apertureChangedEd@Base 5.2.0
 _ZN15QCameraExposure15setAutoApertureEv@Base 5.0.2
 _ZN15QCameraExposure15setExposureModeENS_12ExposureModeE@Base 5.0.2
 _ZN15QCameraExposure15setMeteringModeENS_12MeteringModeE@Base 5.0.2
 _ZN15QCameraExposure16staticMetaObjectE@Base 5.0.2
 _ZN15QCameraExposure17setManualApertureEd@Base 5.2.0
 _ZN15QCameraExposure19setAutoShutterSpeedEv@Base 5.0.2
 _ZN15QCameraExposure19shutterSpeedChangedEd@Base 5.2.0
 _ZN15QCameraExposure20apertureRangeChangedEv@Base 5.0.2
 _ZN15QCameraExposure20setSpotMeteringPointERK7QPointF@Base 5.0.2
 _ZN15QCameraExposure21isoSensitivityChangedEi@Base 5.0.2
 _ZN15QCameraExposure21setAutoIsoSensitivityEv@Base 5.0.2
 _ZN15QCameraExposure21setManualShutterSpeedEd@Base 5.2.0
 _ZN15QCameraExposure23setExposureCompensationEd@Base 5.2.0
 _ZN15QCameraExposure23setManualIsoSensitivityEi@Base 5.0.2
 _ZN15QCameraExposure24shutterSpeedRangeChangedEv@Base 5.0.2
 _ZN15QCameraExposure27exposureCompensationChangedEd@Base 5.2.0
 _ZN15QCameraExposureC1EP7QCamera@Base 5.0.2
 _ZN15QCameraExposureC2EP7QCamera@Base 5.0.2
 _ZN15QCameraExposureD0Ev@Base 5.0.2
 _ZN15QCameraExposureD1Ev@Base 5.0.2
 _ZN15QCameraExposureD2Ev@Base 5.0.2
 _ZN15QMediaTimeRange11addIntervalERK18QMediaTimeInterval@Base 5.0.2
 _ZN15QMediaTimeRange11addIntervalExx@Base 5.0.2
 _ZN15QMediaTimeRange12addTimeRangeERKS_@Base 5.0.2
 _ZN15QMediaTimeRange14removeIntervalERK18QMediaTimeInterval@Base 5.0.2
 _ZN15QMediaTimeRange14removeIntervalExx@Base 5.0.2
 _ZN15QMediaTimeRange15removeTimeRangeERKS_@Base 5.0.2
 _ZN15QMediaTimeRange5clearEv@Base 5.0.2
 _ZN15QMediaTimeRangeC1ERK18QMediaTimeInterval@Base 5.0.2
 _ZN15QMediaTimeRangeC1ERKS_@Base 5.0.2
 _ZN15QMediaTimeRangeC1Ev@Base 5.0.2
 _ZN15QMediaTimeRangeC1Exx@Base 5.0.2
 _ZN15QMediaTimeRangeC2ERK18QMediaTimeInterval@Base 5.0.2
 _ZN15QMediaTimeRangeC2ERKS_@Base 5.0.2
 _ZN15QMediaTimeRangeC2Ev@Base 5.0.2
 _ZN15QMediaTimeRangeC2Exx@Base 5.0.2
 _ZN15QMediaTimeRangeD1Ev@Base 5.0.2
 _ZN15QMediaTimeRangeD2Ev@Base 5.0.2
 _ZN15QMediaTimeRangeaSERK18QMediaTimeInterval@Base 5.0.2
 _ZN15QMediaTimeRangeaSERKS_@Base 5.0.2
 _ZN15QMediaTimeRangemIERK18QMediaTimeInterval@Base 5.0.2
 _ZN15QMediaTimeRangemIERKS_@Base 5.0.2
 _ZN15QMediaTimeRangepLERK18QMediaTimeInterval@Base 5.0.2
 _ZN15QMediaTimeRangepLERKS_@Base 5.0.2
 _ZN16QAudioDeviceInfo16availableDevicesEN6QAudio4ModeE@Base 5.0.2
 _ZN16QAudioDeviceInfo18defaultInputDeviceEv@Base 5.0.2
 _ZN16QAudioDeviceInfo19defaultOutputDeviceEv@Base 5.0.2
 _ZN16QAudioDeviceInfoC1ERK7QStringRK10QByteArrayN6QAudio4ModeE@Base 5.0.2
 _ZN16QAudioDeviceInfoC1ERKS_@Base 5.0.2
 _ZN16QAudioDeviceInfoC1Ev@Base 5.0.2
 _ZN16QAudioDeviceInfoC2ERK7QStringRK10QByteArrayN6QAudio4ModeE@Base 5.0.2
 _ZN16QAudioDeviceInfoC2ERKS_@Base 5.0.2
 _ZN16QAudioDeviceInfoC2Ev@Base 5.0.2
 _ZN16QAudioDeviceInfoD1Ev@Base 5.0.2
 _ZN16QAudioDeviceInfoD2Ev@Base 5.0.2
 _ZN16QAudioDeviceInfoaSERKS_@Base 5.0.2
 _ZN16QCameraFocusZone9setStatusENS_15FocusZoneStatusE@Base 5.0.2
 _ZN16QCameraFocusZoneC1ERK6QRectFNS_15FocusZoneStatusE@Base 5.0.2
 _ZN16QCameraFocusZoneC1ERKS_@Base 5.0.2
 _ZN16QCameraFocusZoneC1Ev@Base 5.0.2
 _ZN16QCameraFocusZoneC2ERK6QRectFNS_15FocusZoneStatusE@Base 5.0.2
 _ZN16QCameraFocusZoneC2ERKS_@Base 5.0.2
 _ZN16QCameraFocusZoneC2Ev@Base 5.0.2
 _ZN16QCameraFocusZoneD1Ev@Base 5.0.2
 _ZN16QCameraFocusZoneD2Ev@Base 5.0.2
 _ZN16QCameraFocusZoneaSERKS_@Base 5.0.2
 _ZN17QImageVideoBuffer3mapEN20QAbstractVideoBuffer7MapModeEPiS2_@Base 5.0.2
 _ZN17QImageVideoBuffer5unmapEv@Base 5.0.2
 _ZN17QImageVideoBufferC1ERK6QImage@Base 5.0.2
 _ZN17QImageVideoBufferC2ERK6QImage@Base 5.0.2
 _ZN17QImageVideoBufferD0Ev@Base 5.0.2
 _ZN17QImageVideoBufferD1Ev@Base 5.0.2
 _ZN17QImageVideoBufferD2Ev@Base 5.0.2
 _ZN17QRadioDataControl11qt_metacallEN11QMetaObject4CallEiPPv@Base 5.0.2
 _ZN17QRadioDataControl11qt_metacastEPKc@Base 5.0.2
 _ZN17QRadioDataControl16radioTextChangedE7QString@Base 5.0.2
 _ZN17QRadioDataControl16staticMetaObjectE@Base 5.0.2
 _ZN17QRadioDataControl16stationIdChangedE7QString@Base 5.0.2
 _ZN17QRadioDataControl18programTypeChangedEN10QRadioData11ProgramTypeE@Base 5.0.2
 _ZN17QRadioDataControl18stationNameChangedE7QString@Base 5.0.2
 _ZN17QRadioDataControl22programTypeNameChangedE7QString@Base 5.0.2
 _ZN17QRadioDataControl36alternativeFrequenciesEnabledChangedEb@Base 5.0.2
 _ZN17QRadioDataControl5errorEN10QRadioData5ErrorE@Base 5.0.2
 _ZN17QRadioDataControlC1EP7QObject@Base 5.0.2
 _ZN17QRadioDataControlC2EP7QObject@Base 5.0.2
 _ZN17QRadioDataControlD0Ev@Base 5.0.2
 _ZN17QRadioDataControlD1Ev@Base 5.0.2
 _ZN17QRadioDataControlD2Ev@Base 5.0.2
 _ZN18QAudioSystemPlugin11qt_metacallEN11QMetaObject4CallEiPPv@Base 5.0.2
 _ZN18QAudioSystemPlugin11qt_metacastEPKc@Base 5.0.2
 _ZN18QAudioSystemPlugin16staticMetaObjectE@Base 5.0.2
 _ZN18QAudioSystemPluginC1EP7QObject@Base 5.0.2
 _ZN18QAudioSystemPluginC2EP7QObject@Base 5.0.2
 _ZN18QAudioSystemPluginD0Ev@Base 5.0.2
 _ZN18QAudioSystemPluginD1Ev@Base 5.0.2
 _ZN18QAudioSystemPluginD2Ev@Base 5.0.2
 _ZN18QCameraInfoControl11qt_metacallEN11QMetaObject4CallEiPPv@Base 5.3.0
 _ZN18QCameraInfoControl11qt_metacastEPKc@Base 5.3.0
 _ZN18QCameraInfoControl16staticMetaObjectE@Base 5.3.0
 _ZN18QCameraInfoControlC1EP7QObject@Base 5.3.0
 _ZN18QCameraInfoControlC2EP7QObject@Base 5.3.0
 _ZN18QCameraInfoControlD0Ev@Base 5.3.0
 _ZN18QCameraInfoControlD1Ev@Base 5.3.0
 _ZN18QCameraInfoControlD2Ev@Base 5.3.0
 _ZN18QCameraZoomControl11qt_metacallEN11QMetaObject4CallEiPPv@Base 5.0.2
 _ZN18QCameraZoomControl11qt_metacastEPKc@Base 5.0.2
 _ZN18QCameraZoomControl16staticMetaObjectE@Base 5.0.2
 _ZN18QCameraZoomControl25currentDigitalZoomChangedEd@Base 5.2.0
 _ZN18QCameraZoomControl25currentOpticalZoomChangedEd@Base 5.2.0
 _ZN18QCameraZoomControl25maximumDigitalZoomChangedEd@Base 5.2.0
 _ZN18QCameraZoomControl25maximumOpticalZoomChangedEd@Base 5.2.0
 _ZN18QCameraZoomControl27requestedDigitalZoomChangedEd@Base 5.2.0
 _ZN18QCameraZoomControl27requestedOpticalZoomChangedEd@Base 5.2.0
 _ZN18QCameraZoomControlC1EP7QObject@Base 5.0.2
 _ZN18QCameraZoomControlC2EP7QObject@Base 5.0.2
 _ZN18QCameraZoomControlD0Ev@Base 5.0.2
 _ZN18QCameraZoomControlD1Ev@Base 5.0.2
 _ZN18QCameraZoomControlD2Ev@Base 5.0.2
 _ZN18QMediaPluginLoader12loadMetadataEv@Base 5.0.2
 _ZN18QMediaPluginLoader8instanceERK7QString@Base 5.0.2
 _ZN18QMediaPluginLoader9instancesERK7QString@Base 5.0.2
 _ZN18QMediaPluginLoaderC1EPKcRK7QStringN2Qt15CaseSensitivityE@Base 5.0.2
 _ZN18QMediaPluginLoaderC2EPKcRK7QStringN2Qt15CaseSensitivityE@Base 5.0.2
 _ZN18QMediaPluginLoaderD1Ev@Base 5.0.2
 _ZN18QMediaPluginLoaderD2Ev@Base 5.0.2
 _ZN18QMediaTimeIntervalC1ERKS_@Base 5.0.2
 _ZN18QMediaTimeIntervalC1Ev@Base 5.0.2
 _ZN18QMediaTimeIntervalC1Exx@Base 5.0.2
 _ZN18QMediaTimeIntervalC2ERKS_@Base 5.0.2
 _ZN18QMediaTimeIntervalC2Ev@Base 5.0.2
 _ZN18QMediaTimeIntervalC2Exx@Base 5.0.2
 _ZN18QMemoryVideoBuffer3mapEN20QAbstractVideoBuffer7MapModeEPiS2_@Base 5.0.2
 _ZN18QMemoryVideoBuffer5unmapEv@Base 5.0.2
 _ZN18QMemoryVideoBufferC1ERK10QByteArrayi@Base 5.0.2
 _ZN18QMemoryVideoBufferC2ERK10QByteArrayi@Base 5.0.2
 _ZN18QMemoryVideoBufferD0Ev@Base 5.0.2
 _ZN18QMemoryVideoBufferD1Ev@Base 5.0.2
 _ZN18QMemoryVideoBufferD2Ev@Base 5.0.2
 _ZN18QRadioTunerControl11bandChangedEN11QRadioTuner4BandE@Base 5.0.2
 _ZN18QRadioTunerControl11qt_metacallEN11QMetaObject4CallEiPPv@Base 5.0.2
 _ZN18QRadioTunerControl11qt_metacastEPKc@Base 5.0.2
 _ZN18QRadioTunerControl12mutedChangedEb@Base 5.0.2
 _ZN18QRadioTunerControl12stateChangedEN11QRadioTuner5StateE@Base 5.0.2
 _ZN18QRadioTunerControl12stationFoundEi7QString@Base 5.0.2
 _ZN18QRadioTunerControl13volumeChangedEi@Base 5.0.2
 _ZN18QRadioTunerControl16frequencyChangedEi@Base 5.0.2
 _ZN18QRadioTunerControl16searchingChangedEb@Base 5.0.2
 _ZN18QRadioTunerControl16staticMetaObjectE@Base 5.0.2
 _ZN18QRadioTunerControl19stereoStatusChangedEb@Base 5.0.2
 _ZN18QRadioTunerControl21signalStrengthChangedEi@Base 5.0.2
 _ZN18QRadioTunerControl23antennaConnectedChangedEb@Base 5.0.2
 _ZN18QRadioTunerControl5errorEN11QRadioTuner5ErrorE@Base 5.0.2
 _ZN18QRadioTunerControlC1EP7QObject@Base 5.0.2
 _ZN18QRadioTunerControlC2EP7QObject@Base 5.0.2
 _ZN18QRadioTunerControlD0Ev@Base 5.0.2
 _ZN18QRadioTunerControlD1Ev@Base 5.0.2
 _ZN18QRadioTunerControlD2Ev@Base 5.0.2
 _ZN19QAbstractAudioInput11qt_metacallEN11QMetaObject4CallEiPPv@Base 5.0.2
 _ZN19QAbstractAudioInput11qt_metacastEPKc@Base 5.0.2
 _ZN19QAbstractAudioInput12errorChangedEN6QAudio5ErrorE@Base 5.0.2
 _ZN19QAbstractAudioInput12stateChangedEN6QAudio5StateE@Base 5.0.2
 _ZN19QAbstractAudioInput16staticMetaObjectE@Base 5.0.2
 _ZN19QAbstractAudioInput6notifyEv@Base 5.0.2
 _ZN19QCameraFlashControl10flashReadyEb@Base 5.0.2
 _ZN19QCameraFlashControl11qt_metacallEN11QMetaObject4CallEiPPv@Base 5.0.2
 _ZN19QCameraFlashControl11qt_metacastEPKc@Base 5.0.2
 _ZN19QCameraFlashControl16staticMetaObjectE@Base 5.0.2
 _ZN19QCameraFlashControlC1EP7QObject@Base 5.0.2
 _ZN19QCameraFlashControlC2EP7QObject@Base 5.0.2
 _ZN19QCameraFlashControlD0Ev@Base 5.0.2
 _ZN19QCameraFlashControlD1Ev@Base 5.0.2
 _ZN19QCameraFlashControlD2Ev@Base 5.0.2
 _ZN19QCameraFocusControl11qt_metacallEN11QMetaObject4CallEiPPv@Base 5.0.2
 _ZN19QCameraFocusControl11qt_metacastEPKc@Base 5.0.2
 _ZN19QCameraFocusControl16focusModeChangedE6QFlagsIN12QCameraFocus9FocusModeEE@Base 5.0.2
 _ZN19QCameraFocusControl16staticMetaObjectE@Base 5.0.2
 _ZN19QCameraFocusControl17focusZonesChangedEv@Base 5.0.2
 _ZN19QCameraFocusControl21focusPointModeChangedEN12QCameraFocus14FocusPointModeE@Base 5.0.2
 _ZN19QCameraFocusControl23customFocusPointChangedERK7QPointF@Base 5.0.2
 _ZN19QCameraFocusControlC1EP7QObject@Base 5.0.2
 _ZN19QCameraFocusControlC2EP7QObject@Base 5.0.2
 _ZN19QCameraFocusControlD0Ev@Base 5.0.2
 _ZN19QCameraFocusControlD1Ev@Base 5.0.2
 _ZN19QCameraFocusControlD2Ev@Base 5.0.2
 _ZN19QCameraImageCapture10imageSavedEiRK7QString@Base 5.0.2
 _ZN19QCameraImageCapture11qt_metacallEN11QMetaObject4CallEiPPv@Base 5.0.2
 _ZN19QCameraImageCapture11qt_metacastEPKc@Base 5.0.2
 _ZN19QCameraImageCapture12imageExposedEi@Base 5.0.2
 _ZN19QCameraImageCapture13cancelCaptureEv@Base 5.0.2
 _ZN19QCameraImageCapture13imageCapturedEiRK6QImage@Base 5.0.2
 _ZN19QCameraImageCapture14imageAvailableEiRK11QVideoFrame@Base 5.0.2
 _ZN19QCameraImageCapture14setMediaObjectEP12QMediaObject@Base 5.0.2
 _ZN19QCameraImageCapture15setBufferFormatEN11QVideoFrame11PixelFormatE@Base 5.0.2
 _ZN19QCameraImageCapture16staticMetaObjectE@Base 5.0.2
 _ZN19QCameraImageCapture19bufferFormatChangedEN11QVideoFrame11PixelFormatE@Base 5.0.2
 _ZN19QCameraImageCapture19setEncodingSettingsERK21QImageEncoderSettings@Base 5.0.2
 _ZN19QCameraImageCapture21setCaptureDestinationE6QFlagsINS_18CaptureDestinationEE@Base 5.0.2
 _ZN19QCameraImageCapture22imageMetadataAvailableEiRK7QStringRK8QVariant@Base 5.0.2
 _ZN19QCameraImageCapture22readyForCaptureChangedEb@Base 5.0.2
 _ZN19QCameraImageCapture25captureDestinationChangedE6QFlagsINS_18CaptureDestinationEE@Base 5.0.2
 _ZN19QCameraImageCapture5errorEiNS_5ErrorERK7QString@Base 5.0.2
 _ZN19QCameraImageCapture7captureERK7QString@Base 5.0.2
 _ZN19QCameraImageCaptureC1EP12QMediaObjectP7QObject@Base 5.0.2
 _ZN19QCameraImageCaptureC2EP12QMediaObjectP7QObject@Base 5.0.2
 _ZN19QCameraImageCaptureD0Ev@Base 5.0.2
 _ZN19QCameraImageCaptureD1Ev@Base 5.0.2
 _ZN19QCameraImageCaptureD2Ev@Base 5.0.2
 _ZN19QCameraLocksControl11qt_metacallEN11QMetaObject4CallEiPPv@Base 5.0.2
 _ZN19QCameraLocksControl11qt_metacastEPKc@Base 5.0.2
 _ZN19QCameraLocksControl16staticMetaObjectE@Base 5.0.2
 _ZN19QCameraLocksControl17lockStatusChangedEN7QCamera8LockTypeENS0_10LockStatusENS0_16LockChangeReasonE@Base 5.0.2
 _ZN19QCameraLocksControlC1EP7QObject@Base 5.0.2
 _ZN19QCameraLocksControlC2EP7QObject@Base 5.0.2
 _ZN19QCameraLocksControlD0Ev@Base 5.0.2
 _ZN19QCameraLocksControlD1Ev@Base 5.0.2
 _ZN19QCameraLocksControlD2Ev@Base 5.0.2
 _ZN19QMediaPlayerControl11qt_metacallEN11QMetaObject4CallEiPPv@Base 5.0.2
 _ZN19QMediaPlayerControl11qt_metacastEPKc@Base 5.0.2
 _ZN19QMediaPlayerControl12mediaChangedERK13QMediaContent@Base 5.0.2
 _ZN19QMediaPlayerControl12mutedChangedEb@Base 5.0.2
 _ZN19QMediaPlayerControl12stateChangedEN12QMediaPlayer5StateE@Base 5.0.2
 _ZN19QMediaPlayerControl13volumeChangedEi@Base 5.0.2
 _ZN19QMediaPlayerControl15durationChangedEx@Base 5.0.2
 _ZN19QMediaPlayerControl15positionChangedEx@Base 5.0.2
 _ZN19QMediaPlayerControl15seekableChangedEb@Base 5.0.2
 _ZN19QMediaPlayerControl16staticMetaObjectE@Base 5.0.2
 _ZN19QMediaPlayerControl18mediaStatusChangedEN12QMediaPlayer11MediaStatusE@Base 5.0.2
 _ZN19QMediaPlayerControl19bufferStatusChangedEi@Base 5.0.2
 _ZN19QMediaPlayerControl19playbackRateChangedEd@Base 5.2.0
 _ZN19QMediaPlayerControl21audioAvailableChangedEb@Base 5.0.2
 _ZN19QMediaPlayerControl21videoAvailableChangedEb@Base 5.0.2
 _ZN19QMediaPlayerControl30availablePlaybackRangesChangedERK15QMediaTimeRange@Base 5.0.2
 _ZN19QMediaPlayerControl5errorEiRK7QString@Base 5.0.2
 _ZN19QMediaPlayerControlC1EP7QObject@Base 5.0.2
 _ZN19QMediaPlayerControlC2EP7QObject@Base 5.0.2
 _ZN19QMediaPlayerControlD0Ev@Base 5.0.2
 _ZN19QMediaPlayerControlD1Ev@Base 5.0.2
 _ZN19QMediaPlayerControlD2Ev@Base 5.0.2
 _ZN19QPlaylistFileParser11qt_metacallEN11QMetaObject4CallEiPPv@Base 5.0.2
 _ZN19QPlaylistFileParser11qt_metacastEPKc@Base 5.0.2
 _ZN19QPlaylistFileParser16findPlaylistTypeERK7QStringS2_PKvj@Base 5.0.2
 _ZN19QPlaylistFileParser16staticMetaObjectE@Base 5.0.2
 _ZN19QPlaylistFileParser4stopEv@Base 5.0.2
 _ZN19QPlaylistFileParser5errorENS_11ParserErrorERK7QString@Base 5.0.2
 _ZN19QPlaylistFileParser5startERK15QNetworkRequestb@Base 5.0.2
 _ZN19QPlaylistFileParser7newItemERK8QVariant@Base 5.0.2
 _ZN19QPlaylistFileParser8finishedEv@Base 5.0.2
 _ZN19QPlaylistFileParserC1EP7QObject@Base 5.0.2
 _ZN19QPlaylistFileParserC2EP7QObject@Base 5.0.2
 (optional=gccinternal)_ZN19QPlaylistFileParserD0Ev@Base 5.0.2
 (optional=gccinternal)_ZN19QPlaylistFileParserD1Ev@Base 5.0.2
 (optional=gccinternal)_ZN19QPlaylistFileParserD2Ev@Base 5.0.2
 _ZN19QVideoSurfaceFormat11setPropertyEPKcRK8QVariant@Base 5.0.2
 _ZN19QVideoSurfaceFormat11setViewportERK5QRect@Base 5.0.2
 _ZN19QVideoSurfaceFormat12setFrameRateEd@Base 5.2.0
 _ZN19QVideoSurfaceFormat12setFrameSizeERK5QSize@Base 5.0.2
 _ZN19QVideoSurfaceFormat12setFrameSizeEii@Base 5.0.2
 _ZN19QVideoSurfaceFormat18setYCbCrColorSpaceENS_15YCbCrColorSpaceE@Base 5.0.2
 _ZN19QVideoSurfaceFormat19setPixelAspectRatioERK5QSize@Base 5.0.2
 _ZN19QVideoSurfaceFormat19setPixelAspectRatioEii@Base 5.0.2
 _ZN19QVideoSurfaceFormat20setScanLineDirectionENS_9DirectionE@Base 5.0.2
 _ZN19QVideoSurfaceFormatC1ERK5QSizeN11QVideoFrame11PixelFormatEN20QAbstractVideoBuffer10HandleTypeE@Base 5.0.2
 _ZN19QVideoSurfaceFormatC1ERKS_@Base 5.0.2
 _ZN19QVideoSurfaceFormatC1Ev@Base 5.0.2
 _ZN19QVideoSurfaceFormatC2ERK5QSizeN11QVideoFrame11PixelFormatEN20QAbstractVideoBuffer10HandleTypeE@Base 5.0.2
 _ZN19QVideoSurfaceFormatC2ERKS_@Base 5.0.2
 _ZN19QVideoSurfaceFormatC2Ev@Base 5.0.2
 _ZN19QVideoSurfaceFormatD1Ev@Base 5.0.2
 _ZN19QVideoSurfaceFormatD2Ev@Base 5.0.2
 _ZN19QVideoSurfaceFormataSERKS_@Base 5.0.2
 _ZN19QVideoWindowControl10hueChangedEi@Base 5.0.2
 _ZN19QVideoWindowControl11qt_metacallEN11QMetaObject4CallEiPPv@Base 5.0.2
 _ZN19QVideoWindowControl11qt_metacastEPKc@Base 5.0.2
 _ZN19QVideoWindowControl15contrastChangedEi@Base 5.0.2
 _ZN19QVideoWindowControl16staticMetaObjectE@Base 5.0.2
 _ZN19QVideoWindowControl17brightnessChangedEi@Base 5.0.2
 _ZN19QVideoWindowControl17fullScreenChangedEb@Base 5.0.2
 _ZN19QVideoWindowControl17nativeSizeChangedEv@Base 5.0.2
 _ZN19QVideoWindowControl17saturationChangedEi@Base 5.0.2
 _ZN19QVideoWindowControlC1EP7QObject@Base 5.0.2
 _ZN19QVideoWindowControlC2EP7QObject@Base 5.0.2
 _ZN19QVideoWindowControlD0Ev@Base 5.0.2
 _ZN19QVideoWindowControlD1Ev@Base 5.0.2
 _ZN19QVideoWindowControlD2Ev@Base 5.0.2
 _ZN20QAbstractAudioOutput11qt_metacallEN11QMetaObject4CallEiPPv@Base 5.0.2
 _ZN20QAbstractAudioOutput11qt_metacastEPKc@Base 5.0.2
 _ZN20QAbstractAudioOutput12errorChangedEN6QAudio5ErrorE@Base 5.0.2
 _ZN20QAbstractAudioOutput12stateChangedEN6QAudio5StateE@Base 5.0.2
 _ZN20QAbstractAudioOutput16staticMetaObjectE@Base 5.0.2
 _ZN20QAbstractAudioOutput6notifyEv@Base 5.0.2
 _ZN20QAbstractVideoBuffer7releaseEv@Base 5.0.2
 _ZN20QAbstractVideoBuffer9mapPlanesENS_7MapModeEPiS1_PPh@Base 5.4.0
 _ZN20QAbstractVideoBufferC1ENS_10HandleTypeE@Base 5.0.2
 _ZN20QAbstractVideoBufferC1ER27QAbstractVideoBufferPrivateNS_10HandleTypeE@Base 5.0.2
 _ZN20QAbstractVideoBufferC2ENS_10HandleTypeE@Base 5.0.2
 _ZN20QAbstractVideoBufferC2ER27QAbstractVideoBufferPrivateNS_10HandleTypeE@Base 5.0.2
 _ZN20QAbstractVideoBufferD0Ev@Base 5.0.2
 _ZN20QAbstractVideoBufferD1Ev@Base 5.0.2
 _ZN20QAbstractVideoBufferD2Ev@Base 5.0.2
 _ZN20QAudioDecoderControl11bufferReadyEv@Base 5.0.2
 _ZN20QAudioDecoderControl11qt_metacallEN11QMetaObject4CallEiPPv@Base 5.0.2
 _ZN20QAudioDecoderControl11qt_metacastEPKc@Base 5.0.2
 _ZN20QAudioDecoderControl12stateChangedEN13QAudioDecoder5StateE@Base 5.0.2
 _ZN20QAudioDecoderControl13formatChangedERK12QAudioFormat@Base 5.0.2
 _ZN20QAudioDecoderControl13sourceChangedEv@Base 5.0.2
 _ZN20QAudioDecoderControl15durationChangedEx@Base 5.0.2
 _ZN20QAudioDecoderControl15positionChangedEx@Base 5.0.2
 _ZN20QAudioDecoderControl16staticMetaObjectE@Base 5.0.2
 _ZN20QAudioDecoderControl22bufferAvailableChangedEb@Base 5.0.2
 _ZN20QAudioDecoderControl5errorEiRK7QString@Base 5.0.2
 _ZN20QAudioDecoderControl8finishedEv@Base 5.0.2
 _ZN20QAudioDecoderControlC1EP7QObject@Base 5.0.2
 _ZN20QAudioDecoderControlC2EP7QObject@Base 5.0.2
 _ZN20QAudioDecoderControlD0Ev@Base 5.0.2
 _ZN20QAudioDecoderControlD1Ev@Base 5.0.2
 _ZN20QAudioDecoderControlD2Ev@Base 5.0.2
 _ZN20QAudioHelperInternal16qMultiplySamplesEdRK12QAudioFormatPKvPvi@Base 5.2.0
 _ZN20QImageEncoderControl11qt_metacallEN11QMetaObject4CallEiPPv@Base 5.0.2
 _ZN20QImageEncoderControl11qt_metacastEPKc@Base 5.0.2
 _ZN20QImageEncoderControl16staticMetaObjectE@Base 5.0.2
 _ZN20QImageEncoderControlC1EP7QObject@Base 5.0.2
 _ZN20QImageEncoderControlC2EP7QObject@Base 5.0.2
 _ZN20QImageEncoderControlD0Ev@Base 5.0.2
 _ZN20QImageEncoderControlD1Ev@Base 5.0.2
 _ZN20QImageEncoderControlD2Ev@Base 5.0.2
 _ZN20QMediaPlaylistReaderD0Ev@Base 5.0.2
 _ZN20QMediaPlaylistReaderD1Ev@Base 5.0.2
 _ZN20QMediaPlaylistReaderD2Ev@Base 5.0.2
 _ZN20QMediaPlaylistWriterD0Ev@Base 5.0.2
 _ZN20QMediaPlaylistWriterD1Ev@Base 5.0.2
 _ZN20QMediaPlaylistWriterD2Ev@Base 5.0.2
 _ZN20QMediaResourcePolicy17createResourceSetERK7QString@Base 5.0.2
 _ZN20QMediaResourcePolicy18destroyResourceSetEP7QObject@Base 5.0.2
 _ZN20QMediaStreamsControl11qt_metacallEN11QMetaObject4CallEiPPv@Base 5.0.2
 _ZN20QMediaStreamsControl11qt_metacastEPKc@Base 5.0.2
 _ZN20QMediaStreamsControl14streamsChangedEv@Base 5.0.2
 _ZN20QMediaStreamsControl16staticMetaObjectE@Base 5.0.2
 _ZN20QMediaStreamsControl20activeStreamsChangedEv@Base 5.0.2
 _ZN20QMediaStreamsControlC1EP7QObject@Base 5.0.2
 _ZN20QMediaStreamsControlC2EP7QObject@Base 5.0.2
 _ZN20QMediaStreamsControlD0Ev@Base 5.0.2
 _ZN20QMediaStreamsControlD1Ev@Base 5.0.2
 _ZN20QMediaStreamsControlD2Ev@Base 5.0.2
 _ZN21QAbstractVideoSurface11qt_metacallEN11QMetaObject4CallEiPPv@Base 5.0.2
 _ZN21QAbstractVideoSurface11qt_metacastEPKc@Base 5.0.2
 _ZN21QAbstractVideoSurface13activeChangedEb@Base 5.0.2
 _ZN21QAbstractVideoSurface16staticMetaObjectE@Base 5.0.2
 _ZN21QAbstractVideoSurface19setNativeResolutionERK5QSize@Base 5.0.2
 _ZN21QAbstractVideoSurface20surfaceFormatChangedERK19QVideoSurfaceFormat@Base 5.0.2
 _ZN21QAbstractVideoSurface23nativeResolutionChangedERK5QSize@Base 5.0.2
 _ZN21QAbstractVideoSurface23supportedFormatsChangedEv@Base 5.0.2
 _ZN21QAbstractVideoSurface4stopEv@Base 5.0.2
 _ZN21QAbstractVideoSurface5startERK19QVideoSurfaceFormat@Base 5.0.2
 _ZN21QAbstractVideoSurface8setErrorENS_5ErrorE@Base 5.0.2
 _ZN21QAbstractVideoSurfaceC1EP7QObject@Base 5.0.2
 _ZN21QAbstractVideoSurfaceC2EP7QObject@Base 5.0.2
 _ZN21QAbstractVideoSurfaceD0Ev@Base 5.0.2
 _ZN21QAbstractVideoSurfaceD1Ev@Base 5.0.2
 _ZN21QAbstractVideoSurfaceD2Ev@Base 5.0.2
 _ZN21QAudioEncoderSettings10setBitRateEi@Base 5.0.2
 _ZN21QAudioEncoderSettings10setQualityEN11QMultimedia15EncodingQualityE@Base 5.0.2
 _ZN21QAudioEncoderSettings13setSampleRateEi@Base 5.0.2
 _ZN21QAudioEncoderSettings15setChannelCountEi@Base 5.0.2
 _ZN21QAudioEncoderSettings15setEncodingModeEN11QMultimedia12EncodingModeE@Base 5.0.2
 _ZN21QAudioEncoderSettings17setEncodingOptionERK7QStringRK8QVariant@Base 5.0.2
 _ZN21QAudioEncoderSettings18setEncodingOptionsERK4QMapI7QString8QVariantE@Base 5.0.2
 _ZN21QAudioEncoderSettings8setCodecERK7QString@Base 5.0.2
 _ZN21QAudioEncoderSettingsC1ERKS_@Base 5.0.2
 _ZN21QAudioEncoderSettingsC1Ev@Base 5.0.2
 _ZN21QAudioEncoderSettingsC2ERKS_@Base 5.0.2
 _ZN21QAudioEncoderSettingsC2Ev@Base 5.0.2
 _ZN21QAudioEncoderSettingsD1Ev@Base 5.0.2
 _ZN21QAudioEncoderSettingsD2Ev@Base 5.0.2
 _ZN21QAudioEncoderSettingsaSERKS_@Base 5.0.2
 _ZN21QImageEncoderSettings10setQualityEN11QMultimedia15EncodingQualityE@Base 5.0.2
 _ZN21QImageEncoderSettings13setResolutionERK5QSize@Base 5.0.2
 _ZN21QImageEncoderSettings13setResolutionEii@Base 5.0.2
 _ZN21QImageEncoderSettings17setEncodingOptionERK7QStringRK8QVariant@Base 5.0.2
 _ZN21QImageEncoderSettings18setEncodingOptionsERK4QMapI7QString8QVariantE@Base 5.0.2
 _ZN21QImageEncoderSettings8setCodecERK7QString@Base 5.0.2
 _ZN21QImageEncoderSettingsC1ERKS_@Base 5.0.2
 _ZN21QImageEncoderSettingsC1Ev@Base 5.0.2
 _ZN21QImageEncoderSettingsC2ERKS_@Base 5.0.2
 _ZN21QImageEncoderSettingsC2Ev@Base 5.0.2
 _ZN21QImageEncoderSettingsD1Ev@Base 5.0.2
 _ZN21QImageEncoderSettingsD2Ev@Base 5.0.2
 _ZN21QImageEncoderSettingsaSERKS_@Base 5.0.2
 _ZN21QMediaPlaylistControl11qt_metacallEN11QMetaObject4CallEiPPv@Base 5.0.2
 _ZN21QMediaPlaylistControl11qt_metacastEPKc@Base 5.0.2
 _ZN21QMediaPlaylistControl16staticMetaObjectE@Base 5.0.2
 _ZN21QMediaPlaylistControl19currentIndexChangedEi@Base 5.0.2
 _ZN21QMediaPlaylistControl19currentMediaChangedERK13QMediaContent@Base 5.0.2
 _ZN21QMediaPlaylistControl19playbackModeChangedEN14QMediaPlaylist12PlaybackModeE@Base 5.0.2
 _ZN21QMediaPlaylistControl23playlistProviderChangedEv@Base 5.0.2
 _ZN21QMediaPlaylistControlC1EP7QObject@Base 5.0.2
 _ZN21QMediaPlaylistControlC2EP7QObject@Base 5.0.2
 _ZN21QMediaPlaylistControlD0Ev@Base 5.0.2
 _ZN21QMediaPlaylistControlD1Ev@Base 5.0.2
 _ZN21QMediaPlaylistControlD2Ev@Base 5.0.2
 _ZN21QMediaRecorderControl11qt_metacallEN11QMetaObject4CallEiPPv@Base 5.0.2
 _ZN21QMediaRecorderControl11qt_metacastEPKc@Base 5.0.2
 _ZN21QMediaRecorderControl12mutedChangedEb@Base 5.0.2
 _ZN21QMediaRecorderControl12stateChangedEN14QMediaRecorder5StateE@Base 5.0.2
 _ZN21QMediaRecorderControl13statusChangedEN14QMediaRecorder6StatusE@Base 5.0.2
 _ZN21QMediaRecorderControl13volumeChangedEd@Base 5.2.0
 _ZN21QMediaRecorderControl15durationChangedEx@Base 5.0.2
 _ZN21QMediaRecorderControl16staticMetaObjectE@Base 5.0.2
 _ZN21QMediaRecorderControl21actualLocationChangedERK4QUrl@Base 5.0.2
 _ZN21QMediaRecorderControl5errorEiRK7QString@Base 5.0.2
 _ZN21QMediaRecorderControlC1EP7QObject@Base 5.0.2
 _ZN21QMediaRecorderControlC2EP7QObject@Base 5.0.2
 _ZN21QMediaRecorderControlD0Ev@Base 5.0.2
 _ZN21QMediaRecorderControlD1Ev@Base 5.0.2
 _ZN21QMediaRecorderControlD2Ev@Base 5.0.2
 _ZN21QMediaServiceProvider11qt_metacallEN11QMetaObject4CallEiPPv@Base 5.0.2
 _ZN21QMediaServiceProvider11qt_metacastEPKc@Base 5.0.2
 _ZN21QMediaServiceProvider16staticMetaObjectE@Base 5.0.2
 _ZN21QMediaServiceProvider17deviceDescriptionERK10QByteArrayS2_@Base 5.0.2
 _ZN21QMediaServiceProvider22defaultServiceProviderEv@Base 5.0.2
 _ZN21QMediaServiceProvider25setDefaultServiceProviderEPS_@Base 5.0.2
 _ZN21QMediaStorageLocation18addStorageLocationENS_9MediaTypeERK7QString@Base 5.3.1
 _ZN21QMediaStorageLocationC1Ev@Base 5.3.1
 _ZN21QMediaStorageLocationC2Ev@Base 5.3.1
 _ZN21QVideoEncoderSettings10setBitRateEi@Base 5.0.2
 _ZN21QVideoEncoderSettings10setQualityEN11QMultimedia15EncodingQualityE@Base 5.0.2
 _ZN21QVideoEncoderSettings12setFrameRateEd@Base 5.2.0
 _ZN21QVideoEncoderSettings13setResolutionERK5QSize@Base 5.0.2
 _ZN21QVideoEncoderSettings13setResolutionEii@Base 5.0.2
 _ZN21QVideoEncoderSettings15setEncodingModeEN11QMultimedia12EncodingModeE@Base 5.0.2
 _ZN21QVideoEncoderSettings17setEncodingOptionERK7QStringRK8QVariant@Base 5.0.2
 _ZN21QVideoEncoderSettings18setEncodingOptionsERK4QMapI7QString8QVariantE@Base 5.0.2
 _ZN21QVideoEncoderSettings8setCodecERK7QString@Base 5.0.2
 _ZN21QVideoEncoderSettingsC1ERKS_@Base 5.0.2
 _ZN21QVideoEncoderSettingsC1Ev@Base 5.0.2
 _ZN21QVideoEncoderSettingsC2ERKS_@Base 5.0.2
 _ZN21QVideoEncoderSettingsC2Ev@Base 5.0.2
 _ZN21QVideoEncoderSettingsD1Ev@Base 5.0.2
 _ZN21QVideoEncoderSettingsD2Ev@Base 5.0.2
 _ZN21QVideoEncoderSettingsaSERKS_@Base 5.0.2
 _ZN21QVideoRendererControl11qt_metacallEN11QMetaObject4CallEiPPv@Base 5.0.2
 _ZN21QVideoRendererControl11qt_metacastEPKc@Base 5.0.2
 _ZN21QVideoRendererControl16staticMetaObjectE@Base 5.0.2
 _ZN21QVideoRendererControlC1EP7QObject@Base 5.0.2
 _ZN21QVideoRendererControlC2EP7QObject@Base 5.0.2
 _ZN21QVideoRendererControlD0Ev@Base 5.0.2
 _ZN21QVideoRendererControlD1Ev@Base 5.0.2
 _ZN21QVideoRendererControlD2Ev@Base 5.0.2
 _ZN22QCameraExposureControl11qt_metacallEN11QMetaObject4CallEiPPv@Base 5.0.2
 _ZN22QCameraExposureControl11qt_metacastEPKc@Base 5.0.2
 _ZN22QCameraExposureControl16staticMetaObjectE@Base 5.0.2
 _ZN22QCameraExposureControl18actualValueChangedEi@Base 5.0.2
 _ZN22QCameraExposureControl21parameterRangeChangedEi@Base 5.0.2
 _ZN22QCameraExposureControl21requestedValueChangedEi@Base 5.0.2
 _ZN22QCameraExposureControlC1EP7QObject@Base 5.0.2
 _ZN22QCameraExposureControlC2EP7QObject@Base 5.0.2
 _ZN22QCameraExposureControlD0Ev@Base 5.0.2
 _ZN22QCameraExposureControlD1Ev@Base 5.0.2
 _ZN22QCameraExposureControlD2Ev@Base 5.0.2
 _ZN22QCameraFeedbackControl11qt_metacallEN11QMetaObject4CallEiPPv@Base 5.0.2
 _ZN22QCameraFeedbackControl11qt_metacastEPKc@Base 5.0.2
 _ZN22QCameraFeedbackControl16staticMetaObjectE@Base 5.0.2
 _ZN22QCameraFeedbackControlC1EP7QObject@Base 5.0.2
 _ZN22QCameraFeedbackControlC2EP7QObject@Base 5.0.2
 _ZN22QCameraFeedbackControlD0Ev@Base 5.0.2
 _ZN22QCameraFeedbackControlD1Ev@Base 5.0.2
 _ZN22QCameraFeedbackControlD2Ev@Base 5.0.2
 _ZN22QCameraImageProcessing11qt_metacallEN11QMetaObject4CallEiPPv@Base 5.0.2
 _ZN22QCameraImageProcessing11qt_metacastEPKc@Base 5.0.2
 _ZN22QCameraImageProcessing11setContrastEd@Base 5.2.0
 _ZN22QCameraImageProcessing13setSaturationEd@Base 5.2.0
 _ZN22QCameraImageProcessing16staticMetaObjectE@Base 5.0.2
 _ZN22QCameraImageProcessing17setDenoisingLevelEd@Base 5.2.0
 _ZN22QCameraImageProcessing18setSharpeningLevelEd@Base 5.2.0
 _ZN22QCameraImageProcessing19setWhiteBalanceModeENS_16WhiteBalanceModeE@Base 5.0.2
 _ZN22QCameraImageProcessing21setManualWhiteBalanceEd@Base 5.2.0
 _ZN22QCameraImageProcessingC1EP7QCamera@Base 5.0.2
 _ZN22QCameraImageProcessingC2EP7QCamera@Base 5.0.2
 _ZN22QCameraImageProcessingD0Ev@Base 5.0.2
 _ZN22QCameraImageProcessingD1Ev@Base 5.0.2
 _ZN22QCameraImageProcessingD2Ev@Base 5.0.2
 _ZN22QMediaContainerControl11qt_metacallEN11QMetaObject4CallEiPPv@Base 5.0.2
 _ZN22QMediaContainerControl11qt_metacastEPKc@Base 5.0.2
 _ZN22QMediaContainerControl16staticMetaObjectE@Base 5.0.2
 _ZN22QMediaContainerControlC1EP7QObject@Base 5.0.2
 _ZN22QMediaContainerControlC2EP7QObject@Base 5.0.2
 _ZN22QMediaContainerControlD0Ev@Base 5.0.2
 _ZN22QMediaContainerControlD1Ev@Base 5.0.2
 _ZN22QMediaContainerControlD2Ev@Base 5.0.2
 _ZN22QMediaPlaylistIOPlugin11qt_metacallEN11QMetaObject4CallEiPPv@Base 5.0.2
 _ZN22QMediaPlaylistIOPlugin11qt_metacastEPKc@Base 5.0.2
 _ZN22QMediaPlaylistIOPlugin16staticMetaObjectE@Base 5.0.2
 _ZN22QMediaPlaylistIOPluginC1EP7QObject@Base 5.0.2
 _ZN22QMediaPlaylistIOPluginC2EP7QObject@Base 5.0.2
 _ZN22QMediaPlaylistIOPluginD0Ev@Base 5.0.2
 _ZN22QMediaPlaylistIOPluginD1Ev@Base 5.0.2
 _ZN22QMediaPlaylistIOPluginD2Ev@Base 5.0.2
 _ZN22QMediaPlaylistProvider10loadFailedEN14QMediaPlaylist5ErrorERK7QString@Base 5.0.2
 _ZN22QMediaPlaylistProvider11insertMediaEiRK13QMediaContent@Base 5.0.2
 _ZN22QMediaPlaylistProvider11insertMediaEiRK5QListI13QMediaContentE@Base 5.0.2
 _ZN22QMediaPlaylistProvider11qt_metacallEN11QMetaObject4CallEiPPv@Base 5.0.2
 _ZN22QMediaPlaylistProvider11qt_metacastEPKc@Base 5.0.2
 _ZN22QMediaPlaylistProvider11removeMediaEi@Base 5.0.2
 _ZN22QMediaPlaylistProvider11removeMediaEii@Base 5.0.2
 _ZN22QMediaPlaylistProvider12mediaChangedEii@Base 5.0.2
 _ZN22QMediaPlaylistProvider12mediaRemovedEii@Base 5.0.2
 _ZN22QMediaPlaylistProvider13mediaInsertedEii@Base 5.0.2
 _ZN22QMediaPlaylistProvider16staticMetaObjectE@Base 5.0.2
 _ZN22QMediaPlaylistProvider21mediaAboutToBeRemovedEii@Base 5.0.2
 _ZN22QMediaPlaylistProvider22mediaAboutToBeInsertedEii@Base 5.0.2
 _ZN22QMediaPlaylistProvider4loadEP9QIODevicePKc@Base 5.0.2
 _ZN22QMediaPlaylistProvider4loadERK15QNetworkRequestPKc@Base 5.0.2
 _ZN22QMediaPlaylistProvider4saveEP9QIODevicePKc@Base 5.0.2
 _ZN22QMediaPlaylistProvider4saveERK4QUrlPKc@Base 5.0.2
 _ZN22QMediaPlaylistProvider5clearEv@Base 5.0.2
 _ZN22QMediaPlaylistProvider6loadedEv@Base 5.0.2
 _ZN22QMediaPlaylistProvider7shuffleEv@Base 5.0.2
 _ZN22QMediaPlaylistProvider8addMediaERK13QMediaContent@Base 5.0.2
 _ZN22QMediaPlaylistProvider8addMediaERK5QListI13QMediaContentE@Base 5.0.2
 _ZN22QMediaPlaylistProviderC1EP7QObject@Base 5.0.2
 _ZN22QMediaPlaylistProviderC1ER29QMediaPlaylistProviderPrivateP7QObject@Base 5.0.2
 _ZN22QMediaPlaylistProviderC2EP7QObject@Base 5.0.2
 _ZN22QMediaPlaylistProviderC2ER29QMediaPlaylistProviderPrivateP7QObject@Base 5.0.2
 _ZN22QMediaPlaylistProviderD0Ev@Base 5.0.2
 _ZN22QMediaPlaylistProviderD1Ev@Base 5.0.2
 _ZN22QMediaPlaylistProviderD2Ev@Base 5.0.2
 _ZN22QMetaDataReaderControl11qt_metacallEN11QMetaObject4CallEiPPv@Base 5.0.2
 _ZN22QMetaDataReaderControl11qt_metacastEPKc@Base 5.0.2
 _ZN22QMetaDataReaderControl15metaDataChangedERK7QStringRK8QVariant@Base 5.0.2
 _ZN22QMetaDataReaderControl15metaDataChangedEv@Base 5.0.2
 _ZN22QMetaDataReaderControl16staticMetaObjectE@Base 5.0.2
 _ZN22QMetaDataReaderControl24metaDataAvailableChangedEb@Base 5.0.2
 _ZN22QMetaDataReaderControlC1EP7QObject@Base 5.0.2
 _ZN22QMetaDataReaderControlC2EP7QObject@Base 5.0.2
 _ZN22QMetaDataReaderControlD0Ev@Base 5.0.2
 _ZN22QMetaDataReaderControlD1Ev@Base 5.0.2
 _ZN22QMetaDataReaderControlD2Ev@Base 5.0.2
 _ZN22QMetaDataWriterControl11qt_metacallEN11QMetaObject4CallEiPPv@Base 5.0.2
 _ZN22QMetaDataWriterControl11qt_metacastEPKc@Base 5.0.2
 _ZN22QMetaDataWriterControl15metaDataChangedERK7QStringRK8QVariant@Base 5.0.2
 _ZN22QMetaDataWriterControl15metaDataChangedEv@Base 5.0.2
 _ZN22QMetaDataWriterControl15writableChangedEb@Base 5.0.2
 _ZN22QMetaDataWriterControl16staticMetaObjectE@Base 5.0.2
 _ZN22QMetaDataWriterControl24metaDataAvailableChangedEb@Base 5.0.2
 _ZN22QMetaDataWriterControlC1EP7QObject@Base 5.0.2
 _ZN22QMetaDataWriterControlC2EP7QObject@Base 5.0.2
 _ZN22QMetaDataWriterControlD0Ev@Base 5.0.2
 _ZN22QMetaDataWriterControlD1Ev@Base 5.0.2
 _ZN22QMetaDataWriterControlD2Ev@Base 5.0.2
 _ZN23QMediaAudioProbeControl11qt_metacallEN11QMetaObject4CallEiPPv@Base 5.0.2
 _ZN23QMediaAudioProbeControl11qt_metacastEPKc@Base 5.0.2
 _ZN23QMediaAudioProbeControl16staticMetaObjectE@Base 5.0.2
 _ZN23QMediaAudioProbeControl17audioBufferProbedERK12QAudioBuffer@Base 5.0.2
 _ZN23QMediaAudioProbeControl5flushEv@Base 5.0.2
 _ZN23QMediaAudioProbeControlC1EP7QObject@Base 5.0.2
 _ZN23QMediaAudioProbeControlC2EP7QObject@Base 5.0.2
 _ZN23QMediaAudioProbeControlD0Ev@Base 5.0.2
 _ZN23QMediaAudioProbeControlD1Ev@Base 5.0.2
 _ZN23QMediaAudioProbeControlD2Ev@Base 5.0.2
 _ZN23QMediaBindableInterfaceD0Ev@Base 5.0.2
 _ZN23QMediaBindableInterfaceD1Ev@Base 5.0.2
 _ZN23QMediaBindableInterfaceD2Ev@Base 5.0.2
 _ZN23QMediaPlaylistNavigator11qt_metacallEN11QMetaObject4CallEiPPv@Base 5.0.2
 _ZN23QMediaPlaylistNavigator11qt_metacastEPKc@Base 5.0.2
 _ZN23QMediaPlaylistNavigator11setPlaylistEP22QMediaPlaylistProvider@Base 5.0.2
 _ZN23QMediaPlaylistNavigator15setPlaybackModeEN14QMediaPlaylist12PlaybackModeE@Base 5.0.2
 _ZN23QMediaPlaylistNavigator16staticMetaObjectE@Base 5.0.2
 _ZN23QMediaPlaylistNavigator19currentIndexChangedEi@Base 5.0.2
 _ZN23QMediaPlaylistNavigator19playbackModeChangedEN14QMediaPlaylist12PlaybackModeE@Base 5.0.2
 _ZN23QMediaPlaylistNavigator23surroundingItemsChangedEv@Base 5.0.2
 _ZN23QMediaPlaylistNavigator4jumpEi@Base 5.0.2
 _ZN23QMediaPlaylistNavigator4nextEv@Base 5.0.2
 _ZN23QMediaPlaylistNavigator8previousEv@Base 5.0.2
 _ZN23QMediaPlaylistNavigator9activatedERK13QMediaContent@Base 5.0.2
 _ZN23QMediaPlaylistNavigatorC1EP22QMediaPlaylistProviderP7QObject@Base 5.0.2
 _ZN23QMediaPlaylistNavigatorC2EP22QMediaPlaylistProviderP7QObject@Base 5.0.2
 _ZN23QMediaPlaylistNavigatorD0Ev@Base 5.0.2
 _ZN23QMediaPlaylistNavigatorD1Ev@Base 5.0.2
 _ZN23QMediaPlaylistNavigatorD2Ev@Base 5.0.2
 _ZN23QMediaVideoProbeControl11qt_metacallEN11QMetaObject4CallEiPPv@Base 5.0.2
 _ZN23QMediaVideoProbeControl11qt_metacastEPKc@Base 5.0.2
 _ZN23QMediaVideoProbeControl16staticMetaObjectE@Base 5.0.2
 _ZN23QMediaVideoProbeControl16videoFrameProbedERK11QVideoFrame@Base 5.0.2
 _ZN23QMediaVideoProbeControl5flushEv@Base 5.0.2
 _ZN23QMediaVideoProbeControlC1EP7QObject@Base 5.0.2
 _ZN23QMediaVideoProbeControlC2EP7QObject@Base 5.0.2
 _ZN23QMediaVideoProbeControlD0Ev@Base 5.0.2
 _ZN23QMediaVideoProbeControlD1Ev@Base 5.0.2
 _ZN23QMediaVideoProbeControlD2Ev@Base 5.0.2
 _ZN24QAbstractAudioDeviceInfo11qt_metacallEN11QMetaObject4CallEiPPv@Base 5.0.2
 _ZN24QAbstractAudioDeviceInfo11qt_metacastEPKc@Base 5.0.2
 _ZN24QAbstractAudioDeviceInfo16staticMetaObjectE@Base 5.0.2
 _ZN25QMediaAvailabilityControl11qt_metacallEN11QMetaObject4CallEiPPv@Base 5.0.2
 _ZN25QMediaAvailabilityControl11qt_metacastEPKc@Base 5.0.2
 _ZN25QMediaAvailabilityControl16staticMetaObjectE@Base 5.0.2
 _ZN25QMediaAvailabilityControl19availabilityChangedEN11QMultimedia18AvailabilityStatusE@Base 5.0.2
 _ZN25QMediaAvailabilityControlC1EP7QObject@Base 5.0.2
 _ZN25QMediaAvailabilityControlC2EP7QObject@Base 5.0.2
 _ZN25QMediaAvailabilityControlD0Ev@Base 5.0.2
 _ZN25QMediaAvailabilityControlD1Ev@Base 5.0.2
 _ZN25QMediaAvailabilityControlD2Ev@Base 5.0.2
 _ZN25QMediaServiceProviderHintC1E6QFlagsINS_7FeatureEE@Base 5.0.2
 _ZN25QMediaServiceProviderHintC1EN7QCamera8PositionE@Base 5.3.0
 _ZN25QMediaServiceProviderHintC1ERK10QByteArray@Base 5.0.2
 _ZN25QMediaServiceProviderHintC1ERK7QStringRK11QStringList@Base 5.0.2
 _ZN25QMediaServiceProviderHintC1ERKS_@Base 5.0.2
 _ZN25QMediaServiceProviderHintC1Ev@Base 5.0.2
 _ZN25QMediaServiceProviderHintC2E6QFlagsINS_7FeatureEE@Base 5.0.2
 _ZN25QMediaServiceProviderHintC2EN7QCamera8PositionE@Base 5.3.0
 _ZN25QMediaServiceProviderHintC2ERK10QByteArray@Base 5.0.2
 _ZN25QMediaServiceProviderHintC2ERK7QStringRK11QStringList@Base 5.0.2
 _ZN25QMediaServiceProviderHintC2ERKS_@Base 5.0.2
 _ZN25QMediaServiceProviderHintC2Ev@Base 5.0.2
 _ZN25QMediaServiceProviderHintD1Ev@Base 5.0.2
 _ZN25QMediaServiceProviderHintD2Ev@Base 5.0.2
 _ZN25QMediaServiceProviderHintaSERKS_@Base 5.0.2
 _ZN26QAbstractPlanarVideoBuffer3mapEN20QAbstractVideoBuffer7MapModeEPiS2_@Base 5.4.0
 _ZN26QAbstractPlanarVideoBufferC1EN20QAbstractVideoBuffer10HandleTypeE@Base 5.4.0
 _ZN26QAbstractPlanarVideoBufferC1ER33QAbstractPlanarVideoBufferPrivateN20QAbstractVideoBuffer10HandleTypeE@Base 5.4.0
 _ZN26QAbstractPlanarVideoBufferC2EN20QAbstractVideoBuffer10HandleTypeE@Base 5.4.0
 _ZN26QAbstractPlanarVideoBufferC2ER33QAbstractPlanarVideoBufferPrivateN20QAbstractVideoBuffer10HandleTypeE@Base 5.4.0
 _ZN26QAbstractPlanarVideoBufferD0Ev@Base 5.4.0
 _ZN26QAbstractPlanarVideoBufferD1Ev@Base 5.4.0
 _ZN26QAbstractPlanarVideoBufferD2Ev@Base 5.4.0
 _ZN26QAudioInputSelectorControl11qt_metacallEN11QMetaObject4CallEiPPv@Base 5.0.2
 _ZN26QAudioInputSelectorControl11qt_metacastEPKc@Base 5.0.2
 _ZN26QAudioInputSelectorControl16staticMetaObjectE@Base 5.0.2
 _ZN26QAudioInputSelectorControl18activeInputChangedERK7QString@Base 5.0.2
 _ZN26QAudioInputSelectorControl22availableInputsChangedEv@Base 5.0.2
 _ZN26QAudioInputSelectorControlC1EP7QObject@Base 5.0.2
 _ZN26QAudioInputSelectorControlC2EP7QObject@Base 5.0.2
 _ZN26QAudioInputSelectorControlD0Ev@Base 5.0.2
 _ZN26QAudioInputSelectorControlD1Ev@Base 5.0.2
 _ZN26QAudioInputSelectorControlD2Ev@Base 5.0.2
 _ZN26QCameraImageCaptureControl10imageSavedEiRK7QString@Base 5.0.2
 _ZN26QCameraImageCaptureControl11qt_metacallEN11QMetaObject4CallEiPPv@Base 5.0.2
 _ZN26QCameraImageCaptureControl11qt_metacastEPKc@Base 5.0.2
 _ZN26QCameraImageCaptureControl12imageExposedEi@Base 5.0.2
 _ZN26QCameraImageCaptureControl13imageCapturedEiRK6QImage@Base 5.0.2
 _ZN26QCameraImageCaptureControl14imageAvailableEiRK11QVideoFrame@Base 5.0.2
 _ZN26QCameraImageCaptureControl16staticMetaObjectE@Base 5.0.2
 _ZN26QCameraImageCaptureControl22imageMetadataAvailableEiRK7QStringRK8QVariant@Base 5.0.2
 _ZN26QCameraImageCaptureControl22readyForCaptureChangedEb@Base 5.0.2
 _ZN26QCameraImageCaptureControl5errorEiiRK7QString@Base 5.0.2
 _ZN26QCameraImageCaptureControlC1EP7QObject@Base 5.0.2
 _ZN26QCameraImageCaptureControlC2EP7QObject@Base 5.0.2
 _ZN26QCameraImageCaptureControlD0Ev@Base 5.0.2
 _ZN26QCameraImageCaptureControlD1Ev@Base 5.0.2
 _ZN26QCameraImageCaptureControlD2Ev@Base 5.0.2
 _ZN26QMediaNetworkAccessControl11qt_metacallEN11QMetaObject4CallEiPPv@Base 5.0.2
 _ZN26QMediaNetworkAccessControl11qt_metacastEPKc@Base 5.0.2
 _ZN26QMediaNetworkAccessControl16staticMetaObjectE@Base 5.0.2
 _ZN26QMediaNetworkAccessControl20configurationChangedERK21QNetworkConfiguration@Base 5.0.2
 _ZN26QMediaNetworkAccessControlC1EP7QObject@Base 5.0.2
 _ZN26QMediaNetworkAccessControlC2EP7QObject@Base 5.0.2
 _ZN26QMediaNetworkAccessControlD0Ev@Base 5.0.2
 _ZN26QMediaNetworkAccessControlD1Ev@Base 5.0.2
 _ZN26QMediaNetworkAccessControlD2Ev@Base 5.0.2
 _ZN26QMediaResourcePolicyPlugin11qt_metacallEN11QMetaObject4CallEiPPv@Base 5.0.2
 _ZN26QMediaResourcePolicyPlugin11qt_metacastEPKc@Base 5.0.2
 _ZN26QMediaResourcePolicyPlugin16staticMetaObjectE@Base 5.0.2
 _ZN26QMediaResourcePolicyPluginC1EP7QObject@Base 5.0.2
 _ZN26QMediaResourcePolicyPluginC2EP7QObject@Base 5.0.2
 _ZN26QMediaResourcePolicyPluginD0Ev@Base 5.0.2
 _ZN26QMediaResourcePolicyPluginD1Ev@Base 5.0.2
 _ZN26QMediaResourcePolicyPluginD2Ev@Base 5.0.2
 _ZN27QAudioOutputSelectorControl11qt_metacallEN11QMetaObject4CallEiPPv@Base 5.0.2
 _ZN27QAudioOutputSelectorControl11qt_metacastEPKc@Base 5.0.2
 _ZN27QAudioOutputSelectorControl16staticMetaObjectE@Base 5.0.2
 _ZN27QAudioOutputSelectorControl19activeOutputChangedERK7QString@Base 5.0.2
 _ZN27QAudioOutputSelectorControl23availableOutputsChangedEv@Base 5.0.2
 _ZN27QAudioOutputSelectorControlC1EP7QObject@Base 5.0.2
 _ZN27QAudioOutputSelectorControlC2EP7QObject@Base 5.0.2
 _ZN27QAudioOutputSelectorControlD0Ev@Base 5.0.2
 _ZN27QAudioOutputSelectorControlD1Ev@Base 5.0.2
 _ZN27QAudioOutputSelectorControlD2Ev@Base 5.0.2
 _ZN27QMediaPlaylistSourceControl11qt_metacallEN11QMetaObject4CallEiPPv@Base 5.0.2
 _ZN27QMediaPlaylistSourceControl11qt_metacastEPKc@Base 5.0.2
 _ZN27QMediaPlaylistSourceControl15playlistChangedEP14QMediaPlaylist@Base 5.0.2
 _ZN27QMediaPlaylistSourceControl16staticMetaObjectE@Base 5.0.2
 _ZN27QMediaPlaylistSourceControlC1EP7QObject@Base 5.0.2
 _ZN27QMediaPlaylistSourceControlC2EP7QObject@Base 5.0.2
 _ZN27QMediaPlaylistSourceControlD0Ev@Base 5.0.2
 _ZN27QMediaPlaylistSourceControlD1Ev@Base 5.0.2
 _ZN27QMediaPlaylistSourceControlD2Ev@Base 5.0.2
 _ZN27QMediaServiceProviderPlugin11qt_metacallEN11QMetaObject4CallEiPPv@Base 5.0.2
 _ZN27QMediaServiceProviderPlugin11qt_metacastEPKc@Base 5.0.2
 _ZN27QMediaServiceProviderPlugin16staticMetaObjectE@Base 5.0.2
 _ZN27QVideoDeviceSelectorControl11qt_metacallEN11QMetaObject4CallEiPPv@Base 5.0.2
 _ZN27QVideoDeviceSelectorControl11qt_metacastEPKc@Base 5.0.2
 _ZN27QVideoDeviceSelectorControl14devicesChangedEv@Base 5.0.2
 _ZN27QVideoDeviceSelectorControl16staticMetaObjectE@Base 5.0.2
 _ZN27QVideoDeviceSelectorControl21selectedDeviceChangedERK7QString@Base 5.0.2
 _ZN27QVideoDeviceSelectorControl21selectedDeviceChangedEi@Base 5.0.2
 _ZN27QVideoDeviceSelectorControlC1EP7QObject@Base 5.0.2
 _ZN27QVideoDeviceSelectorControlC2EP7QObject@Base 5.0.2
 _ZN27QVideoDeviceSelectorControlD0Ev@Base 5.0.2
 _ZN27QVideoDeviceSelectorControlD1Ev@Base 5.0.2
 _ZN27QVideoDeviceSelectorControlD2Ev@Base 5.0.2
 _ZN28QAudioEncoderSettingsControl11qt_metacallEN11QMetaObject4CallEiPPv@Base 5.0.2
 _ZN28QAudioEncoderSettingsControl11qt_metacastEPKc@Base 5.0.2
 _ZN28QAudioEncoderSettingsControl16staticMetaObjectE@Base 5.0.2
 _ZN28QAudioEncoderSettingsControlC1EP7QObject@Base 5.0.2
 _ZN28QAudioEncoderSettingsControlC2EP7QObject@Base 5.0.2
 _ZN28QAudioEncoderSettingsControlD0Ev@Base 5.0.2
 _ZN28QAudioEncoderSettingsControlD1Ev@Base 5.0.2
 _ZN28QAudioEncoderSettingsControlD2Ev@Base 5.0.2
 _ZN28QAudioSystemFactoryInterfaceD0Ev@Base 5.0.2
 _ZN28QAudioSystemFactoryInterfaceD1Ev@Base 5.0.2
 _ZN28QAudioSystemFactoryInterfaceD2Ev@Base 5.0.2
 _ZN28QMediaGaplessPlaybackControl11qt_metacallEN11QMetaObject4CallEiPPv@Base 5.0.2
 _ZN28QMediaGaplessPlaybackControl11qt_metacastEPKc@Base 5.0.2
 _ZN28QMediaGaplessPlaybackControl16nextMediaChangedERK13QMediaContent@Base 5.0.2
 _ZN28QMediaGaplessPlaybackControl16staticMetaObjectE@Base 5.0.2
 _ZN28QMediaGaplessPlaybackControl19advancedToNextMediaEv@Base 5.0.2
 _ZN28QMediaGaplessPlaybackControl20crossfadeTimeChangedEd@Base 5.2.0
 _ZN28QMediaGaplessPlaybackControlC1EP7QObject@Base 5.0.2
 _ZN28QMediaGaplessPlaybackControlC2EP7QObject@Base 5.0.2
 _ZN28QMediaGaplessPlaybackControlD0Ev@Base 5.0.2
 _ZN28QMediaGaplessPlaybackControlD1Ev@Base 5.0.2
 _ZN28QMediaGaplessPlaybackControlD2Ev@Base 5.0.2
 _ZN28QVideoEncoderSettingsControl11qt_metacallEN11QMetaObject4CallEiPPv@Base 5.0.2
 _ZN28QVideoEncoderSettingsControl11qt_metacastEPKc@Base 5.0.2
 _ZN28QVideoEncoderSettingsControl16staticMetaObjectE@Base 5.0.2
 _ZN28QVideoEncoderSettingsControlC1EP7QObject@Base 5.0.2
 _ZN28QVideoEncoderSettingsControlC2EP7QObject@Base 5.0.2
 _ZN28QVideoEncoderSettingsControlD0Ev@Base 5.0.2
 _ZN28QVideoEncoderSettingsControlD1Ev@Base 5.0.2
 _ZN28QVideoEncoderSettingsControlD2Ev@Base 5.0.2
 _ZN29QCameraImageProcessingControl11qt_metacallEN11QMetaObject4CallEiPPv@Base 5.0.2
 _ZN29QCameraImageProcessingControl11qt_metacastEPKc@Base 5.0.2
 _ZN29QCameraImageProcessingControl16staticMetaObjectE@Base 5.0.2
 _ZN29QCameraImageProcessingControlC1EP7QObject@Base 5.0.2
 _ZN29QCameraImageProcessingControlC2EP7QObject@Base 5.0.2
 _ZN29QCameraImageProcessingControlD0Ev@Base 5.0.2
 _ZN29QCameraImageProcessingControlD1Ev@Base 5.0.2
 _ZN29QCameraImageProcessingControlD2Ev@Base 5.0.2
 _ZN29QMediaNetworkPlaylistProvider11insertMediaEiRK13QMediaContent@Base 5.0.2
 _ZN29QMediaNetworkPlaylistProvider11insertMediaEiRK5QListI13QMediaContentE@Base 5.0.2
 _ZN29QMediaNetworkPlaylistProvider11qt_metacallEN11QMetaObject4CallEiPPv@Base 5.0.2
 _ZN29QMediaNetworkPlaylistProvider11qt_metacastEPKc@Base 5.0.2
 _ZN29QMediaNetworkPlaylistProvider11removeMediaEi@Base 5.0.2
 _ZN29QMediaNetworkPlaylistProvider11removeMediaEii@Base 5.0.2
 _ZN29QMediaNetworkPlaylistProvider16staticMetaObjectE@Base 5.0.2
 _ZN29QMediaNetworkPlaylistProvider4loadERK15QNetworkRequestPKc@Base 5.0.2
 _ZN29QMediaNetworkPlaylistProvider5clearEv@Base 5.0.2
 _ZN29QMediaNetworkPlaylistProvider7shuffleEv@Base 5.0.2
 _ZN29QMediaNetworkPlaylistProvider8addMediaERK13QMediaContent@Base 5.0.2
 _ZN29QMediaNetworkPlaylistProvider8addMediaERK5QListI13QMediaContentE@Base 5.0.2
 _ZN29QMediaNetworkPlaylistProviderC1EP7QObject@Base 5.0.2
 _ZN29QMediaNetworkPlaylistProviderC2EP7QObject@Base 5.0.2
 _ZN29QMediaNetworkPlaylistProviderD0Ev@Base 5.0.2
 _ZN29QMediaNetworkPlaylistProviderD1Ev@Base 5.0.2
 _ZN29QMediaNetworkPlaylistProviderD2Ev@Base 5.0.2
 _ZN30QVideoOutputOrientationHandler11qt_metacallEN11QMetaObject4CallEiPPv@Base 5.2.0
 _ZN30QVideoOutputOrientationHandler11qt_metacastEPKc@Base 5.2.0
 _ZN30QVideoOutputOrientationHandler16staticMetaObjectE@Base 5.2.0
 _ZN30QVideoOutputOrientationHandler18orientationChangedEi@Base 5.2.0
 _ZN30QVideoOutputOrientationHandler24screenOrientationChangedEN2Qt17ScreenOrientationE@Base 5.2.0
 _ZN30QVideoOutputOrientationHandlerC1EP7QObject@Base 5.2.0
 _ZN30QVideoOutputOrientationHandlerC2EP7QObject@Base 5.2.0
 (optional=gccinternal)_ZN30QVideoOutputOrientationHandlerD0Ev@Base 5.2.0
 (optional=gccinternal)_ZN30QVideoOutputOrientationHandlerD1Ev@Base 5.2.0
 (optional=gccinternal)_ZN30QVideoOutputOrientationHandlerD2Ev@Base 5.2.0
 _ZN32QCameraCaptureDestinationControl11qt_metacallEN11QMetaObject4CallEiPPv@Base 5.0.2
 _ZN32QCameraCaptureDestinationControl11qt_metacastEPKc@Base 5.0.2
 _ZN32QCameraCaptureDestinationControl16staticMetaObjectE@Base 5.0.2
 _ZN32QCameraCaptureDestinationControl25captureDestinationChangedE6QFlagsIN19QCameraImageCapture18CaptureDestinationEE@Base 5.0.2
 _ZN32QCameraCaptureDestinationControlC1EP7QObject@Base 5.0.2
 _ZN32QCameraCaptureDestinationControlC2EP7QObject@Base 5.0.2
 _ZN32QCameraCaptureDestinationControlD0Ev@Base 5.0.2
 _ZN32QCameraCaptureDestinationControlD1Ev@Base 5.0.2
 _ZN32QCameraCaptureDestinationControlD2Ev@Base 5.0.2
 _ZN32QCameraViewfinderSettingsControl11qt_metacallEN11QMetaObject4CallEiPPv@Base 5.0.2
 _ZN32QCameraViewfinderSettingsControl11qt_metacastEPKc@Base 5.0.2
 _ZN32QCameraViewfinderSettingsControl16staticMetaObjectE@Base 5.0.2
 _ZN32QCameraViewfinderSettingsControlC1EP7QObject@Base 5.0.2
 _ZN32QCameraViewfinderSettingsControlC2EP7QObject@Base 5.0.2
 _ZN32QCameraViewfinderSettingsControlD0Ev@Base 5.0.2
 _ZN32QCameraViewfinderSettingsControlD1Ev@Base 5.0.2
 _ZN32QCameraViewfinderSettingsControlD2Ev@Base 5.0.2
 _ZN32QMediaPlayerResourceSetInterface11qt_metacallEN11QMetaObject4CallEiPPv@Base 5.0.2
 _ZN32QMediaPlayerResourceSetInterface11qt_metacastEPKc@Base 5.0.2
 _ZN32QMediaPlayerResourceSetInterface13resourcesLostEv@Base 5.0.2
 _ZN32QMediaPlayerResourceSetInterface15resourcesDeniedEv@Base 5.0.2
 _ZN32QMediaPlayerResourceSetInterface16resourcesGrantedEv@Base 5.0.2
 _ZN32QMediaPlayerResourceSetInterface16staticMetaObjectE@Base 5.0.2
 _ZN32QMediaPlayerResourceSetInterface17resourcesReleasedEv@Base 5.0.2
 _ZN32QMediaPlayerResourceSetInterface19availabilityChangedEb@Base 5.0.2
 _ZN32QMediaPlayerResourceSetInterface3iidEv@Base 5.0.2
 _ZN32QMediaPlayerResourceSetInterfaceC1EP7QObject@Base 5.0.2
 _ZN32QMediaPlayerResourceSetInterfaceC2EP7QObject@Base 5.0.2
 _ZN33QCameraCaptureBufferFormatControl11qt_metacallEN11QMetaObject4CallEiPPv@Base 5.0.2
 _ZN33QCameraCaptureBufferFormatControl11qt_metacastEPKc@Base 5.0.2
 _ZN33QCameraCaptureBufferFormatControl16staticMetaObjectE@Base 5.0.2
 _ZN33QCameraCaptureBufferFormatControl19bufferFormatChangedEN11QVideoFrame11PixelFormatE@Base 5.0.2
 _ZN33QCameraCaptureBufferFormatControlC1EP7QObject@Base 5.0.2
 _ZN33QCameraCaptureBufferFormatControlC2EP7QObject@Base 5.0.2
 _ZN33QCameraCaptureBufferFormatControlD0Ev@Base 5.0.2
 _ZN33QCameraCaptureBufferFormatControlD1Ev@Base 5.0.2
 _ZN33QCameraCaptureBufferFormatControlD2Ev@Base 5.0.2
 _ZN37QMediaServiceProviderFactoryInterfaceD0Ev@Base 5.0.2
 _ZN37QMediaServiceProviderFactoryInterfaceD1Ev@Base 5.0.2
 _ZN37QMediaServiceProviderFactoryInterfaceD2Ev@Base 5.0.2
 _ZN6QSound11qt_metacallEN11QMetaObject4CallEiPPv@Base 5.0.2
 _ZN6QSound11qt_metacastEPKc@Base 5.0.2
 _ZN6QSound16deleteOnCompleteEv@Base 5.0.2
 _ZN6QSound16staticMetaObjectE@Base 5.0.2
 _ZN6QSound4playERK7QString@Base 5.0.2
 _ZN6QSound4playEv@Base 5.0.2
 _ZN6QSound4stopEv@Base 5.0.2
 _ZN6QSound8setLoopsEi@Base 5.0.2
 _ZN6QSoundC1ERK7QStringP7QObject@Base 5.0.2
 _ZN6QSoundC2ERK7QStringP7QObject@Base 5.0.2
 _ZN6QSoundD0Ev@Base 5.0.2
 _ZN6QSoundD1Ev@Base 5.0.2
 _ZN6QSoundD2Ev@Base 5.0.2
 _ZN7QCamera10lockFailedEv@Base 5.0.2
 _ZN7QCamera11qt_metacallEN11QMetaObject4CallEiPPv@Base 5.0.2
 _ZN7QCamera11qt_metacastEPKc@Base 5.0.2
 _ZN7QCamera12stateChangedENS_5StateE@Base 5.0.2
 _ZN7QCamera13searchAndLockE6QFlagsINS_8LockTypeEE@Base 5.0.2
 _ZN7QCamera13searchAndLockEv@Base 5.0.2
 _ZN7QCamera13setViewfinderEP12QVideoWidget@Base 5.0.2
 _ZN7QCamera13setViewfinderEP18QGraphicsVideoItem@Base 5.0.2
 _ZN7QCamera13setViewfinderEP21QAbstractVideoSurface@Base 5.0.2
 _ZN7QCamera13statusChangedENS_6StatusE@Base 5.0.2
 _ZN7QCamera14setCaptureModeE6QFlagsINS_11CaptureModeEE@Base 5.0.2
 _ZN7QCamera16availableDevicesEv@Base 5.0.2
 _ZN7QCamera16staticMetaObjectE@Base 5.0.2
 _ZN7QCamera17deviceDescriptionERK10QByteArray@Base 5.0.2
 _ZN7QCamera17lockStatusChangedENS_10LockStatusENS_16LockChangeReasonE@Base 5.0.2
 _ZN7QCamera17lockStatusChangedENS_8LockTypeENS_10LockStatusENS_16LockChangeReasonE@Base 5.0.2
 _ZN7QCamera18captureModeChangedE6QFlagsINS_11CaptureModeEE@Base 5.0.2
 _ZN7QCamera4loadEv@Base 5.0.2
 _ZN7QCamera4stopEv@Base 5.0.2
 _ZN7QCamera5errorENS_5ErrorE@Base 5.0.2
 _ZN7QCamera5startEv@Base 5.0.2
 _ZN7QCamera6lockedEv@Base 5.0.2
 _ZN7QCamera6unloadEv@Base 5.0.2
 _ZN7QCamera6unlockE6QFlagsINS_8LockTypeEE@Base 5.0.2
 _ZN7QCamera6unlockEv@Base 5.0.2
 _ZN7QCameraC1ENS_8PositionEP7QObject@Base 5.3.0
 _ZN7QCameraC1EP7QObject@Base 5.0.2
 _ZN7QCameraC1ERK10QByteArrayP7QObject@Base 5.0.2
 _ZN7QCameraC1ERK11QCameraInfoP7QObject@Base 5.3.0
 _ZN7QCameraC2ENS_8PositionEP7QObject@Base 5.3.0
 _ZN7QCameraC2EP7QObject@Base 5.0.2
 _ZN7QCameraC2ERK10QByteArrayP7QObject@Base 5.0.2
 _ZN7QCameraC2ERK11QCameraInfoP7QObject@Base 5.3.0
 _ZN7QCameraD0Ev@Base 5.0.2
 _ZN7QCameraD1Ev@Base 5.0.2
 _ZN7QCameraD2Ev@Base 5.0.2
 _ZN7QSample10readSampleEv@Base 5.0.2
 _ZN7QSample11qt_metacallEN11QMetaObject4CallEiPPv@Base 5.0.2
 _ZN7QSample11qt_metacastEPKc@Base 5.0.2
 _ZN7QSample12decoderErrorEv@Base 5.0.2
 _ZN7QSample12decoderReadyEv@Base 5.0.2
 _ZN7QSample15loadIfNecessaryEv@Base 5.0.2
 _ZN7QSample16staticMetaObjectE@Base 5.0.2
 _ZN7QSample4loadEv@Base 5.0.2
 _ZN7QSample5errorEv@Base 5.0.2
 _ZN7QSample5readyEv@Base 5.0.2
 _ZN7QSample6addRefEv@Base 5.0.2
 _ZN7QSample7cleanupEv@Base 5.0.2
 _ZN7QSample7onReadyEv@Base 5.0.2
 _ZN7QSample7releaseEv@Base 5.0.2
 _ZN7QSampleC1ERK4QUrlP12QSampleCache@Base 5.0.2
 _ZN7QSampleC2ERK4QUrlP12QSampleCache@Base 5.0.2
 _ZN7QSampleD0Ev@Base 5.0.2
 _ZN7QSampleD1Ev@Base 5.0.2
 _ZN7QSampleD2Ev@Base 5.0.2
 _ZNK10QRadioData10metaObjectEv@Base 5.0.2
 _ZNK10QRadioData11errorStringEv@Base 5.0.2
 _ZNK10QRadioData11mediaObjectEv@Base 5.0.2
 _ZNK10QRadioData11programTypeEv@Base 5.0.2
 _ZNK10QRadioData11stationNameEv@Base 5.0.2
 _ZNK10QRadioData12availabilityEv@Base 5.0.2
 _ZNK10QRadioData15programTypeNameEv@Base 5.0.2
 _ZNK10QRadioData31isAlternativeFrequenciesEnabledEv@Base 5.0.2
 _ZNK10QRadioData5errorEv@Base 5.0.2
 _ZNK10QRadioData9radioTextEv@Base 5.0.2
 _ZNK10QRadioData9stationIdEv@Base 5.0.2
 _ZNK11QAudioInput10bufferSizeEv@Base 5.0.2
 _ZNK11QAudioInput10bytesReadyEv@Base 5.0.2
 _ZNK11QAudioInput10metaObjectEv@Base 5.0.2
 _ZNK11QAudioInput10periodSizeEv@Base 5.0.2
 _ZNK11QAudioInput12elapsedUSecsEv@Base 5.0.2
 _ZNK11QAudioInput14notifyIntervalEv@Base 5.0.2
 _ZNK11QAudioInput14processedUSecsEv@Base 5.0.2
 _ZNK11QAudioInput5errorEv@Base 5.0.2
 _ZNK11QAudioInput5stateEv@Base 5.0.2
 _ZNK11QAudioInput6formatEv@Base 5.0.2
 _ZNK11QAudioInput6volumeEv@Base 5.0.2
 _ZNK11QAudioProbe10metaObjectEv@Base 5.0.2
 _ZNK11QAudioProbe8isActiveEv@Base 5.0.2
 _ZNK11QCameraInfo10deviceNameEv@Base 5.3.0
 _ZNK11QCameraInfo11descriptionEv@Base 5.3.0
 _ZNK11QCameraInfo11orientationEv@Base 5.3.0
 _ZNK11QCameraInfo6isNullEv@Base 5.3.0
 _ZNK11QCameraInfo8positionEv@Base 5.3.0
 _ZNK11QCameraInfoeqERKS_@Base 5.3.0
 _ZNK11QRadioTuner10metaObjectEv@Base 5.0.2
 _ZNK11QRadioTuner10stereoModeEv@Base 5.0.2
 _ZNK11QRadioTuner11errorStringEv@Base 5.0.2
 _ZNK11QRadioTuner11isSearchingEv@Base 5.0.2
 _ZNK11QRadioTuner12availabilityEv@Base 5.0.2
 _ZNK11QRadioTuner13frequencyStepENS_4BandE@Base 5.0.2
 _ZNK11QRadioTuner14frequencyRangeENS_4BandE@Base 5.0.2
 _ZNK11QRadioTuner14signalStrengthEv@Base 5.0.2
 _ZNK11QRadioTuner15isBandSupportedENS_4BandE@Base 5.0.2
 _ZNK11QRadioTuner18isAntennaConnectedEv@Base 5.0.2
 _ZNK11QRadioTuner4bandEv@Base 5.0.2
 _ZNK11QRadioTuner5errorEv@Base 5.0.2
 _ZNK11QRadioTuner5stateEv@Base 5.0.2
 _ZNK11QRadioTuner6volumeEv@Base 5.0.2
 _ZNK11QRadioTuner7isMutedEv@Base 5.0.2
 _ZNK11QRadioTuner8isStereoEv@Base 5.0.2
 _ZNK11QRadioTuner9frequencyEv@Base 5.0.2
 _ZNK11QRadioTuner9radioDataEv@Base 5.0.2
 _ZNK11QVideoFrame10handleTypeEv@Base 5.0.2
 _ZNK11QVideoFrame10isReadableEv@Base 5.0.2
 _ZNK11QVideoFrame10isWritableEv@Base 5.0.2
 _ZNK11QVideoFrame10planeCountEv@Base 5.4.0
 _ZNK11QVideoFrame11mappedBytesEv@Base 5.0.2
 _ZNK11QVideoFrame11pixelFormatEv@Base 5.0.2
 _ZNK11QVideoFrame12bytesPerLineEi@Base 5.4.0
 _ZNK11QVideoFrame12bytesPerLineEv@Base 5.0.2
 _ZNK11QVideoFrame17availableMetaDataEv@Base 5.0.2
 _ZNK11QVideoFrame4bitsEi@Base 5.4.0
 _ZNK11QVideoFrame4bitsEv@Base 5.0.2
 _ZNK11QVideoFrame4sizeEv@Base 5.0.2
 _ZNK11QVideoFrame5widthEv@Base 5.0.2
 _ZNK11QVideoFrame6handleEv@Base 5.0.2
 _ZNK11QVideoFrame6heightEv@Base 5.0.2
 _ZNK11QVideoFrame7endTimeEv@Base 5.0.2
 _ZNK11QVideoFrame7isValidEv@Base 5.0.2
 _ZNK11QVideoFrame7mapModeEv@Base 5.0.2
 _ZNK11QVideoFrame8isMappedEv@Base 5.0.2
 _ZNK11QVideoFrame8metaDataERK7QString@Base 5.0.2
 _ZNK11QVideoFrame9fieldTypeEv@Base 5.0.2
 _ZNK11QVideoFrame9startTimeEv@Base 5.0.2
 _ZNK11QVideoProbe10metaObjectEv@Base 5.0.2
 _ZNK11QVideoProbe8isActiveEv@Base 5.0.2
 _ZNK12QAudioBuffer10frameCountEv@Base 5.0.2
 _ZNK12QAudioBuffer11sampleCountEv@Base 5.0.2
 _ZNK12QAudioBuffer4dataEv@Base 5.0.2
 _ZNK12QAudioBuffer6formatEv@Base 5.0.2
 _ZNK12QAudioBuffer7isValidEv@Base 5.0.2
 _ZNK12QAudioBuffer8durationEv@Base 5.0.2
 _ZNK12QAudioBuffer9byteCountEv@Base 5.0.2
 _ZNK12QAudioBuffer9constDataEv@Base 5.0.2
 _ZNK12QAudioBuffer9startTimeEv@Base 5.0.2
 _ZNK12QAudioFormat10sampleRateEv@Base 5.0.2
 _ZNK12QAudioFormat10sampleSizeEv@Base 5.0.2
 _ZNK12QAudioFormat10sampleTypeEv@Base 5.0.2
 _ZNK12QAudioFormat12channelCountEv@Base 5.0.2
 _ZNK12QAudioFormat13bytesPerFrameEv@Base 5.0.2
 _ZNK12QAudioFormat14bytesForFramesEi@Base 5.0.2
 _ZNK12QAudioFormat14framesForBytesEi@Base 5.0.2
 _ZNK12QAudioFormat16bytesForDurationEx@Base 5.0.2
 _ZNK12QAudioFormat16durationForBytesEi@Base 5.0.2
 _ZNK12QAudioFormat17durationForFramesEi@Base 5.0.2
 _ZNK12QAudioFormat17framesForDurationEx@Base 5.0.2
 _ZNK12QAudioFormat5codecEv@Base 5.0.2
 _ZNK12QAudioFormat7isValidEv@Base 5.0.2
 _ZNK12QAudioFormat9byteOrderEv@Base 5.0.2
 _ZNK12QAudioFormateqERKS_@Base 5.0.2
 _ZNK12QAudioFormatneERKS_@Base 5.0.2
 _ZNK12QAudioOutput10bufferSizeEv@Base 5.0.2
 _ZNK12QAudioOutput10metaObjectEv@Base 5.0.2
 _ZNK12QAudioOutput10periodSizeEv@Base 5.0.2
 _ZNK12QAudioOutput12elapsedUSecsEv@Base 5.0.2
 _ZNK12QAudioOutput14notifyIntervalEv@Base 5.0.2
 _ZNK12QAudioOutput14processedUSecsEv@Base 5.0.2
 _ZNK12QAudioOutput5errorEv@Base 5.0.2
 _ZNK12QAudioOutput5stateEv@Base 5.0.2
 _ZNK12QAudioOutput6formatEv@Base 5.0.2
 _ZNK12QAudioOutput6volumeEv@Base 5.0.2
 _ZNK12QAudioOutput8categoryEv@Base 5.0.2
 _ZNK12QAudioOutput9bytesFreeEv@Base 5.0.2
 _ZNK12QCameraFocus10focusZonesEv@Base 5.0.2
 _ZNK12QCameraFocus10metaObjectEv@Base 5.0.2
 _ZNK12QCameraFocus11digitalZoomEv@Base 5.0.2
 _ZNK12QCameraFocus11isAvailableEv@Base 5.0.2
 _ZNK12QCameraFocus11opticalZoomEv@Base 5.0.2
 _ZNK12QCameraFocus14focusPointModeEv@Base 5.0.2
 _ZNK12QCameraFocus16customFocusPointEv@Base 5.0.2
 _ZNK12QCameraFocus18maximumDigitalZoomEv@Base 5.0.2
 _ZNK12QCameraFocus18maximumOpticalZoomEv@Base 5.0.2
 _ZNK12QCameraFocus20isFocusModeSupportedE6QFlagsINS_9FocusModeEE@Base 5.0.2
 _ZNK12QCameraFocus25isFocusPointModeSupportedENS_14FocusPointModeE@Base 5.0.2
 _ZNK12QCameraFocus9focusModeEv@Base 5.0.2
 _ZNK12QMediaObject10metaObjectEv@Base 5.0.2
 _ZNK12QMediaObject11isAvailableEv@Base 5.0.2
 _ZNK12QMediaObject12availabilityEv@Base 5.0.2
 _ZNK12QMediaObject14notifyIntervalEv@Base 5.0.2
 _ZNK12QMediaObject17availableMetaDataEv@Base 5.0.2
 _ZNK12QMediaObject19isMetaDataAvailableEv@Base 5.0.2
 _ZNK12QMediaObject7serviceEv@Base 5.0.2
 _ZNK12QMediaObject8metaDataERK7QString@Base 5.0.2
 _ZNK12QMediaPlayer10isSeekableEv@Base 5.0.2
 _ZNK12QMediaPlayer10metaObjectEv@Base 5.0.2
 _ZNK12QMediaPlayer11errorStringEv@Base 5.0.2
 _ZNK12QMediaPlayer11mediaStatusEv@Base 5.0.2
 _ZNK12QMediaPlayer11mediaStreamEv@Base 5.0.2
 _ZNK12QMediaPlayer12availabilityEv@Base 5.0.2
 _ZNK12QMediaPlayer12bufferStatusEv@Base 5.0.2
 _ZNK12QMediaPlayer12currentMediaEv@Base 5.0.2
 _ZNK12QMediaPlayer12playbackRateEv@Base 5.0.2
 _ZNK12QMediaPlayer16isAudioAvailableEv@Base 5.0.2
 _ZNK12QMediaPlayer16isVideoAvailableEv@Base 5.0.2
 _ZNK12QMediaPlayer27currentNetworkConfigurationEv@Base 5.0.2
 _ZNK12QMediaPlayer5errorEv@Base 5.0.2
 _ZNK12QMediaPlayer5mediaEv@Base 5.0.2
 _ZNK12QMediaPlayer5stateEv@Base 5.0.2
 _ZNK12QMediaPlayer6volumeEv@Base 5.0.2
 _ZNK12QMediaPlayer7isMutedEv@Base 5.0.2
 _ZNK12QMediaPlayer8durationEv@Base 5.0.2
 _ZNK12QMediaPlayer8playlistEv@Base 5.0.2
 _ZNK12QMediaPlayer8positionEv@Base 5.0.2
 _ZNK12QSampleCache10metaObjectEv@Base 5.0.2
 _ZNK12QSampleCache8isCachedERK4QUrl@Base 5.0.2
 _ZNK12QSampleCache9isLoadingEv@Base 5.0.2
 _ZNK12QSoundEffect10metaObjectEv@Base 5.0.2
 _ZNK12QSoundEffect14loopsRemainingEv@Base 5.0.2
 _ZNK12QSoundEffect6sourceEv@Base 5.0.2
 _ZNK12QSoundEffect6statusEv@Base 5.0.2
 _ZNK12QSoundEffect6volumeEv@Base 5.0.2
 _ZNK12QSoundEffect7isMutedEv@Base 5.0.2
 _ZNK12QSoundEffect8categoryEv@Base 5.0.2
 _ZNK12QSoundEffect8isLoadedEv@Base 5.0.2
 _ZNK12QSoundEffect9isPlayingEv@Base 5.0.2
 _ZNK12QSoundEffect9loopCountEv@Base 5.0.2
 _ZNK13QAudioDecoder10metaObjectEv@Base 5.0.2
 _ZNK13QAudioDecoder11audioFormatEv@Base 5.0.2
 _ZNK13QAudioDecoder11errorStringEv@Base 5.0.2
 _ZNK13QAudioDecoder12sourceDeviceEv@Base 5.0.2
 _ZNK13QAudioDecoder14sourceFilenameEv@Base 5.0.2
 _ZNK13QAudioDecoder15bufferAvailableEv@Base 5.0.2
 _ZNK13QAudioDecoder4readEv@Base 5.0.2
 _ZNK13QAudioDecoder5errorEv@Base 5.0.2
 _ZNK13QAudioDecoder5stateEv@Base 5.0.2
 _ZNK13QAudioDecoder8durationEv@Base 5.0.2
 _ZNK13QAudioDecoder8positionEv@Base 5.0.2
 _ZNK13QMediaContent12canonicalUrlEv@Base 5.0.2
 _ZNK13QMediaContent16canonicalRequestEv@Base 5.0.2
 _ZNK13QMediaContent17canonicalResourceEv@Base 5.0.2
 _ZNK13QMediaContent6isNullEv@Base 5.0.2
 _ZNK13QMediaContent8playlistEv@Base 5.0.2
 _ZNK13QMediaContent9resourcesEv@Base 5.0.2
 _ZNK13QMediaContenteqERKS_@Base 5.0.2
 _ZNK13QMediaContentneERKS_@Base 5.0.2
 _ZNK13QMediaControl10metaObjectEv@Base 5.0.2
 _ZNK13QMediaService10metaObjectEv@Base 5.0.2
 _ZNK14QAudioRecorder10audioInputEv@Base 5.0.2
 _ZNK14QAudioRecorder10metaObjectEv@Base 5.0.2
 _ZNK14QAudioRecorder11audioInputsEv@Base 5.0.2
 _ZNK14QAudioRecorder17defaultAudioInputEv@Base 5.0.2
 _ZNK14QAudioRecorder21audioInputDescriptionERK7QString@Base 5.0.2
 _ZNK14QCameraControl10metaObjectEv@Base 5.0.2
 _ZNK14QMediaPlaylist10isReadOnlyEv@Base 5.0.2
 _ZNK14QMediaPlaylist10mediaCountEv@Base 5.0.2
 _ZNK14QMediaPlaylist10metaObjectEv@Base 5.0.2
 _ZNK14QMediaPlaylist11errorStringEv@Base 5.0.2
 _ZNK14QMediaPlaylist11mediaObjectEv@Base 5.0.2
 _ZNK14QMediaPlaylist12currentIndexEv@Base 5.0.2
 _ZNK14QMediaPlaylist12currentMediaEv@Base 5.0.2
 _ZNK14QMediaPlaylist12playbackModeEv@Base 5.0.2
 _ZNK14QMediaPlaylist13previousIndexEi@Base 5.0.2
 _ZNK14QMediaPlaylist5errorEv@Base 5.0.2
 _ZNK14QMediaPlaylist5mediaEi@Base 5.0.2
 _ZNK14QMediaPlaylist7isEmptyEv@Base 5.0.2
 _ZNK14QMediaPlaylist9nextIndexEi@Base 5.0.2
 _ZNK14QMediaRecorder10metaObjectEv@Base 5.0.2
 _ZNK14QMediaRecorder11errorStringEv@Base 5.0.2
 _ZNK14QMediaRecorder11isAvailableEv@Base 5.0.2
 _ZNK14QMediaRecorder11mediaObjectEv@Base 5.0.2
 _ZNK14QMediaRecorder12availabilityEv@Base 5.0.2
 _ZNK14QMediaRecorder13audioSettingsEv@Base 5.0.2
 _ZNK14QMediaRecorder13videoSettingsEv@Base 5.0.2
 _ZNK14QMediaRecorder14actualLocationEv@Base 5.0.2
 _ZNK14QMediaRecorder14outputLocationEv@Base 5.0.2
 _ZNK14QMediaRecorder15containerFormatEv@Base 5.0.2
 _ZNK14QMediaRecorder17availableMetaDataEv@Base 5.0.2
 _ZNK14QMediaRecorder18isMetaDataWritableEv@Base 5.0.2
 _ZNK14QMediaRecorder19isMetaDataAvailableEv@Base 5.0.2
 _ZNK14QMediaRecorder19supportedContainersEv@Base 5.0.2
 _ZNK14QMediaRecorder19supportedFrameRatesERK21QVideoEncoderSettingsPb@Base 5.0.2
 _ZNK14QMediaRecorder20containerDescriptionERK7QString@Base 5.0.2
 _ZNK14QMediaRecorder20supportedAudioCodecsEv@Base 5.0.2
 _ZNK14QMediaRecorder20supportedResolutionsERK21QVideoEncoderSettingsPb@Base 5.0.2
 _ZNK14QMediaRecorder20supportedVideoCodecsEv@Base 5.0.2
 _ZNK14QMediaRecorder21audioCodecDescriptionERK7QString@Base 5.0.2
 _ZNK14QMediaRecorder21videoCodecDescriptionERK7QString@Base 5.0.2
 _ZNK14QMediaRecorder25supportedAudioSampleRatesERK21QAudioEncoderSettingsPb@Base 5.0.2
 _ZNK14QMediaRecorder5errorEv@Base 5.0.2
 _ZNK14QMediaRecorder5stateEv@Base 5.0.2
 _ZNK14QMediaRecorder6statusEv@Base 5.0.2
 _ZNK14QMediaRecorder6volumeEv@Base 5.0.2
 _ZNK14QMediaRecorder7isMutedEv@Base 5.0.2
 _ZNK14QMediaRecorder8durationEv@Base 5.0.2
 _ZNK14QMediaRecorder8metaDataERK7QString@Base 5.0.2
 _ZNK14QMediaResource10audioCodecEv@Base 5.0.2
 _ZNK14QMediaResource10resolutionEv@Base 5.0.2
 _ZNK14QMediaResource10sampleRateEv@Base 5.0.2
 _ZNK14QMediaResource10videoCodecEv@Base 5.0.2
 _ZNK14QMediaResource12audioBitRateEv@Base 5.0.2
 _ZNK14QMediaResource12channelCountEv@Base 5.0.2
 _ZNK14QMediaResource12videoBitRateEv@Base 5.0.2
 _ZNK14QMediaResource3urlEv@Base 5.0.2
 _ZNK14QMediaResource6isNullEv@Base 5.0.2
 _ZNK14QMediaResource7requestEv@Base 5.0.2
 _ZNK14QMediaResource8dataSizeEv@Base 5.0.2
 _ZNK14QMediaResource8languageEv@Base 5.0.2
 _ZNK14QMediaResource8mimeTypeEv@Base 5.0.2
 _ZNK14QMediaResourceeqERKS_@Base 5.0.2
 _ZNK14QMediaResourceneERKS_@Base 5.0.2
 _ZNK15QCameraExposure10metaObjectEv@Base 5.0.2
 _ZNK15QCameraExposure11isAvailableEv@Base 5.0.2
 _ZNK15QCameraExposure12exposureModeEv@Base 5.0.2
 _ZNK15QCameraExposure12isFlashReadyEv@Base 5.0.2
 _ZNK15QCameraExposure12meteringModeEv@Base 5.0.2
 _ZNK15QCameraExposure12shutterSpeedEv@Base 5.0.2
 _ZNK15QCameraExposure14isoSensitivityEv@Base 5.0.2
 _ZNK15QCameraExposure17requestedApertureEv@Base 5.0.2
 _ZNK15QCameraExposure17spotMeteringPointEv@Base 5.0.2
 _ZNK15QCameraExposure18supportedAperturesEPb@Base 5.0.2
 _ZNK15QCameraExposure20exposureCompensationEv@Base 5.0.2
 _ZNK15QCameraExposure20isFlashModeSupportedE6QFlagsINS_9FlashModeEE@Base 5.0.2
 _ZNK15QCameraExposure21requestedShutterSpeedEv@Base 5.0.2
 _ZNK15QCameraExposure22supportedShutterSpeedsEPb@Base 5.0.2
 _ZNK15QCameraExposure23isExposureModeSupportedENS_12ExposureModeE@Base 5.0.2
 _ZNK15QCameraExposure23isMeteringModeSupportedENS_12MeteringModeE@Base 5.0.2
 _ZNK15QCameraExposure23requestedIsoSensitivityEv@Base 5.0.2
 _ZNK15QCameraExposure25supportedIsoSensitivitiesEPb@Base 5.0.2
 _ZNK15QCameraExposure8apertureEv@Base 5.0.2
 _ZNK15QCameraExposure9flashModeEv@Base 5.0.2
 _ZNK15QMediaTimeRange10latestTimeEv@Base 5.0.2
 _ZNK15QMediaTimeRange12earliestTimeEv@Base 5.0.2
 _ZNK15QMediaTimeRange12isContinuousEv@Base 5.0.2
 _ZNK15QMediaTimeRange7isEmptyEv@Base 5.0.2
 _ZNK15QMediaTimeRange8containsEx@Base 5.0.2
 _ZNK15QMediaTimeRange9intervalsEv@Base 5.0.2
 _ZNK16QAudioDeviceInfo10deviceNameEv@Base 5.0.2
 _ZNK16QAudioDeviceInfo13nearestFormatERK12QAudioFormat@Base 5.0.2
 _ZNK16QAudioDeviceInfo15preferredFormatEv@Base 5.0.2
 _ZNK16QAudioDeviceInfo15supportedCodecsEv@Base 5.0.2
 _ZNK16QAudioDeviceInfo17isFormatSupportedERK12QAudioFormat@Base 5.0.2
 _ZNK16QAudioDeviceInfo19supportedByteOrdersEv@Base 5.0.2
 _ZNK16QAudioDeviceInfo20supportedSampleRatesEv@Base 5.0.2
 _ZNK16QAudioDeviceInfo20supportedSampleSizesEv@Base 5.0.2
 _ZNK16QAudioDeviceInfo20supportedSampleTypesEv@Base 5.0.2
 _ZNK16QAudioDeviceInfo22supportedChannelCountsEv@Base 5.0.2
 _ZNK16QAudioDeviceInfo4modeEv@Base 5.0.2
 _ZNK16QAudioDeviceInfo5realmEv@Base 5.0.2
 _ZNK16QAudioDeviceInfo6handleEv@Base 5.0.2
 _ZNK16QAudioDeviceInfo6isNullEv@Base 5.0.2
 _ZNK16QAudioDeviceInfoeqERKS_@Base 5.0.2
 _ZNK16QAudioDeviceInfoneERKS_@Base 5.0.2
 _ZNK16QCameraFocusZone4areaEv@Base 5.0.2
 _ZNK16QCameraFocusZone6statusEv@Base 5.0.2
 _ZNK16QCameraFocusZone7isValidEv@Base 5.0.2
 _ZNK16QCameraFocusZoneeqERKS_@Base 5.0.2
 _ZNK16QCameraFocusZoneneERKS_@Base 5.0.2
 _ZNK17QImageVideoBuffer7mapModeEv@Base 5.0.2
 _ZNK17QRadioDataControl10metaObjectEv@Base 5.0.2
 _ZNK18QAudioSystemPlugin10metaObjectEv@Base 5.0.2
 _ZNK18QCameraInfoControl10metaObjectEv@Base 5.3.0
 _ZNK18QCameraZoomControl10metaObjectEv@Base 5.0.2
 _ZNK18QMediaPluginLoader4keysEv@Base 5.0.2
 _ZNK18QMediaTimeInterval10normalizedEv@Base 5.0.2
 _ZNK18QMediaTimeInterval10translatedEx@Base 5.0.2
 _ZNK18QMediaTimeInterval3endEv@Base 5.0.2
 _ZNK18QMediaTimeInterval5startEv@Base 5.0.2
 _ZNK18QMediaTimeInterval8containsEx@Base 5.0.2
 _ZNK18QMediaTimeInterval8isNormalEv@Base 5.0.2
 _ZNK18QMemoryVideoBuffer7mapModeEv@Base 5.0.2
 _ZNK18QRadioTunerControl10metaObjectEv@Base 5.0.2
 _ZNK19QAbstractAudioInput10metaObjectEv@Base 5.0.2
 _ZNK19QCameraFlashControl10metaObjectEv@Base 5.0.2
 _ZNK19QCameraFocusControl10metaObjectEv@Base 5.0.2
 _ZNK19QCameraImageCapture10metaObjectEv@Base 5.0.2
 _ZNK19QCameraImageCapture11errorStringEv@Base 5.0.2
 _ZNK19QCameraImageCapture11isAvailableEv@Base 5.0.2
 _ZNK19QCameraImageCapture11mediaObjectEv@Base 5.0.2
 _ZNK19QCameraImageCapture12availabilityEv@Base 5.0.2
 _ZNK19QCameraImageCapture12bufferFormatEv@Base 5.0.2
 _ZNK19QCameraImageCapture16encodingSettingsEv@Base 5.0.2
 _ZNK19QCameraImageCapture17isReadyForCaptureEv@Base 5.0.2
 _ZNK19QCameraImageCapture18captureDestinationEv@Base 5.0.2
 _ZNK19QCameraImageCapture20supportedImageCodecsEv@Base 5.0.2
 _ZNK19QCameraImageCapture20supportedResolutionsERK21QImageEncoderSettingsPb@Base 5.0.2
 _ZNK19QCameraImageCapture21imageCodecDescriptionERK7QString@Base 5.0.2
 _ZNK19QCameraImageCapture22supportedBufferFormatsEv@Base 5.0.2
 _ZNK19QCameraImageCapture29isCaptureDestinationSupportedE6QFlagsINS_18CaptureDestinationEE@Base 5.0.2
 _ZNK19QCameraImageCapture5errorEv@Base 5.0.2
 _ZNK19QCameraLocksControl10metaObjectEv@Base 5.0.2
 _ZNK19QMediaPlayerControl10metaObjectEv@Base 5.0.2
 _ZNK19QPlaylistFileParser10metaObjectEv@Base 5.0.2
 _ZNK19QVideoSurfaceFormat10frameWidthEv@Base 5.0.2
 _ZNK19QVideoSurfaceFormat10handleTypeEv@Base 5.0.2
 _ZNK19QVideoSurfaceFormat11frameHeightEv@Base 5.0.2
 _ZNK19QVideoSurfaceFormat11pixelFormatEv@Base 5.0.2
 _ZNK19QVideoSurfaceFormat13propertyNamesEv@Base 5.0.2
 _ZNK19QVideoSurfaceFormat15yCbCrColorSpaceEv@Base 5.0.2
 _ZNK19QVideoSurfaceFormat16pixelAspectRatioEv@Base 5.0.2
 _ZNK19QVideoSurfaceFormat17scanLineDirectionEv@Base 5.0.2
 _ZNK19QVideoSurfaceFormat7isValidEv@Base 5.0.2
 _ZNK19QVideoSurfaceFormat8propertyEPKc@Base 5.0.2
 _ZNK19QVideoSurfaceFormat8sizeHintEv@Base 5.0.2
 _ZNK19QVideoSurfaceFormat8viewportEv@Base 5.0.2
 _ZNK19QVideoSurfaceFormat9frameRateEv@Base 5.0.2
 _ZNK19QVideoSurfaceFormat9frameSizeEv@Base 5.0.2
 _ZNK19QVideoSurfaceFormateqERKS_@Base 5.0.2
 _ZNK19QVideoSurfaceFormatneERKS_@Base 5.0.2
 _ZNK19QVideoWindowControl10metaObjectEv@Base 5.0.2
 _ZNK20QAbstractAudioOutput10metaObjectEv@Base 5.0.2
 _ZNK20QAbstractVideoBuffer10handleTypeEv@Base 5.0.2
 _ZNK20QAbstractVideoBuffer6handleEv@Base 5.0.2
 _ZNK20QAudioDecoderControl10metaObjectEv@Base 5.0.2
 _ZNK20QImageEncoderControl10metaObjectEv@Base 5.0.2
 _ZNK20QMediaStreamsControl10metaObjectEv@Base 5.0.2
 _ZNK21QAbstractVideoSurface10metaObjectEv@Base 5.0.2
 _ZNK21QAbstractVideoSurface13nearestFormatERK19QVideoSurfaceFormat@Base 5.0.2
 _ZNK21QAbstractVideoSurface13surfaceFormatEv@Base 5.0.2
 _ZNK21QAbstractVideoSurface16nativeResolutionEv@Base 5.0.2
 _ZNK21QAbstractVideoSurface17isFormatSupportedERK19QVideoSurfaceFormat@Base 5.0.2
 _ZNK21QAbstractVideoSurface5errorEv@Base 5.0.2
 _ZNK21QAbstractVideoSurface8isActiveEv@Base 5.0.2
 _ZNK21QAudioEncoderSettings10sampleRateEv@Base 5.0.2
 _ZNK21QAudioEncoderSettings12channelCountEv@Base 5.0.2
 _ZNK21QAudioEncoderSettings12encodingModeEv@Base 5.0.2
 _ZNK21QAudioEncoderSettings14encodingOptionERK7QString@Base 5.0.2
 _ZNK21QAudioEncoderSettings15encodingOptionsEv@Base 5.0.2
 _ZNK21QAudioEncoderSettings5codecEv@Base 5.0.2
 _ZNK21QAudioEncoderSettings6isNullEv@Base 5.0.2
 _ZNK21QAudioEncoderSettings7bitRateEv@Base 5.0.2
 _ZNK21QAudioEncoderSettings7qualityEv@Base 5.0.2
 _ZNK21QAudioEncoderSettingseqERKS_@Base 5.0.2
 _ZNK21QAudioEncoderSettingsneERKS_@Base 5.0.2
 _ZNK21QImageEncoderSettings10resolutionEv@Base 5.0.2
 _ZNK21QImageEncoderSettings14encodingOptionERK7QString@Base 5.0.2
 _ZNK21QImageEncoderSettings15encodingOptionsEv@Base 5.0.2
 _ZNK21QImageEncoderSettings5codecEv@Base 5.0.2
 _ZNK21QImageEncoderSettings6isNullEv@Base 5.0.2
 _ZNK21QImageEncoderSettings7qualityEv@Base 5.0.2
 _ZNK21QImageEncoderSettingseqERKS_@Base 5.0.2
 _ZNK21QImageEncoderSettingsneERKS_@Base 5.0.2
 _ZNK21QMediaPlaylistControl10metaObjectEv@Base 5.0.2
 _ZNK21QMediaRecorderControl10metaObjectEv@Base 5.0.2
 _ZNK21QMediaServiceProvider10hasSupportERK10QByteArrayRK7QStringRK11QStringListi@Base 5.0.2
 _ZNK21QMediaServiceProvider10metaObjectEv@Base 5.0.2
 _ZNK21QMediaServiceProvider13defaultDeviceERK10QByteArray@Base 5.3.0
 _ZNK21QMediaServiceProvider14cameraPositionERK10QByteArray@Base 5.3.0
 _ZNK21QMediaServiceProvider17cameraOrientationERK10QByteArray@Base 5.3.0
 _ZNK21QMediaServiceProvider18supportedMimeTypesERK10QByteArrayi@Base 5.0.2
 _ZNK21QMediaServiceProvider7devicesERK10QByteArray@Base 5.0.2
 _ZNK21QMediaStorageLocation15defaultLocationENS_9MediaTypeE@Base 5.3.1
 _ZNK21QMediaStorageLocation16generateFileNameERK7QStringNS_9MediaTypeES2_S2_@Base 5.3.1
 _ZNK21QMediaStorageLocation16generateFileNameERK7QStringRK4QDirS2_@Base 5.3.1
 _ZNK21QVideoEncoderSettings10resolutionEv@Base 5.0.2
 _ZNK21QVideoEncoderSettings12encodingModeEv@Base 5.0.2
 _ZNK21QVideoEncoderSettings14encodingOptionERK7QString@Base 5.0.2
 _ZNK21QVideoEncoderSettings15encodingOptionsEv@Base 5.0.2
 _ZNK21QVideoEncoderSettings5codecEv@Base 5.0.2
 _ZNK21QVideoEncoderSettings6isNullEv@Base 5.0.2
 _ZNK21QVideoEncoderSettings7bitRateEv@Base 5.0.2
 _ZNK21QVideoEncoderSettings7qualityEv@Base 5.0.2
 _ZNK21QVideoEncoderSettings9frameRateEv@Base 5.0.2
 _ZNK21QVideoEncoderSettingseqERKS_@Base 5.0.2
 _ZNK21QVideoEncoderSettingsneERKS_@Base 5.0.2
 _ZNK21QVideoRendererControl10metaObjectEv@Base 5.0.2
 _ZNK22QCameraExposureControl10metaObjectEv@Base 5.0.2
 _ZNK22QCameraFeedbackControl10metaObjectEv@Base 5.0.2
 _ZNK22QCameraImageProcessing10metaObjectEv@Base 5.0.2
 _ZNK22QCameraImageProcessing10saturationEv@Base 5.0.2
 _ZNK22QCameraImageProcessing11isAvailableEv@Base 5.0.2
 _ZNK22QCameraImageProcessing14denoisingLevelEv@Base 5.0.2
 _ZNK22QCameraImageProcessing15sharpeningLevelEv@Base 5.0.2
 _ZNK22QCameraImageProcessing16whiteBalanceModeEv@Base 5.0.2
 _ZNK22QCameraImageProcessing18manualWhiteBalanceEv@Base 5.0.2
 _ZNK22QCameraImageProcessing27isWhiteBalanceModeSupportedENS_16WhiteBalanceModeE@Base 5.0.2
 _ZNK22QCameraImageProcessing8contrastEv@Base 5.0.2
 _ZNK22QMediaContainerControl10metaObjectEv@Base 5.0.2
 _ZNK22QMediaPlaylistIOPlugin10metaObjectEv@Base 5.0.2
 _ZNK22QMediaPlaylistProvider10isReadOnlyEv@Base 5.0.2
 _ZNK22QMediaPlaylistProvider10metaObjectEv@Base 5.0.2
 _ZNK22QMetaDataReaderControl10metaObjectEv@Base 5.0.2
 _ZNK22QMetaDataWriterControl10metaObjectEv@Base 5.0.2
 _ZNK23QMediaAudioProbeControl10metaObjectEv@Base 5.0.2
 _ZNK23QMediaPlaylistNavigator10metaObjectEv@Base 5.0.2
 _ZNK23QMediaPlaylistNavigator11currentItemEv@Base 5.0.2
 _ZNK23QMediaPlaylistNavigator12currentIndexEv@Base 5.0.2
 _ZNK23QMediaPlaylistNavigator12playbackModeEv@Base 5.0.2
 _ZNK23QMediaPlaylistNavigator12previousItemEi@Base 5.0.2
 _ZNK23QMediaPlaylistNavigator13previousIndexEi@Base 5.0.2
 _ZNK23QMediaPlaylistNavigator6itemAtEi@Base 5.0.2
 _ZNK23QMediaPlaylistNavigator8nextItemEi@Base 5.0.2
 _ZNK23QMediaPlaylistNavigator8playlistEv@Base 5.0.2
 _ZNK23QMediaPlaylistNavigator9nextIndexEi@Base 5.0.2
 _ZNK23QMediaVideoProbeControl10metaObjectEv@Base 5.0.2
 _ZNK24QAbstractAudioDeviceInfo10metaObjectEv@Base 5.0.2
 _ZNK25QMediaAvailabilityControl10metaObjectEv@Base 5.0.2
 _ZNK25QMediaServiceProviderHint14cameraPositionEv@Base 5.3.0
 _ZNK25QMediaServiceProviderHint4typeEv@Base 5.0.2
 _ZNK25QMediaServiceProviderHint6codecsEv@Base 5.0.2
 _ZNK25QMediaServiceProviderHint6deviceEv@Base 5.0.2
 _ZNK25QMediaServiceProviderHint6isNullEv@Base 5.0.2
 _ZNK25QMediaServiceProviderHint8featuresEv@Base 5.0.2
 _ZNK25QMediaServiceProviderHint8mimeTypeEv@Base 5.0.2
 _ZNK25QMediaServiceProviderHinteqERKS_@Base 5.0.2
 _ZNK25QMediaServiceProviderHintneERKS_@Base 5.0.2
 _ZNK26QAudioInputSelectorControl10metaObjectEv@Base 5.0.2
 _ZNK26QCameraImageCaptureControl10metaObjectEv@Base 5.0.2
 _ZNK26QMediaNetworkAccessControl10metaObjectEv@Base 5.0.2
 _ZNK26QMediaResourcePolicyPlugin10metaObjectEv@Base 5.0.2
 _ZNK27QAudioOutputSelectorControl10metaObjectEv@Base 5.0.2
 _ZNK27QMediaPlaylistSourceControl10metaObjectEv@Base 5.0.2
 _ZNK27QMediaServiceProviderPlugin10metaObjectEv@Base 5.0.2
 _ZNK27QVideoDeviceSelectorControl10metaObjectEv@Base 5.0.2
 _ZNK28QAudioEncoderSettingsControl10metaObjectEv@Base 5.0.2
 _ZNK28QMediaGaplessPlaybackControl10metaObjectEv@Base 5.0.2
 _ZNK28QVideoEncoderSettingsControl10metaObjectEv@Base 5.0.2
 _ZNK29QCameraImageProcessingControl10metaObjectEv@Base 5.0.2
 _ZNK29QMediaNetworkPlaylistProvider10isReadOnlyEv@Base 5.0.2
 _ZNK29QMediaNetworkPlaylistProvider10mediaCountEv@Base 5.0.2
 _ZNK29QMediaNetworkPlaylistProvider10metaObjectEv@Base 5.0.2
 _ZNK29QMediaNetworkPlaylistProvider5mediaEi@Base 5.0.2
 _ZNK30QVideoOutputOrientationHandler10metaObjectEv@Base 5.2.0
 _ZNK30QVideoOutputOrientationHandler18currentOrientationEv@Base 5.2.0
 _ZNK32QCameraCaptureDestinationControl10metaObjectEv@Base 5.0.2
 _ZNK32QCameraViewfinderSettingsControl10metaObjectEv@Base 5.0.2
 _ZNK32QMediaPlayerResourceSetInterface10metaObjectEv@Base 5.0.2
 _ZNK33QCameraCaptureBufferFormatControl10metaObjectEv@Base 5.0.2
 _ZNK6QSound10isFinishedEv@Base 5.0.2
 _ZNK6QSound10metaObjectEv@Base 5.0.2
 _ZNK6QSound14loopsRemainingEv@Base 5.0.2
 _ZNK6QSound5loopsEv@Base 5.0.2
 _ZNK6QSound8fileNameEv@Base 5.0.2
 _ZNK7QCamera10lockStatusENS_8LockTypeE@Base 5.0.2
 _ZNK7QCamera10lockStatusEv@Base 5.0.2
 _ZNK7QCamera10metaObjectEv@Base 5.0.2
 _ZNK7QCamera11captureModeEv@Base 5.0.2
 _ZNK7QCamera11errorStringEv@Base 5.0.2
 _ZNK7QCamera12availabilityEv@Base 5.0.2
 _ZNK7QCamera14requestedLocksEv@Base 5.0.2
 _ZNK7QCamera14supportedLocksEv@Base 5.0.2
 _ZNK7QCamera15imageProcessingEv@Base 5.0.2
 _ZNK7QCamera22isCaptureModeSupportedE6QFlagsINS_11CaptureModeEE@Base 5.0.2
 _ZNK7QCamera5errorEv@Base 5.0.2
 _ZNK7QCamera5focusEv@Base 5.0.2
 _ZNK7QCamera5stateEv@Base 5.0.2
 _ZNK7QCamera6statusEv@Base 5.0.2
 _ZNK7QCamera8exposureEv@Base 5.0.2
 _ZNK7QSample10metaObjectEv@Base 5.0.2
 _ZNK7QSample5stateEv@Base 5.0.2
 _ZTI10QRadioData@Base 5.0.2
 _ZTI11QAudioInput@Base 5.0.2
 _ZTI11QAudioProbe@Base 5.0.2
 _ZTI11QRadioTuner@Base 5.0.2
 _ZTI11QVideoProbe@Base 5.0.2
 _ZTI12QAudioOutput@Base 5.0.2
 _ZTI12QCameraFocus@Base 5.0.2
 _ZTI12QMediaObject@Base 5.0.2
 _ZTI12QMediaPlayer@Base 5.0.2
 _ZTI12QSampleCache@Base 5.0.2
 _ZTI12QSoundEffect@Base 5.0.2
 _ZTI13QAudioDecoder@Base 5.0.2
 _ZTI13QMediaControl@Base 5.0.2
 _ZTI13QMediaService@Base 5.0.2
 _ZTI14QAudioRecorder@Base 5.0.2
 _ZTI14QCameraControl@Base 5.0.2
 _ZTI14QMediaPlaylist@Base 5.0.2
 _ZTI14QMediaRecorder@Base 5.0.2
 _ZTI15QCameraExposure@Base 5.0.2
 _ZTI17QImageVideoBuffer@Base 5.0.2
 _ZTI17QRadioDataControl@Base 5.0.2
 _ZTI18QAudioSystemPlugin@Base 5.0.2
 _ZTI18QCameraInfoControl@Base 5.3.0
 _ZTI18QCameraZoomControl@Base 5.0.2
 _ZTI18QMemoryVideoBuffer@Base 5.0.2
 _ZTI18QRadioTunerControl@Base 5.0.2
 _ZTI19QAbstractAudioInput@Base 5.0.2
 _ZTI19QCameraFlashControl@Base 5.0.2
 _ZTI19QCameraFocusControl@Base 5.0.2
 _ZTI19QCameraImageCapture@Base 5.0.2
 _ZTI19QCameraLocksControl@Base 5.0.2
 _ZTI19QMediaPlayerControl@Base 5.0.2
 _ZTI19QPlaylistFileParser@Base 5.0.2
 _ZTI19QVideoWindowControl@Base 5.0.2
 _ZTI20QAbstractAudioBuffer@Base 5.0.2
 _ZTI20QAbstractAudioOutput@Base 5.0.2
 _ZTI20QAbstractVideoBuffer@Base 5.0.2
 _ZTI20QAudioDecoderControl@Base 5.0.2
 _ZTI20QImageEncoderControl@Base 5.0.2
 _ZTI20QMediaPlaylistReader@Base 5.0.2
 _ZTI20QMediaPlaylistWriter@Base 5.0.2
 _ZTI20QMediaStreamsControl@Base 5.0.2
 _ZTI21QAbstractVideoSurface@Base 5.0.2
 _ZTI21QMediaPlaylistControl@Base 5.0.2
 _ZTI21QMediaRecorderControl@Base 5.0.2
 _ZTI21QMediaServiceProvider@Base 5.0.2
 _ZTI21QVideoRendererControl@Base 5.0.2
 _ZTI22QCameraExposureControl@Base 5.0.2
 _ZTI22QCameraFeedbackControl@Base 5.0.2
 _ZTI22QCameraImageProcessing@Base 5.0.2
 _ZTI22QMediaContainerControl@Base 5.0.2
 _ZTI22QMediaPlaylistIOPlugin@Base 5.0.2
 _ZTI22QMediaPlaylistProvider@Base 5.0.2
 _ZTI22QMetaDataReaderControl@Base 5.0.2
 _ZTI22QMetaDataWriterControl@Base 5.0.2
 _ZTI23QMediaAudioProbeControl@Base 5.0.2
 _ZTI23QMediaBindableInterface@Base 5.0.2
 _ZTI23QMediaPlaylistNavigator@Base 5.0.2
 _ZTI23QMediaVideoProbeControl@Base 5.0.2
 _ZTI24QAbstractAudioDeviceInfo@Base 5.0.2
 _ZTI25QMediaAvailabilityControl@Base 5.0.2
 _ZTI25QMediaPlaylistIOInterface@Base 5.0.2
 _ZTI26QAbstractPlanarVideoBuffer@Base 5.4.0
 _ZTI26QAudioInputSelectorControl@Base 5.0.2
 _ZTI26QCameraImageCaptureControl@Base 5.0.2
 _ZTI26QMediaNetworkAccessControl@Base 5.0.2
 _ZTI26QMediaResourcePolicyPlugin@Base 5.0.2
 _ZTI27QAudioOutputSelectorControl@Base 5.0.2
 _ZTI27QMediaPlaylistSourceControl@Base 5.0.2
 _ZTI27QMediaServiceProviderPlugin@Base 5.0.2
 _ZTI27QVideoDeviceSelectorControl@Base 5.0.2
 _ZTI28QAudioEncoderSettingsControl@Base 5.0.2
 _ZTI28QAudioSystemFactoryInterface@Base 5.0.2
 _ZTI28QMediaGaplessPlaybackControl@Base 5.0.2
 _ZTI28QVideoEncoderSettingsControl@Base 5.0.2
 _ZTI29QCameraImageProcessingControl@Base 5.0.2
 _ZTI29QMediaNetworkPlaylistProvider@Base 5.0.2
 _ZTI30QVideoOutputOrientationHandler@Base 5.2.0
 _ZTI32QCameraCaptureDestinationControl@Base 5.0.2
 _ZTI32QCameraViewfinderSettingsControl@Base 5.0.2
 _ZTI32QMediaPlayerResourceSetInterface@Base 5.0.2
 _ZTI33QCameraCaptureBufferFormatControl@Base 5.0.2
 _ZTI33QMediaResourceSetFactoryInterface@Base 5.0.2
 _ZTI37QMediaServiceProviderFactoryInterface@Base 5.0.2
 _ZTI6QSound@Base 5.0.2
 _ZTI7QCamera@Base 5.0.2
 _ZTI7QSample@Base 5.0.2
 _ZTS10QRadioData@Base 5.0.2
 _ZTS11QAudioInput@Base 5.0.2
 _ZTS11QAudioProbe@Base 5.0.2
 _ZTS11QRadioTuner@Base 5.0.2
 _ZTS11QVideoProbe@Base 5.0.2
 _ZTS12QAudioOutput@Base 5.0.2
 _ZTS12QCameraFocus@Base 5.0.2
 _ZTS12QMediaObject@Base 5.0.2
 _ZTS12QMediaPlayer@Base 5.0.2
 _ZTS12QSampleCache@Base 5.0.2
 _ZTS12QSoundEffect@Base 5.0.2
 _ZTS13QAudioDecoder@Base 5.0.2
 _ZTS13QMediaControl@Base 5.0.2
 _ZTS13QMediaService@Base 5.0.2
 _ZTS14QAudioRecorder@Base 5.0.2
 _ZTS14QCameraControl@Base 5.0.2
 _ZTS14QMediaPlaylist@Base 5.0.2
 _ZTS14QMediaRecorder@Base 5.0.2
 _ZTS15QCameraExposure@Base 5.0.2
 _ZTS17QImageVideoBuffer@Base 5.0.2
 _ZTS17QRadioDataControl@Base 5.0.2
 _ZTS18QAudioSystemPlugin@Base 5.0.2
 _ZTS18QCameraInfoControl@Base 5.3.0
 _ZTS18QCameraZoomControl@Base 5.0.2
 _ZTS18QMemoryVideoBuffer@Base 5.0.2
 _ZTS18QRadioTunerControl@Base 5.0.2
 _ZTS19QAbstractAudioInput@Base 5.0.2
 _ZTS19QCameraFlashControl@Base 5.0.2
 _ZTS19QCameraFocusControl@Base 5.0.2
 _ZTS19QCameraImageCapture@Base 5.0.2
 _ZTS19QCameraLocksControl@Base 5.0.2
 _ZTS19QMediaPlayerControl@Base 5.0.2
 _ZTS19QPlaylistFileParser@Base 5.0.2
 _ZTS19QVideoWindowControl@Base 5.0.2
 _ZTS20QAbstractAudioBuffer@Base 5.0.2
 _ZTS20QAbstractAudioOutput@Base 5.0.2
 _ZTS20QAbstractVideoBuffer@Base 5.0.2
 _ZTS20QAudioDecoderControl@Base 5.0.2
 _ZTS20QImageEncoderControl@Base 5.0.2
 _ZTS20QMediaPlaylistReader@Base 5.0.2
 _ZTS20QMediaPlaylistWriter@Base 5.0.2
 _ZTS20QMediaStreamsControl@Base 5.0.2
 _ZTS21QAbstractVideoSurface@Base 5.0.2
 _ZTS21QMediaPlaylistControl@Base 5.0.2
 _ZTS21QMediaRecorderControl@Base 5.0.2
 _ZTS21QMediaServiceProvider@Base 5.0.2
 _ZTS21QVideoRendererControl@Base 5.0.2
 _ZTS22QCameraExposureControl@Base 5.0.2
 _ZTS22QCameraFeedbackControl@Base 5.0.2
 _ZTS22QCameraImageProcessing@Base 5.0.2
 _ZTS22QMediaContainerControl@Base 5.0.2
 _ZTS22QMediaPlaylistIOPlugin@Base 5.0.2
 _ZTS22QMediaPlaylistProvider@Base 5.0.2
 _ZTS22QMetaDataReaderControl@Base 5.0.2
 _ZTS22QMetaDataWriterControl@Base 5.0.2
 _ZTS23QMediaAudioProbeControl@Base 5.0.2
 _ZTS23QMediaBindableInterface@Base 5.0.2
 _ZTS23QMediaPlaylistNavigator@Base 5.0.2
 _ZTS23QMediaVideoProbeControl@Base 5.0.2
 _ZTS24QAbstractAudioDeviceInfo@Base 5.0.2
 _ZTS25QMediaAvailabilityControl@Base 5.0.2
 _ZTS25QMediaPlaylistIOInterface@Base 5.0.2
 _ZTS26QAbstractPlanarVideoBuffer@Base 5.4.0
 _ZTS26QAudioInputSelectorControl@Base 5.0.2
 _ZTS26QCameraImageCaptureControl@Base 5.0.2
 _ZTS26QMediaNetworkAccessControl@Base 5.0.2
 _ZTS26QMediaResourcePolicyPlugin@Base 5.0.2
 _ZTS27QAudioOutputSelectorControl@Base 5.0.2
 _ZTS27QMediaPlaylistSourceControl@Base 5.0.2
 _ZTS27QMediaServiceProviderPlugin@Base 5.0.2
 _ZTS27QVideoDeviceSelectorControl@Base 5.0.2
 _ZTS28QAudioEncoderSettingsControl@Base 5.0.2
 _ZTS28QAudioSystemFactoryInterface@Base 5.0.2
 _ZTS28QMediaGaplessPlaybackControl@Base 5.0.2
 _ZTS28QVideoEncoderSettingsControl@Base 5.0.2
 _ZTS29QCameraImageProcessingControl@Base 5.0.2
 _ZTS29QMediaNetworkPlaylistProvider@Base 5.0.2
 _ZTS30QVideoOutputOrientationHandler@Base 5.2.0
 _ZTS32QCameraCaptureDestinationControl@Base 5.0.2
 _ZTS32QCameraViewfinderSettingsControl@Base 5.0.2
 _ZTS32QMediaPlayerResourceSetInterface@Base 5.0.2
 _ZTS33QCameraCaptureBufferFormatControl@Base 5.0.2
 _ZTS33QMediaResourceSetFactoryInterface@Base 5.0.2
 _ZTS37QMediaServiceProviderFactoryInterface@Base 5.0.2
 _ZTS6QSound@Base 5.0.2
 _ZTS7QCamera@Base 5.0.2
 _ZTS7QSample@Base 5.0.2
 _ZTV10QRadioData@Base 5.0.2
 _ZTV11QAudioInput@Base 5.0.2
 _ZTV11QAudioProbe@Base 5.0.2
 _ZTV11QRadioTuner@Base 5.0.2
 _ZTV11QVideoProbe@Base 5.0.2
 _ZTV12QAudioOutput@Base 5.0.2
 _ZTV12QCameraFocus@Base 5.0.2
 _ZTV12QMediaObject@Base 5.0.2
 _ZTV12QMediaPlayer@Base 5.0.2
 _ZTV12QSampleCache@Base 5.0.2
 _ZTV12QSoundEffect@Base 5.0.2
 _ZTV13QAudioDecoder@Base 5.0.2
 _ZTV13QMediaControl@Base 5.0.2
 _ZTV13QMediaService@Base 5.0.2
 _ZTV14QAudioRecorder@Base 5.0.2
 _ZTV14QCameraControl@Base 5.0.2
 _ZTV14QMediaPlaylist@Base 5.0.2
 _ZTV14QMediaRecorder@Base 5.0.2
 _ZTV15QCameraExposure@Base 5.0.2
 _ZTV17QImageVideoBuffer@Base 5.0.2
 _ZTV17QRadioDataControl@Base 5.0.2
 _ZTV18QAudioSystemPlugin@Base 5.0.2
 _ZTV18QCameraInfoControl@Base 5.3.0
 _ZTV18QCameraZoomControl@Base 5.0.2
 _ZTV18QMemoryVideoBuffer@Base 5.0.2
 _ZTV18QRadioTunerControl@Base 5.0.2
 _ZTV19QAbstractAudioInput@Base 5.0.2
 _ZTV19QCameraFlashControl@Base 5.0.2
 _ZTV19QCameraFocusControl@Base 5.0.2
 _ZTV19QCameraImageCapture@Base 5.0.2
 _ZTV19QCameraLocksControl@Base 5.0.2
 _ZTV19QMediaPlayerControl@Base 5.0.2
 _ZTV19QPlaylistFileParser@Base 5.0.2
 _ZTV19QVideoWindowControl@Base 5.0.2
 _ZTV20QAbstractAudioBuffer@Base 5.0.2
 _ZTV20QAbstractAudioOutput@Base 5.0.2
 _ZTV20QAbstractVideoBuffer@Base 5.0.2
 _ZTV20QAudioDecoderControl@Base 5.0.2
 _ZTV20QImageEncoderControl@Base 5.0.2
 _ZTV20QMediaPlaylistReader@Base 5.0.2
 _ZTV20QMediaPlaylistWriter@Base 5.0.2
 _ZTV20QMediaStreamsControl@Base 5.0.2
 _ZTV21QAbstractVideoSurface@Base 5.0.2
 _ZTV21QMediaPlaylistControl@Base 5.0.2
 _ZTV21QMediaRecorderControl@Base 5.0.2
 _ZTV21QMediaServiceProvider@Base 5.0.2
 _ZTV21QVideoRendererControl@Base 5.0.2
 _ZTV22QCameraExposureControl@Base 5.0.2
 _ZTV22QCameraFeedbackControl@Base 5.0.2
 _ZTV22QCameraImageProcessing@Base 5.0.2
 _ZTV22QMediaContainerControl@Base 5.0.2
 _ZTV22QMediaPlaylistIOPlugin@Base 5.0.2
 _ZTV22QMediaPlaylistProvider@Base 5.0.2
 _ZTV22QMetaDataReaderControl@Base 5.0.2
 _ZTV22QMetaDataWriterControl@Base 5.0.2
 _ZTV23QMediaAudioProbeControl@Base 5.0.2
 _ZTV23QMediaBindableInterface@Base 5.0.2
 _ZTV23QMediaPlaylistNavigator@Base 5.0.2
 _ZTV23QMediaVideoProbeControl@Base 5.0.2
 _ZTV24QAbstractAudioDeviceInfo@Base 5.0.2
 _ZTV25QMediaAvailabilityControl@Base 5.0.2
 _ZTV25QMediaPlaylistIOInterface@Base 5.0.2
 _ZTV26QAbstractPlanarVideoBuffer@Base 5.4.0
 _ZTV26QAudioInputSelectorControl@Base 5.0.2
 _ZTV26QCameraImageCaptureControl@Base 5.0.2
 _ZTV26QMediaNetworkAccessControl@Base 5.0.2
 _ZTV26QMediaResourcePolicyPlugin@Base 5.0.2
 _ZTV27QAudioOutputSelectorControl@Base 5.0.2
 _ZTV27QMediaPlaylistSourceControl@Base 5.0.2
 _ZTV27QMediaServiceProviderPlugin@Base 5.0.2
 _ZTV27QVideoDeviceSelectorControl@Base 5.0.2
 _ZTV28QAudioEncoderSettingsControl@Base 5.0.2
 _ZTV28QAudioSystemFactoryInterface@Base 5.0.2
 _ZTV28QMediaGaplessPlaybackControl@Base 5.0.2
 _ZTV28QVideoEncoderSettingsControl@Base 5.0.2
 _ZTV29QCameraImageProcessingControl@Base 5.0.2
 _ZTV29QMediaNetworkPlaylistProvider@Base 5.0.2
 _ZTV30QVideoOutputOrientationHandler@Base 5.2.0
 _ZTV32QCameraCaptureDestinationControl@Base 5.0.2
 _ZTV32QCameraViewfinderSettingsControl@Base 5.0.2
 _ZTV32QMediaPlayerResourceSetInterface@Base 5.0.2
 _ZTV33QCameraCaptureBufferFormatControl@Base 5.0.2
 _ZTV33QMediaResourceSetFactoryInterface@Base 5.0.2
 _ZTV37QMediaServiceProviderFactoryInterface@Base 5.0.2
 _ZTV6QSound@Base 5.0.2
 _ZTV7QCamera@Base 5.0.2
 _ZTV7QSample@Base 5.0.2
 _ZeqRK15QMediaTimeRangeS1_@Base 5.0.2
 _ZeqRK18QMediaTimeIntervalS1_@Base 5.0.2
 _Zls6QDebugN11QVideoFrame11PixelFormatE@Base 5.0.2
 _Zls6QDebugN11QVideoFrame9FieldTypeE@Base 5.0.2
 _Zls6QDebugN12QAudioFormat10SampleTypeE@Base 5.0.2
 _Zls6QDebugN12QAudioFormat6EndianE@Base 5.0.2
 _Zls6QDebugN19QVideoSurfaceFormat15YCbCrColorSpaceE@Base 5.0.2
 _Zls6QDebugN19QVideoSurfaceFormat9DirectionE@Base 5.0.2
 _Zls6QDebugN20QAbstractVideoBuffer10HandleTypeE@Base 5.0.2
 _Zls6QDebugN20QAbstractVideoBuffer7MapModeE@Base 5.0.2
 _Zls6QDebugN6QAudio4ModeE@Base 5.0.2
 _Zls6QDebugN6QAudio5ErrorE@Base 5.0.2
 _Zls6QDebugN6QAudio5StateE@Base 5.0.2
 _Zls6QDebugRK11QCameraInfo@Base 5.3.0
 _Zls6QDebugRK11QVideoFrame@Base 5.0.2
 _Zls6QDebugRK12QAudioFormat@Base 5.0.2
 _Zls6QDebugRK15QMediaTimeRange@Base 5.0.2
 _Zls6QDebugRK19QVideoSurfaceFormat@Base 5.0.2
 _Zls6QDebugRKN21QAbstractVideoSurface5ErrorE@Base 5.0.2
 _ZmiRK15QMediaTimeRangeS1_@Base 5.0.2
 _ZneRK15QMediaTimeRangeS1_@Base 5.0.2
 _ZneRK18QMediaTimeIntervalS1_@Base 5.0.2
 _ZplRK15QMediaTimeRangeS1_@Base 5.0.2
 (c++)"non-virtual thunk to QAudioRecorder::~QAudioRecorder()@Base" 5.0.2
 (c++)"non-virtual thunk to QAudioSystemPlugin::~QAudioSystemPlugin()@Base" 5.0.2
 (c++)"non-virtual thunk to QCameraImageCapture::mediaObject() const@Base" 5.0.2
 (c++)"non-virtual thunk to QCameraImageCapture::setMediaObject(QMediaObject*)@Base" 5.0.2
 (c++)"non-virtual thunk to QCameraImageCapture::~QCameraImageCapture()@Base" 5.0.2
 (c++)"non-virtual thunk to QMediaPlaylist::mediaObject() const@Base" 5.0.2
 (c++)"non-virtual thunk to QMediaPlaylist::setMediaObject(QMediaObject*)@Base" 5.0.2
 (c++)"non-virtual thunk to QMediaPlaylist::~QMediaPlaylist()@Base" 5.0.2
 (c++)"non-virtual thunk to QMediaRecorder::mediaObject() const@Base" 5.0.2
 (c++)"non-virtual thunk to QMediaRecorder::setMediaObject(QMediaObject*)@Base" 5.0.2
 (c++)"non-virtual thunk to QMediaRecorder::~QMediaRecorder()@Base" 5.0.2
 (c++)"non-virtual thunk to QRadioData::mediaObject() const@Base" 5.0.2
 (c++)"non-virtual thunk to QRadioData::setMediaObject(QMediaObject*)@Base" 5.0.2
 (c++)"non-virtual thunk to QRadioData::~QRadioData()@Base" 5.0.2
