# SymbolsHelper-Confirmed: 5.4.1 amd64
libQt5MultimediaQuick_p.so.5 libqt5multimediaquick-p5 #MINVER#
 _ZN12QSGVideoNode23setTexturedRectGeometryERK6QRectFS2_i@Base 5.0.2
 _ZN12QSGVideoNodeC1Ev@Base 5.0.2
 _ZN12QSGVideoNodeC2Ev@Base 5.0.2
 _ZN23QDeclarativeVideoOutput10itemChangeEN10QQuickItem10ItemChangeERKNS0_14ItemChangeDataE@Base 5.3.0
 _ZN23QDeclarativeVideoOutput11qt_metacallEN11QMetaObject4CallEiPPv@Base 5.3.0
 _ZN23QDeclarativeVideoOutput11qt_metacastEPKc@Base 5.3.0
 _ZN23QDeclarativeVideoOutput11setFillModeENS_8FillModeE@Base 5.3.0
 _ZN23QDeclarativeVideoOutput13createBackendEP13QMediaService@Base 5.3.0
 _ZN23QDeclarativeVideoOutput13sourceChangedEv@Base 5.3.0
 _ZN23QDeclarativeVideoOutput14setOrientationEi@Base 5.3.0
 _ZN23QDeclarativeVideoOutput15fillModeChangedENS_8FillModeE@Base 5.3.0
 _ZN23QDeclarativeVideoOutput15geometryChangedERK6QRectFS2_@Base 5.3.0
 _ZN23QDeclarativeVideoOutput15updatePaintNodeEP7QSGNodePN10QQuickItem19UpdatePaintNodeDataE@Base 5.3.0
 _ZN23QDeclarativeVideoOutput16staticMetaObjectE@Base 5.3.0
 _ZN23QDeclarativeVideoOutput17_q_updateGeometryEv@Base 5.3.0
 _ZN23QDeclarativeVideoOutput17sourceRectChangedEv@Base 5.3.0
 _ZN23QDeclarativeVideoOutput18contentRectChangedEv@Base 5.3.0
 _ZN23QDeclarativeVideoOutput18orientationChangedEv@Base 5.3.0
 _ZN23QDeclarativeVideoOutput18setAutoOrientationEb@Base 5.3.0
 _ZN23QDeclarativeVideoOutput19_q_updateCameraInfoEv@Base 5.4.1
 _ZN23QDeclarativeVideoOutput19_q_updateNativeSizeEv@Base 5.3.0
 _ZN23QDeclarativeVideoOutput20_q_updateMediaObjectEv@Base 5.3.0
 _ZN23QDeclarativeVideoOutput22autoOrientationChangedEv@Base 5.3.0
 _ZN23QDeclarativeVideoOutput27_q_screenOrientationChangedEi@Base 5.3.0
 _ZN23QDeclarativeVideoOutput9setSourceEP7QObject@Base 5.3.0
 _ZN23QDeclarativeVideoOutputC1EP10QQuickItem@Base 5.3.0
 _ZN23QDeclarativeVideoOutputC2EP10QQuickItem@Base 5.3.0
 _ZN23QDeclarativeVideoOutputD0Ev@Base 5.3.0
 _ZN23QDeclarativeVideoOutputD1Ev@Base 5.3.0
 _ZN23QDeclarativeVideoOutputD2Ev@Base 5.3.0
 _ZN25QSGVideoNodeFactoryPlugin11qt_metacallEN11QMetaObject4CallEiPPv@Base 5.2.0
 _ZN25QSGVideoNodeFactoryPlugin11qt_metacastEPKc@Base 5.2.0
 _ZN25QSGVideoNodeFactoryPlugin16staticMetaObjectE@Base 5.2.0
 _ZNK23QDeclarativeVideoOutput10metaObjectEv@Base 5.3.0
 _ZNK23QDeclarativeVideoOutput10sourceRectEv@Base 5.3.0
 _ZNK23QDeclarativeVideoOutput10sourceTypeEv@Base 5.3.0
 _ZNK23QDeclarativeVideoOutput11contentRectEv@Base 5.3.0
 _ZNK23QDeclarativeVideoOutput11orientationEv@Base 5.3.0
 _ZNK23QDeclarativeVideoOutput13mapRectToItemERK6QRectF@Base 5.3.0
 _ZNK23QDeclarativeVideoOutput14mapPointToItemERK7QPointF@Base 5.3.0
 _ZNK23QDeclarativeVideoOutput15autoOrientationEv@Base 5.3.0
 _ZNK23QDeclarativeVideoOutput15mapRectToSourceERK6QRectF@Base 5.3.0
 _ZNK23QDeclarativeVideoOutput16mapPointToSourceERK7QPointF@Base 5.3.0
 _ZNK23QDeclarativeVideoOutput23mapNormalizedRectToItemERK6QRectF@Base 5.3.0
 _ZNK23QDeclarativeVideoOutput24mapNormalizedPointToItemERK7QPointF@Base 5.3.0
 _ZNK23QDeclarativeVideoOutput25mapRectToSourceNormalizedERK6QRectF@Base 5.3.0
 _ZNK23QDeclarativeVideoOutput26mapPointToSourceNormalizedERK7QPointF@Base 5.3.0
 _ZNK23QDeclarativeVideoOutput8fillModeEv@Base 5.3.0
 _ZNK25QSGVideoNodeFactoryPlugin10metaObjectEv@Base 5.2.0
 _ZTI12QSGVideoNode@Base 5.0.2
 _ZTI23QDeclarativeVideoOutput@Base 5.3.0
 _ZTI24QDeclarativeVideoBackend@Base 5.3.0
 _ZTI25QSGVideoNodeFactoryPlugin@Base 5.2.0
 _ZTI28QSGVideoNodeFactoryInterface@Base 5.2.0
 _ZTS12QSGVideoNode@Base 5.0.2
 _ZTS23QDeclarativeVideoOutput@Base 5.3.0
 _ZTS24QDeclarativeVideoBackend@Base 5.3.0
 _ZTS25QSGVideoNodeFactoryPlugin@Base 5.2.0
 _ZTS28QSGVideoNodeFactoryInterface@Base 5.2.0
 _ZTV12QSGVideoNode@Base 5.0.2
 _ZTV23QDeclarativeVideoOutput@Base 5.3.0
 _ZTV24QDeclarativeVideoBackend@Base 5.3.0
 _ZTV25QSGVideoNodeFactoryPlugin@Base 5.2.0
 _ZTV28QSGVideoNodeFactoryInterface@Base 5.3.1
 (c++)"non-virtual thunk to QDeclarativeVideoOutput::~QDeclarativeVideoOutput()@Base" 5.3.0
